Archive member included to satisfy reference by file (symbol)

c:/program files/microchip/xc32/v4.00/bin/bin/../../lib/gcc/pic32c/8.3.1/../../../../pic32c/lib/thumb/v7e-m+fp/hard\libpic32c.a(data_init.o)
                              build/default/production/_ext/1171490990/startup_xc32.o (__pic32c_data_initialization)
c:/program files/microchip/xc32/v4.00/bin/bin/../../lib/gcc/pic32c/8.3.1/../../../../pic32c/lib/thumb/v7e-m+fp/hard\libm-emfloat.a(floatasmops_arm.o)
                              build/default/production/_ext/1033058136/iperf.o (__aeabi_dadd)
c:/program files/microchip/xc32/v4.00/bin/bin/../../lib/gcc/pic32c/8.3.1/../../../../pic32c/lib/thumb/v7e-m+fp/hard\libc-musl.a(isxdigit.o)
                              build/default/production/_ext/1033058136/tcpip_helpers.o (isxdigit)
c:/program files/microchip/xc32/v4.00/bin/bin/../../lib/gcc/pic32c/8.3.1/../../../../pic32c/lib/thumb/v7e-m+fp/hard\libc-musl.a(tolower.o)
                              build/default/production/_ext/1033058136/helpers.o (tolower)
c:/program files/microchip/xc32/v4.00/bin/bin/../../lib/gcc/pic32c/8.3.1/../../../../pic32c/lib/thumb/v7e-m+fp/hard\libc-musl.a(toupper.o)
                              build/default/production/_ext/1033058136/tcpip_helpers.o (toupper)
c:/program files/microchip/xc32/v4.00/bin/bin/../../lib/gcc/pic32c/8.3.1/../../../../pic32c/lib/thumb/v7e-m+fp/hard\libc-musl.a(__libc_start_main.o)
                              build/default/production/_ext/1171490990/startup_xc32.o (__libc_init_array)
c:/program files/microchip/xc32/v4.00/bin/bin/../../lib/gcc/pic32c/8.3.1/../../../../pic32c/lib/thumb/v7e-m+fp/hard\libc-musl.a(__errno_location.o)
                              build/default/production/_ext/1033058136/berkeley_api.o (__errno_val)
c:/program files/microchip/xc32/v4.00/bin/bin/../../lib/gcc/pic32c/8.3.1/../../../../pic32c/lib/thumb/v7e-m+fp/hard\libc-musl.a(libc.o)
                              c:/program files/microchip/xc32/v4.00/bin/bin/../../lib/gcc/pic32c/8.3.1/../../../../pic32c/lib/thumb/v7e-m+fp/hard\libc-musl.a(__libc_start_main.o) (__progname_full)
c:/program files/microchip/xc32/v4.00/bin/bin/../../lib/gcc/pic32c/8.3.1/../../../../pic32c/lib/thumb/v7e-m+fp/hard\libc-musl.a(calloc.o)
                              build/default/production/_ext/1033058136/berkeley_api.o (calloc)
c:/program files/microchip/xc32/v4.00/bin/bin/../../lib/gcc/pic32c/8.3.1/../../../../pic32c/lib/thumb/v7e-m+fp/hard\libc-musl.a(malloc.o)
                              build/default/production/_ext/1645245335/crypto.o (free)
c:/program files/microchip/xc32/v4.00/bin/bin/../../lib/gcc/pic32c/8.3.1/../../../../pic32c/lib/thumb/v7e-m+fp/hard\libc-musl.a(expand_heap.o)
                              c:/program files/microchip/xc32/v4.00/bin/bin/../../lib/gcc/pic32c/8.3.1/../../../../pic32c/lib/thumb/v7e-m+fp/hard\libc-musl.a(malloc.o) (__expand_heap)
c:/program files/microchip/xc32/v4.00/bin/bin/../../lib/gcc/pic32c/8.3.1/../../../../pic32c/lib/thumb/v7e-m+fp/hard\libc-musl.a(rand.o)
                              build/default/production/_ext/1664057780/random.o (srand)
c:/program files/microchip/xc32/v4.00/bin/bin/../../lib/gcc/pic32c/8.3.1/../../../../pic32c/lib/thumb/v7e-m+fp/hard\libc-musl.a(vsnprintf.o)
                              build/default/production/_ext/1376093119/sys_command.o (vsnprintf)
c:/program files/microchip/xc32/v4.00/bin/bin/../../lib/gcc/pic32c/8.3.1/../../../../pic32c/lib/thumb/v7e-m+fp/hard\libc-musl.a(snprintf.o)
                              (snprintf)
c:/program files/microchip/xc32/v4.00/bin/bin/../../lib/gcc/pic32c/8.3.1/../../../../pic32c/lib/thumb/v7e-m+fp/hard\libc-musl.a(sprintf.o)
                              (sprintf)
c:/program files/microchip/xc32/v4.00/bin/bin/../../lib/gcc/pic32c/8.3.1/../../../../pic32c/lib/thumb/v7e-m+fp/hard\libc-musl.a(vsprintf.o)
                              c:/program files/microchip/xc32/v4.00/bin/bin/../../lib/gcc/pic32c/8.3.1/../../../../pic32c/lib/thumb/v7e-m+fp/hard\libc-musl.a(sprintf.o) (vsprintf)
c:/program files/microchip/xc32/v4.00/bin/bin/../../lib/gcc/pic32c/8.3.1/../../../../pic32c/lib/thumb/v7e-m+fp/hard\libc-musl.a(atoi.o)
                              build/default/production/_ext/1033058136/ftp.o (atoi)
c:/program files/microchip/xc32/v4.00/bin/bin/../../lib/gcc/pic32c/8.3.1/../../../../pic32c/lib/thumb/v7e-m+fp/hard\libc-musl.a(strtol.o)
                              build/default/production/_ext/1033058136/tcpip_helpers.o (strtol)
c:/program files/microchip/xc32/v4.00/bin/bin/../../lib/gcc/pic32c/8.3.1/../../../../pic32c/lib/thumb/v7e-m+fp/hard\libc-musl.a(memcmp.o)
                              build/default/production/_ext/1546807373/drv_gmac.o (memcmp)
c:/program files/microchip/xc32/v4.00/bin/bin/../../lib/gcc/pic32c/8.3.1/../../../../pic32c/lib/thumb/v7e-m+fp/hard\libc-musl.a(memcpy.o)
                              build/default/production/_ext/1751889202/sys_fs_shell.o (memcpy)
c:/program files/microchip/xc32/v4.00/bin/bin/../../lib/gcc/pic32c/8.3.1/../../../../pic32c/lib/thumb/v7e-m+fp/hard\libc-musl.a(memmove.o)
                              build/default/production/_ext/1664057780/asn.o (memmove)
c:/program files/microchip/xc32/v4.00/bin/bin/../../lib/gcc/pic32c/8.3.1/../../../../pic32c/lib/thumb/v7e-m+fp/hard\libc-musl.a(memset.o)
                              build/default/production/_ext/444070925/drv_ethphy.o (memset)
c:/program files/microchip/xc32/v4.00/bin/bin/../../lib/gcc/pic32c/8.3.1/../../../../pic32c/lib/thumb/v7e-m+fp/hard\libc-musl.a(strlen.o)
                              build/default/production/_ext/1751889202/sys_fs_shell.o (strlen)
c:/program files/microchip/xc32/v4.00/bin/bin/../../lib/gcc/pic32c/8.3.1/../../../../pic32c/lib/thumb/v7e-m+fp/hard\libc-musl.a(strstr.o)
                              build/default/production/_ext/1751889202/sys_fs_shell.o (strstr)
c:/program files/microchip/xc32/v4.00/bin/bin/../../lib/gcc/pic32c/8.3.1/../../../../pic32c/lib/thumb/v7e-m+fp/hard\libc-musl.a(strchr.o)
                              build/default/production/_ext/1376093119/sys_command.o (strchr)
c:/program files/microchip/xc32/v4.00/bin/bin/../../lib/gcc/pic32c/8.3.1/../../../../pic32c/lib/thumb/v7e-m+fp/hard\libc-musl.a(strchrnul.o)
                              c:/program files/microchip/xc32/v4.00/bin/bin/../../lib/gcc/pic32c/8.3.1/../../../../pic32c/lib/thumb/v7e-m+fp/hard\libc-musl.a(strchr.o) (__strchrnul)
c:/program files/microchip/xc32/v4.00/bin/bin/../../lib/gcc/pic32c/8.3.1/../../../../pic32c/lib/thumb/v7e-m+fp/hard\libc-musl.a(strcmp.o)
                              build/default/production/_ext/1033058136/dns.o (strcmp)
c:/program files/microchip/xc32/v4.00/bin/bin/../../lib/gcc/pic32c/8.3.1/../../../../pic32c/lib/thumb/v7e-m+fp/hard\libc-musl.a(strcpy.o)
                              build/default/production/_ext/1751889202/sys_fs_shell.o (strcpy)
c:/program files/microchip/xc32/v4.00/bin/bin/../../lib/gcc/pic32c/8.3.1/../../../../pic32c/lib/thumb/v7e-m+fp/hard\libc-musl.a(strncmp.o)
                              build/default/production/_ext/1376093119/sys_command.o (strncmp)
c:/program files/microchip/xc32/v4.00/bin/bin/../../lib/gcc/pic32c/8.3.1/../../../../pic32c/lib/thumb/v7e-m+fp/hard\libc-musl.a(strncpy.o)
                              build/default/production/_ext/1645245335/crypto.o (strncpy)
c:/program files/microchip/xc32/v4.00/bin/bin/../../lib/gcc/pic32c/8.3.1/../../../../pic32c/lib/thumb/v7e-m+fp/hard\libc-musl.a(strtok.o)
                              build/default/production/_ext/1376093119/sys_command.o (strtok)
c:/program files/microchip/xc32/v4.00/bin/bin/../../lib/gcc/pic32c/8.3.1/../../../../pic32c/lib/thumb/v7e-m+fp/hard\libc-musl.a(gmtime.o)
                              build/default/production/_ext/1664057780/asn.o (gmtime)
c:/program files/microchip/xc32/v4.00/bin/bin/../../lib/gcc/pic32c/8.3.1/../../../../pic32c/lib/thumb/v7e-m+fp/hard\libc-musl.a(gmtime_r.o)
                              c:/program files/microchip/xc32/v4.00/bin/bin/../../lib/gcc/pic32c/8.3.1/../../../../pic32c/lib/thumb/v7e-m+fp/hard\libc-musl.a(gmtime.o) (__gmtime_r)
c:/program files/microchip/xc32/v4.00/bin/bin/../../lib/gcc/pic32c/8.3.1/../../../../pic32c/lib/thumb/v7e-m+fp/hard\libc-musl.a(__tz.o)
                              c:/program files/microchip/xc32/v4.00/bin/bin/../../lib/gcc/pic32c/8.3.1/../../../../pic32c/lib/thumb/v7e-m+fp/hard\libc-musl.a(gmtime_r.o) (__gmt)
c:/program files/microchip/xc32/v4.00/bin/bin/../../lib/gcc/pic32c/8.3.1/../../../../pic32c/lib/thumb/v7e-m+fp/hard\libc-musl.a(time.o)
                              build/default/production/_ext/1664057780/asn.o (time)
c:/program files/microchip/xc32/v4.00/bin/bin/../../lib/gcc/pic32c/8.3.1/../../../../pic32c/lib/thumb/v7e-m+fp/hard\libc-musl.a(__environ.o)
                              c:/program files/microchip/xc32/v4.00/bin/bin/../../lib/gcc/pic32c/8.3.1/../../../../pic32c/lib/thumb/v7e-m+fp/hard\libc-musl.a(__libc_start_main.o) (__environ)
c:/program files/microchip/xc32/v4.00/bin/bin/../../lib/gcc/pic32c/8.3.1/../../../../pic32c/lib/thumb/v7e-m+fp/hard\libc-musl.a(intscan.o)
                              c:/program files/microchip/xc32/v4.00/bin/bin/../../lib/gcc/pic32c/8.3.1/../../../../pic32c/lib/thumb/v7e-m+fp/hard\libc-musl.a(strtol.o) (__intscan)
c:/program files/microchip/xc32/v4.00/bin/bin/../../lib/gcc/pic32c/8.3.1/../../../../pic32c/lib/thumb/v7e-m+fp/hard\libc-musl.a(shgetc.o)
                              c:/program files/microchip/xc32/v4.00/bin/bin/../../lib/gcc/pic32c/8.3.1/../../../../pic32c/lib/thumb/v7e-m+fp/hard\libc-musl.a(strtol.o) (__shlim)
c:/program files/microchip/xc32/v4.00/bin/bin/../../lib/gcc/pic32c/8.3.1/../../../../pic32c/lib/thumb/v7e-m+fp/hard\libc-musl.a(__uflow.o)
                              c:/program files/microchip/xc32/v4.00/bin/bin/../../lib/gcc/pic32c/8.3.1/../../../../pic32c/lib/thumb/v7e-m+fp/hard\libc-musl.a(shgetc.o) (__uflow)
c:/program files/microchip/xc32/v4.00/bin/bin/../../lib/gcc/pic32c/8.3.1/../../../../pic32c/lib/thumb/v7e-m+fp/hard\libc-musl.a(vfprintf.o)
                              c:/program files/microchip/xc32/v4.00/bin/bin/../../lib/gcc/pic32c/8.3.1/../../../../pic32c/lib/thumb/v7e-m+fp/hard\libc-musl.a(vsnprintf.o) (vfprintf)
c:/program files/microchip/xc32/v4.00/bin/bin/../../lib/gcc/pic32c/8.3.1/../../../../pic32c/lib/thumb/v7e-m+fp/hard\libc-musl.a(stpcpy.o)
                              c:/program files/microchip/xc32/v4.00/bin/bin/../../lib/gcc/pic32c/8.3.1/../../../../pic32c/lib/thumb/v7e-m+fp/hard\libc-musl.a(strcpy.o) (__stpcpy)
c:/program files/microchip/xc32/v4.00/bin/bin/../../lib/gcc/pic32c/8.3.1/../../../../pic32c/lib/thumb/v7e-m+fp/hard\libc-musl.a(stpncpy.o)
                              c:/program files/microchip/xc32/v4.00/bin/bin/../../lib/gcc/pic32c/8.3.1/../../../../pic32c/lib/thumb/v7e-m+fp/hard\libc-musl.a(strncpy.o) (__stpncpy)
c:/program files/microchip/xc32/v4.00/bin/bin/../../lib/gcc/pic32c/8.3.1/../../../../pic32c/lib/thumb/v7e-m+fp/hard\libc-musl.a(strcspn.o)
                              c:/program files/microchip/xc32/v4.00/bin/bin/../../lib/gcc/pic32c/8.3.1/../../../../pic32c/lib/thumb/v7e-m+fp/hard\libc-musl.a(strtok.o) (strcspn)
c:/program files/microchip/xc32/v4.00/bin/bin/../../lib/gcc/pic32c/8.3.1/../../../../pic32c/lib/thumb/v7e-m+fp/hard\libc-musl.a(strspn.o)
                              c:/program files/microchip/xc32/v4.00/bin/bin/../../lib/gcc/pic32c/8.3.1/../../../../pic32c/lib/thumb/v7e-m+fp/hard\libc-musl.a(strtok.o) (strspn)
c:/program files/microchip/xc32/v4.00/bin/bin/../../lib/gcc/pic32c/8.3.1/../../../../pic32c/lib/thumb/v7e-m+fp/hard\libc-musl.a(__month_to_secs.o)
                              c:/program files/microchip/xc32/v4.00/bin/bin/../../lib/gcc/pic32c/8.3.1/../../../../pic32c/lib/thumb/v7e-m+fp/hard\libc-musl.a(__tz.o) (__month_to_secs)
c:/program files/microchip/xc32/v4.00/bin/bin/../../lib/gcc/pic32c/8.3.1/../../../../pic32c/lib/thumb/v7e-m+fp/hard\libc-musl.a(__secs_to_tm.o)
                              c:/program files/microchip/xc32/v4.00/bin/bin/../../lib/gcc/pic32c/8.3.1/../../../../pic32c/lib/thumb/v7e-m+fp/hard\libc-musl.a(gmtime_r.o) (__secs_to_tm)
c:/program files/microchip/xc32/v4.00/bin/bin/../../lib/gcc/pic32c/8.3.1/../../../../pic32c/lib/thumb/v7e-m+fp/hard\libc-musl.a(__year_to_secs.o)
                              c:/program files/microchip/xc32/v4.00/bin/bin/../../lib/gcc/pic32c/8.3.1/../../../../pic32c/lib/thumb/v7e-m+fp/hard\libc-musl.a(__tz.o) (__year_to_secs)
c:/program files/microchip/xc32/v4.00/bin/bin/../../lib/gcc/pic32c/8.3.1/../../../../pic32c/lib/thumb/v7e-m+fp/hard\libc-musl.a(clock_gettime.o)
                              c:/program files/microchip/xc32/v4.00/bin/bin/../../lib/gcc/pic32c/8.3.1/../../../../pic32c/lib/thumb/v7e-m+fp/hard\libc-musl.a(time.o) (__clock_gettime)
c:/program files/microchip/xc32/v4.00/bin/bin/../../lib/gcc/pic32c/8.3.1/../../../../pic32c/lib/thumb/v7e-m+fp/hard\libc-musl.a(gettimeofday.o)
                              c:/program files/microchip/xc32/v4.00/bin/bin/../../lib/gcc/pic32c/8.3.1/../../../../pic32c/lib/thumb/v7e-m+fp/hard\libc-musl.a(clock_gettime.o) (gettimeofday)
c:/program files/microchip/xc32/v4.00/bin/bin/../../lib/gcc/pic32c/8.3.1/../../../../pic32c/lib/thumb/v7e-m+fp/hard\libc-musl.a(syscall_ret.o)
                              c:/program files/microchip/xc32/v4.00/bin/bin/../../lib/gcc/pic32c/8.3.1/../../../../pic32c/lib/thumb/v7e-m+fp/hard\libc-musl.a(clock_gettime.o) (__syscall_ret)
c:/program files/microchip/xc32/v4.00/bin/bin/../../lib/gcc/pic32c/8.3.1/../../../../pic32c/lib/thumb/v7e-m+fp/hard\libc-musl.a(__toread.o)
                              c:/program files/microchip/xc32/v4.00/bin/bin/../../lib/gcc/pic32c/8.3.1/../../../../pic32c/lib/thumb/v7e-m+fp/hard\libc-musl.a(__uflow.o) (__toread)
c:/program files/microchip/xc32/v4.00/bin/bin/../../lib/gcc/pic32c/8.3.1/../../../../pic32c/lib/thumb/v7e-m+fp/hard\libc-musl.a(__io_fmt_needed.o)
                              c:/program files/microchip/xc32/v4.00/bin/bin/../../lib/gcc/pic32c/8.3.1/../../../../pic32c/lib/thumb/v7e-m+fp/hard\libc-musl.a(vfprintf.o) (__io_fmt_needed)
c:/program files/microchip/xc32/v4.00/bin/bin/../../lib/gcc/pic32c/8.3.1/../../../../pic32c/lib/thumb/v7e-m+fp/hard\libc-musl.a(__printf_core.o)
                              c:/program files/microchip/xc32/v4.00/bin/bin/../../lib/gcc/pic32c/8.3.1/../../../../pic32c/lib/thumb/v7e-m+fp/hard\libc-musl.a(vfprintf.o) (__printf_core)
c:/program files/microchip/xc32/v4.00/bin/bin/../../lib/gcc/pic32c/8.3.1/../../../../pic32c/lib/thumb/v7e-m+fp/hard\libc-musl.a(__stdio_exit.o)
                              c:/program files/microchip/xc32/v4.00/bin/bin/../../lib/gcc/pic32c/8.3.1/../../../../pic32c/lib/thumb/v7e-m+fp/hard\libc-musl.a(__toread.o) (__stdio_exit_needed)
c:/program files/microchip/xc32/v4.00/bin/bin/../../lib/gcc/pic32c/8.3.1/../../../../pic32c/lib/thumb/v7e-m+fp/hard\libc-musl.a(__fmt_a.o)
                              c:/program files/microchip/xc32/v4.00/bin/bin/../../lib/gcc/pic32c/8.3.1/../../../../pic32c/lib/thumb/v7e-m+fp/hard\libc-musl.a(__io_fmt_needed.o) (__fmt_a_needed)
c:/program files/microchip/xc32/v4.00/bin/bin/../../lib/gcc/pic32c/8.3.1/../../../../pic32c/lib/thumb/v7e-m+fp/hard\libc-musl.a(__fmt_d.o)
                              c:/program files/microchip/xc32/v4.00/bin/bin/../../lib/gcc/pic32c/8.3.1/../../../../pic32c/lib/thumb/v7e-m+fp/hard\libc-musl.a(__io_fmt_needed.o) (__fmt_d_needed)
c:/program files/microchip/xc32/v4.00/bin/bin/../../lib/gcc/pic32c/8.3.1/../../../../pic32c/lib/thumb/v7e-m+fp/hard\libc-musl.a(__fmt_fp.o)
                              c:/program files/microchip/xc32/v4.00/bin/bin/../../lib/gcc/pic32c/8.3.1/../../../../pic32c/lib/thumb/v7e-m+fp/hard\libc-musl.a(__io_fmt_needed.o) (__fmt_f_needed)
c:/program files/microchip/xc32/v4.00/bin/bin/../../lib/gcc/pic32c/8.3.1/../../../../pic32c/lib/thumb/v7e-m+fp/hard\libc-musl.a(__fmt_o.o)
                              c:/program files/microchip/xc32/v4.00/bin/bin/../../lib/gcc/pic32c/8.3.1/../../../../pic32c/lib/thumb/v7e-m+fp/hard\libc-musl.a(__io_fmt_needed.o) (__fmt_o_needed)
c:/program files/microchip/xc32/v4.00/bin/bin/../../lib/gcc/pic32c/8.3.1/../../../../pic32c/lib/thumb/v7e-m+fp/hard\libc-musl.a(__fmt_s.o)
                              c:/program files/microchip/xc32/v4.00/bin/bin/../../lib/gcc/pic32c/8.3.1/../../../../pic32c/lib/thumb/v7e-m+fp/hard\libc-musl.a(__io_fmt_needed.o) (__fmt_s_needed)
c:/program files/microchip/xc32/v4.00/bin/bin/../../lib/gcc/pic32c/8.3.1/../../../../pic32c/lib/thumb/v7e-m+fp/hard\libc-musl.a(__fmt_u.o)
                              c:/program files/microchip/xc32/v4.00/bin/bin/../../lib/gcc/pic32c/8.3.1/../../../../pic32c/lib/thumb/v7e-m+fp/hard\libc-musl.a(__fmt_d.o) (__cvt_u)
c:/program files/microchip/xc32/v4.00/bin/bin/../../lib/gcc/pic32c/8.3.1/../../../../pic32c/lib/thumb/v7e-m+fp/hard\libc-musl.a(__fmt_x.o)
                              c:/program files/microchip/xc32/v4.00/bin/bin/../../lib/gcc/pic32c/8.3.1/../../../../pic32c/lib/thumb/v7e-m+fp/hard\libc-musl.a(__io_fmt_needed.o) (__fmt_x_needed)
c:/program files/microchip/xc32/v4.00/bin/bin/../../lib/gcc/pic32c/8.3.1/../../../../pic32c/lib/thumb/v7e-m+fp/hard\libc-musl.a(__pop_float.o)
                              c:/program files/microchip/xc32/v4.00/bin/bin/../../lib/gcc/pic32c/8.3.1/../../../../pic32c/lib/thumb/v7e-m+fp/hard\libc-musl.a(__printf_core.o) (__pop_float)
c:/program files/microchip/xc32/v4.00/bin/bin/../../lib/gcc/pic32c/8.3.1/../../../../pic32c/lib/thumb/v7e-m+fp/hard\libc-musl.a(__pop_int.o)
                              c:/program files/microchip/xc32/v4.00/bin/bin/../../lib/gcc/pic32c/8.3.1/../../../../pic32c/lib/thumb/v7e-m+fp/hard\libc-musl.a(__printf_core.o) (__pop_int)
c:/program files/microchip/xc32/v4.00/bin/bin/../../lib/gcc/pic32c/8.3.1/../../../../pic32c/lib/thumb/v7e-m+fp/hard\libc-musl.a(__pop_ptr.o)
                              c:/program files/microchip/xc32/v4.00/bin/bin/../../lib/gcc/pic32c/8.3.1/../../../../pic32c/lib/thumb/v7e-m+fp/hard\libc-musl.a(__printf_core.o) (__pop_ptr)
c:/program files/microchip/xc32/v4.00/bin/bin/../../lib/gcc/pic32c/8.3.1/../../../../pic32c/lib/thumb/v7e-m+fp/hard\libm-emfloat.a(lib_a-_FLOOR.o)
                              c:/program files/microchip/xc32/v4.00/bin/bin/../../lib/gcc/pic32c/8.3.1/../../../../pic32c/lib/thumb/v7e-m+fp/hard\libc-musl.a(__fmt_a.o) (floor)
c:/program files/microchip/xc32/v4.00/bin/bin/../../lib/gcc/pic32c/8.3.1/../../../../pic32c/lib/thumb/v7e-m+fp/hard\libm-emfloat.a(lib_a-_FMA.o)
                              c:/program files/microchip/xc32/v4.00/bin/bin/../../lib/gcc/pic32c/8.3.1/../../../../pic32c/lib/thumb/v7e-m+fp/hard\libc-musl.a(__fmt_fp.o) (fma)
c:/program files/microchip/xc32/v4.00/bin/bin/../../lib/gcc/pic32c/8.3.1/../../../../pic32c/lib/thumb/v7e-m+fp/hard\libm-emfloat.a(lib_a-_ILOGB.o)
                              c:/program files/microchip/xc32/v4.00/bin/bin/../../lib/gcc/pic32c/8.3.1/../../../../pic32c/lib/thumb/v7e-m+fp/hard\libm-emfloat.a(lib_a-_FLOOR.o) (ilogb)
c:/program files/microchip/xc32/v4.00/bin/bin/../../lib/gcc/pic32c/8.3.1/../../../../pic32c/lib/thumb/v7e-m+fp/hard\libm-emfloat.a(lib_a-_LDEXP.o)
                              c:/program files/microchip/xc32/v4.00/bin/bin/../../lib/gcc/pic32c/8.3.1/../../../../pic32c/lib/thumb/v7e-m+fp/hard\libm-emfloat.a(lib_a-_FLOOR.o) (ldexp)
c:/program files/microchip/xc32/v4.00/bin/bin/../../lib/gcc/pic32c/8.3.1/thumb/v7e-m+fp/hard\libgcc.a(_aeabi_ldivmod.o)
                              c:/program files/microchip/xc32/v4.00/bin/bin/../../lib/gcc/pic32c/8.3.1/../../../../pic32c/lib/thumb/v7e-m+fp/hard\libc-musl.a(__tz.o) (__aeabi_ldivmod)
c:/program files/microchip/xc32/v4.00/bin/bin/../../lib/gcc/pic32c/8.3.1/thumb/v7e-m+fp/hard\libgcc.a(_aeabi_uldivmod.o)
                              build/default/production/_ext/1033058136/tcp.o (__aeabi_uldivmod)
c:/program files/microchip/xc32/v4.00/bin/bin/../../lib/gcc/pic32c/8.3.1/thumb/v7e-m+fp/hard\libgcc.a(_udivmoddi4.o)
                              c:/program files/microchip/xc32/v4.00/bin/bin/../../lib/gcc/pic32c/8.3.1/thumb/v7e-m+fp/hard\libgcc.a(_aeabi_ldivmod.o) (__udivmoddi4)
c:/program files/microchip/xc32/v4.00/bin/bin/../../lib/gcc/pic32c/8.3.1/thumb/v7e-m+fp/hard\libgcc.a(_dvmd_tls.o)
                              c:/program files/microchip/xc32/v4.00/bin/bin/../../lib/gcc/pic32c/8.3.1/thumb/v7e-m+fp/hard\libgcc.a(_aeabi_ldivmod.o) (__aeabi_ldiv0)
c:/program files/microchip/xc32/v4.00/bin/bin/../../lib/gcc/pic32c/8.3.1/../../../../pic32c/lib/thumb/v7e-m+fp/hard\libpic32c.a(sbrk.o)
                              c:/program files/microchip/xc32/v4.00/bin/bin/../../lib/gcc/pic32c/8.3.1/../../../../pic32c/lib/thumb/v7e-m+fp/hard\libc-musl.a(expand_heap.o) (_sbrk)

Microchip PIC32 Memory-Usage Report

ROM Program-Memory Usage
section                    address  length [bytes]      (dec)  Description
-------                 ----------  -------------------------  -----------
.vectors                         0          0x264         612   
.text                        0x264           0x20          32  App's exec code 
.ARM.exidx                   0x284            0x8           8   
.text.TCPIP_FTP_CmdsExe      0x28c         0x19ac        6572   
.text.DRV_SDMMC_Tasks       0x1c38         0x197c        6524   
.text.TCPIP_TCP_Task        0x35b4          0xe2c        3628   
.text.TCPIP_IPERF_Task      0x43e0          0xd34        3380   
.rodata                     0x5114          0xaa4        2724  Read-only const 
.dinit                      0x5bb8          0x910        2320   
.text.f_mkfs                0x64c8          0x7f4        2036   
.rodata.macPIC32CHwRegD     0x6cbc          0x708        1800   
.rodata                     0x73c4          0x6cc        1740  Read-only const 
.text.TCPIP_STACK_Task      0x7a90          0x5fc        1532   
.text._TcpSend              0x808c          0x5e0        1504   
.text.CommandIperfStart     0x866c          0x5c0        1472   
.rodata                     0x8c2c          0x498        1176  Read-only const 
.text.DRV_EXTPHY_MDIXCo     0x90c4            0x4           4   
.text.__fmt_a               0x90c8          0x498        1176   
.text.__fmt_fp              0x9560          0x488        1160   
.text.SYS_CMD_Tasks         0x99e8          0x470        1136   
.text._TCPIP_DoInitiali     0x9e58          0x428        1064   
.text._DNS_ProcessPacke     0xa280          0x3f8        1016   
.text.SYS_FS_MEDIA_MANA     0xa678          0x3f8        1016   
.text.GenericTxStart        0xaa70          0x3cc         972   
.text.follow_path           0xae3c          0x39c         924   
.text.mount_volume          0xb1d8          0x398         920   
.text.DRV_PIC32CGMAC_Li     0xb570          0x378         888   
.text.f_printf              0xb8e8          0x350         848   
.text.TCPIP_FTP_ServerT     0xbc38          0x338         824   
.text.DRV_GMAC_Initiali     0xbf70          0x308         776   
.text.__printf_core         0xc278          0x2f4         756   
.text._TCP_Open             0xc56c          0x2f0         752   
.text.TCPIP_TCP_FifoSiz     0xc85c          0x2f0         752   
.text                       0xcb4c          0x2d0         720  App's exec code 
.text.TCPIP_ARP_Task        0xce1c          0x2c0         704   
.text.dir_register          0xd0dc          0x2b0         688   
.text._DNS_Send_Query       0xd38c          0x290         656   
.rodata                     0xd61c          0x290         656  Read-only const 
.text.f_open                0xd8ac          0x268         616   
.text.ReportBW_Jitter_L     0xdb14          0x25c         604   
.text.TCPIP_ANNOUNCE_Ta     0xdd70          0x250         592   
.text.__aeabi_dadd          0xdfc0          0x240         576   
.text.TCPIP_STACK_Bring     0xe200          0x23c         572   
.text.TCPIP_IPV4_Task       0xe43c          0x234         564   
.text.TCPIP_UDP_Options     0xe670          0x228         552   
.text.TCPIP_UDP_Flush       0xe898          0x220         544   
.text.TCPIP_DNS_ClientI     0xeab8          0x214         532   
.text.TCPIP_IPV4_PktTx      0xeccc          0x210         528   
.text.APP_Tasks             0xeedc          0x208         520   
.text.TCPIP_UDP_Task        0xf0e4          0x200         512   
.text.NET_PRES_SocketOp     0xf2e4          0x200         512   
.rodata.cvt1.8309           0xf4e4          0x1f4         500   
.text.TCPIP_ARP_Initial     0xf6d8          0x1e4         484   
.text.SERCOM1_USART_Int     0xf8bc          0x1d4         468   
.text.GenericTxEnd          0xfa90          0x1cc         460   
.text.TCPIP_FTP_ServerI     0xfc5c          0x1c8         456   
.text.f_write               0xfe24          0x1c6         454   
.text._DRV_ETHPHY_Clien     0xffea            0x2           2   
.text.dir_find              0xffec          0x1c4         452   
.text.__aeabi_ddiv         0x101b0          0x1c4         452   
.text.NET_PRES_Initiali    0x10374          0x1bc         444   
.text.DRV_PIC32CGMAC_Li    0x10530          0x1b0         432   
.text.malloc               0x106e0          0x1b0         432   
.text.DRV_GMAC_PacketRx    0x10890          0x1ac         428   
.text._DRV_ETHPHY_Defau    0x10a3c          0x1a6         422   
.text.f_read               0x10be2          0x198         408   
.text.f_lseek              0x10d7a          0x192         402   
.text.DRV_PIC32CGMAC_Li    0x10f0c          0x190         400   
.text.DRV_SDMMC_SetupXf    0x1109c          0x190         400   
.text.CommandIperfSize     0x1122c          0x190         400   
.text.create_partition     0x113bc          0x188         392   
.text.SYS_FS_MEDIA_MANA    0x11544          0x188         392   
.text.Shell_FileAbsPath    0x116cc          0x180         384   
.text.f_setlabel           0x1184c          0x180         384   
.text._UDPOpen             0x119cc          0x178         376   
.text.TCPIP_TCP_ArrayPu    0x11b44          0x170         368   
.text.get_fileinfo         0x11cb4          0x168         360   
.text.CommandHelp          0x11e1c          0x164         356   
.text.f_rename             0x11f80          0x162         354   
.text.DRV_GMAC_Reinitia    0x120e2            0x2           2   
.text.DRV_MIIM_Tasks       0x120e4          0x158         344   
.text.TCPIP_UDP_Bind       0x1223c          0x158         344   
.text.sendto               0x12394          0x148         328   
.text._TcpCloseSocket      0x124dc          0x140         320   
.text.SYS_FS_DirSearch     0x1261c          0x140         320   
.text._MACDeinit           0x1275c          0x13c         316   
.text.f_mkdir              0x12898          0x13a         314   
.text._LoadNetworkConfi    0x129d2          0x138         312   
.text.TCPIP_UDP_Options    0x12b0a          0x138         312   
.text.DRV_MIIM_Reinitia    0x12c42            0x2           2   
.text.dir_read             0x12c44          0x138         312   
.text.f_getcwd             0x12d7c          0x138         312   
.text.listen               0x12eb4          0x134         308   
.text.TCPIP_UDP_Deiniti    0x12fe8          0x134         308   
.text.closesocket          0x1311c          0x130         304   
.text.CommandIperfNetIf    0x1324c          0x130         304   
.text.__aeabi_dmul         0x1337c          0x130         304   
.text._TCPIP_HEAP_Free     0x134ac          0x12e         302   
.text._TCPIP_HEAP_Buffe    0x135da            0x2           2   
.text._DRV_SDMMC_Comman    0x135dc          0x12c         300   
.text.put_fat              0x13708          0x12c         300   
.text.TCPIP_TCP_Initial    0x13834          0x124         292   
.text.TCPIP_IPV4_Initia    0x13958          0x124         292   
.text.NET_PRES_SocketWr    0x13a7c          0x124         292   
.text.__fmt_x              0x13ba0          0x124         292   
.text.DRV_GMAC_Tasks       0x13cc4          0x120         288   
.text.DRV_PIC32CGMAC_Li    0x13de4          0x120         288   
.text.TCPIP_IPV4_Packet    0x13f04          0x120         288   
.text.TCPIP_Helper_Stri    0x14024          0x120         288   
.text.create_chain         0x14144          0x11e         286   
.text.EVSYS_Initialize     0x14262            0x2           2   
.text.DRV_GMAC_EventMas    0x14264          0x11c         284   
.text.NET_PRES_SocketRe    0x14380          0x114         276   
.text.SYS_FS_FileOpen      0x14494          0x110         272   
.text.check_fs             0x145a4          0x10c         268   
.text.TCPIP_TCP_Options    0x146b0          0x106         262   
.text.Console_UART_Task    0x147b6            0x2           2   
.text.DRV_PIC32CGMAC_Li    0x147b8          0x100         256   
.text.accept               0x148b8          0x100         256   
.rodata.uc437              0x149b8          0x100         256   
.text.DRV_SDMMC_Open       0x14ab8           0xfc         252   
.text.socket               0x14bb4           0xfc         252   
.text.CLOCK_Initialize     0x14cb0           0xf8         248   
.text.free                 0x14da8           0xf8         248   
.text.TCPIP_ANNOUNCE_In    0x14ea0           0xf4         244   
.text.SDHC1_ClockSet       0x14f94           0xf4         244   
.text.TCPIP_DNS_ClientT    0x15088           0xf0         240   
.text.TCPIP_UDP_Initial    0x15178           0xf0         240   
.text.DRV_SDMMC_Initial    0x15268           0xec         236   
.text.Shell_Cwd            0x15354           0xec         236   
.text._ARPProbeAddress     0x15440           0xec         236   
.text.SYS_FS_Shell_Crea    0x1552c           0xe8         232   
.text.SDHC1_CommandSend    0x15614           0xe8         232   
.text._DRV_MIIM_StartOp    0x156fc           0xe0         224   
.text.TCPIP_ICMP_Task      0x157dc           0xde         222   
.text.TCPIP_UDP_ArrayGe    0x158ba           0xde         222   
.text.DRV_ETHPHY_Setup     0x15998           0xdc         220   
.text.SYS_TIME_PLIBCall    0x15a74           0xdc         220   
.text.f_getfree            0x15b50           0xda         218   
.text.Dummy_Handler        0x15c2a            0x2           2   
.text._Tcpv4TxAckFnc       0x15c2c           0xd8         216   
.text.SERCOM1_USART_Wri    0x15d04           0xd8         216   
.text._cfgBsdSocket        0x15ddc           0xd4         212   
.text._DRV_ETHPHY_NegRe    0x15eb0           0xd2         210   
.text._TCPIP_HEAP_Mallo    0x15f82           0xd0         208   
.text.get_fat              0x16052           0xd0         208   
.text.NonMaskableInt_Ha    0x16122            0x2           2   
.text.TCPIP_TCP_ArrayGe    0x16124           0xcc         204   
.text.TCPIP_FTP_CreateD    0x161f0           0xcc         204   
.text.bind                 0x162bc           0xcc         204   
.text.TCPIP_UDP_OpenSer    0x16388           0xcc         204   
.text.SDHC1_InterruptHa    0x16454           0xcc         204   
.text.f_unlink             0x16520           0xcc         204   
.text.DRV_GMAC_PowerMod    0x165ec            0x4           4   
.text.floor                0x165f0           0xcc         204   
.text.DRV_GMAC_PacketTx    0x166bc           0xc8         200   
.text.DRV_PIC32CGMAC_Li    0x16784           0xc8         200   
.text.dir_next             0x1684c           0xc8         200   
.text.SYS_FS_FileSeek      0x16914           0xc8         200   
.text.SYS_FS_DirOpen       0x169dc           0xc8         200   
.text.TCPIP_TCP_Deiniti    0x16aa4           0xc4         196   
.text.TCPIP_TCP_Options    0x16b68           0xc4         196   
.text.BerkeleySocketIni    0x16c2c           0xc4         196   
.text.NET_PRES_SocketDi    0x16cf0           0xc4         196   
.text.SYS_FS_GetDisk       0x16db4           0xc4         196   
.text.f_truncate           0x16e78           0xc2         194   
.text.TCPIP_TCP_Bind       0x16f3a           0xc0         192   
.text.HardFault_Handler    0x16ffa            0x2           2   
.text.NET_PRES_Tasks       0x16ffc           0xc0         192   
.text._DRV_MIIM_ClientD    0x170bc           0xbc         188   
.text.TCPIP_IPV4_DeInit    0x17178           0xbc         188   
.text.TCPIP_HEAP_Create    0x17234           0xbc         188   
.text.TCPIP_STACK_KillS    0x172f0           0xbc         188   
.rodata.cvt2.8310          0x173ac           0xbc         188   
.text._GetMaxSegSizeOpt    0x17468           0xba         186   
.text.DebugMonitor_Hand    0x17522            0x2           2   
.text.TCPIP_IPV4_ArpHan    0x17524           0xb8         184   
.text._UDPv4TxAckFnc       0x175dc           0xb8         184   
.text.CommandIperfStop     0x17694           0xb8         184   
.text.TCPIP_IPERF_Initi    0x1774c           0xb8         184   
.rodata                    0x17804           0xb8         184  Read-only const 
.text._ARPSendIfPkt        0x178bc           0xb4         180   
.text.ff_wtoupper          0x17970           0xb4         180   
.text.SYS_TIME_HwTimerC    0x17a24           0xb4         180   
.text.dir_sdi              0x17ad8           0xb0         176   
.text.SYS_TIME_TimerObj    0x17b88           0xb0         176   
.text.NET_PRES_SocketCl    0x17c38           0xac         172   
.text.NET_PRES_SocketRe    0x17ce4           0xac         172   
.text.PORT_Initialize      0x17d90           0xac         172   
.text._TcpDisconnect       0x17e3c           0xaa         170   
.text.MemoryManagement_    0x17ee6            0x2           2   
.text._DRV_ETHPHY_Setup    0x17ee8           0xa8         168   
.text.TCPIP_TCP_ServerO    0x17f90           0xa8         168   
.text.__fmt_d              0x18038           0xa8         168   
.text.TCPIP_UDP_RemoteB    0x180e0           0xa6         166   
.text.BusFault_Handler     0x18186            0x2           2   
.text.DRV_MIIM_Setup       0x18188           0xa4         164   
.text.SYS_TIME_Initiali    0x1822c           0xa4         164   
.text._DRV_ETHPHY_Setup    0x182d0           0xa2         162   
.text.f_getlabel           0x18372           0xa2         162   
.text._ARPDeleteResourc    0x18414           0xa0         160   
.text._UDPv4AllocateSkt    0x184b4           0xa0         160   
.text.TCPIP_UDP_Disconn    0x18554           0xa0         160   
.text.NET_PRES_SocketSi    0x185f4           0xa0         160   
.text.SYS_Initialize       0x18694           0xa0         160   
.text.__pop_int            0x18734           0xa0         160   
.text._DRV_PHY_SMITrans    0x187d4           0x9e         158   
.text.UsageFault_Handle    0x18872            0x2           2   
.text.DRV_SDMMC_Close      0x18874           0x9c         156   
.text.NET_PRES_SocketSi    0x18910           0x9c         156   
.text.f_sync               0x189ac           0x9c         156   
.text.FATFS_unmount        0x18a48           0x9c         156   
.text._DRV_ETHPHY_Setup    0x18ae4           0x98         152   
.text.DRV_GMAC_Statisti    0x18b7c           0x98         152   
.text.DRV_MIIM_Operatio    0x18c14           0x98         152   
.text.TCPIP_Helper_Stri    0x18cac           0x98         152   
.text.NET_PRES_SocketWr    0x18d44           0x98         152   
.text.DisplayNodeMsg       0x18ddc           0x98         152   
.text.DRV_PIC32CGMAC_Li    0x18e74           0x94         148   
.text.TCPIP_ARP_IsResol    0x18f08           0x94         148   
.text.ascii_to_u32s        0x18f9c           0x94         148   
.text.remove_chain         0x19030           0x94         148   
.text.f_opendir            0x190c4           0x92         146   
.text.Dummy_App_Func       0x19156            0x2           2   
.text.TCPIP_STACK_Initi    0x19158           0x90         144   
.text.TCPIP_FTP_Cleanup    0x191e8           0x90         144   
.text.SYS_TIME_AddToLis    0x19278           0x90         144   
.text._UDPsetPacketInfo    0x19308           0x8c         140   
.text.NVIC_Initialize      0x19394           0x8c         140   
.text.sync_fs              0x19420           0x8c         140   
.text.SYS_FS_FileStat      0x194ac           0x8c         140   
.text._OAHashFindBkt       0x19538           0x88         136   
.text.SYS_CMDIO_ADD        0x195c0           0x88         136   
.text.SYS_FS_DirectoryM    0x19648           0x88         136   
.text.SYS_FS_FileDirect    0x196d0           0x88         136   
.rodata.FatFsFunctions     0x19758           0x88         136   
.text.Reset_Handler        0x197e0           0x88         136   
.text.__pic32c_data_ini    0x19868           0x88         136   
.text.TCPIP_IPV4_MacPac    0x198f0           0x84         132   
.text._TCPIP_PKT_Packet    0x19974           0x84         132   
.text.DRV_PIC32CGMAC_Li    0x199f8           0x82         130   
.text._DNS_ValidateIf      0x19a7a           0x82         130   
.text.TCPIP_Helper_Pack    0x19afc           0x82         130   
.text.__dummy              0x19b7e            0x2           2   
.text.DRV_ETHPHY_Vendor    0x19b80           0x80         128   
.text.DRV_ETHPHY_Vendor    0x19c00           0x80         128   
.text.DRV_MIIM_Open        0x19c80           0x80         128   
.text.TCP_SocketWasRese    0x19d00           0x80         128   
.text.BerkeleySocketDeI    0x19d80           0x80         128   
.text.SendCommandPrint     0x19e00           0x80         128   
.rodata.ExCvt              0x19e80           0x80         128   
.text.strspn               0x19f00           0x7e         126   
.text.__pad                0x19f7e           0x7e         126   
.text.DRV_ETHPHY_Vendor    0x19ffc           0x7c         124   
.text.DRV_PIC32CGMAC_Li    0x1a078           0x7c         124   
.text.SERCOM1_USART_Ini    0x1a0f4           0x7c         124   
.text.SERCOM1_USART_Rea    0x1a170           0x7c         124   
.text.FATFS_mount          0x1a1ec           0x7c         124   
.text.__pop_ptr            0x1a268           0x7c         124   
.text.TCPIP_TCP_SocketI    0x1a2e4           0x7a         122   
.text._DRV_ETHPHY_Setup    0x1a35e           0x78         120   
.text.DRV_PIC32CGMAC_Li    0x1a3d8           0x78         120   
.rodata                    0x1a450           0x78         120  Read-only const 
.text.TCPIP_Helper_Pack    0x1a4c8           0x78         120   
.rodata.TCPIP_STACK_MOD    0x1a540           0x78         120   
.text.SYS_FS_FileWrite     0x1a5b8           0x78         120   
.text.__cvt_u              0x1a630           0x78         120   
.text._DRV_GMAC_LinkSta    0x1a6a8           0x76         118   
.text.strcspn              0x1a71e           0x76         118   
.text._ARPUpdateEntry      0x1a794           0x74         116   
.text.TCPIP_ARP_EntryRe    0x1a808           0x74         116   
.text.GenericTxDone        0x1a87c           0x74         116   
.text.inc_lock             0x1a8f0           0x74         116   
.text.SYS_FS_FileRead      0x1a964           0x74         116   
.rodata                    0x1a9d8           0x74         116  Read-only const 
.text.TCPIP_PKT_DataSeg    0x1aa4c           0x72         114   
.text.__fmt_o              0x1aabe           0x72         114   
.text._DRV_ETHPHY_NegCo    0x1ab30           0x70         112   
.text.DRV_GMAC_EventAck    0x1aba0           0x70         112   
.text.DRV_GMAC_Tasks_IS    0x1ac10           0x70         112   
.text.TCPIP_IPV4_Cleanu    0x1ac80           0x70         112   
.text.TCPIP_Helper_Calc    0x1acf0           0x70         112   
.rodata.sTCPIPFTPCmdStr    0x1ad60           0x70         112   
.text.TCPIP_BSD_Task       0x1add0           0x70         112   
.text.SYS_FS_FileClose     0x1ae40           0x70         112   
.text.SYS_FS_DirClose      0x1aeb0           0x70         112   
.text.DRV_PIC32CGMAC_Li    0x1af20           0x6c         108   
.text._AllocateRxPacket    0x1af8c           0x6c         108   
.text.DRV_MIIM_Initiali    0x1aff8           0x6c         108   
.text._TcpCleanup          0x1b064           0x6c         108   
.text._TCPIPStackModule    0x1b0d0           0x6c         108   
.text.SYS_CMD_ADDGRP       0x1b13c           0x6c         108   
.text.SYS_CONSOLE_Print    0x1b1a8           0x6c         108   
.text.DRV_ETHPHY_Open      0x1b214           0x68         104   
.text.DRV_GMAC_Process     0x1b27c           0x68         104   
.text._TcpSwapHeader       0x1b2e4           0x68         104   
.text._DNS_AddSelection    0x1b34c           0x68         104   
.text.TCPIP_OAHASH_Entr    0x1b3b4           0x68         104   
.text.SDHC1_ModuleInit     0x1b41c           0x68         104   
.text.SYS_FS_FileTell      0x1b484           0x68         104   
.text.SYS_FS_FileSize      0x1b4ec           0x68         104   
.text.TCPIP_TCP_ArrayPe    0x1b554           0x66         102   
.text._DRV_ETHPHY_NegRe    0x1b5ba           0x64         100   
.text._DRV_ETHPHY_Reset    0x1b61e           0x64         100   
.text._DRV_ETHPHY_NegCo    0x1b684           0x64         100   
.text.DRV_GMAC_Register    0x1b6e8           0x64         100   
.text._MacRxPacketAck      0x1b74c           0x64         100   
.text._DRV_SDMMC_Driver    0x1b7b0           0x64         100   
.text.TCPIP_OAHASH_Entr    0x1b814           0x64         100   
.text.TCPIP_STACK_Bring    0x1b878           0x64         100   
.text._TCPIPStackInsert    0x1b8dc           0x64         100   
.text.TCPIP_UDP_SocketI    0x1b940           0x64         100   
.text.f_mount              0x1b9a4           0x64         100   
.text.TCPIP_ARP_EntryGe    0x1ba08           0x62          98   
.text._TCPIP_StackSyncF    0x1ba6a           0x62          98   
.text._DRV_SDMMC_PlibCa    0x1bacc           0x60          96   
.text.TCPIP_DNS_ClientD    0x1bb2c           0x60          96   
.text.TCP_SignalFunctio    0x1bb8c           0x60          96   
.text.f_chdir              0x1bbec           0x60          96   
.text.vsnprintf            0x1bc4c           0x60          96   
.text.__strchrnul          0x1bcac           0x60          96   
.text.DRV_MIIM_Operatio    0x1bd0c           0x5e          94   
.text.f_chmod              0x1bd6a           0x5e          94   
.rodata.DRV_ETHPHY_OBJE    0x1bdc8           0x5c          92   
.text._DRV_GMAC_LinkSta    0x1be24           0x5c          92   
.text._DRV_SDMMC_InitCa    0x1be80           0x5c          92   
.text._TcpClientSocketC    0x1bedc           0x5c          92   
.text._TCPIP_SelectDefa    0x1bf38           0x5c          92   
.rodata.sTCPIPFTPRespSt    0x1bf94           0x5c          92   
.text.chk_lock             0x1bff0           0x5c          92   
.text.get_ldnumber         0x1c04c           0x5c          92   
.text.dir_clear            0x1c0a8           0x5c          92   
.text.dir_remove           0x1c104           0x5c          92   
.text.f_utime              0x1c160           0x5c          92   
.text.SYS_FS_Initialize    0x1c1bc           0x5c          92   
.text.SYS_FS_FileEOF       0x1c218           0x5c          92   
.text.FATFS_open           0x1c274           0x5c          92   
.text.SYS_TIME_RemoveFr    0x1c2d0           0x5c          92   
.text.__libc_start_init    0x1c32c           0x5c          92   
.rodata                    0x1c388           0x5c          92  Read-only const 
.text.DRV_PIC32CGMAC_Li    0x1c3e4           0x5a          90   
.text.TCPIP_UDP_BcastIP    0x1c43e           0x5a          90   
.text.f_gets               0x1c498           0x5a          90   
.text.DRV_ETHPHY_Initia    0x1c4f4           0x58          88   
.text.DRV_GMAC_RxFilter    0x1c54c           0x58          88   
.rodata.DRV_GMAC_Object    0x1c5a4           0x58          88   
.text.DRV_SDMMC_Command    0x1c5fc           0x58          88   
.text._DNS_Enable          0x1c654           0x58          88   
.text._TCPIPStackIpAddF    0x1c6ac           0x58          88   
.text._FTPSocketRxSigna    0x1c704           0x58          88   
.text.NET_PRES_SocketOp    0x1c75c           0x58          88   
.text.NET_PRES_SocketIs    0x1c7b4           0x58          88   
.text.NET_PRES_SocketWa    0x1c80c           0x58          88   
.text.NET_PRES_SocketWa    0x1c864           0x58          88   
.text.NET_PRES_SocketCo    0x1c8bc           0x58          88   
.text.NET_PRES_SocketIn    0x1c914           0x58          88   
.text.NET_PRES_SocketFl    0x1c96c           0x58          88   
.text.SYS_TIME_TimerAdd    0x1c9c4           0x58          88   
.text.SYS_TIME_TimerSta    0x1ca1c           0x58          88   
.rodata.TCPIP_STACK_MOD    0x1ca74           0x58          88   
.rodata.netPresTransObj    0x1cacc           0x58          88   
.rodata.netPresTransObj    0x1cb24           0x58          88   
.rodata.netPresTransObj    0x1cb7c           0x58          88   
.rodata.netPresTransObj    0x1cbd4           0x58          88   
.text.unbin                0x1cc2c           0x58          88   
.text.__fmt_s              0x1cc84           0x58          88   
.text.__fmt_u              0x1ccdc           0x56          86   
.text._DRV_PHY_SMITrans    0x1cd32           0x54          84   
.text._ARPNotifyClients    0x1cd88           0x54          84   
.text._DNS_DeleteHash      0x1cddc           0x54          84   
.text._TCPIPStackAnyNet    0x1ce30           0x54          84   
.text.TCPIP_UDP_PutIsRe    0x1ce84           0x54          84   
.text.TCPIP_UDP_SocketN    0x1ced8           0x54          84   
.text.IperfSetState        0x1cf2c           0x54          84   
.text.TCPIP_IPERF_Deini    0x1cf80           0x54          84   
.text.NET_PRES_SocketBi    0x1cfd4           0x54          84   
.text.NET_PRES_SocketRe    0x1d028           0x54          84   
.text.SYS_CONSOLE_Initi    0x1d07c           0x54          84   
.text.dir_alloc            0x1d0d0           0x54          84   
.rodata                    0x1d124           0x54          84  Read-only const 
.text.SYS_FS_MEDIA_MANA    0x1d178           0x54          84   
.text.SYS_TIME_Callback    0x1d1cc           0x54          84   
.text._TcpAbort            0x1d220           0x52          82   
.text.TCPIP_TCP_RemoteB    0x1d272           0x52          82   
.text._TCPIP_HEAP_MaxSi    0x1d2c4           0x52          82   
.text.DRV_ETHPHY_LinkSt    0x1d318           0x50          80   
.text.DRV_GMAC_Paramete    0x1d368           0x50          80   
.rodata                    0x1d3b8           0x50          80  Read-only const 
.text.TCPIP_DNS_OAHASH_    0x1d408           0x50          80   
.text._TCPIPStackModule    0x1d458           0x50          80   
.text.SYS_CONSOLE_Statu    0x1d4a8           0x50          80   
.text.SYS_TIME_DelayMS     0x1d4f8           0x50          80   
.text._DRV_ETHPHY_Setup    0x1d548           0x4e          78   
.text._DRV_MIIM_GetClie    0x1d596           0x4e          78   
.text.TCPIP_IPV4_Select    0x1d5e4           0x4e          78   
.text.f_readdir            0x1d632           0x4e          78   
.text._DRV_ETHPHY_LinkS    0x1d680           0x4c          76   
.text._MacTxPendingPack    0x1d6cc           0x4c          76   
.text._TCPIP_MacEventCB    0x1d718           0x4c          76   
.text.TCPIP_ANNOUNCE_De    0x1d764           0x4c          76   
.text._UDPClose            0x1d7b0           0x4c          76   
.text.ResetIperfCounter    0x1d7fc           0x4c          76   
.text.SDHC1_ResponseRea    0x1d848           0x4c          76   
.text.__aeabi_d2iz         0x1d894           0x4c          76   
.text.TCPIP_IPV4_Select    0x1d8e0           0x4a          74   
.text.TCPIP_UDP_ArrayPu    0x1d92a           0x4a          74   
.text.TCPIP_UDP_Destina    0x1d974           0x4a          74   
.text.DRV_ETHPHY_Negoti    0x1d9c0           0x48          72   
.text.DRV_GMAC_LinkChec    0x1da08           0x48          72   
.rodata.default_shell_o    0x1da50           0x48          72   
.text._TCPSendWinIncUpd    0x1da98           0x48          72   
.text.TCPIP_TCP_Destina    0x1dae0           0x48          72   
.text.TCPIP_ARP_Deiniti    0x1db28           0x48          72   
.text.TCPIP_STACK_Match    0x1db70           0x48          72   
.text._TCPIPStackSignal    0x1dbb8           0x48          72   
.text.TCPIP_UDP_Close      0x1dc00           0x48          72   
.rodata.keySeqTbl          0x1dc48           0x48          72   
.text.sync_window          0x1dc90           0x48          72   
.text.ff_uni2oem           0x1dcd8           0x48          72   
.rodata.drvSDMMC0PlibAP    0x1dd20           0x48          72   
.text.strtok               0x1dd68           0x48          72   
.text._DRV_GMAC_LinkSta    0x1ddb0           0x46          70   
.text.DRV_MIIM_Register    0x1ddf6           0x46          70   
.text.Shell_GetCwd         0x1de3c           0x46          70   
.text.Shell_GetRoot        0x1de82           0x46          70   
.text.TCPIP_TCP_FifoTxF    0x1dec8           0x46          70   
.text.TCPIP_ARP_Resolve    0x1df0e           0x46          70   
.text.TCPIP_Helper_Sing    0x1df54           0x46          70   
.text.validate             0x1df9a           0x46          70   
.text.atoi                 0x1dfe0           0x46          70   
.text.DRV_GMAC_ConfigGe    0x1e028           0x44          68   
.text.Helper_SingleList    0x1e06c           0x44          68   
.text.TCPIP_ICMP_Initia    0x1e0b0           0x44          68   
.rodata                    0x1e0f4           0x44          68  Read-only const 
.text.f_stat               0x1e138           0x44          68   
.text.SYS_INT_SourceDis    0x1e17c           0x44          68   
.text._DRV_GMAC_LinkSta    0x1e1c0           0x42          66   
.text._TcpSocketSetSour    0x1e202           0x42          66   
.text.TCPIP_Helper_Form    0x1e244           0x42          66   
.text._UDPSetNewRxPacke    0x1e286           0x42          66   
.text.TCPIP_UDP_SourceI    0x1e2c8           0x42          66   
.text                      0x1e30c           0x40          64  App's exec code 
.text.DRV_ETHPHY_Reset     0x1e34c           0x40          64   
.text.DRV_ETHPHY_Negoti    0x1e38c           0x40          64   
.text.DRV_ETHPHY_Restar    0x1e3cc           0x40          64   
.text._DRV_ETHPHY_Reset    0x1e40c           0x40          64   
.text._MacTxDiscardQueu    0x1e44c           0x40          64   
.rodata.DRV_MIIM_OBJECT    0x1e48c           0x40          64   
.rodata.TRAN_SPEED_MULT    0x1e4cc           0x40          64   
.text._TCP_PortIsAvaila    0x1e50c           0x40          64   
.text.TCPIP_Helper_Prot    0x1e54c           0x40          64   
.rodata                    0x1e58c           0x40          64  Read-only const 
.text.TCPIP_STACK_NetBy    0x1e5cc           0x40          64   
.text._TCPIP_PKT_Packet    0x1e60c           0x40          64   
.text._UDPIsAvailablePo    0x1e64c           0x40          64   
.text.NET_PRES_SocketGe    0x1e68c           0x40          64   
.text.TC0_TimerInitiali    0x1e6cc           0x40          64   
.text.disk_checkCommand    0x1e70c           0x40          64   
.text.SYS_FS_MEDIA_MANA    0x1e74c           0x40          64   
.text.adjust_size          0x1e78c           0x40          64   
.text._DRV_MIIM_GetObje    0x1e7cc           0x3e          62   
.text._TCPSetHalfFlushF    0x1e80a           0x3e          62   
.text._TCPIP_HEAP_Delet    0x1e848           0x3e          62   
.text.TCPIP_UDP_TxOffse    0x1e886           0x3e          62   
.text.putc_bfd             0x1e8c4           0x3e          62   
.text.FATFS_getclusters    0x1e902           0x3e          62   
.text._DRV_ETHPHY_NegCo    0x1e940           0x3c          60   
.text.DRV_SDMMC_EventHa    0x1e97c           0x3c          60   
.text.hexatob              0x1e9b8           0x3c          60   
.text._TcpSocketKill       0x1e9f4           0x3c          60   
.text.TCPIP_TCP_Close      0x1ea30           0x3c          60   
.text.TCPIP_Helper_Prot    0x1ea6c           0x3c          60   
.text.TCPIP_Helper_Prot    0x1eaa8           0x3c          60   
.text.TCPIP_STACK_MACId    0x1eae4           0x3c          60   
.text._TCPIP_PKT_Packet    0x1eb20           0x3c          60   
.text._TCPIP_AnnounceCl    0x1eb5c           0x3c          60   
.text.TCPIP_UDP_OpenCli    0x1eb98           0x3c          60   
.text.move_window          0x1ebd4           0x3c          60   
.text.SYS_TIME_GetTimer    0x1ec10           0x3c          60   
.text.SYS_TIME_TimerDes    0x1ec4c           0x3c          60   
.text._DRV_ETHPHY_Setup    0x1ec88           0x3a          58   
.text._DRV_ETHPHY_NegRe    0x1ecc2           0x3a          58   
.text._DRV_MIIM_Release    0x1ecfc           0x3a          58   
.text.Shell_FileOpen       0x1ed36           0x3a          58   
.text.Shell_FileStat       0x1ed70           0x3a          58   
.text.TCPIP_Helper_Prot    0x1edaa           0x3a          58   
.text.putc_flush           0x1ede4           0x3a          58   
.text.disk_ioctl           0x1ee1e           0x3a          58   
.text.DRV_ETHPHY_HWConf    0x1ee58           0x38          56   
.text._DRV_ETHPHY_Setup    0x1ee90           0x38          56   
.text.DRV_GMAC_Open        0x1eec8           0x38          56   
.text.DRV_PIC32CGMAC_Li    0x1ef00           0x38          56   
.text.DRV_MIIM_Deregist    0x1ef38           0x38          56   
.text._TCP_EphemeralPor    0x1ef70           0x38          56   
.text._TCPIP_Helper_Sec    0x1efa8           0x38          56   
.text._TCPIPStackModule    0x1efe0           0x38          56   
.text.TCPIP_PKT_PacketM    0x1f018           0x38          56   
.text._UDPAllocateEphem    0x1f050           0x38          56   
.text.SYS_TIME_Resource    0x1f088           0x38          56   
.rodata.TCPIP_HOSTS_CON    0x1f0c0           0x38          56   
.text.__aeabi_dcmpgt       0x1f0f8           0x38          56   
.text.__aeabi_dcmplt       0x1f130           0x38          56   
.text.bin_index            0x1f168           0x38          56   
.text.__fmt_state          0x1f1a0           0x38          56   
.text._DRV_ETHPHY_NegCo    0x1f1d8           0x36          54   
.text.Shell_FileDelete     0x1f20e           0x36          54   
.text.Shell_DirMake        0x1f244           0x36          54   
.text.Shell_DirOpen        0x1f27a           0x36          54   
.text._TCPSetSourceAddr    0x1f2b0           0x36          54   
.text._DNS_NetIsValid      0x1f2e6           0x36          54   
.text._DRV_ETHPHY_Setup    0x1f31c           0x34          52   
.text.DRV_MIIM_Deinitia    0x1f350           0x34          52   
.text._TCP_SktFlagsGet     0x1f384           0x34          52   
.text._ARPSetEntry         0x1f3b8           0x34          52   
.text.TCPIP_ARP_Handler    0x1f3ec           0x34          52   
.text._DNSGetData          0x1f420           0x34          52   
.text._FieldSetMacName     0x1f454           0x34          52   
.text.CommandQuit          0x1f488           0x34          52   
.text.SYS_CONSOLE_Read     0x1f4bc           0x34          52   
.text.SYS_CONSOLE_ReadC    0x1f4f0           0x34          52   
.text.SYS_CONSOLE_Write    0x1f524           0x34          52   
.text.Console_UART_Read    0x1f558           0x34          52   
.text.Console_UART_Writ    0x1f58c           0x34          52   
.text.dec_lock             0x1f5c0           0x34          52   
.text.f_close              0x1f5f4           0x34          52   
.text.f_fdisk              0x1f628           0x34          52   
.text.SYS_TIME_Resource    0x1f65c           0x34          52   
.rodata.tcpipMACPIC32CI    0x1f690           0x34          52   
.text.__aeabi_dcmpeq       0x1f6c4           0x34          52   
.text.stpncpy              0x1f6f8           0x34          52   
.text._DRV_PHY_SMIReadS    0x1f72c           0x32          50   
.text._DRV_PHY_SMIWrite    0x1f75e           0x32          50   
.text._DRV_ETHPHY_Setup    0x1f790           0x32          50   
.text.DRV_PIC32CGMAC_Li    0x1f7c2           0x32          50   
.text.TCPIP_Helper_Prot    0x1f7f4           0x32          50   
.text._FieldSetHostName    0x1f826           0x32          50   
.text._DRV_PHY_NegCompl    0x1f858           0x30          48   
.text._DRV_ETHPHY_Setup    0x1f888           0x30          48   
.text.DRV_GMAC_Status      0x1f8b8           0x30          48   
.text.DRV_PIC32CGMAC_Li    0x1f8e8           0x30          48   
.text.DRV_PIC32CGMAC_Li    0x1f918           0x30          48   
.rodata.sdmmcMediaFunct    0x1f948           0x30          48   
.text._TCPSocketTxFreeS    0x1f978           0x30          48   
.text.TCPIP_ARP_HashEnt    0x1f9a8           0x30          48   
.text.TCPIP_IPV4_CheckP    0x1f9d8           0x30          48   
.text.fnv_32_hash          0x1fa08           0x30          48   
.text.TCPIP_OAHASH_Entr    0x1fa38           0x30          48   
.text.TCPIP_Helper_Stri    0x1fa68           0x30          48   
.text.TCPIP_PKT_Initial    0x1fa98           0x30          48   
.rodata.month              0x1fac8           0x30          48   
.rodata.iperfCmdTbl        0x1faf8           0x30          48   
.text.SendCommandCharac    0x1fb28           0x30          48   
.text._keyEndProcess       0x1fb58           0x30          48   
.text._keyHomeProcess      0x1fb88           0x30          48   
.text.SYS_CONSOLE_Messa    0x1fbb8           0x30          48   
.text.Console_UART_Writ    0x1fbe8           0x30          48   
.text.Console_UART_Writ    0x1fc18           0x30          48   
.text.Console_UART_Read    0x1fc48           0x30          48   
.text.Console_UART_Read    0x1fc78           0x30          48   
.text.f_puts               0x1fca8           0x30          48   
.text.disk_write           0x1fcd8           0x30          48   
.text.SYS_FS_MEDIA_MANA    0x1fd08           0x30          48   
.text.SYS_TIME_UpdateTi    0x1fd38           0x30          48   
.text.SYS_TIME_Counter6    0x1fd68           0x30          48   
.text.SYS_Tasks            0x1fd98           0x30          48   
.text.wc_CryptoCb_FindD    0x1fdc8           0x30          48   
.text.alloc_rev            0x1fdf8           0x30          48   
.text                      0x1fe28           0x30          48  App's exec code 
.text._XtlEventsTcp2Eth    0x1fe58           0x2e          46   
.text.TCPIP_TCP_Connect    0x1fe86           0x2e          46   
.text._DNS_CleanCacheEn    0x1feb4           0x2e          46   
.text._DNSClientCleanup    0x1fee2           0x2e          46   
.text.TCPIP_STACK_DNSSe    0x1ff10           0x2e          46   
.text._UDPFreeTxResourc    0x1ff3e           0x2e          46   
.text.wc_CryptoCb_Regis    0x1ff6c           0x2e          46   
.text.trim                 0x1ff9a           0x2e          46   
.text.strstr               0x1ffc8           0x2e          46   
.text.DRV_ETHPHY_Close     0x1fff8           0x2c          44   
.text.DRV_ETHPHY_Vendor    0x20024           0x2c          44   
.text.DRV_ETHPHY_Reinit    0x20050           0x2c          44   
.text._DRV_ETHPHY_LinkS    0x2007c           0x2c          44   
.text.GMAC_InterruptHan    0x200a8           0x2c          44   
.text.DRV_SDMMC_IsAttac    0x200d4           0x2c          44   
.text.TCPIP_TCP_SignalH    0x20100           0x2c          44   
.text._ARPRemoveEntry      0x2012c           0x2c          44   
.text.TCPIP_STACK_Addre    0x20158           0x2c          44   
.text.TCPIP_STACK_IsBca    0x20184           0x2c          44   
.text._TCPIP_PKT_Socket    0x201b0           0x2c          44   
.text._FTP_ReleaseDataS    0x201dc           0x2c          44   
.text._getBsdSocket        0x20208           0x2c          44   
.text.TCPIP_UDP_IsConne    0x20234           0x2c          44   
.text.TCPIP_UDP_SignalH    0x20260           0x2c          44   
.text.TC0_TimerInterrup    0x2028c           0x2c          44   
.rodata.sysConsoleUARTD    0x202b8           0x2c          44   
.text.ff_oem2uni           0x202e4           0x2c          44   
.text.disk_read            0x20310           0x2c          44   
.text.FATFS_opendir        0x2033c           0x2c          44   
.text.TCPIP_STACK_Init     0x20368           0x2c          44   
.text.alloc_fwd            0x20394           0x2c          44   
.text.fma                  0x203c0           0x2c          44   
.text._sbrk                0x203ec           0x2c          44   
.text._DRV_GMAC_LinkSta    0x20418           0x2a          42   
.text.TCPIP_TCP_WasRese    0x20442           0x2a          42   
.text.TCPIP_DNS_OAHASH_    0x2046c           0x2a          42   
.text.TCPIP_Notificatio    0x20496           0x2a          42   
.text._FieldSetMacAddr     0x204c0           0x2a          42   
.text.f_closedir           0x204ea           0x2a          42   
.text.__pop_float          0x20514           0x2a          42   
.text.DRV_ETHPHY_Tasks     0x20540           0x28          40   
.text.DRV_ETHPHY_PhyAdd    0x20568           0x28          40   
.text._DRV_PHY_SetOperD    0x20590           0x28          40   
.text.DRV_ETHPHY_Client    0x205b8           0x28          40   
.text.DRV_PIC32CGMAC_Li    0x205e0           0x28          40   
.text.DRV_PIC32CGMAC_Li    0x20608           0x28          40   
.text.DRV_MIIM_Status      0x20630           0x28          40   
.text._TcpSocketChk        0x20658           0x28          40   
.text._TcpFlush            0x20680           0x28          40   
.text._ARPRemoveCacheEn    0x206a8           0x28          40   
.text._TCPIP_STACK_Tick    0x206d0           0x28          40   
.text.TCPIP_STACK_NetIs    0x206f8           0x28          40   
.text._TCPIPStackSignal    0x20720           0x28          40   
.text._TCPIPStackModule    0x20748           0x28          40   
.text.TCPIP_FTP_ServerD    0x20770           0x28          40   
.text.TCPIP_ICMP_Deinit    0x20798           0x28          40   
.text._UDPSocketDcpt       0x207c0           0x28          40   
.text.TCPIP_UDP_GetIsRe    0x207e8           0x28          40   
.text.TC0_Timer16bitCou    0x20810           0x28          40   
.text.SYS_CMD_Initializ    0x20838           0x28          40   
.text.tchar2uni            0x20860           0x28          40   
.text.FATFS_mkfs           0x20888           0x28          40   
.text.SYS_TIME_TimerPer    0x208b0           0x28          40   
.text.SYS_TMR_TickCount    0x208d8           0x28          40   
.text.SYS_TMR_TickCount    0x20900           0x28          40   
.text.SYS_TMR_TickCount    0x20928           0x28          40   
.rodata.tcpipARPInitDat    0x20950           0x28          40   
.text.__aeabi_i2d          0x20978           0x28          40   
.text._DRV_ETHPHY_NegRe    0x209a0           0x26          38   
.text._DRV_ETHPHY_NegRe    0x209c6           0x26          38   
.text.TCPIP_TCP_IsConne    0x209ec           0x26          38   
.text.TCPIP_TCP_Flush      0x20a12           0x26          38   
.text.TCPIP_TCP_Discard    0x20a38           0x26          38   
.text.TCPIP_OAHASH_Init    0x20a5e           0x26          38   
.text.TCPIP_Helper_Prot    0x20a84           0x26          38   
.text.TCPIP_STACK_DNSSe    0x20aaa           0x26          38   
.text.f_putc               0x20ad0           0x26          38   
.text.get_fattime          0x20af6           0x26          38   
.text.__malloc0            0x20b1c           0x26          38   
.text.__string_out         0x20b42           0x26          38   
.text.DRV_ETHPHY_Vendor    0x20b68           0x24          36   
.rodata                    0x20b8c           0x24          36  Read-only const 
.text.DRV_PIC32CGMAC_Li    0x20bb0           0x24          36   
.text.DRV_SDMMC_Geometr    0x20bd4           0x24          36   
.text.Shell_Delete         0x20bf8           0x24          36   
.text.TCPIP_TCP_SignalH    0x20c1c           0x24          36   
.text._ARPAllocateTxPac    0x20c40           0x24          36   
.text.TCPIP_ARP_Handler    0x20c64           0x24          36   
.rodata._tcpip_heap_obj    0x20c88           0x24          36   
.text.TCPIP_STACK_IPAdd    0x20cac           0x24          36   
.text._UDPFreeRxQueue      0x20cd0           0x24          36   
.text.TCPIP_UDP_SignalH    0x20cf4           0x24          36   
.text.NET_PRES_SignalHa    0x20d18           0x24          36   
.rodata._builtinCmdTbl     0x20d3c           0x24          36   
.text.f_chdrive            0x20d60           0x24          36   
.text.SYS_RESET_Softwar    0x20d84           0x24          36   
.rodata.drvSDMMC0InitDa    0x20da8           0x24          36   
.text.__aeabi_d2uiz        0x20dcc           0x24          36   
.text.strncmp              0x20df0           0x24          36   
.text._DRV_PHY_SMITrans    0x20e14           0x22          34   
.text.DRV_MIIM_Close       0x20e36           0x22          34   
.text._UDPTxPktValid       0x20e58           0x22          34   
.text.TCPIP_UDP_Discard    0x20e7a           0x22          34   
.text.SDHC1_ClockEnable    0x20e9c           0x22          34   
.text.SYS_FS_MEDIA_MANA    0x20ebe           0x22          34   
.text.FATFS_chdrive        0x20ee0           0x22          34   
.text.DRV_ETHPHY_Status    0x20f04           0x20          32   
.text.DRV_ETHPHY_Client    0x20f24           0x20          32   
.text.DRV_ETHPHY_Client    0x20f44           0x20          32   
.text._DRV_ETHPHY_Clien    0x20f64           0x20          32   
.text._DRV_ETHPHY_Clien    0x20f84           0x20          32   
.text._DRV_ETHPHY_Clien    0x20fa4           0x20          32   
.text._DRV_ETHPHY_Clien    0x20fc4           0x20          32   
.text._DRV_ETHPHY_Clien    0x20fe4           0x20          32   
.text._DRV_ETHPHY_Clien    0x21004           0x20          32   
.text._DRV_ETHPHY_Setup    0x21024           0x20          32   
.rodata                    0x21044           0x20          32  Read-only const 
.rodata._DRV_PHY_SetupP    0x21064           0x20          32   
.text.DRV_GMAC_Close       0x21084           0x20          32   
.text._MACTxAcknowledge    0x210a4           0x20          32   
.text.DRV_GMAC_Deinitia    0x210c4           0x20          32   
.text.DRV_PIC32CGMAC_Li    0x210e4           0x20          32   
.text.DRV_GMAC_LibDescr    0x21104           0x20          32   
.rodata.TRAN_SPEED_UNIT    0x21124           0x20          32   
.text._SwapARPPacket       0x21144           0x20          32   
.text.TCPIP_DNS_OAHASH_    0x21164           0x20          32   
.rodata.TCPIP_MAC_POWER    0x21184           0x20          32   
.text.TCPIP_STACK_Index    0x211a4           0x20          32   
.text._TCPIPStackHandle    0x211c4           0x20          32   
.text.TCPIP_Notificatio    0x211e4           0x20          32   
.rodata                    0x21204           0x20          32  Read-only const 
.text.TCPIP_UDP_Destina    0x21224           0x20          32   
.text._keyRightProcess     0x21244           0x20          32   
.text.GetCommandCharact    0x21264           0x20          32   
.text.ld_clust             0x21284           0x20          32   
.text.diskEventHandler     0x212a4           0x20          32   
.text.SYS_FS_MEDIA_MANA    0x212c4           0x20          32   
.rodata                    0x212e4           0x20          32  Read-only const 
.text.SYS_INT_SourceRes    0x21304           0x20          32   
.rodata.netPresCfgs        0x21324           0x20          32   
.rodata.tcpipPhyInitDat    0x21344           0x20          32   
.text.lock_bin             0x21364           0x20          32   
.text._DRV_GMAC_LinkSta    0x21384           0x1e          30   
.text._TCPIsGetReady       0x213a2           0x1e          30   
.text.TCPIP_Helper_Prot    0x213c0           0x1e          30   
.text.TCPIP_STACK_NetAd    0x213de           0x1e          30   
.text.TCPIP_STACK_NetAd    0x213fc           0x1e          30   
.text.TCPIP_STACK_Netwo    0x2141a           0x1e          30   
.text.TCPIP_PKT_Payload    0x21438           0x1e          30   
.text._FieldSetIpv4Addr    0x21456           0x1e          30   
.text._keyUpProcess        0x21474           0x1e          30   
.text.sum_sfn              0x21492           0x1e          30   
.text.FATFS_close          0x214b0           0x1e          30   
.text.FATFS_closedir       0x214ce           0x1e          30   
.text._DRV_ETHPHY_Reset    0x214ec           0x1c          28   
.rodata._DRV_PHY_Client    0x21508           0x1c          28   
.text.DRV_GMAC_EventPen    0x21524           0x1c          28   
.text.DRV_PIC32CGMAC_Li    0x21540           0x1c          28   
.text.DRV_PIC32CGMAC_Si    0x2155c           0x1c          28   
.text.Helper_SingleList    0x21578           0x1c          28   
.text.Shell_LastError      0x21594           0x1c          28   
.text._ARPTxAckFnc         0x215b0           0x1c          28   
.text.TCPIP_IPV4_MaxDat    0x215cc           0x1c          28   
.text._TCPIP_HEAP_Callo    0x215e8           0x1c          28   
.text.TCPIP_Helper_Sing    0x21604           0x1c          28   
.text.TCPIP_Helper_Prot    0x21620           0x1c          28   
.text._TCPIPSignalEntry    0x2163c           0x1c          28   
.text.TCPIP_STACK_Statu    0x21658           0x1c          28   
.text.TCPIP_FTP_LIST_Ad    0x21674           0x1c          28   
.rodata._AnnounceSendTb    0x21690           0x1c          28   
.text.SDHC1_BlockSizeSe    0x216ac           0x1c          28   
.text.SDHC1_DmaSetup       0x216c8           0x1c          28   
.text._keyLeftProcess      0x216e4           0x1c          28   
.text.SendCommandMessag    0x21700           0x1c          28   
.text.SYS_DEBUG_Initial    0x2171c           0x1c          28   
.text.SYS_FS_MEDIA_MANA    0x21738           0x1c          28   
.text.SYS_TIME_MSToCoun    0x21754           0x1c          28   
.text.SYS_TMR_CallbackP    0x21770           0x1c          28   
.rodata.sysTimePlibAPI     0x2178c           0x1c          28   
.text.__aeabi_ui2d         0x217a8           0x1c          28   
.text.isxdigit             0x217c4           0x1c          28   
.text.calloc               0x217e0           0x1c          28   
.text.memcmp               0x217fc           0x1c          28   
.text.vfprintf             0x21818           0x1c          28   
.rodata                    0x21834           0x1c          28  Read-only const 
.text.DRV_PIC32CGMAC_Si    0x21850           0x1a          26   
.text.Helper_SingleList    0x2186a           0x1a          26   
.text.DRV_MIIM_Read        0x21884           0x1a          26   
.text.DRV_MIIM_Write       0x2189e           0x1a          26   
.text.DRV_MIIM_Scan        0x218b8           0x1a          26   
.text.TCPIP_TCP_ClientO    0x218d2           0x1a          26   
.text.TCPIP_TCP_Disconn    0x218ec           0x1a          26   
.text.TCPIP_TCP_PutIsRe    0x21906           0x1a          26   
.text.TCPIP_Helper_Sing    0x21920           0x1a          26   
.text.TCPIP_Helper_Sing    0x2193a           0x1a          26   
.text.TCPIP_STACK_NetIs    0x21954           0x1a          26   
.text.TCPIP_Notificatio    0x2196e           0x1a          26   
.text.TCPIP_UDP_TxPoint    0x21988           0x1a          26   
.text.SDHC1_BusWidthSet    0x219a2           0x1a          26   
.text.SDHC1_SpeedModeSe    0x219bc           0x1a          26   
.text.st_clust             0x219d6           0x1a          26   
.text.FATFS_readdir        0x219f0           0x1a          26   
.text.snprintf             0x21a0a           0x1a          26   
.text.sprintf              0x21a24           0x1a          26   
.text.DRV_ETHPHY_Deinit    0x21a40           0x18          24   
.text._DRV_ETHPHY_NegCo    0x21a58           0x18          24   
.text._DRV_ETHPHY_Setup    0x21a70           0x18          24   
.text._DRV_ETHPHY_LinkS    0x21a88           0x18          24   
.text._DRV_ETHPHY_NegCo    0x21aa0           0x18          24   
.text._DRV_ETHPHY_NegRe    0x21ab8           0x18          24   
.text._DRV_ETHPHY_NegRe    0x21ad0           0x18          24   
.rodata._DRV_PHY_NegCom    0x21ae8           0x18          24   
.text.DRV_PIC32CGMAC_Si    0x21b00           0x18          24   
.text.DRV_PIC32CGMAC_Li    0x21b18           0x18          24   
.text.TCPIP_ARP_HashKey    0x21b30           0x18          24   
.text.TCPIP_OAHASH_Entr    0x21b48           0x18          24   
.text.TCPIP_STACK_NetAd    0x21b60           0x18          24   
.text._TCPIPStackModule    0x21b78           0x18          24   
.rodata.TCPIP_FRAME_PRO    0x21b90           0x18          24   
.text.TCPIP_ICMP_Cleanu    0x21ba8           0x18          24   
.text.SDHC1_Initialize     0x21bc0           0x18          24   
.text.SERCOM1_USART_Wri    0x21bd8           0x18          24   
.text.SERCOM1_USART_Rea    0x21bf0           0x18          24   
.text.TC0_TimerStart       0x21c08           0x18          24   
.text.TC0_TimerStop        0x21c20           0x18          24   
.text._keyDownProcess      0x21c38           0x18          24   
.text.CommandReset         0x21c50           0x18          24   
.text._SYS_FS_MEDIA_MAN    0x21c68           0x18          24   
.text.FATFS_stat           0x21c80           0x18          24   
.text.SYS_TIME_GetElaps    0x21c98           0x18          24   
.text.SYS_TIME_DelayIsC    0x21cb0           0x18          24   
.rodata.sysConsole0UART    0x21cc8           0x18          24   
.rodata.tcpipDNSClientI    0x21ce0           0x18          24   
.rodata.tcpipFTPInitDat    0x21cf8           0x18          24   
.text.rand                 0x21d10           0x18          24   
.text.strcmp               0x21d28           0x18          24   
.text.DRV_MIIM_ClientSt    0x21d40           0x16          22   
.text.TCPIP_TCP_WasDisc    0x21d56           0x16          22   
.text._TCPIP_HEAP_LastE    0x21d6c           0x16          22   
.text._DNSSocketRxSigna    0x21d82           0x16          22   
.text.TCPIP_Helper_TCPS    0x21d98           0x16          22   
.text.TCPIP_Helper_UDPS    0x21dae           0x16          22   
.text._TCPIPStackPacket    0x21dc4           0x16          22   
.text._TCPIP_AnnounceSo    0x21dda           0x16          22   
.text._IperfUDPRxSignal    0x21df0           0x16          22   
.text._IperfTCPRxSignal    0x21e06           0x16          22   
.text.ld_dword             0x21e1c           0x16          22   
.text.clst2sect            0x21e32           0x16          22   
.text.__expand_heap        0x21e48           0x16          22   
.text.memcpy               0x21e5e           0x16          22   
.rodata._DRV_PHY_NegRes    0x21e74           0x14          20   
.rodata.DRV_ETHPHY_OBJE    0x21e88           0x14          20   
.rodata._DRV_GMAC_LinkS    0x21e9c           0x14          20   
.text.DRV_PIC32CGMAC_Li    0x21eb0           0x14          20   
.text.DRV_SDMMC_Registe    0x21ec4           0x14          20   
.text.DRV_SDMMC_AsyncRe    0x21ed8           0x14          20   
.text.DRV_SDMMC_AsyncWr    0x21eec           0x14          20   
.text.TCPIP_TCP_Abort      0x21f00           0x14          20   
.text.TCPIP_HEAP_Create    0x21f14           0x14          20   
.text.TCPIP_STACK_NetUp    0x21f28           0x14          20   
.text._FieldSetTruncate    0x21f3c           0x14          20   
.text._UDPUpdatePacketL    0x21f50           0x14          20   
.text.SDHC1_ErrorReset     0x21f64           0x14          20   
.text.SERCOM1_USART_Rea    0x21f78           0x14          20   
.text.SERCOM1_USART_Wri    0x21f8c           0x14          20   
.text.TC0_Timer16bitPer    0x21fa0           0x14          20   
.text.TC0_Timer16bitCom    0x21fb4           0x14          20   
.rodata.sysConsoleApi      0x21fc8           0x14          20   
.text.Console_UART_Init    0x21fdc           0x14          20   
.rodata.badchr.9110        0x21ff0           0x14          20   
.text.CRYPT_WCCB_Initia    0x22004           0x14          20   
.text.strchr               0x22018           0x14          20   
.text.TCPIP_TCP_GetIsRe    0x2202c           0x12          18   
.text._TCPIP_HEAP_FreeS    0x2203e           0x12          18   
.text.TCPIP_OAHASH_Entr    0x22050           0x12          18   
.text.send                 0x22062           0x12          18   
.text.NVIC_INT_Disable     0x22074           0x12          18   
.text.NVIC_INT_Restore     0x22086           0x12          18   
.text.stpcpy               0x22098           0x12          18   
.rodata._DRV_PHY_SetupP    0x220ac           0x10          16   
.text.DRV_EXTPHY_MIICon    0x220bc           0x10          16   
.text.DRV_PIC32CGMAC_Li    0x220cc           0x10          16   
.text._Shell_ObjectLock    0x220dc           0x10          16   
.text.TCPIP_TCP_SocketN    0x220ec           0x10          16   
.text.TCPIP_Notificatio    0x220fc           0x10          16   
.text.TCPIP_UDP_SocketN    0x2210c           0x10          16   
.text.NVMCTRL_Initializ    0x2211c           0x10          16   
.text.SDHC1_CommandErro    0x2212c           0x10          16   
.text.SDHC1_DataErrorGe    0x2213c           0x10          16   
.text.SDHC1_CallbackReg    0x2214c           0x10          16   
.text.IsCommandReady       0x2215c           0x10          16   
.text.Console_UART_Stat    0x2216c           0x10          16   
.text.st_dword             0x2217c           0x10          16   
.rodata.LfnOfs             0x2218c           0x10          16   
.rodata.cst.9147           0x2219c           0x10          16   
.rodata.cst32.9148         0x221ac           0x10          16   
.rodata.defopt.9149        0x221bc           0x10          16   
.text.disk_initialize      0x221cc           0x10          16   
.text.sy_time_h2_adapte    0x221dc           0x10          16   
.rodata.tcpipIPv4InitDa    0x221ec           0x10          16   
.text.memset               0x221fc           0x10          16   
.text.strlen               0x2220c           0x10          16   
.rodata                    0x2221c           0x20          32  Read-only const 
.text.DRV_PIC32CGMAC_Li    0x2223c            0xe          14   
.text.Shell_FileWrite      0x2224a            0xe          14   
.text.Shell_FileRead       0x22258            0xe          14   
.text.Shell_FileSeek       0x22266            0xe          14   
.text.TCPIP_Helper_Chec    0x22274            0xe          14   
.text.TCPIP_STACK_NetIx    0x22282            0xe          14   
.text._TCPIPStackSignal    0x22290            0xe          14   
.text.FATFS_eof            0x2229e            0xe          14   
.text.main                 0x222ac            0xe          14   
.text.tolower              0x222ba            0xe          14   
.text.toupper              0x222c8            0xe          14   
.rodata._DRV_PHY_LinkSt    0x222d8            0xc          12   
.rodata._DRV_PHY_NegRes    0x222e4            0xc          12   
.rodata._DRV_PHY_ResetP    0x222f0            0xc          12   
.text._DRV_GMAC_GetTxOc    0x222fc            0xc          12   
.text._DRV_GMAC_GetTxOc    0x22308            0xc          12   
.text._DRV_GMAC_GetTxFr    0x22314            0xc          12   
.text._DRV_GMAC_GetTxBC    0x22320            0xc          12   
.text._DRV_GMAC_GetTxMC    0x2232c            0xc          12   
.text._DRV_GMAC_GetTxPa    0x22338            0xc          12   
.text._DRV_GMAC_GetTx64    0x22344            0xc          12   
.text._DRV_GMAC_GetTx12    0x22350            0xc          12   
.text._DRV_GMAC_GetTx25    0x2235c            0xc          12   
.text._DRV_GMAC_GetTx51    0x22368            0xc          12   
.text._DRV_GMAC_GetTx10    0x22374            0xc          12   
.text._DRV_GMAC_GetTx15    0x22380            0xc          12   
.text._DRV_GMAC_GetTxGT    0x2238c            0xc          12   
.text._DRV_GMAC_GetTxUn    0x22398            0xc          12   
.text._DRV_GMAC_GetTxSi    0x223a4            0xc          12   
.text._DRV_GMAC_GetTxMu    0x223b0            0xc          12   
.text._DRV_GMAC_GetTxEx    0x223bc            0xc          12   
.text._DRV_GMAC_GetTxLa    0x223c8            0xc          12   
.text._DRV_GMAC_GetTxDe    0x223d4            0xc          12   
.text._DRV_GMAC_GetTxCS    0x223e0            0xc          12   
.text._DRV_GMAC_GetRxOc    0x223ec            0xc          12   
.text._DRV_GMAC_GetRxOc    0x223f8            0xc          12   
.text._DRV_GMAC_GetRxFr    0x22404            0xc          12   
.text._DRV_GMAC_GetRxBC    0x22410            0xc          12   
.text._DRV_GMAC_GetRxMC    0x2241c            0xc          12   
.text._DRV_GMAC_GetRxPa    0x22428            0xc          12   
.text._DRV_GMAC_GetRx64    0x22434            0xc          12   
.text._DRV_GMAC_GetRx12    0x22440            0xc          12   
.text._DRV_GMAC_GetRx25    0x2244c            0xc          12   
.text._DRV_GMAC_GetRx51    0x22458            0xc          12   
.text._DRV_GMAC_GetRx10    0x22464            0xc          12   
.text._DRV_GMAC_GetRx15    0x22470            0xc          12   
.text._DRV_GMAC_GetRxGT    0x2247c            0xc          12   
.text._DRV_GMAC_GetRxUn    0x22488            0xc          12   
.text._DRV_GMAC_GetRxOv    0x22494            0xc          12   
.text._DRV_GMAC_GetRxJa    0x224a0            0xc          12   
.text._DRV_GMAC_GetRxFC    0x224ac            0xc          12   
.text._DRV_GMAC_GetRxLF    0x224b8            0xc          12   
.text._DRV_GMAC_GetRxSy    0x224c4            0xc          12   
.text._DRV_GMAC_GetRxAl    0x224d0            0xc          12   
.text._DRV_GMAC_GetRxRe    0x224dc            0xc          12   
.text._DRV_GMAC_GetRxOv    0x224e8            0xc          12   
.text._DRV_GMAC_GetRxIP    0x224f4            0xc          12   
.text._DRV_GMAC_GetRxTC    0x22500            0xc          12   
.text._DRV_GMAC_GetRxUD    0x2250c            0xc          12   
.text.DRV_PIC32CGMAC_Li    0x22518            0xc          12   
.text.DRV_PIC32CGMAC_Li    0x22524            0xc          12   
.text.DRV_PIC32CGMAC_Li    0x22530            0xc          12   
.text.TCPIP_ARP_HashKey    0x2253c            0xc          12   
.text.TCPIP_IPV4_Packet    0x22548            0xc          12   
.text._TCPIP_HEAP_Size     0x22554            0xc          12   
.text._TCPIP_HEAP_HighW    0x22560            0xc          12   
.text.TCPIP_DNS_OAHASH_    0x2256c            0xc          12   
.text.TCPIP_STACK_NetDe    0x22578            0xc          12   
.text.TCPIP_STACK_Numbe    0x22584            0xc          12   
.rodata.TCPIP_STACK_IF_    0x22590            0xc          12   
.text.TCPIP_PKT_Deiniti    0x2259c            0xc          12   
.text._FieldSetUserStar    0x225a8            0xc          12   
.text.SDHC1_IsCmdLineBu    0x225b4            0xc          12   
.text.SDHC1_IsDatLineBu    0x225c0            0xc          12   
.text.SDHC1_IsCardAttac    0x225cc            0xc          12   
.text.TC0_TimerCallback    0x225d8            0xc          12   
.text.SYS_DEBUG_Console    0x225e4            0xc          12   
.text.SYS_DEBUG_ErrorLe    0x225f0            0xc          12   
.text.SYS_FS_Error         0x225fc            0xc          12   
.text.SYS_FS_MEDIA_MANA    0x22608            0xc          12   
.text.FATFS_error          0x22614            0xc          12   
.text.SYS_TIME_Frequenc    0x22620            0xc          12   
.rodata.sysConsole0Init    0x2262c            0xc          12   
.text.APP_Initialize       0x22638            0xc          12   
.text.vsprintf             0x22644            0xc          12   
.text.strcpy               0x22650            0xc          12   
.text.strncpy              0x2265c            0xc          12   
.text._DRV_ETHPHY_NegRe    0x22668            0xa          10   
.text.Shell_DirClose       0x22672            0xa          10   
.text.Shell_FileEof        0x2267c            0xa          10   
.text.Shell_FileTell       0x22686            0xa          10   
.text.Shell_FileSize       0x22690            0xa          10   
.text.Shell_FileClose      0x2269a            0xa          10   
.text.TCPIP_Helper_Sing    0x226a4            0xa          10   
.text.TCPIP_STACK_NetNa    0x226ae            0xa          10   
.text.TCPIP_UDP_ServerO    0x226b8            0xa          10   
.text.TCPIP_UDP_ClientO    0x226c2            0xa          10   
.text.TCPIP_UDP_Get        0x226cc            0xa          10   
.text.FATFS_read           0x226d6            0xa          10   
.text.FATFS_lseek          0x226e0            0xa          10   
.text.FATFS_gets           0x226ea            0xa          10   
.text.FATFS_write          0x226f4            0xa          10   
.text.FATFS_truncate       0x226fe            0xa          10   
.text.FATFS_sync           0x22708            0xa          10   
.text.FATFS_putc           0x22712            0xa          10   
.text.FATFS_puts           0x2271c            0xa          10   
.text.FATFS_printf         0x22726            0xa          10   
.text.DRV_EXTPHY_SMIClo    0x22730            0x8           8   
.rodata                    0x22738            0x8           8  Read-only const 
.text.TCPIP_HEAP_Malloc    0x22740            0x8           8   
.text.TCPIP_HEAP_Calloc    0x22748            0x8           8   
.text.TCPIP_HEAP_FreeOu    0x22750            0x8           8   
.text.TCPIP_Notificatio    0x22758            0x8           8   
.text.TCPIP_UDP_TxPutIs    0x22760            0x8           8   
.text.SDHC1_BlockCountS    0x22768            0x8           8   
.text.SERCOM1_USART_Wri    0x22770            0x8           8   
.text.TC0_TimerFrequenc    0x22778            0x8           8   
.text.SYS_FS_Tasks         0x22780            0x8           8   
.rodata                    0x22788            0x8           8  Read-only const 
.rodata.gPartitionTypeO    0x22790            0x8           8   
.text.FATFS_getlabel       0x22798            0x8           8   
.text.FATFS_getcwd         0x227a0            0x8           8   
.text.FATFS_chdir          0x227a8            0x8           8   
.text.FATFS_mkdir          0x227b0            0x8           8   
.text.FATFS_unlink         0x227b8            0x8           8   
.text.FATFS_setlabel       0x227c0            0x8           8   
.text.FATFS_chmod          0x227c8            0x8           8   
.text.FATFS_utime          0x227d0            0x8           8   
.text.FATFS_rename         0x227d8            0x8           8   
.text.FATFS_fdisk          0x227e0            0x8           8   
.text.SYS_INT_Disable      0x227e8            0x8           8   
.text.SYS_INT_Restore      0x227f0            0x8           8   
.rodata.drvMiimInitData    0x227f8            0x8           8   
.rodata.netPresInitData    0x22800            0x8           8   
.rodata.sysFSInit          0x22808            0x8           8   
.rodata.sysTimeInitData    0x22810            0x8           8   
.rodata.tcpipTCPInitDat    0x22818            0x8           8   
.rodata.tcpipUDPInitDat    0x22820            0x8           8   
.text.__aeabi_dsub         0x22828            0x8           8   
.rodata                    0x22830            0x7           7  Read-only const 
.text._DRV_SDMMC_TimerC    0x22838            0x6           6   
.text.TCPIP_ARP_HashKey    0x2283e            0x6           6   
.text.TCPIP_STACK_NetBI    0x22844            0x6           6   
.text.TCPIP_PKT_GapDcpt    0x2284a            0x6           6   
.text.CRYPT_WCCB_Callba    0x22850            0x6           6   
.text.DRV_PIC32CGMAC_Li    0x22856            0x4           4   
.text.DRV_PIC32CGMAC_Li    0x2285a            0x4           4   
.text.TCPIP_IPV4_IsFrag    0x2285e            0x4           4   
.text.TCPIP_PKT_GapDcpt    0x22862            0x4           4   
.text._FieldSetNone        0x22866            0x4           4   
.text.Console_UART_Flus    0x2286a            0x4           4   
.text.disk_status          0x2286e            0x4           4   
.text.FATFS_tell           0x22872            0x4           4   
.text.FATFS_size           0x22876            0x4           4   
.rodata.debugInit          0x2287c            0x4           4   
.rodata.sysConsole0UART    0x22880            0x4           4   
.rodata.tcpipBerkeleyIn    0x22884            0x4           4   
.text                      0x22888            0x4           4  App's exec code 
      Total ROM used  :     0x2286d      141421  13.5% of 0x100000
        --------------------------------------------------------------------------
         Total Program Memory used  :     0x2286d      141421  13.5% of 0x100000
        --------------------------------------------------------------------------


RAM Data-Memory Usage
section                    address  length [bytes]      (dec)  Description
-------                 ----------  -------------------------  -----------
.bss.gSYSFSMediaBlockBu 0x20000000          0x800        2048   
.bss.printBuff          0x20000800          0x400        1024   
.bss.gDrvSDMMCObj       0x20000c00          0x310         784   
.bss.TCPIP_STACK_MODULE 0x20000f10          0x270         624   
.bss.FATFSVolume        0x20001180          0x250         592   
.bss.FATFSFileObject    0x200013d0          0x240         576   
.bss.sNetPresData       0x20001610          0x234         564   
.bss._hEventMac         0x20001844            0x4           4   
.bss                    0x20001848          0x20c         524  Uninitialized data 
.bss.LfnBuf             0x20001a54          0x200         512   
.bss.sysfsMountTable    0x20001c54            0xc          12   
.bss.gSYSFSMediaBuffer  0x20001c60          0x200         512   
.bss.sNetPresSockets    0x20001e60          0x168         360   
.bss.fileNameList.14325 0x20001fc8          0x14c         332   
.bss.fileNameList.14420 0x20002114          0x12e         302   
.bss.tcpDefRxSize       0x20002242            0x2           2   
.bss.appData            0x20002244            0xa          10   
.bss.tcpDefTxSize       0x2000224e            0x2           2   
.bss.gSYSFSFileObj      0x20002250          0x110         272   
.data._gmac_drv_dcpt    0x20002360           0xf8         248   
.bss.gIperfState        0x20002458           0xd8         216   
.bss.consolePrintBuffer 0x20002530           0xc8         200   
.bss.timers             0x200025f8           0xa0         160   
.bss.gDrvMIIMObj        0x20002698           0x94         148   
.bss.TCPIP_MODULES_QUEU 0x2000272c           0x90         144   
.bss.drvGmacQueEvents   0x200027bc            0x4           4   
.bss.gmac_dcpt_array    0x200027c0           0x80         128   
.bss.SERCOM1_USART_Read 0x20002840           0x80         128   
.bss.SERCOM1_USART_Writ 0x200028c0           0x80         128   
.bss._usrCmdTbl         0x20002940           0x80         128   
.bss.gPhyDrvInst        0x200029c0           0x68         104   
.bss.gCryptoDev         0x20002a28           0x60          96   
.bss                    0x20002a88           0x50          80  Uninitialized data 
.bss.arpMod             0x20002ad8           0x48          72   
.bss.drvSDMMC0BufferObj 0x20002b20           0x48          72   
.bss.sercom1USARTObj    0x20002b68           0x40          64   
.bss.gSystemCounterObj  0x20002ba8           0x40          64   
.bss.TC0_CallbackObject 0x20002be8            0x8           8   
.bss.FATFSDirObject     0x20002bf0           0x38          56   
.bss.g_bfr              0x20002c28           0x34          52   
.bss.gDnsDcpt           0x20002c5c           0x28          40   
.data.tcpSecurePortTbl  0x20002c84           0x28          40   
.bss.gSYSFSMediaObject  0x20002cac           0x28          40   
.bss.announceDcpt       0x20002cd4           0x20          32   
.bss                    0x20002cf4           0x1c          28  Uninitialized data 
.bss.tcpip_stack_ctrl_d 0x20002d10           0x1c          28   
.bss.gSYSFSVolumeObject 0x20002d2c           0x1c          28   
.bss.sysObj             0x20002d48           0x1c          28   
.bss.tcpip_init_data    0x20002d64           0x18          24   
.data.gSYSFSMediaManage 0x20002d7c           0x18          24   
.data.gSYSFSVolumeName  0x20002d94           0x14          20   
.data.tcpipHeapConfig   0x20002da8           0x14          20   
.bss.ipv4ArpQueue       0x20002dbc           0x10          16   
.bss.ipv4PacketFilters  0x20002dcc           0x10          16   
.bss.tcpip_heap_config  0x20002ddc           0x10          16   
.bss.DirectoryFileList  0x20002dec           0x10          16   
.bss.TCBStubs           0x20002dfc            0x4           4   
.bss.sdhc1DmaDescrTable 0x20002e00           0x10          16   
.bss.Files              0x20002e10           0x10          16   
.bss.gSYSFSDirObj       0x20002e20           0x10          16   
.bss.gSYSFSMountPoint   0x20002e30           0x10          16   
.bss.drvSDMMC0ClientObj 0x20002e40           0x10          16   
.bss.gSysFsDiskData     0x20002e50            0x8           8   
.data.TCPIP_FTP_CMD_NLS 0x20002e58            0xf          15   
.data.queueIndex.10328  0x20002e67            0x1           1   
.bss.ipv4ArpPool        0x20002e68            0xc          12   
.bss.sdhc1Obj           0x20002e74            0xc          12   
.bss.consoleDeviceInsta 0x20002e80            0xc          12   
.bss.ftpConfigData      0x20002e8c            0xa          10   
.bss.ipv4Identifier     0x20002e96            0x2           2   
.bss.cmdIODevList       0x20002e98            0x8           8   
.bss.gConsoleUartData   0x20002ea0            0x8           8   
.bss.gSYSFSCurrentMount 0x20002ea8            0x8           8   
.bss.gSYSFSObj          0x20002eb0            0x8           8   
.data.arpBcastAdd       0x20002eb8            0x6           6   
.bss.ipv4InitCount      0x20002ebe            0x2           2   
.bss.TcpSockets         0x20002ec0            0x4           4   
.bss.tcpHeapH           0x20002ec4            0x4           4   
.bss.tcpInitCount       0x20002ec8            0x4           4   
.bss.tcpLockCount       0x20002ecc            0x4           4   
.bss.tcpSignalHandle    0x20002ed0            0x4           4   
.bss.ipv4ActFilterCount 0x20002ed4            0x4           4   
.bss.ipv4ArpEntries     0x20002ed8            0x4           4   
.bss.ipv4ArpHandle      0x20002edc            0x4           4   
.bss.ipv4MemH           0x20002ee0            0x4           4   
.bss.signalHandle       0x20002ee4            0x4           4   
.bss.dnsInitCount       0x20002ee8            0x4           4   
.bss.pgDnsDcpt          0x20002eec            0x4           4   
.bss.newTcpipErrorEvent 0x20002ef0            0x4           4   
.bss.newTcpipStackEvent 0x20002ef4            0x4           4   
.bss.newTcpipTickAvlbl  0x20002ef8            0x4           4   
.bss.stackAsyncSignalCo 0x20002efc            0x4           4   
.bss.stackTaskRate      0x20002f00            0x4           4   
.bss.tcpipDefIf         0x20002f04            0x4           4   
.bss.tcpipNetIf         0x20002f08            0x4           4   
.bss.tcpip_stack_init_c 0x20002f0c            0x4           4   
.bss.totTcpipEventsCnt  0x20002f10            0x4           4   
.data.tcpip_stack_tickH 0x20002f14            0x4           4   
.bss.pktMemH            0x20002f18            0x4           4   
.bss.FTPAuthHParam      0x20002f1c            0x4           4   
.bss.FTPAuthHandler     0x20002f20            0x4           4   
.bss.ftpsSignalHandle   0x20002f24            0x4           4   
.bss.sTCPIPFTPDcpt      0x20002f28            0x4           4   
.bss.sTCPIPFTPServerCou 0x20002f2c            0x4           4   
.bss.sTCPIPFtpMemH      0x20002f30            0x4           4   
.bss.icmpInitCount      0x20002f34            0x4           4   
.bss.signalHandle       0x20002f38            0x4           4   
.bss.BSDSocketArray     0x20002f3c            0x4           4   
.bss.InitCount          0x20002f40            0x4           4   
.bss.bsdApiHeapH        0x20002f44            0x4           4   
.bss.bsdSignalHandle    0x20002f48            0x4           4   
.bss.announceInitCount  0x20002f4c            0x4           4   
.bss.UDPSocketDcpt      0x20002f50            0x4           4   
.bss.nUdpSockets        0x20002f54            0x4           4   
.bss.signalHandle       0x20002f58            0x4           4   
.bss.udpInitCount       0x20002f5c            0x4           4   
.bss.udpMemH            0x20002f60            0x4           4   
.bss.iperfInitCount     0x20002f64            0x4           4   
.bss.nIperfSessions     0x20002f68            0x4           4   
.bss._cmdInitData       0x20002f6c            0x4           4   
.bss.printBuffPtr       0x20002f70            0x4           4   
.bss.sysDebugInstance   0x20002f74            0x4           4   
.bss.FatFs              0x20002f78            0x4           4   
.bss.gTickConv          0x20002f7c            0x4           4   
.bss.systemAdaptObj     0x20002f80            0x4           4   
.bss.sysCmdInit         0x20002f84            0x4           4   
.bss.tcpipAnnounceInitD 0x20002f88            0x4           4   
.bss                    0x20002f8c           0x18          24  Uninitialized data 
.bss.VolToPart          0x20002fa4            0x2           2   
.bss.remainingBytes.143 0x20002fa6            0x2           2   
.data.drvGmacIRQ        0x20002fa8            0x2           2   
.bss.remainingBytes.144 0x20002faa            0x2           2   
.bss.udpDefTxSize       0x20002fac            0x2           2   
.bss.Fsid               0x20002fae            0x2           2   
.data.gSysTimeTokenCoun 0x20002fb0            0x2           2   
.data.cardAttached.9384 0x20002fb2            0x1           1   
.bss.tcpSemaphore       0x20002fb3            0x1           1   
.bss.ipv4FilterType     0x20002fb4            0x1           1   
.bss.tcpip_stack_status 0x20002fb5            0x1           1   
.bss.cmdWithArg.14429   0x20002fb6            0x1           1   
.data.gFTPNLSTArgIndex  0x20002fb7            0x1           1   
.bss.bsdSemaphore       0x20002fb8            0x1           1   
.data.BSD_SOCKET_COUNT  0x20002fb9            0x1           1   
.bss.userSem            0x20002fba            0x1           1   
.bss.iperf_async_reques 0x20002fbb            0x1           1   
.bss.error_reported.915 0x20002fbc            0x1           1   
.bss.consolePrintBuffer 0x20002fbd            0x1           1   
.bss.isConsoleMutexCrea 0x20002fbe            0x1           1   
.bss.gblErrLvl          0x20002fbf            0x1           1   
.bss.CurrVol            0x20002fc0            0x1           1   
.bss.errorValue         0x20002fc1            0x1           1   
.bss.gSysFsMutex        0x20002fc2            0x1           1   
.bss.startupflag        0x20002fc3            0x1           1   
         Total RAM used  :      0x2fc4       12228  4.7% of 0x40000
        --------------------------------------------------------------------------
            Total Data Memory used  :      0x2fc4       12228  4.7% of 0x40000
        --------------------------------------------------------------------------


Dynamic Data-Memory Reservation
section                    address  length [bytes]      (dec)  Description
-------                 ----------  -------------------------  -----------
heap                    0x20002fc8        0x186a0      100000  Reserved for heap 
stack                   0x2001b680        0x24970      149872  Reserved for stack 

        --------------------------------------------------------------------------

Discarded input sections

 .text          0x00000000        0x0 c:/program files/microchip/xc32/v4.00/bin/bin/../../lib/gcc/pic32c/8.3.1/thumb/v7e-m+fp/hard/crti.o
 .data          0x00000000        0x0 c:/program files/microchip/xc32/v4.00/bin/bin/../../lib/gcc/pic32c/8.3.1/thumb/v7e-m+fp/hard/crti.o
 .bss           0x00000000        0x0 c:/program files/microchip/xc32/v4.00/bin/bin/../../lib/gcc/pic32c/8.3.1/thumb/v7e-m+fp/hard/crti.o
 .xc_stack_usage.hdr
                0x00000000        0xe c:/program files/microchip/xc32/v4.00/bin/bin/../../lib/gcc/pic32c/8.3.1/thumb/v7e-m+fp/hard/crti.o
 .xc_stack_usage
                0x00000000       0x26 c:/program files/microchip/xc32/v4.00/bin/bin/../../lib/gcc/pic32c/8.3.1/thumb/v7e-m+fp/hard/crti.o
 .data          0x00000000        0x4 c:/program files/microchip/xc32/v4.00/bin/bin/../../lib/gcc/pic32c/8.3.1/thumb/v7e-m+fp/hard/crtbegin.o
 .xc_stack_usage
                0x00000000       0x3c c:/program files/microchip/xc32/v4.00/bin/bin/../../lib/gcc/pic32c/8.3.1/thumb/v7e-m+fp/hard/crtbegin.o
 .xc_stack_usage.hdr
                0x00000000        0xe c:/program files/microchip/xc32/v4.00/bin/bin/../../lib/gcc/pic32c/8.3.1/thumb/v7e-m+fp/hard/crtbegin.o
 .text          0x00000000        0x0 build/default/production/_ext/1645245335/crypto.o
 .data          0x00000000        0x0 build/default/production/_ext/1645245335/crypto.o
 .bss           0x00000000        0x0 build/default/production/_ext/1645245335/crypto.o
 .text.CRYPT_MD5_Initialize
                0x00000000       0x12 build/default/production/_ext/1645245335/crypto.o
 .text.CRYPT_MD5_DataSizeSet
                0x00000000        0xc build/default/production/_ext/1645245335/crypto.o
 .text.CRYPT_MD5_DataAdd
                0x00000000       0x18 build/default/production/_ext/1645245335/crypto.o
 .text.CRYPT_MD5_Finalize
                0x00000000       0x18 build/default/production/_ext/1645245335/crypto.o
 .text.CRYPT_SHA_Initialize
                0x00000000       0x10 build/default/production/_ext/1645245335/crypto.o
 .text.CRYPT_SHA_DataSizeSet
                0x00000000        0xc build/default/production/_ext/1645245335/crypto.o
 .text.CRYPT_SHA_DataAdd
                0x00000000       0x18 build/default/production/_ext/1645245335/crypto.o
 .text.CRYPT_SHA_Finalize
                0x00000000       0x18 build/default/production/_ext/1645245335/crypto.o
 .text.CRYPT_SHA256_Initialize
                0x00000000       0x10 build/default/production/_ext/1645245335/crypto.o
 .text.CRYPT_SHA256_DataSizeSet
                0x00000000        0xc build/default/production/_ext/1645245335/crypto.o
 .text.CRYPT_SHA256_DataAdd
                0x00000000       0x18 build/default/production/_ext/1645245335/crypto.o
 .text.CRYPT_SHA256_Finalize
                0x00000000       0x18 build/default/production/_ext/1645245335/crypto.o
 .text.CRYPT_SHA224_Initialize
                0x00000000       0x10 build/default/production/_ext/1645245335/crypto.o
 .text.CRYPT_SHA224_DataAdd
                0x00000000       0x18 build/default/production/_ext/1645245335/crypto.o
 .text.CRYPT_SHA224_Finalize
                0x00000000       0x18 build/default/production/_ext/1645245335/crypto.o
 .text.CRYPT_HMAC_SetKey
                0x00000000       0x48 build/default/production/_ext/1645245335/crypto.o
 .text.CRYPT_HMAC_DataAdd
                0x00000000       0x18 build/default/production/_ext/1645245335/crypto.o
 .text.CRYPT_HMAC_Finalize
                0x00000000       0x18 build/default/production/_ext/1645245335/crypto.o
 .text.CRYPT_RNG_Initialize
                0x00000000       0x10 build/default/production/_ext/1645245335/crypto.o
 .text.CRYPT_RNG_Deinitialize
                0x00000000       0x12 build/default/production/_ext/1645245335/crypto.o
 .text.CRYPT_RNG_Get
                0x00000000       0x18 build/default/production/_ext/1645245335/crypto.o
 .text.CRYPT_RNG_BlockGenerate
                0x00000000       0x18 build/default/production/_ext/1645245335/crypto.o
 .text.CRYPT_TDES_KeySet
                0x00000000       0x18 build/default/production/_ext/1645245335/crypto.o
 .text.CRYPT_TDES_IvSet
                0x00000000       0x18 build/default/production/_ext/1645245335/crypto.o
 .text.CRYPT_TDES_CBC_Encrypt
                0x00000000       0x20 build/default/production/_ext/1645245335/crypto.o
 .text.CRYPT_TDES_CBC_Decrypt
                0x00000000       0x20 build/default/production/_ext/1645245335/crypto.o
 .text.CRYPT_AES_KeySet
                0x00000000       0x20 build/default/production/_ext/1645245335/crypto.o
 .text.CRYPT_AES_IvSet
                0x00000000       0x18 build/default/production/_ext/1645245335/crypto.o
 .text.CRYPT_AES_CBC_Encrypt
                0x00000000       0x20 build/default/production/_ext/1645245335/crypto.o
 .text.CRYPT_AES_CBC_Decrypt
                0x00000000       0x20 build/default/production/_ext/1645245335/crypto.o
 .text.CRYPT_AES_CTR_Encrypt
                0x00000000       0x20 build/default/production/_ext/1645245335/crypto.o
 .text.CRYPT_AES_GCM_SetKey
                0x00000000       0x18 build/default/production/_ext/1645245335/crypto.o
 .text.CRYPT_AES_GCM_Encrypt
                0x00000000       0x34 build/default/production/_ext/1645245335/crypto.o
 .text.CRYPT_AES_GCM_Decrypt
                0x00000000       0x2c build/default/production/_ext/1645245335/crypto.o
 .text.CRYPT_AES_DIRECT_Encrypt
                0x00000000       0x12 build/default/production/_ext/1645245335/crypto.o
 .text.CRYPT_AES_DIRECT_Decrypt
                0x00000000       0x22 build/default/production/_ext/1645245335/crypto.o
 .text.CRYPT_RSA_Initialize
                0x00000000       0x28 build/default/production/_ext/1645245335/crypto.o
 .text.CRYPT_RSA_Free
                0x00000000       0x20 build/default/production/_ext/1645245335/crypto.o
 .text.CRYPT_RSA_PublicKeyDecode
                0x00000000       0x2a build/default/production/_ext/1645245335/crypto.o
 .text.CRYPT_RSA_PrivateKeyDecode
                0x00000000       0x2a build/default/production/_ext/1645245335/crypto.o
 .text.CRYPT_RSA_PublicEncrypt
                0x00000000       0x3e build/default/production/_ext/1645245335/crypto.o
 .text.CRYPT_RSA_PrivateDecrypt
                0x00000000       0x32 build/default/production/_ext/1645245335/crypto.o
 .text.CRYPT_RSA_EncryptSizeGet
                0x00000000       0x12 build/default/production/_ext/1645245335/crypto.o
 .text.CRYPT_ECC_Initialize
                0x00000000       0x24 build/default/production/_ext/1645245335/crypto.o
 .text.CRYPT_ECC_Free
                0x00000000       0x20 build/default/production/_ext/1645245335/crypto.o
 .text.CRYPT_ECC_PublicExport
                0x00000000       0x28 build/default/production/_ext/1645245335/crypto.o
 .text.CRYPT_ECC_PublicImport
                0x00000000       0x22 build/default/production/_ext/1645245335/crypto.o
 .text.CRYPT_ECC_PrivateImport
                0x00000000       0x36 build/default/production/_ext/1645245335/crypto.o
 .text.CRYPT_ECC_DHE_KeyMake
                0x00000000       0x22 build/default/production/_ext/1645245335/crypto.o
 .text.CRYPT_ECC_DHE_SharedSecretMake
                0x00000000       0x3a build/default/production/_ext/1645245335/crypto.o
 .text.CRYPT_ECC_DSA_HashSign
                0x00000000       0x4a build/default/production/_ext/1645245335/crypto.o
 .text.CRYPT_ECC_DSA_HashVerify
                0x00000000       0x42 build/default/production/_ext/1645245335/crypto.o
 .text.CRYPT_ECC_KeySizeGet
                0x00000000       0x12 build/default/production/_ext/1645245335/crypto.o
 .text.CRYPT_ECC_SignatureSizeGet
                0x00000000       0x12 build/default/production/_ext/1645245335/crypto.o
 .text.CRYPT_ERROR_StringGet
                0x00000000       0x1c build/default/production/_ext/1645245335/crypto.o
 .rodata        0x00000000       0x28 build/default/production/_ext/1645245335/crypto.o
 .debug_info    0x00000000     0x4088 build/default/production/_ext/1645245335/crypto.o
 .debug_abbrev  0x00000000      0x3ba build/default/production/_ext/1645245335/crypto.o
 .debug_loc     0x00000000     0x334c build/default/production/_ext/1645245335/crypto.o
 .debug_aranges
                0x00000000      0x1d0 build/default/production/_ext/1645245335/crypto.o
 .debug_ranges  0x00000000      0x1c0 build/default/production/_ext/1645245335/crypto.o
 .debug_line    0x00000000      0xd7e build/default/production/_ext/1645245335/crypto.o
 .debug_str     0x00000000      0x448 build/default/production/_ext/1645245335/crypto.o
 .comment       0x00000000       0x54 build/default/production/_ext/1645245335/crypto.o
 .debug_frame   0x00000000      0x5f8 build/default/production/_ext/1645245335/crypto.o
 .ARM.attributes
                0x00000000       0x34 build/default/production/_ext/1645245335/crypto.o
 .text          0x00000000        0x0 build/default/production/_ext/444070925/drv_ethphy.o
 .data          0x00000000        0x0 build/default/production/_ext/444070925/drv_ethphy.o
 .bss           0x00000000        0x0 build/default/production/_ext/444070925/drv_ethphy.o
 .text          0x00000000        0x0 build/default/production/_ext/444070925/drv_extphy_ksz8061.o
 .data          0x00000000        0x0 build/default/production/_ext/444070925/drv_extphy_ksz8061.o
 .bss           0x00000000        0x0 build/default/production/_ext/444070925/drv_extphy_ksz8061.o
 .text          0x00000000        0x0 build/default/production/_ext/1546807373/drv_gmac.o
 .data          0x00000000        0x0 build/default/production/_ext/1546807373/drv_gmac.o
 .bss           0x00000000        0x0 build/default/production/_ext/1546807373/drv_gmac.o
 .text          0x00000000        0x0 build/default/production/_ext/1546807373/drv_gmac_lib_samE5x.o
 .data          0x00000000        0x0 build/default/production/_ext/1546807373/drv_gmac_lib_samE5x.o
 .bss           0x00000000        0x0 build/default/production/_ext/1546807373/drv_gmac_lib_samE5x.o
 .text          0x00000000        0x0 build/default/production/_ext/438849557/drv_miim.o
 .data          0x00000000        0x0 build/default/production/_ext/438849557/drv_miim.o
 .bss           0x00000000        0x0 build/default/production/_ext/438849557/drv_miim.o
 .text.Helper_SingleListInitialize
                0x00000000        0xa build/default/production/_ext/438849557/drv_miim.o
 .text          0x00000000        0x0 build/default/production/_ext/20954303/drv_sdmmc_file_system.o
 .data          0x00000000        0x0 build/default/production/_ext/20954303/drv_sdmmc_file_system.o
 .bss           0x00000000        0x0 build/default/production/_ext/20954303/drv_sdmmc_file_system.o
 .text          0x00000000        0x0 build/default/production/_ext/20954303/drv_sdmmc.o
 .data          0x00000000        0x0 build/default/production/_ext/20954303/drv_sdmmc.o
 .bss           0x00000000        0x0 build/default/production/_ext/20954303/drv_sdmmc.o
 .text.DRV_SDMMC_RegisterWithSysFs
                0x00000000        0x2 build/default/production/_ext/20954303/drv_sdmmc.o
 .text.DRV_SDMMC_Status
                0x00000000       0x14 build/default/production/_ext/20954303/drv_sdmmc.o
 .text.DRV_SDMMC_IsWriteProtected
                0x00000000       0x38 build/default/production/_ext/20954303/drv_sdmmc.o
 .text          0x00000000        0x0 build/default/production/_ext/1751889202/sys_fs_shell.o
 .data          0x00000000        0x0 build/default/production/_ext/1751889202/sys_fs_shell.o
 .bss           0x00000000        0x0 build/default/production/_ext/1751889202/sys_fs_shell.o
 .text          0x00000000        0x0 build/default/production/_ext/1033058136/helpers.o
 .data          0x00000000        0x0 build/default/production/_ext/1033058136/helpers.o
 .bss           0x00000000        0x0 build/default/production/_ext/1033058136/helpers.o
 .text.uitoa    0x00000000       0x5c build/default/production/_ext/1033058136/helpers.o
 .text.btohexa_high
                0x00000000        0xc build/default/production/_ext/1033058136/helpers.o
 .text.btohexa_low
                0x00000000        0xe build/default/production/_ext/1033058136/helpers.o
 .text.strncpy_m
                0x00000000       0x6e build/default/production/_ext/1033058136/helpers.o
 .text.stricmp  0x00000000       0x36 build/default/production/_ext/1033058136/helpers.o
 .text          0x00000000        0x0 build/default/production/_ext/1033058136/tcp.o
 .data          0x00000000        0x0 build/default/production/_ext/1033058136/tcp.o
 .bss           0x00000000        0x0 build/default/production/_ext/1033058136/tcp.o
 .text.TCPIP_TCP_SocketTraceSet
                0x00000000        0x4 build/default/production/_ext/1033058136/tcp.o
 .text.TCPIP_TCP_SocketFlagsGet
                0x00000000       0x12 build/default/production/_ext/1033058136/tcp.o
 .text.TCPIP_TCP_SocketsNumberGet
                0x00000000        0xc build/default/production/_ext/1033058136/tcp.o
 .text.TCPIP_TCP_Put
                0x00000000       0x18 build/default/production/_ext/1033058136/tcp.o
 .text.TCPIP_TCP_StringPut
                0x00000000       0x1a build/default/production/_ext/1033058136/tcp.o
 .text.TCPIP_TCP_FifoTxFreeGet
                0x00000000       0x26 build/default/production/_ext/1033058136/tcp.o
 .text.TCPIP_TCP_Get
                0x00000000        0xa build/default/production/_ext/1033058136/tcp.o
 .text.TCPIP_TCP_FifoRxFreeGet
                0x00000000       0x1e build/default/production/_ext/1033058136/tcp.o
 .text.TCPIP_TCP_Peek
                0x00000000       0x1a build/default/production/_ext/1033058136/tcp.o
 .text.TCPIP_TCP_ArrayFind
                0x00000000      0x23c build/default/production/_ext/1033058136/tcp.o
 .text.TCPIP_TCP_Find
                0x00000000       0x22 build/default/production/_ext/1033058136/tcp.o
 .text.TCPIP_TCP_SocketNetSet
                0x00000000       0x28 build/default/production/_ext/1033058136/tcp.o
 .text.TCPIP_TCP_SourceIPAddressSet
                0x00000000       0x32 build/default/production/_ext/1033058136/tcp.o
 .text.TCPIP_TCP_IsReady
                0x00000000        0x4 build/default/production/_ext/1033058136/tcp.o
 .text          0x00000000        0x0 build/default/production/_ext/1033058136/arp.o
 .data          0x00000000        0x0 build/default/production/_ext/1033058136/arp.o
 .bss           0x00000000        0x0 build/default/production/_ext/1033058136/arp.o
 .text.TCPIP_ARP_Probe
                0x00000000       0x5c build/default/production/_ext/1033058136/arp.o
 .text.TCPIP_ARP_EntrySet
                0x00000000       0xe8 build/default/production/_ext/1033058136/arp.o
 .text.TCPIP_ARP_EntryRemoveNet
                0x00000000       0xf0 build/default/production/_ext/1033058136/arp.o
 .text.TCPIP_ARP_EntryRemoveAll
                0x00000000       0x84 build/default/production/_ext/1033058136/arp.o
 .text.TCPIP_ARP_EntryQuery
                0x00000000       0xa8 build/default/production/_ext/1033058136/arp.o
 .text.TCPIP_ARP_CacheEntriesNoGet
                0x00000000       0x58 build/default/production/_ext/1033058136/arp.o
 .text.TCPIP_ARP_CacheThresholdSet
                0x00000000       0x54 build/default/production/_ext/1033058136/arp.o
 .text          0x00000000        0x0 build/default/production/_ext/1033058136/ipv4.o
 .data          0x00000000        0x0 build/default/production/_ext/1033058136/ipv4.o
 .bss           0x00000000        0x0 build/default/production/_ext/1033058136/ipv4.o
 .text.Ipv4DeRegisterCallback
                0x00000000       0x14 build/default/production/_ext/1033058136/ipv4.o
 .text.TCPIP_IPv4_ArpStatGet
                0x00000000        0x4 build/default/production/_ext/1033058136/ipv4.o
 .text.TCPIP_IPv4_ForwardStatGet
                0x00000000        0x4 build/default/production/_ext/1033058136/ipv4.o
 .text.IPv4RegisterFilter
                0x00000000       0x54 build/default/production/_ext/1033058136/ipv4.o
 .text.Ipv4DeRegisterFilter
                0x00000000       0x28 build/default/production/_ext/1033058136/ipv4.o
 .text.Ipv4FilterSetActive
                0x00000000       0x60 build/default/production/_ext/1033058136/ipv4.o
 .text.TCPIP_IPV4_PacketFilterSet
                0x00000000       0x10 build/default/production/_ext/1033058136/ipv4.o
 .text.TCPIP_IPV4_PacketFilterClear
                0x00000000       0x10 build/default/production/_ext/1033058136/ipv4.o
 .text.TCPIP_IPV4_MacPacketTransmit
                0x00000000       0x60 build/default/production/_ext/1033058136/ipv4.o
 .text.TCPIP_IPV4_PacketAlloc
                0x00000000       0x78 build/default/production/_ext/1033058136/ipv4.o
 .text.TCPIP_IPV4_PacketOptionFieldSet
                0x00000000       0x36 build/default/production/_ext/1033058136/ipv4.o
 .text.TCPIP_IPV4_PacketOptionListGet
                0x00000000       0x56 build/default/production/_ext/1033058136/ipv4.o
 .text.TCPIP_IPV4_PacketOptionGet
                0x00000000       0x70 build/default/production/_ext/1033058136/ipv4.o
 .text          0x00000000        0x0 build/default/production/_ext/1033058136/tcpip_heap_alloc.o
 .data          0x00000000        0x0 build/default/production/_ext/1033058136/tcpip_heap_alloc.o
 .bss           0x00000000        0x0 build/default/production/_ext/1033058136/tcpip_heap_alloc.o
 .text._TCPIP_HEAP_PointerMapCached
                0x00000000        0x2 build/default/production/_ext/1033058136/tcpip_heap_alloc.o
 .text          0x00000000        0x0 build/default/production/_ext/1033058136/tcpip_heap_internal.o
 .data          0x00000000        0x0 build/default/production/_ext/1033058136/tcpip_heap_internal.o
 .bss           0x00000000        0x0 build/default/production/_ext/1033058136/tcpip_heap_internal.o
 .text          0x00000000        0x0 build/default/production/_ext/1033058136/dhcp.o
 .data          0x00000000        0x0 build/default/production/_ext/1033058136/dhcp.o
 .bss           0x00000000        0x0 build/default/production/_ext/1033058136/dhcp.o
 .text.TCPIP_DHCP_IsEnabled
                0x00000000        0x4 build/default/production/_ext/1033058136/dhcp.o
 .text.TCPIP_DHCP_IsActive
                0x00000000        0x4 build/default/production/_ext/1033058136/dhcp.o
 .text.TCPIP_DHCP_Disable
                0x00000000        0x4 build/default/production/_ext/1033058136/dhcp.o
 .text.TCPIP_DHCP_Enable
                0x00000000        0x4 build/default/production/_ext/1033058136/dhcp.o
 .text.TCPIP_DHCP_Renew
                0x00000000        0x4 build/default/production/_ext/1033058136/dhcp.o
 .text.TCPIP_DHCP_Request
                0x00000000        0x4 build/default/production/_ext/1033058136/dhcp.o
 .text.TCPIP_DHCP_InfoGet
                0x00000000        0x4 build/default/production/_ext/1033058136/dhcp.o
 .debug_info    0x00000000     0x25b1 build/default/production/_ext/1033058136/dhcp.o
 .debug_abbrev  0x00000000      0x280 build/default/production/_ext/1033058136/dhcp.o
 .debug_loc     0x00000000      0x103 build/default/production/_ext/1033058136/dhcp.o
 .debug_aranges
                0x00000000       0x50 build/default/production/_ext/1033058136/dhcp.o
 .debug_ranges  0x00000000       0x40 build/default/production/_ext/1033058136/dhcp.o
 .debug_line    0x00000000      0x2e5 build/default/production/_ext/1033058136/dhcp.o
 .debug_str     0x00000000        0xe build/default/production/_ext/1033058136/dhcp.o
 .comment       0x00000000       0x54 build/default/production/_ext/1033058136/dhcp.o
 .debug_frame   0x00000000       0x80 build/default/production/_ext/1033058136/dhcp.o
 .ARM.attributes
                0x00000000       0x34 build/default/production/_ext/1033058136/dhcp.o
 .text          0x00000000        0x0 build/default/production/_ext/1033058136/dns.o
 .data          0x00000000        0x0 build/default/production/_ext/1033058136/dns.o
 .bss           0x00000000        0x0 build/default/production/_ext/1033058136/dns.o
 .text._DNS_Resolve
                0x00000000      0x130 build/default/production/_ext/1033058136/dns.o
 .text._DNS_GetAddresses
                0x00000000       0xec build/default/production/_ext/1033058136/dns.o
 .text._DNS_IsNameResolved
                0x00000000       0xf0 build/default/production/_ext/1033058136/dns.o
 .text.TCPIP_DNS_Resolve
                0x00000000        0xa build/default/production/_ext/1033058136/dns.o
 .text.TCPIP_DNS_Send_Query
                0x00000000        0xa build/default/production/_ext/1033058136/dns.o
 .text.TCPIP_DNS_GetIPv4Addresses
                0x00000000       0x10 build/default/production/_ext/1033058136/dns.o
 .text.TCPIP_DNS_GetIPv6Addresses
                0x00000000       0x10 build/default/production/_ext/1033058136/dns.o
 .text.TCPIP_DNS_GetIPAddressesNumber
                0x00000000       0x60 build/default/production/_ext/1033058136/dns.o
 .text.TCPIP_DNS_IsResolved
                0x00000000       0x1a build/default/production/_ext/1033058136/dns.o
 .text.TCPIP_DNS_IsNameResolved
                0x00000000        0xa build/default/production/_ext/1033058136/dns.o
 .text.TCPIP_DNS_ClientInfoGet
                0x00000000       0x38 build/default/production/_ext/1033058136/dns.o
 .text.TCPIP_DNS_EntryQuery
                0x00000000      0x154 build/default/production/_ext/1033058136/dns.o
 .text.TCPIP_DNS_RemoveEntry
                0x00000000       0x40 build/default/production/_ext/1033058136/dns.o
 .text.TCPIP_DNS_RemoveAll
                0x00000000       0x54 build/default/production/_ext/1033058136/dns.o
 .text.TCPIP_DNS_IsEnabled
                0x00000000       0x1a build/default/production/_ext/1033058136/dns.o
 .text.TCPIP_DNS_Enable
                0x00000000        0xc build/default/production/_ext/1033058136/dns.o
 .text.TCPIP_DNS_Disable
                0x00000000       0x6c build/default/production/_ext/1033058136/dns.o
 .text          0x00000000        0x0 build/default/production/_ext/1033058136/hash_fnv.o
 .data          0x00000000        0x0 build/default/production/_ext/1033058136/hash_fnv.o
 .bss           0x00000000        0x0 build/default/production/_ext/1033058136/hash_fnv.o
 .text.fnv_32a_hash
                0x00000000       0x30 build/default/production/_ext/1033058136/hash_fnv.o
 .text          0x00000000        0x0 build/default/production/_ext/1033058136/oahash.o
 .data          0x00000000        0x0 build/default/production/_ext/1033058136/oahash.o
 .bss           0x00000000        0x0 build/default/production/_ext/1033058136/oahash.o
 .text.TCPIP_OAHASH_EntryGetIndex
                0x00000000       0x46 build/default/production/_ext/1033058136/oahash.o
 .text          0x00000000        0x0 build/default/production/_ext/1033058136/tcpip_helpers.o
 .data          0x00000000        0x0 build/default/production/_ext/1033058136/tcpip_helpers.o
 .bss           0x00000000        0x0 build/default/production/_ext/1033058136/tcpip_helpers.o
 .text.TCPIP_Helper_IPAddressToString
                0x00000000       0x4c build/default/production/_ext/1033058136/tcpip_helpers.o
 .text.TCPIP_Helper_StringToIPv6Address
                0x00000000      0x32a build/default/production/_ext/1033058136/tcpip_helpers.o
 .text.TCPIP_Helper_IPv6AddressToString
                0x00000000       0xa2 build/default/production/_ext/1033058136/tcpip_helpers.o
 .text.TCPIP_Helper_IsPrivateAddress
                0x00000000       0x2c build/default/production/_ext/1033058136/tcpip_helpers.o
 .text.TCPIP_Helper_MACAddressToString
                0x00000000       0x44 build/default/production/_ext/1033058136/tcpip_helpers.o
 .text.TCPIP_Helper_PowerModeToString
                0x00000000       0x14 build/default/production/_ext/1033058136/tcpip_helpers.o
 .text.TCPIP_Helper_Base64Decode
                0x00000000       0xee build/default/production/_ext/1033058136/tcpip_helpers.o
 .text.TCPIP_Helper_Base64Encode
                0x00000000      0x116 build/default/production/_ext/1033058136/tcpip_helpers.o
 .text.TCPIP_Helper_FindCommonPrefix
                0x00000000       0x52 build/default/production/_ext/1033058136/tcpip_helpers.o
 .text.TCPIP_Helper_SingleListHeadAdd
                0x00000000       0x16 build/default/production/_ext/1033058136/tcpip_helpers.o
 .text.TCPIP_Helper_SingleListMidAdd
                0x00000000        0xe build/default/production/_ext/1033058136/tcpip_helpers.o
 .text.TCPIP_Helper_SingleListNextRemove
                0x00000000       0x26 build/default/production/_ext/1033058136/tcpip_helpers.o
 .text.TCPIP_Helper_SingleListFind
                0x00000000       0x20 build/default/production/_ext/1033058136/tcpip_helpers.o
 .text.TCPIP_Helper_ProtectedSingleListHeadAdd
                0x00000000       0x3a build/default/production/_ext/1033058136/tcpip_helpers.o
 .text.TCPIP_Helper_ProtectedSingleListMidAdd
                0x00000000       0x40 build/default/production/_ext/1033058136/tcpip_helpers.o
 .text.TCPIP_Helper_ProtectedSingleListNextRemove
                0x00000000       0x40 build/default/production/_ext/1033058136/tcpip_helpers.o
 .text.TCPIP_Helper_ProtectedSingleListAppend
                0x00000000       0x3a build/default/production/_ext/1033058136/tcpip_helpers.o
 .text.TCPIP_Helper_DoubleListInitialize
                0x00000000        0xa build/default/production/_ext/1033058136/tcpip_helpers.o
 .text.TCPIP_Helper_DoubleListHeadAdd
                0x00000000       0x22 build/default/production/_ext/1033058136/tcpip_helpers.o
 .text.TCPIP_Helper_DoubleListTailAdd
                0x00000000       0x22 build/default/production/_ext/1033058136/tcpip_helpers.o
 .text.TCPIP_Helper_DoubleListMidAdd
                0x00000000       0x14 build/default/production/_ext/1033058136/tcpip_helpers.o
 .text.TCPIP_Helper_DoubleListHeadRemove
                0x00000000       0x24 build/default/production/_ext/1033058136/tcpip_helpers.o
 .text.TCPIP_Helper_DoubleListTailRemove
                0x00000000       0x24 build/default/production/_ext/1033058136/tcpip_helpers.o
 .text.TCPIP_Helper_DoubleListMidRemove
                0x00000000       0x12 build/default/production/_ext/1033058136/tcpip_helpers.o
 .text.TCPIP_Helper_DoubleListNodeRemove
                0x00000000       0x20 build/default/production/_ext/1033058136/tcpip_helpers.o
 .text.TCPIP_Helper_DoubleListFind
                0x00000000       0x20 build/default/production/_ext/1033058136/tcpip_helpers.o
 .text.TCPIP_Helper_ProtectedDoubleListInitialize
                0x00000000       0x1e build/default/production/_ext/1033058136/tcpip_helpers.o
 .text.TCPIP_Helper_ProtectedDoubleListDeinitialize
                0x00000000       0x32 build/default/production/_ext/1033058136/tcpip_helpers.o
 .text.TCPIP_Helper_ProtectedDoubleListHeadAdd
                0x00000000       0x3a build/default/production/_ext/1033058136/tcpip_helpers.o
 .text.TCPIP_Helper_ProtectedDoubleListTailAdd
                0x00000000       0x3a build/default/production/_ext/1033058136/tcpip_helpers.o
 .text.TCPIP_Helper_ProtectedDoubleListMidAdd
                0x00000000       0x3e build/default/production/_ext/1033058136/tcpip_helpers.o
 .text.TCPIP_Helper_ProtectedDoubleListHeadRemove
                0x00000000       0x3c build/default/production/_ext/1033058136/tcpip_helpers.o
 .text.TCPIP_Helper_ProtectedDoubleListTailRemove
                0x00000000       0x3c build/default/production/_ext/1033058136/tcpip_helpers.o
 .text.TCPIP_Helper_ProtectedDoubleListMidRemove
                0x00000000       0x3a build/default/production/_ext/1033058136/tcpip_helpers.o
 .text.TCPIP_Helper_ProtectedDoubleListNodeRemove
                0x00000000       0x3a build/default/production/_ext/1033058136/tcpip_helpers.o
 .text.TCPIP_Helper_ProtectedDoubleListRemoveAll
                0x00000000       0x3c build/default/production/_ext/1033058136/tcpip_helpers.o
 .text.TCPIP_Helper_ProtectedDoubleListLock
                0x00000000       0x22 build/default/production/_ext/1033058136/tcpip_helpers.o
 .text.TCPIP_Helper_ProtectedDoubleListUnlock
                0x00000000       0x1a build/default/production/_ext/1033058136/tcpip_helpers.o
 .text.TCPIP_Helper_SecurePortGetByIndex
                0x00000000       0x34 build/default/production/_ext/1033058136/tcpip_helpers.o
 .text.TCPIP_Helper_SecurePortSet
                0x00000000       0x5e build/default/production/_ext/1033058136/tcpip_helpers.o
 .text          0x00000000        0x0 build/default/production/_ext/1033058136/tcpip_manager.o
 .data          0x00000000        0x0 build/default/production/_ext/1033058136/tcpip_manager.o
 .bss           0x00000000        0x0 build/default/production/_ext/1033058136/tcpip_manager.o
 .text._NetConfigStringToBuffer
                0x00000000       0x52 build/default/production/_ext/1033058136/tcpip_manager.o
 .text.TCPIP_STACK_InitializeDataGet
                0x00000000       0x30 build/default/production/_ext/1033058136/tcpip_manager.o
 .text.TCPIP_STACK_NetDefaultSet
                0x00000000       0x20 build/default/production/_ext/1033058136/tcpip_manager.o
 .text.TCPIP_STACK_NetMulticastGet
                0x00000000        0x4 build/default/production/_ext/1033058136/tcpip_manager.o
 .text.TCPIP_STACK_NetMulticastSet
                0x00000000        0x4 build/default/production/_ext/1033058136/tcpip_manager.o
 .text.TCPIP_STACK_MacToNet
                0x00000000       0x3c build/default/production/_ext/1033058136/tcpip_manager.o
 .text.TCPIP_STACK_MacToNetIndex
                0x00000000       0x44 build/default/production/_ext/1033058136/tcpip_manager.o
 .text.TCPIP_STACK_NetIndexGet
                0x00000000        0xe build/default/production/_ext/1033058136/tcpip_manager.o
 .text.TCPIP_Stack_UserHandleToNet
                0x00000000       0x3c build/default/production/_ext/1033058136/tcpip_manager.o
 .text.TCPIP_STACK_MACIdToNet
                0x00000000       0x48 build/default/production/_ext/1033058136/tcpip_manager.o
 .text.TCPIP_STACK_NetAliasNameGet
                0x00000000       0x3a build/default/production/_ext/1033058136/tcpip_manager.o
 .text.TCPIP_STACK_MACObjectGet
                0x00000000        0x6 build/default/production/_ext/1033058136/tcpip_manager.o
 .text.TCPIP_STACK_NetAddressGatewaySet
                0x00000000       0x1c build/default/production/_ext/1033058136/tcpip_manager.o
 .text.TCPIP_STACK_NetAddressGateway
                0x00000000       0x18 build/default/production/_ext/1033058136/tcpip_manager.o
 .text.TCPIP_STACK_NetAddressDnsPrimary
                0x00000000       0x18 build/default/production/_ext/1033058136/tcpip_manager.o
 .text.TCPIP_STACK_NetAddressDnsSecond
                0x00000000       0x18 build/default/production/_ext/1033058136/tcpip_manager.o
 .text.TCPIP_STACK_NetAddressDnsPrimarySet
                0x00000000       0x1c build/default/production/_ext/1033058136/tcpip_manager.o
 .text.TCPIP_STACK_NetAddressDnsSecondSet
                0x00000000       0x1c build/default/production/_ext/1033058136/tcpip_manager.o
 .text.TCPIP_STACK_NetAddressMacSet
                0x00000000       0x22 build/default/production/_ext/1033058136/tcpip_manager.o
 .text.TCPIP_STACK_NetBiosNameSet
                0x00000000       0x32 build/default/production/_ext/1033058136/tcpip_manager.o
 .text.TCPIP_STACK_NetMACIdGet
                0x00000000       0x18 build/default/production/_ext/1033058136/tcpip_manager.o
 .text.TCPIP_STACK_NetMACStatisticsGet
                0x00000000       0x28 build/default/production/_ext/1033058136/tcpip_manager.o
 .text.TCPIP_STACK_NetMACRegisterStatisticsGet
                0x00000000       0x28 build/default/production/_ext/1033058136/tcpip_manager.o
 .text.TCPIP_STACK_ModuleConfigGet
                0x00000000       0x48 build/default/production/_ext/1033058136/tcpip_manager.o
 .text.TCPIP_STACK_NetConfigGet
                0x00000000       0x50 build/default/production/_ext/1033058136/tcpip_manager.o
 .text.TCPIP_STACK_NetConfigSet
                0x00000000      0x1aa build/default/production/_ext/1033058136/tcpip_manager.o
 .text.TCPIP_STACK_StringToMACId
                0x00000000       0x50 build/default/production/_ext/1033058136/tcpip_manager.o
 .text.TCPIP_STACK_NetHandleGet
                0x00000000       0x3c build/default/production/_ext/1033058136/tcpip_manager.o
 .text.TCPIP_STACK_NetIsUp
                0x00000000       0x1c build/default/production/_ext/1033058136/tcpip_manager.o
 .text.TCPIP_STACK_AddressServiceSelect
                0x00000000       0x10 build/default/production/_ext/1033058136/tcpip_manager.o
 .text.TCPIP_STACK_AddressServiceCanStart
                0x00000000       0x16 build/default/production/_ext/1033058136/tcpip_manager.o
 .text.TCPIP_STACK_NetAddressSet
                0x00000000       0x64 build/default/production/_ext/1033058136/tcpip_manager.o
 .text._TCPIPStackAddressServiceIsRunning
                0x00000000        0xa build/default/production/_ext/1033058136/tcpip_manager.o
 .text.TCPIP_STACK_AddressServiceEvent
                0x00000000       0x44 build/default/production/_ext/1033058136/tcpip_manager.o
 .text.TCPIP_STACK_EventsPendingGet
                0x00000000       0x20 build/default/production/_ext/1033058136/tcpip_manager.o
 .text.TCPIP_STACK_NetStaticIPv6AddressGet
                0x00000000        0x4 build/default/production/_ext/1033058136/tcpip_manager.o
 .text.TCPIP_STACK_NetDefaultIPv6GatewayGet
                0x00000000        0x4 build/default/production/_ext/1033058136/tcpip_manager.o
 .text._TCPIPStackSetConfigAddress
                0x00000000       0x30 build/default/production/_ext/1033058136/tcpip_manager.o
 .text.TCPIP_STACK_NetMaskGet
                0x00000000       0x18 build/default/production/_ext/1033058136/tcpip_manager.o
 .text.TCPIP_STACK_NetMask
                0x00000000       0x1c build/default/production/_ext/1033058136/tcpip_manager.o
 .text.TCPIP_STACK_GatewayAddressSet
                0x00000000        0x8 build/default/production/_ext/1033058136/tcpip_manager.o
 .text.TCPIP_STACK_PrimaryDNSAddressSet
                0x00000000        0x8 build/default/production/_ext/1033058136/tcpip_manager.o
 .text.TCPIP_STACK_SecondaryDNSAddressSet
                0x00000000        0x8 build/default/production/_ext/1033058136/tcpip_manager.o
 .text.TCPIP_STACK_AddressIsOfNetUp
                0x00000000       0x30 build/default/production/_ext/1033058136/tcpip_manager.o
 .text.TCPIP_STACK_NetIsLinked
                0x00000000       0x1c build/default/production/_ext/1033058136/tcpip_manager.o
 .text._TCPIPStackAnyNetDirected
                0x00000000       0x48 build/default/production/_ext/1033058136/tcpip_manager.o
 .text.TCPIP_STACK_NetMACId
                0x00000000        0xc build/default/production/_ext/1033058136/tcpip_manager.o
 .text.TCPIP_STACK_NetToMAC
                0x00000000        0xa build/default/production/_ext/1033058136/tcpip_manager.o
 .text.TCPIP_STACK_NetAddressMac
                0x00000000        0x8 build/default/production/_ext/1033058136/tcpip_manager.o
 .text.TCPIP_STACK_Deinitialize
                0x00000000       0x1c build/default/production/_ext/1033058136/tcpip_manager.o
 .text.TCPIP_STACK_NetUp
                0x00000000       0xb0 build/default/production/_ext/1033058136/tcpip_manager.o
 .text.TCPIP_STACK_NetDown
                0x00000000       0x34 build/default/production/_ext/1033058136/tcpip_manager.o
 .text.TCPIP_STACK_VersionGet
                0x00000000        0x8 build/default/production/_ext/1033058136/tcpip_manager.o
 .text.TCPIP_STACK_VersionStrGet
                0x00000000        0x8 build/default/production/_ext/1033058136/tcpip_manager.o
 .text.TCPIP_MODULE_SignalFunctionRegister
                0x00000000       0x28 build/default/production/_ext/1033058136/tcpip_manager.o
 .text.TCPIP_MODULE_SignalFunctionDeregister
                0x00000000        0xe build/default/production/_ext/1033058136/tcpip_manager.o
 .text.TCPIP_MODULE_SignalGet
                0x00000000       0x28 build/default/production/_ext/1033058136/tcpip_manager.o
 .text.TCPIP_STACK_HeapHandleGet
                0x00000000       0x14 build/default/production/_ext/1033058136/tcpip_manager.o
 .text.TCPIP_STACK_HEAP_Size
                0x00000000        0xe build/default/production/_ext/1033058136/tcpip_manager.o
 .text.TCPIP_STACK_HEAP_MaxSize
                0x00000000        0xe build/default/production/_ext/1033058136/tcpip_manager.o
 .text.TCPIP_STACK_HEAP_FreeSize
                0x00000000        0xe build/default/production/_ext/1033058136/tcpip_manager.o
 .text.TCPIP_STACK_HEAP_HighWatermark
                0x00000000        0xe build/default/production/_ext/1033058136/tcpip_manager.o
 .text.TCPIP_STACK_HEAP_LastError
                0x00000000       0x10 build/default/production/_ext/1033058136/tcpip_manager.o
 .text._TCPIPStackHeapConfig
                0x00000000        0x8 build/default/production/_ext/1033058136/tcpip_manager.o
 .text.TCPIP_STACK_NetGetType
                0x00000000        0x8 build/default/production/_ext/1033058136/tcpip_manager.o
 .text          0x00000000        0x0 build/default/production/_ext/1033058136/tcpip_notify.o
 .data          0x00000000        0x0 build/default/production/_ext/1033058136/tcpip_notify.o
 .bss           0x00000000        0x0 build/default/production/_ext/1033058136/tcpip_notify.o
 .text.TCPIP_Notification_CbackRemove
                0x00000000       0x46 build/default/production/_ext/1033058136/tcpip_notify.o
 .text          0x00000000        0x0 build/default/production/_ext/1033058136/tcpip_packet.o
 .data          0x00000000        0x0 build/default/production/_ext/1033058136/tcpip_packet.o
 .bss           0x00000000        0x0 build/default/production/_ext/1033058136/tcpip_packet.o
 .text.TCPIP_PKT_SegmentAppend
                0x00000000       0x14 build/default/production/_ext/1033058136/tcpip_packet.o
 .text._TCPIP_PKT_SegmentAlloc
                0x00000000       0x4c build/default/production/_ext/1033058136/tcpip_packet.o
 .text._TCPIP_PKT_SegmentFree
                0x00000000       0x1c build/default/production/_ext/1033058136/tcpip_packet.o
 .text          0x00000000        0x0 build/default/production/_ext/1033058136/ftp.o
 .data          0x00000000        0x0 build/default/production/_ext/1033058136/ftp.o
 .bss           0x00000000        0x0 build/default/production/_ext/1033058136/ftp.o
 .text.TCPIP_FTP_AuthenticationRegister
                0x00000000       0x1c build/default/production/_ext/1033058136/ftp.o
 .text.TCPIP_FTP_AuthenticationDeregister
                0x00000000       0x1c build/default/production/_ext/1033058136/ftp.o
 .text          0x00000000        0x0 build/default/production/_ext/1033058136/icmp.o
 .data          0x00000000        0x0 build/default/production/_ext/1033058136/icmp.o
 .bss           0x00000000        0x0 build/default/production/_ext/1033058136/icmp.o
 .text          0x00000000        0x0 build/default/production/_ext/1033058136/berkeley_api.o
 .data          0x00000000        0x0 build/default/production/_ext/1033058136/berkeley_api.o
 .bss           0x00000000        0x0 build/default/production/_ext/1033058136/berkeley_api.o
 .text.TCP_SocketWasDisconnected
                0x00000000       0x4c build/default/production/_ext/1033058136/berkeley_api.o
 .text._BSD_SetIp4AddrInfo
                0x00000000       0xa0 build/default/production/_ext/1033058136/berkeley_api.o
 .text._BSD_SetIp6AddrInfo
                0x00000000       0xb0 build/default/production/_ext/1033058136/berkeley_api.o
 .text._BSD_StartAddrInfo
                0x00000000       0x62 build/default/production/_ext/1033058136/berkeley_api.o
 .text.connect  0x00000000      0x258 build/default/production/_ext/1033058136/berkeley_api.o
 .text.recv     0x00000000       0xe4 build/default/production/_ext/1033058136/berkeley_api.o
 .text.recvfrom
                0x00000000       0xe4 build/default/production/_ext/1033058136/berkeley_api.o
 .text.gethostname
                0x00000000       0x58 build/default/production/_ext/1033058136/berkeley_api.o
 .text._setsockopt_ip
                0x00000000       0x10 build/default/production/_ext/1033058136/berkeley_api.o
 .text._setsockopt_socket
                0x00000000       0x98 build/default/production/_ext/1033058136/berkeley_api.o
 .text._setsockopt_tcp
                0x00000000       0x40 build/default/production/_ext/1033058136/berkeley_api.o
 .text._setsockopt_ipv6
                0x00000000       0x10 build/default/production/_ext/1033058136/berkeley_api.o
 .text._setsockopt_icmp6
                0x00000000       0x10 build/default/production/_ext/1033058136/berkeley_api.o
 .text.setsockopt
                0x00000000       0x80 build/default/production/_ext/1033058136/berkeley_api.o
 .text._getsockopt_ip
                0x00000000       0x10 build/default/production/_ext/1033058136/berkeley_api.o
 .text._getsockopt_socket
                0x00000000       0xec build/default/production/_ext/1033058136/berkeley_api.o
 .text._getsockopt_tcp
                0x00000000       0x54 build/default/production/_ext/1033058136/berkeley_api.o
 .text._getsockopt_ipv6
                0x00000000       0x10 build/default/production/_ext/1033058136/berkeley_api.o
 .text._getsockopt_icmp6
                0x00000000       0x10 build/default/production/_ext/1033058136/berkeley_api.o
 .text.getsockopt
                0x00000000       0x80 build/default/production/_ext/1033058136/berkeley_api.o
 .text.gethostent
                0x00000000        0x8 build/default/production/_ext/1033058136/berkeley_api.o
 .text.gethostbyname
                0x00000000       0xa0 build/default/production/_ext/1033058136/berkeley_api.o
 .text.getsockname
                0x00000000       0x5c build/default/production/_ext/1033058136/berkeley_api.o
 .text.TCPIP_BSD_Socket
                0x00000000       0x2c build/default/production/_ext/1033058136/berkeley_api.o
 .text.TCPIP_BSD_PresSocket
                0x00000000       0x24 build/default/production/_ext/1033058136/berkeley_api.o
 .text.getaddrinfo
                0x00000000      0x228 build/default/production/_ext/1033058136/berkeley_api.o
 .text.freeaddrinfo
                0x00000000       0x22 build/default/production/_ext/1033058136/berkeley_api.o
 .rodata        0x00000000       0x30 build/default/production/_ext/1033058136/berkeley_api.o
 .bss.h_errno   0x00000000        0x4 build/default/production/_ext/1033058136/berkeley_api.o
 .bss.sAddr     0x00000000        0x4 build/default/production/_ext/1033058136/berkeley_api.o
 .bss.sHaveDnsToken
                0x00000000        0x1 build/default/production/_ext/1033058136/berkeley_api.o
 .bss.sgaihash  0x00000000        0x4 build/default/production/_ext/1033058136/berkeley_api.o
 .bss.sgaistate
                0x00000000        0x1 build/default/production/_ext/1033058136/berkeley_api.o
 .data.sHostArray
                0x00000000        0x8 build/default/production/_ext/1033058136/berkeley_api.o
 .data.sHostEnt
                0x00000000       0x14 build/default/production/_ext/1033058136/berkeley_api.o
 .text          0x00000000        0x0 build/default/production/_ext/1033058136/tcpip_announce.o
 .data          0x00000000        0x0 build/default/production/_ext/1033058136/tcpip_announce.o
 .bss           0x00000000        0x0 build/default/production/_ext/1033058136/tcpip_announce.o
 .text.TCPIP_ANNOUNCE_MessageRequest
                0x00000000       0x5c build/default/production/_ext/1033058136/tcpip_announce.o
 .text.TCPIP_ANNOUNCE_CallbackRegister
                0x00000000       0x18 build/default/production/_ext/1033058136/tcpip_announce.o
 .text          0x00000000        0x0 build/default/production/_ext/1033058136/udp.o
 .data          0x00000000        0x0 build/default/production/_ext/1033058136/udp.o
 .bss           0x00000000        0x0 build/default/production/_ext/1033058136/udp.o
 .text.TCPIP_UDP_Put
                0x00000000       0x18 build/default/production/_ext/1033058136/udp.o
 .text.TCPIP_UDP_StringPut
                0x00000000       0x2a build/default/production/_ext/1033058136/udp.o
 .text.TCPIP_UDP_TxCountGet
                0x00000000       0x22 build/default/production/_ext/1033058136/udp.o
 .text.TCPIP_UDP_RxOffsetSet
                0x00000000       0x34 build/default/production/_ext/1033058136/udp.o
 .text.TCPIP_UDP_SetSplitPayload
                0x00000000       0x5e build/default/production/_ext/1033058136/udp.o
 .text.TCPIP_UDP_SocketsNumberGet
                0x00000000        0xc build/default/production/_ext/1033058136/udp.o
 .text          0x00000000        0x0 build/default/production/_ext/1033058136/iperf.o
 .data          0x00000000        0x0 build/default/production/_ext/1033058136/iperf.o
 .bss           0x00000000        0x0 build/default/production/_ext/1033058136/iperf.o
 .text          0x00000000        0x0 build/default/production/_ext/1508031553/net_pres.o
 .data          0x00000000        0x0 build/default/production/_ext/1508031553/net_pres.o
 .bss           0x00000000        0x0 build/default/production/_ext/1508031553/net_pres.o
 .text.NET_PRES_Deinitialize
                0x00000000       0xa8 build/default/production/_ext/1508031553/net_pres.o
 .text.NET_PRES_Reinitialize
                0x00000000       0x12 build/default/production/_ext/1508031553/net_pres.o
 .text.NET_PRES_SocketOptionsGet
                0x00000000       0x58 build/default/production/_ext/1508031553/net_pres.o
 .text.NET_PRES_SocketPeek
                0x00000000       0x9c build/default/production/_ext/1508031553/net_pres.o
 .text.NET_PRES_SocketDiscard
                0x00000000       0x58 build/default/production/_ext/1508031553/net_pres.o
 .text.NET_PRES_SocketIsNegotiatingEncryption
                0x00000000       0x38 build/default/production/_ext/1508031553/net_pres.o
 .text.NET_PRES_SocketIsSecure
                0x00000000       0x34 build/default/production/_ext/1508031553/net_pres.o
 .text.NET_PRES_SocketEncryptSocket
                0x00000000       0x78 build/default/production/_ext/1508031553/net_pres.o
 .text.NET_PRES_SocketIsOpenModeSupported
                0x00000000       0xb0 build/default/production/_ext/1508031553/net_pres.o
 .text.NET_PRES_Status
                0x00000000       0x1c build/default/production/_ext/1508031553/net_pres.o
 .text.NET_PRES_SocketLastError
                0x00000000       0x40 build/default/production/_ext/1508031553/net_pres.o
 .text          0x00000000        0x0 build/default/production/_ext/1640433940/net_pres_enc_glue.o
 .data          0x00000000        0x0 build/default/production/_ext/1640433940/net_pres_enc_glue.o
 .bss           0x00000000        0x0 build/default/production/_ext/1640433940/net_pres_enc_glue.o
 .debug_info    0x00000000      0x33f build/default/production/_ext/1640433940/net_pres_enc_glue.o
 .debug_abbrev  0x00000000       0x44 build/default/production/_ext/1640433940/net_pres_enc_glue.o
 .debug_aranges
                0x00000000       0x18 build/default/production/_ext/1640433940/net_pres_enc_glue.o
 .debug_line    0x00000000       0x9e build/default/production/_ext/1640433940/net_pres_enc_glue.o
 .debug_str     0x00000000        0x0 build/default/production/_ext/1640433940/net_pres_enc_glue.o
 .comment       0x00000000       0x54 build/default/production/_ext/1640433940/net_pres_enc_glue.o
 .ARM.attributes
                0x00000000       0x39 build/default/production/_ext/1640433940/net_pres_enc_glue.o
 .text          0x00000000        0x0 build/default/production/_ext/1640433940/net_pres_cert_store.o
 .data          0x00000000        0x0 build/default/production/_ext/1640433940/net_pres_cert_store.o
 .bss           0x00000000        0x0 build/default/production/_ext/1640433940/net_pres_cert_store.o
 .debug_info    0x00000000      0x338 build/default/production/_ext/1640433940/net_pres_cert_store.o
 .debug_abbrev  0x00000000       0x44 build/default/production/_ext/1640433940/net_pres_cert_store.o
 .debug_aranges
                0x00000000       0x18 build/default/production/_ext/1640433940/net_pres_cert_store.o
 .debug_line    0x00000000       0x9e build/default/production/_ext/1640433940/net_pres_cert_store.o
 .debug_str     0x00000000        0x0 build/default/production/_ext/1640433940/net_pres_cert_store.o
 .comment       0x00000000       0x54 build/default/production/_ext/1640433940/net_pres_cert_store.o
 .ARM.attributes
                0x00000000       0x39 build/default/production/_ext/1640433940/net_pres_cert_store.o
 .text          0x00000000        0x0 build/default/production/_ext/1984496892/plib_clock.o
 .data          0x00000000        0x0 build/default/production/_ext/1984496892/plib_clock.o
 .bss           0x00000000        0x0 build/default/production/_ext/1984496892/plib_clock.o
 .text          0x00000000        0x0 build/default/production/_ext/1865131932/plib_cmcc.o
 .data          0x00000000        0x0 build/default/production/_ext/1865131932/plib_cmcc.o
 .bss           0x00000000        0x0 build/default/production/_ext/1865131932/plib_cmcc.o
 .text.CMCC_Disable
                0x00000000       0x18 build/default/production/_ext/1865131932/plib_cmcc.o
 .text.CMCC_EnableICache
                0x00000000       0x28 build/default/production/_ext/1865131932/plib_cmcc.o
 .text.CMCC_DisableICache
                0x00000000       0x28 build/default/production/_ext/1865131932/plib_cmcc.o
 .text.CMCC_EnableDCache
                0x00000000       0x28 build/default/production/_ext/1865131932/plib_cmcc.o
 .text.CMCC_DisableDCache
                0x00000000       0x28 build/default/production/_ext/1865131932/plib_cmcc.o
 .text.CMCC_InvalidateAll
                0x00000000       0x20 build/default/production/_ext/1865131932/plib_cmcc.o
 .debug_info    0x00000000      0x583 build/default/production/_ext/1865131932/plib_cmcc.o
 .debug_abbrev  0x00000000       0xac build/default/production/_ext/1865131932/plib_cmcc.o
 .debug_aranges
                0x00000000       0x48 build/default/production/_ext/1865131932/plib_cmcc.o
 .debug_ranges  0x00000000       0x38 build/default/production/_ext/1865131932/plib_cmcc.o
 .debug_line    0x00000000      0x23b build/default/production/_ext/1865131932/plib_cmcc.o
 .debug_str     0x00000000        0x0 build/default/production/_ext/1865131932/plib_cmcc.o
 .comment       0x00000000       0x54 build/default/production/_ext/1865131932/plib_cmcc.o
 .debug_frame   0x00000000       0x70 build/default/production/_ext/1865131932/plib_cmcc.o
 .ARM.attributes
                0x00000000       0x34 build/default/production/_ext/1865131932/plib_cmcc.o
 .text          0x00000000        0x0 build/default/production/_ext/1986646378/plib_evsys.o
 .data          0x00000000        0x0 build/default/production/_ext/1986646378/plib_evsys.o
 .bss           0x00000000        0x0 build/default/production/_ext/1986646378/plib_evsys.o
 .text          0x00000000        0x0 build/default/production/_ext/1865468468/plib_nvic.o
 .data          0x00000000        0x0 build/default/production/_ext/1865468468/plib_nvic.o
 .bss           0x00000000        0x0 build/default/production/_ext/1865468468/plib_nvic.o
 .text.NVIC_INT_Enable
                0x00000000        0x8 build/default/production/_ext/1865468468/plib_nvic.o
 .text          0x00000000        0x0 build/default/production/_ext/1593096446/plib_nvmctrl.o
 .data          0x00000000        0x0 build/default/production/_ext/1593096446/plib_nvmctrl.o
 .bss           0x00000000        0x0 build/default/production/_ext/1593096446/plib_nvmctrl.o
 .text.NVMCTRL_Read
                0x00000000       0x10 build/default/production/_ext/1593096446/plib_nvmctrl.o
 .text.NVMCTRL_SetWriteMode
                0x00000000       0x14 build/default/production/_ext/1593096446/plib_nvmctrl.o
 .text.NVMCTRL_QuadWordWrite
                0x00000000       0x4c build/default/production/_ext/1593096446/plib_nvmctrl.o
 .text.NVMCTRL_DoubleWordWrite
                0x00000000       0x40 build/default/production/_ext/1593096446/plib_nvmctrl.o
 .text.NVMCTRL_PageBufferWrite
                0x00000000       0x2c build/default/production/_ext/1593096446/plib_nvmctrl.o
 .text.NVMCTRL_PageBufferCommit
                0x00000000       0x28 build/default/production/_ext/1593096446/plib_nvmctrl.o
 .text.NVMCTRL_PageWrite
                0x00000000       0x40 build/default/production/_ext/1593096446/plib_nvmctrl.o
 .text.NVMCTRL_BlockErase
                0x00000000       0x1c build/default/production/_ext/1593096446/plib_nvmctrl.o
 .text.NVMCTRL_USER_ROW_RowErase
                0x00000000       0x30 build/default/production/_ext/1593096446/plib_nvmctrl.o
 .text.NVMCTRL_ErrorGet
                0x00000000       0x20 build/default/production/_ext/1593096446/plib_nvmctrl.o
 .text.NVMCTRL_StatusGet
                0x00000000        0xc build/default/production/_ext/1593096446/plib_nvmctrl.o
 .text.NVMCTRL_IsBusy
                0x00000000       0x14 build/default/production/_ext/1593096446/plib_nvmctrl.o
 .text.NVMCTRL_USER_ROW_PageWrite
                0x00000000       0x6c build/default/production/_ext/1593096446/plib_nvmctrl.o
 .text.NVMCTRL_RegionLock
                0x00000000       0x10 build/default/production/_ext/1593096446/plib_nvmctrl.o
 .text.NVMCTRL_RegionUnlock
                0x00000000       0x10 build/default/production/_ext/1593096446/plib_nvmctrl.o
 .text.NVMCTRL_RegionLockStatusGet
                0x00000000        0xc build/default/production/_ext/1593096446/plib_nvmctrl.o
 .text.NVMCTRL_SecurityBitSet
                0x00000000       0x10 build/default/production/_ext/1593096446/plib_nvmctrl.o
 .text.NVMCTRL_SmartEEPROM_IsBusy
                0x00000000       0x10 build/default/production/_ext/1593096446/plib_nvmctrl.o
 .text.NVMCTRL_SmartEEPROMStatusGet
                0x00000000        0xc build/default/production/_ext/1593096446/plib_nvmctrl.o
 .text.NVMCTRL_SmartEEPROM_IsActiveSectorFull
                0x00000000       0x10 build/default/production/_ext/1593096446/plib_nvmctrl.o
 .text.NVMCTRL_BankSwap
                0x00000000       0x10 build/default/production/_ext/1593096446/plib_nvmctrl.o
 .text.NVMCTRL_SmartEEPROMSectorReallocate
                0x00000000       0x10 build/default/production/_ext/1593096446/plib_nvmctrl.o
 .text.NVMCTRL_SmartEEPROMFlushPageBuffer
                0x00000000       0x18 build/default/production/_ext/1593096446/plib_nvmctrl.o
 .bss.nvm_error
                0x00000000        0x2 build/default/production/_ext/1593096446/plib_nvmctrl.o
 .text          0x00000000        0x0 build/default/production/_ext/1865521619/plib_port.o
 .data          0x00000000        0x0 build/default/production/_ext/1865521619/plib_port.o
 .bss           0x00000000        0x0 build/default/production/_ext/1865521619/plib_port.o
 .text.PORT_GroupRead
                0x00000000        0x4 build/default/production/_ext/1865521619/plib_port.o
 .text.PORT_GroupWrite
                0x00000000        0xc build/default/production/_ext/1865521619/plib_port.o
 .text.PORT_GroupLatchRead
                0x00000000        0x4 build/default/production/_ext/1865521619/plib_port.o
 .text.PORT_GroupSet
                0x00000000        0x4 build/default/production/_ext/1865521619/plib_port.o
 .text.PORT_GroupClear
                0x00000000        0x4 build/default/production/_ext/1865521619/plib_port.o
 .text.PORT_GroupToggle
                0x00000000        0x4 build/default/production/_ext/1865521619/plib_port.o
 .text.PORT_GroupInputEnable
                0x00000000        0x4 build/default/production/_ext/1865521619/plib_port.o
 .text.PORT_GroupOutputEnable
                0x00000000        0x4 build/default/production/_ext/1865521619/plib_port.o
 .text.PORT_PinPeripheralFunctionConfig
                0x00000000       0x4a build/default/production/_ext/1865521619/plib_port.o
 .text.PORT_PinGPIOConfig
                0x00000000       0x20 build/default/production/_ext/1865521619/plib_port.o
 .text          0x00000000        0x0 build/default/production/_ext/1865600094/plib_sdhc1.o
 .data          0x00000000        0x0 build/default/production/_ext/1865600094/plib_sdhc1.o
 .bss           0x00000000        0x0 build/default/production/_ext/1865600094/plib_sdhc1.o
 .text.SDHC1_GetError
                0x00000000        0xc build/default/production/_ext/1865600094/plib_sdhc1.o
 .text.SDHC1_ClockDisable
                0x00000000       0x12 build/default/production/_ext/1865600094/plib_sdhc1.o
 .text          0x00000000        0x0 build/default/production/_ext/504274921/plib_sercom1_usart.o
 .data          0x00000000        0x0 build/default/production/_ext/504274921/plib_sercom1_usart.o
 .bss           0x00000000        0x0 build/default/production/_ext/504274921/plib_sercom1_usart.o
 .text.SERCOM1_USART_FrequencyGet
                0x00000000        0x8 build/default/production/_ext/504274921/plib_sercom1_usart.o
 .text.SERCOM1_USART_SerialSetup
                0x00000000      0x140 build/default/production/_ext/504274921/plib_sercom1_usart.o
 .text.SERCOM1_USART_ErrorGet
                0x00000000       0x10 build/default/production/_ext/504274921/plib_sercom1_usart.o
 .text.SERCOM1_USART_ReadBufferSizeGet
                0x00000000        0xc build/default/production/_ext/504274921/plib_sercom1_usart.o
 .text.SERCOM1_USART_ReadNotificationEnable
                0x00000000       0x18 build/default/production/_ext/504274921/plib_sercom1_usart.o
 .text.SERCOM1_USART_ReadThresholdSet
                0x00000000        0xc build/default/production/_ext/504274921/plib_sercom1_usart.o
 .text.SERCOM1_USART_ReadCallbackRegister
                0x00000000        0xc build/default/production/_ext/504274921/plib_sercom1_usart.o
 .text.SERCOM1_USART_TransmitComplete
                0x00000000       0x10 build/default/production/_ext/504274921/plib_sercom1_usart.o
 .text.SERCOM1_USART_WriteBufferSizeGet
                0x00000000        0xc build/default/production/_ext/504274921/plib_sercom1_usart.o
 .text.SERCOM1_USART_WriteNotificationEnable
                0x00000000       0x10 build/default/production/_ext/504274921/plib_sercom1_usart.o
 .text.SERCOM1_USART_WriteThresholdSet
                0x00000000        0xc build/default/production/_ext/504274921/plib_sercom1_usart.o
 .text.SERCOM1_USART_WriteCallbackRegister
                0x00000000        0xc build/default/production/_ext/504274921/plib_sercom1_usart.o
 .text          0x00000000        0x0 build/default/production/_ext/829342655/plib_tc0.o
 .data          0x00000000        0x0 build/default/production/_ext/829342655/plib_tc0.o
 .bss           0x00000000        0x0 build/default/production/_ext/829342655/plib_tc0.o
 .text.TC0_TimerCommandSet
                0x00000000       0x18 build/default/production/_ext/829342655/plib_tc0.o
 .text.TC0_Timer16bitCounterSet
                0x00000000       0x14 build/default/production/_ext/829342655/plib_tc0.o
 .text.TC0_Timer16bitPeriodGet
                0x00000000        0xc build/default/production/_ext/829342655/plib_tc0.o
 .text          0x00000000        0x0 build/default/production/_ext/163028504/xc32_monitor.o
 .data          0x00000000        0x0 build/default/production/_ext/163028504/xc32_monitor.o
 .bss           0x00000000        0x0 build/default/production/_ext/163028504/xc32_monitor.o
 .text.read     0x00000000        0x6 build/default/production/_ext/163028504/xc32_monitor.o
 .text.write    0x00000000        0x6 build/default/production/_ext/163028504/xc32_monitor.o
 .debug_info    0x00000000      0x34d build/default/production/_ext/163028504/xc32_monitor.o
 .debug_abbrev  0x00000000       0x96 build/default/production/_ext/163028504/xc32_monitor.o
 .debug_loc     0x00000000       0x4a build/default/production/_ext/163028504/xc32_monitor.o
 .debug_aranges
                0x00000000       0x28 build/default/production/_ext/163028504/xc32_monitor.o
 .debug_ranges  0x00000000       0x18 build/default/production/_ext/163028504/xc32_monitor.o
 .debug_line    0x00000000       0xca build/default/production/_ext/163028504/xc32_monitor.o
 .debug_str     0x00000000        0x0 build/default/production/_ext/163028504/xc32_monitor.o
 .comment       0x00000000       0x54 build/default/production/_ext/163028504/xc32_monitor.o
 .debug_frame   0x00000000       0x30 build/default/production/_ext/163028504/xc32_monitor.o
 .ARM.attributes
                0x00000000       0x34 build/default/production/_ext/163028504/xc32_monitor.o
 .text          0x00000000        0x0 build/default/production/_ext/1014039709/sys_cache.o
 .data          0x00000000        0x0 build/default/production/_ext/1014039709/sys_cache.o
 .bss           0x00000000        0x0 build/default/production/_ext/1014039709/sys_cache.o
 .text.SYS_CACHE_EnableCaches
                0x00000000        0x2 build/default/production/_ext/1014039709/sys_cache.o
 .text.SYS_CACHE_DisableCaches
                0x00000000        0x2 build/default/production/_ext/1014039709/sys_cache.o
 .text.SYS_CACHE_EnableICache
                0x00000000        0x2 build/default/production/_ext/1014039709/sys_cache.o
 .text.SYS_CACHE_DisableICache
                0x00000000        0x2 build/default/production/_ext/1014039709/sys_cache.o
 .text.SYS_CACHE_InvalidateICache
                0x00000000        0x2 build/default/production/_ext/1014039709/sys_cache.o
 .text.SYS_CACHE_EnableDCache
                0x00000000        0x2 build/default/production/_ext/1014039709/sys_cache.o
 .text.SYS_CACHE_DisableDCache
                0x00000000        0x2 build/default/production/_ext/1014039709/sys_cache.o
 .text.SYS_CACHE_InvalidateDCache
                0x00000000        0x2 build/default/production/_ext/1014039709/sys_cache.o
 .text.SYS_CACHE_CleanDCache
                0x00000000        0x2 build/default/production/_ext/1014039709/sys_cache.o
 .text.SYS_CACHE_CleanInvalidateDCache
                0x00000000        0x2 build/default/production/_ext/1014039709/sys_cache.o
 .text.SYS_CACHE_InvalidateDCache_by_Addr
                0x00000000        0x2 build/default/production/_ext/1014039709/sys_cache.o
 .text.SYS_CACHE_CleanDCache_by_Addr
                0x00000000        0x2 build/default/production/_ext/1014039709/sys_cache.o
 .text.SYS_CACHE_CleanInvalidateDCache_by_Addr
                0x00000000        0x2 build/default/production/_ext/1014039709/sys_cache.o
 .debug_info    0x00000000      0x615 build/default/production/_ext/1014039709/sys_cache.o
 .debug_abbrev  0x00000000       0xa9 build/default/production/_ext/1014039709/sys_cache.o
 .debug_aranges
                0x00000000       0x80 build/default/production/_ext/1014039709/sys_cache.o
 .debug_ranges  0x00000000       0x70 build/default/production/_ext/1014039709/sys_cache.o
 .debug_line    0x00000000      0x1c5 build/default/production/_ext/1014039709/sys_cache.o
 .debug_str     0x00000000        0x0 build/default/production/_ext/1014039709/sys_cache.o
 .comment       0x00000000       0x54 build/default/production/_ext/1014039709/sys_cache.o
 .debug_frame   0x00000000       0xe0 build/default/production/_ext/1014039709/sys_cache.o
 .ARM.attributes
                0x00000000       0x34 build/default/production/_ext/1014039709/sys_cache.o
 .text          0x00000000        0x0 build/default/production/_ext/1376093119/sys_command.o
 .data          0x00000000        0x0 build/default/production/_ext/1376093119/sys_command.o
 .bss           0x00000000        0x0 build/default/production/_ext/1376093119/sys_command.o
 .text.SYS_CMD_READY_TO_READ
                0x00000000        0x4 build/default/production/_ext/1376093119/sys_command.o
 .text.SYS_CMD_MESSAGE
                0x00000000        0xc build/default/production/_ext/1376093119/sys_command.o
 .text.SYS_CMD_PRINT
                0x00000000       0x80 build/default/production/_ext/1376093119/sys_command.o
 .text.SYS_CMDIO_GET_HANDLE
                0x00000000       0x20 build/default/production/_ext/1376093119/sys_command.o
 .text.SYS_CMD_DELETE
                0x00000000       0x64 build/default/production/_ext/1376093119/sys_command.o
 .text          0x00000000        0x0 build/default/production/_ext/1832805299/sys_console.o
 .data          0x00000000        0x0 build/default/production/_ext/1832805299/sys_console.o
 .bss           0x00000000        0x0 build/default/production/_ext/1832805299/sys_console.o
 .text.SYS_CONSOLE_HandleGet
                0x00000000        0xa build/default/production/_ext/1832805299/sys_console.o
 .text.SYS_CONSOLE_DeviceGet
                0x00000000       0x18 build/default/production/_ext/1832805299/sys_console.o
 .text.SYS_CONSOLE_Tasks
                0x00000000       0x28 build/default/production/_ext/1832805299/sys_console.o
 .text.SYS_CONSOLE_ReadFreeBufferCountGet
                0x00000000       0x34 build/default/production/_ext/1832805299/sys_console.o
 .text.SYS_CONSOLE_WriteFreeBufferCountGet
                0x00000000       0x34 build/default/production/_ext/1832805299/sys_console.o
 .text.SYS_CONSOLE_WriteCountGet
                0x00000000       0x34 build/default/production/_ext/1832805299/sys_console.o
 .text.SYS_CONSOLE_Flush
                0x00000000       0x2c build/default/production/_ext/1832805299/sys_console.o
 .text          0x00000000        0x0 build/default/production/_ext/1832805299/sys_console_uart.o
 .data          0x00000000        0x0 build/default/production/_ext/1832805299/sys_console_uart.o
 .bss           0x00000000        0x0 build/default/production/_ext/1832805299/sys_console_uart.o
 .text          0x00000000        0x0 build/default/production/_ext/944882569/sys_debug.o
 .data          0x00000000        0x0 build/default/production/_ext/944882569/sys_debug.o
 .bss           0x00000000        0x0 build/default/production/_ext/944882569/sys_debug.o
 .text.SYS_DEBUG_Status
                0x00000000        0xc build/default/production/_ext/944882569/sys_debug.o
 .text.SYS_DEBUG_ErrorLevelSet
                0x00000000        0xc build/default/production/_ext/944882569/sys_debug.o
 .text.SYS_DEBUG_Redirect
                0x00000000       0x14 build/default/production/_ext/944882569/sys_debug.o
 .text          0x00000000        0x0 build/default/production/_ext/411819097/ff.o
 .data          0x00000000        0x0 build/default/production/_ext/411819097/ff.o
 .bss           0x00000000        0x0 build/default/production/_ext/411819097/ff.o
 .text          0x00000000        0x0 build/default/production/_ext/411819097/ffunicode.o
 .data          0x00000000        0x0 build/default/production/_ext/411819097/ffunicode.o
 .bss           0x00000000        0x0 build/default/production/_ext/411819097/ffunicode.o
 .text          0x00000000        0x0 build/default/production/_ext/565198302/diskio.o
 .data          0x00000000        0x0 build/default/production/_ext/565198302/diskio.o
 .bss           0x00000000        0x0 build/default/production/_ext/565198302/diskio.o
 .text          0x00000000        0x0 build/default/production/_ext/1269487135/sys_fs.o
 .data          0x00000000        0x0 build/default/production/_ext/1269487135/sys_fs.o
 .bss           0x00000000        0x0 build/default/production/_ext/1269487135/sys_fs.o
 .text.SYS_FS_Mount
                0x00000000      0x194 build/default/production/_ext/1269487135/sys_fs.o
 .text.SYS_FS_Unmount
                0x00000000       0xf0 build/default/production/_ext/1269487135/sys_fs.o
 .text.SYS_FS_FileNameGet
                0x00000000       0x50 build/default/production/_ext/1269487135/sys_fs.o
 .text.SYS_FS_FileError
                0x00000000       0x16 build/default/production/_ext/1269487135/sys_fs.o
 .text.SYS_FS_DirRead
                0x00000000       0x74 build/default/production/_ext/1269487135/sys_fs.o
 .text.SYS_FS_DirRewind
                0x00000000       0x6c build/default/production/_ext/1269487135/sys_fs.o
 .text.SYS_FS_FileStringGet
                0x00000000       0x80 build/default/production/_ext/1269487135/sys_fs.o
 .text.SYS_FS_DirectoryChange
                0x00000000       0x88 build/default/production/_ext/1269487135/sys_fs.o
 .text.SYS_FS_CurrentWorkingDirectoryGet
                0x00000000      0x110 build/default/production/_ext/1269487135/sys_fs.o
 .text.SYS_FS_CurrentDriveGet
                0x00000000       0x4c build/default/production/_ext/1269487135/sys_fs.o
 .text.SYS_FS_DriveLabelGet
                0x00000000       0xa8 build/default/production/_ext/1269487135/sys_fs.o
 .text.SYS_FS_FileSync
                0x00000000       0x6c build/default/production/_ext/1269487135/sys_fs.o
 .text.SYS_FS_FileTruncate
                0x00000000       0x68 build/default/production/_ext/1269487135/sys_fs.o
 .text.SYS_FS_FileCharacterPut
                0x00000000       0x74 build/default/production/_ext/1269487135/sys_fs.o
 .text.SYS_FS_FileStringPut
                0x00000000       0x78 build/default/production/_ext/1269487135/sys_fs.o
 .text.SYS_FS_FilePrintf
                0x00000000       0x8c build/default/production/_ext/1269487135/sys_fs.o
 .text.SYS_FS_FileTestError
                0x00000000       0x5c build/default/production/_ext/1269487135/sys_fs.o
 .text.SYS_FS_FileDirectoryModeSet
                0x00000000       0x90 build/default/production/_ext/1269487135/sys_fs.o
 .text.SYS_FS_FileDirectoryTimeSet
                0x00000000       0xa0 build/default/production/_ext/1269487135/sys_fs.o
 .text.SYS_FS_FileDirectoryRenameMove
                0x00000000       0xb0 build/default/production/_ext/1269487135/sys_fs.o
 .text.SYS_FS_CurrentDriveSet
                0x00000000       0xa0 build/default/production/_ext/1269487135/sys_fs.o
 .text.SYS_FS_DriveLabelSet
                0x00000000       0xb4 build/default/production/_ext/1269487135/sys_fs.o
 .text.SYS_FS_DriveFormat
                0x00000000       0x74 build/default/production/_ext/1269487135/sys_fs.o
 .text.SYS_FS_DrivePartition
                0x00000000       0x78 build/default/production/_ext/1269487135/sys_fs.o
 .text.SYS_FS_DriveSectorGet
                0x00000000       0xb4 build/default/production/_ext/1269487135/sys_fs.o
 .text          0x00000000        0x0 build/default/production/_ext/1269487135/sys_fs_media_manager.o
 .data          0x00000000        0x0 build/default/production/_ext/1269487135/sys_fs_media_manager.o
 .bss           0x00000000        0x0 build/default/production/_ext/1269487135/sys_fs_media_manager.o
 .text.SYS_FS_MEDIA_MANAGER_DeRegister
                0x00000000        0xc build/default/production/_ext/1269487135/sys_fs_media_manager.o
 .text.SYS_FS_MEDIA_MANAGER_Read
                0x00000000       0x4c build/default/production/_ext/1269487135/sys_fs_media_manager.o
 .text.SYS_FS_MEDIA_MANAGER_AddressGet
                0x00000000       0x1c build/default/production/_ext/1269487135/sys_fs_media_manager.o
 .text.SYS_FS_MEDIA_MANAGER_CommandStatusGet
                0x00000000       0x28 build/default/production/_ext/1269487135/sys_fs_media_manager.o
 .text.SYS_FS_MEDIA_MANAGER_MediaStatusGet
                0x00000000       0x5c build/default/production/_ext/1269487135/sys_fs_media_manager.o
 .text.SYS_FS_MEDIA_MANAGER_VolumePropertyGet
                0x00000000       0x30 build/default/production/_ext/1269487135/sys_fs_media_manager.o
 .text          0x00000000        0x0 build/default/production/_ext/1269487135/sys_fs_fat_interface.o
 .data          0x00000000        0x0 build/default/production/_ext/1269487135/sys_fs_fat_interface.o
 .bss           0x00000000        0x0 build/default/production/_ext/1269487135/sys_fs_fat_interface.o
 .text.FATFS_getfree
                0x00000000        0x8 build/default/production/_ext/1269487135/sys_fs_fat_interface.o
 .text          0x00000000        0x0 build/default/production/_ext/1881668453/sys_int.o
 .data          0x00000000        0x0 build/default/production/_ext/1881668453/sys_int.o
 .bss           0x00000000        0x0 build/default/production/_ext/1881668453/sys_int.o
 .text.SYS_INT_Enable
                0x00000000        0x8 build/default/production/_ext/1881668453/sys_int.o
 .text          0x00000000        0x0 build/default/production/_ext/1000052432/sys_reset.o
 .data          0x00000000        0x0 build/default/production/_ext/1000052432/sys_reset.o
 .bss           0x00000000        0x0 build/default/production/_ext/1000052432/sys_reset.o
 .text          0x00000000        0x0 build/default/production/_ext/101884895/sys_time.o
 .data          0x00000000        0x0 build/default/production/_ext/101884895/sys_time.o
 .bss           0x00000000        0x0 build/default/production/_ext/101884895/sys_time.o
 .text.SYS_TIME_Deinitialize
                0x00000000       0x30 build/default/production/_ext/101884895/sys_time.o
 .text.SYS_TIME_Status
                0x00000000       0x14 build/default/production/_ext/101884895/sys_time.o
 .text.SYS_TIME_CounterGet
                0x00000000        0x8 build/default/production/_ext/101884895/sys_time.o
 .text.SYS_TIME_CounterSet
                0x00000000       0x1c build/default/production/_ext/101884895/sys_time.o
 .text.SYS_TIME_CountToUS
                0x00000000       0x44 build/default/production/_ext/101884895/sys_time.o
 .text.SYS_TIME_CountToMS
                0x00000000       0x3c build/default/production/_ext/101884895/sys_time.o
 .text.SYS_TIME_USToCount
                0x00000000       0x1c build/default/production/_ext/101884895/sys_time.o
 .text.SYS_TIME_TimerCreate
                0x00000000       0x1c build/default/production/_ext/101884895/sys_time.o
 .text.SYS_TIME_TimerReload
                0x00000000       0x88 build/default/production/_ext/101884895/sys_time.o
 .text.SYS_TIME_TimerStop
                0x00000000       0x3c build/default/production/_ext/101884895/sys_time.o
 .text.SYS_TIME_TimerCounterGet
                0x00000000       0x88 build/default/production/_ext/101884895/sys_time.o
 .text.SYS_TIME_DelayUS
                0x00000000       0x50 build/default/production/_ext/101884895/sys_time.o
 .text.SYS_TIME_CallbackRegisterUS
                0x00000000       0x58 build/default/production/_ext/101884895/sys_time.o
 .text          0x00000000        0x0 build/default/production/_ext/753841488/sys_time_h2_adapter.o
 .data          0x00000000        0x0 build/default/production/_ext/753841488/sys_time_h2_adapter.o
 .bss           0x00000000        0x0 build/default/production/_ext/753841488/sys_time_h2_adapter.o
 .text          0x00000000        0x0 build/default/production/_ext/753841488/sys_random_h2_adapter.o
 .data          0x00000000        0x0 build/default/production/_ext/753841488/sys_random_h2_adapter.o
 .bss           0x00000000        0x0 build/default/production/_ext/753841488/sys_random_h2_adapter.o
 .text._InitSysRand
                0x00000000       0x5c build/default/production/_ext/753841488/sys_random_h2_adapter.o
 .text._SYS_RANDOM_CryptoLock
                0x00000000       0x40 build/default/production/_ext/753841488/sys_random_h2_adapter.o
 .text.SYS_RANDOM_CryptoInitialize
                0x00000000       0x10 build/default/production/_ext/753841488/sys_random_h2_adapter.o
 .text.SYS_RANDOM_CryptoDeinitialize
                0x00000000       0x28 build/default/production/_ext/753841488/sys_random_h2_adapter.o
 .text.SYS_RANDOM_CryptoGet
                0x00000000       0x34 build/default/production/_ext/753841488/sys_random_h2_adapter.o
 .text.SYS_RANDOM_CryptoBlockGet
                0x00000000       0x3c build/default/production/_ext/753841488/sys_random_h2_adapter.o
 .text.SYS_RANDOM_CryptoByteGet
                0x00000000       0x38 build/default/production/_ext/753841488/sys_random_h2_adapter.o
 .bss.pRandCtx  0x00000000        0x4 build/default/production/_ext/753841488/sys_random_h2_adapter.o
 .bss.randLockCount
                0x00000000        0x4 build/default/production/_ext/753841488/sys_random_h2_adapter.o
 .bss.randSemaphore
                0x00000000        0x1 build/default/production/_ext/753841488/sys_random_h2_adapter.o
 .bss.sysRandCtx
                0x00000000      0x108 build/default/production/_ext/753841488/sys_random_h2_adapter.o
 .debug_info    0x00000000      0xeb0 build/default/production/_ext/753841488/sys_random_h2_adapter.o
 .debug_abbrev  0x00000000      0x2e7 build/default/production/_ext/753841488/sys_random_h2_adapter.o
 .debug_loc     0x00000000      0x5e3 build/default/production/_ext/753841488/sys_random_h2_adapter.o
 .debug_aranges
                0x00000000       0x50 build/default/production/_ext/753841488/sys_random_h2_adapter.o
 .debug_ranges  0x00000000       0xb8 build/default/production/_ext/753841488/sys_random_h2_adapter.o
 .debug_line    0x00000000      0x509 build/default/production/_ext/753841488/sys_random_h2_adapter.o
 .debug_str     0x00000000       0xab build/default/production/_ext/753841488/sys_random_h2_adapter.o
 .comment       0x00000000       0x54 build/default/production/_ext/753841488/sys_random_h2_adapter.o
 .debug_frame   0x00000000       0xbc build/default/production/_ext/753841488/sys_random_h2_adapter.o
 .ARM.attributes
                0x00000000       0x34 build/default/production/_ext/753841488/sys_random_h2_adapter.o
 .text          0x00000000        0x0 build/default/production/_ext/1171490990/initialization.o
 .data          0x00000000        0x0 build/default/production/_ext/1171490990/initialization.o
 .bss           0x00000000        0x0 build/default/production/_ext/1171490990/initialization.o
 .bss.tcpipICMPInitData
                0x00000000        0x4 build/default/production/_ext/1171490990/initialization.o
 .rodata.TCPIP_HOSTS_CONFIGURATION_SIZE
                0x00000000        0x4 build/default/production/_ext/1171490990/initialization.o
 .rodata.TCPIP_STACK_MODULE_CONFIG_TBL_SIZE
                0x00000000        0x4 build/default/production/_ext/1171490990/initialization.o
 .text          0x00000000        0x0 build/default/production/_ext/1171490990/interrupts.o
 .data          0x00000000        0x0 build/default/production/_ext/1171490990/interrupts.o
 .bss           0x00000000        0x0 build/default/production/_ext/1171490990/interrupts.o
 .text          0x00000000        0x0 build/default/production/_ext/1171490990/exceptions.o
 .data          0x00000000        0x0 build/default/production/_ext/1171490990/exceptions.o
 .bss           0x00000000        0x0 build/default/production/_ext/1171490990/exceptions.o
 .text          0x00000000        0x0 build/default/production/_ext/1171490990/startup_xc32.o
 .data          0x00000000        0x0 build/default/production/_ext/1171490990/startup_xc32.o
 .bss           0x00000000        0x0 build/default/production/_ext/1171490990/startup_xc32.o
 .text          0x00000000        0x0 build/default/production/_ext/1171490990/libc_syscalls.o
 .data          0x00000000        0x0 build/default/production/_ext/1171490990/libc_syscalls.o
 .bss           0x00000000        0x0 build/default/production/_ext/1171490990/libc_syscalls.o
 .text._exit    0x00000000        0x2 build/default/production/_ext/1171490990/libc_syscalls.o
 .debug_info    0x00000000      0x3ca build/default/production/_ext/1171490990/libc_syscalls.o
 .debug_abbrev  0x00000000       0xb6 build/default/production/_ext/1171490990/libc_syscalls.o
 .debug_loc     0x00000000       0x15 build/default/production/_ext/1171490990/libc_syscalls.o
 .debug_aranges
                0x00000000       0x20 build/default/production/_ext/1171490990/libc_syscalls.o
 .debug_ranges  0x00000000       0x10 build/default/production/_ext/1171490990/libc_syscalls.o
 .debug_line    0x00000000      0x121 build/default/production/_ext/1171490990/libc_syscalls.o
 .debug_str     0x00000000        0x0 build/default/production/_ext/1171490990/libc_syscalls.o
 .comment       0x00000000       0x54 build/default/production/_ext/1171490990/libc_syscalls.o
 .debug_frame   0x00000000       0x20 build/default/production/_ext/1171490990/libc_syscalls.o
 .ARM.attributes
                0x00000000       0x34 build/default/production/_ext/1171490990/libc_syscalls.o
 .text          0x00000000        0x0 build/default/production/_ext/1171490990/tasks.o
 .data          0x00000000        0x0 build/default/production/_ext/1171490990/tasks.o
 .bss           0x00000000        0x0 build/default/production/_ext/1171490990/tasks.o
 .text          0x00000000        0x0 build/default/production/_ext/172253694/pic32mz-crypt.o
 .data          0x00000000        0x0 build/default/production/_ext/172253694/pic32mz-crypt.o
 .bss           0x00000000        0x0 build/default/production/_ext/172253694/pic32mz-crypt.o
 .debug_info    0x00000000      0x359 build/default/production/_ext/172253694/pic32mz-crypt.o
 .debug_abbrev  0x00000000       0x44 build/default/production/_ext/172253694/pic32mz-crypt.o
 .debug_aranges
                0x00000000       0x18 build/default/production/_ext/172253694/pic32mz-crypt.o
 .debug_line    0x00000000       0x9e build/default/production/_ext/172253694/pic32mz-crypt.o
 .debug_str     0x00000000        0x0 build/default/production/_ext/172253694/pic32mz-crypt.o
 .comment       0x00000000       0x54 build/default/production/_ext/172253694/pic32mz-crypt.o
 .ARM.attributes
                0x00000000       0x39 build/default/production/_ext/172253694/pic32mz-crypt.o
 .text          0x00000000        0x0 build/default/production/_ext/172253694/crypt_aes_sam6149.o
 .data          0x00000000        0x0 build/default/production/_ext/172253694/crypt_aes_sam6149.o
 .bss           0x00000000        0x0 build/default/production/_ext/172253694/crypt_aes_sam6149.o
 .debug_info    0x00000000      0x35d build/default/production/_ext/172253694/crypt_aes_sam6149.o
 .debug_abbrev  0x00000000       0x44 build/default/production/_ext/172253694/crypt_aes_sam6149.o
 .debug_aranges
                0x00000000       0x18 build/default/production/_ext/172253694/crypt_aes_sam6149.o
 .debug_line    0x00000000       0x9e build/default/production/_ext/172253694/crypt_aes_sam6149.o
 .debug_str     0x00000000        0x0 build/default/production/_ext/172253694/crypt_aes_sam6149.o
 .comment       0x00000000       0x54 build/default/production/_ext/172253694/crypt_aes_sam6149.o
 .ARM.attributes
                0x00000000       0x39 build/default/production/_ext/172253694/crypt_aes_sam6149.o
 .text          0x00000000        0x0 build/default/production/_ext/172253694/crypt_aes_u2238.o
 .data          0x00000000        0x0 build/default/production/_ext/172253694/crypt_aes_u2238.o
 .bss           0x00000000        0x0 build/default/production/_ext/172253694/crypt_aes_u2238.o
 .debug_info    0x00000000      0x35b build/default/production/_ext/172253694/crypt_aes_u2238.o
 .debug_abbrev  0x00000000       0x44 build/default/production/_ext/172253694/crypt_aes_u2238.o
 .debug_aranges
                0x00000000       0x18 build/default/production/_ext/172253694/crypt_aes_u2238.o
 .debug_line    0x00000000       0x9e build/default/production/_ext/172253694/crypt_aes_u2238.o
 .debug_str     0x00000000        0x0 build/default/production/_ext/172253694/crypt_aes_u2238.o
 .comment       0x00000000       0x54 build/default/production/_ext/172253694/crypt_aes_u2238.o
 .ARM.attributes
                0x00000000       0x39 build/default/production/_ext/172253694/crypt_aes_u2238.o
 .text          0x00000000        0x0 build/default/production/_ext/172253694/crypt_ecc_ba414e.o
 .data          0x00000000        0x0 build/default/production/_ext/172253694/crypt_ecc_ba414e.o
 .bss           0x00000000        0x0 build/default/production/_ext/172253694/crypt_ecc_ba414e.o
 .debug_info    0x00000000      0x34d build/default/production/_ext/172253694/crypt_ecc_ba414e.o
 .debug_abbrev  0x00000000       0x44 build/default/production/_ext/172253694/crypt_ecc_ba414e.o
 .debug_aranges
                0x00000000       0x18 build/default/production/_ext/172253694/crypt_ecc_ba414e.o
 .debug_line    0x00000000       0x9e build/default/production/_ext/172253694/crypt_ecc_ba414e.o
 .debug_str     0x00000000        0x0 build/default/production/_ext/172253694/crypt_ecc_ba414e.o
 .comment       0x00000000       0x54 build/default/production/_ext/172253694/crypt_ecc_ba414e.o
 .ARM.attributes
                0x00000000       0x39 build/default/production/_ext/172253694/crypt_ecc_ba414e.o
 .text          0x00000000        0x0 build/default/production/_ext/172253694/crypt_ecc_pukcl.o
 .data          0x00000000        0x0 build/default/production/_ext/172253694/crypt_ecc_pukcl.o
 .bss           0x00000000        0x0 build/default/production/_ext/172253694/crypt_ecc_pukcl.o
 .debug_info    0x00000000     0x29c6 build/default/production/_ext/172253694/crypt_ecc_pukcl.o
 .debug_abbrev  0x00000000      0x106 build/default/production/_ext/172253694/crypt_ecc_pukcl.o
 .debug_aranges
                0x00000000       0x18 build/default/production/_ext/172253694/crypt_ecc_pukcl.o
 .debug_line    0x00000000      0x4d8 build/default/production/_ext/172253694/crypt_ecc_pukcl.o
 .debug_str     0x00000000      0x20b build/default/production/_ext/172253694/crypt_ecc_pukcl.o
 .comment       0x00000000       0x54 build/default/production/_ext/172253694/crypt_ecc_pukcl.o
 .ARM.attributes
                0x00000000       0x39 build/default/production/_ext/172253694/crypt_ecc_pukcl.o
 .text          0x00000000        0x0 build/default/production/_ext/172253694/crypt_pukcl_functions.o
 .data          0x00000000        0x0 build/default/production/_ext/172253694/crypt_pukcl_functions.o
 .bss           0x00000000        0x0 build/default/production/_ext/172253694/crypt_pukcl_functions.o
 .text.crypt_pukcl_SelfTest
                0x00000000       0x88 build/default/production/_ext/172253694/crypt_pukcl_functions.o
 .text.SecureCopy
                0x00000000       0x4e build/default/production/_ext/172253694/crypt_pukcl_functions.o
 .bss.PUKCLParam
                0x00000000       0x30 build/default/production/_ext/172253694/crypt_pukcl_functions.o
 .bss.SelfTestState
                0x00000000        0x1 build/default/production/_ext/172253694/crypt_pukcl_functions.o
 .bss.pvPUKCLParam
                0x00000000        0x4 build/default/production/_ext/172253694/crypt_pukcl_functions.o
 .debug_info    0x00000000     0x2973 build/default/production/_ext/172253694/crypt_pukcl_functions.o
 .debug_abbrev  0x00000000      0x1a0 build/default/production/_ext/172253694/crypt_pukcl_functions.o
 .debug_loc     0x00000000      0x223 build/default/production/_ext/172253694/crypt_pukcl_functions.o
 .debug_aranges
                0x00000000       0x28 build/default/production/_ext/172253694/crypt_pukcl_functions.o
 .debug_ranges  0x00000000       0x18 build/default/production/_ext/172253694/crypt_pukcl_functions.o
 .debug_line    0x00000000      0x54d build/default/production/_ext/172253694/crypt_pukcl_functions.o
 .debug_str     0x00000000      0x1fe build/default/production/_ext/172253694/crypt_pukcl_functions.o
 .comment       0x00000000       0x54 build/default/production/_ext/172253694/crypt_pukcl_functions.o
 .debug_frame   0x00000000       0x4c build/default/production/_ext/172253694/crypt_pukcl_functions.o
 .ARM.attributes
                0x00000000       0x34 build/default/production/_ext/172253694/crypt_pukcl_functions.o
 .text          0x00000000        0x0 build/default/production/_ext/172253694/crypt_rng_sam6334.o
 .data          0x00000000        0x0 build/default/production/_ext/172253694/crypt_rng_sam6334.o
 .bss           0x00000000        0x0 build/default/production/_ext/172253694/crypt_rng_sam6334.o
 .debug_info    0x00000000      0x35d build/default/production/_ext/172253694/crypt_rng_sam6334.o
 .debug_abbrev  0x00000000       0x44 build/default/production/_ext/172253694/crypt_rng_sam6334.o
 .debug_aranges
                0x00000000       0x18 build/default/production/_ext/172253694/crypt_rng_sam6334.o
 .debug_line    0x00000000       0x9e build/default/production/_ext/172253694/crypt_rng_sam6334.o
 .debug_str     0x00000000        0x0 build/default/production/_ext/172253694/crypt_rng_sam6334.o
 .comment       0x00000000       0x54 build/default/production/_ext/172253694/crypt_rng_sam6334.o
 .ARM.attributes
                0x00000000       0x39 build/default/production/_ext/172253694/crypt_rng_sam6334.o
 .text          0x00000000        0x0 build/default/production/_ext/172253694/crypt_rng_u2242.o
 .data          0x00000000        0x0 build/default/production/_ext/172253694/crypt_rng_u2242.o
 .bss           0x00000000        0x0 build/default/production/_ext/172253694/crypt_rng_u2242.o
 .debug_info    0x00000000      0x35b build/default/production/_ext/172253694/crypt_rng_u2242.o
 .debug_abbrev  0x00000000       0x44 build/default/production/_ext/172253694/crypt_rng_u2242.o
 .debug_aranges
                0x00000000       0x18 build/default/production/_ext/172253694/crypt_rng_u2242.o
 .debug_line    0x00000000       0x9e build/default/production/_ext/172253694/crypt_rng_u2242.o
 .debug_str     0x00000000        0x0 build/default/production/_ext/172253694/crypt_rng_u2242.o
 .comment       0x00000000       0x54 build/default/production/_ext/172253694/crypt_rng_u2242.o
 .ARM.attributes
                0x00000000       0x39 build/default/production/_ext/172253694/crypt_rng_u2242.o
 .text          0x00000000        0x0 build/default/production/_ext/172253694/crypt_rsa_pukcl.o
 .data          0x00000000        0x0 build/default/production/_ext/172253694/crypt_rsa_pukcl.o
 .bss           0x00000000        0x0 build/default/production/_ext/172253694/crypt_rsa_pukcl.o
 .debug_info    0x00000000     0x29a5 build/default/production/_ext/172253694/crypt_rsa_pukcl.o
 .debug_abbrev  0x00000000      0x106 build/default/production/_ext/172253694/crypt_rsa_pukcl.o
 .debug_aranges
                0x00000000       0x18 build/default/production/_ext/172253694/crypt_rsa_pukcl.o
 .debug_line    0x00000000      0x4cf build/default/production/_ext/172253694/crypt_rsa_pukcl.o
 .debug_str     0x00000000      0x20b build/default/production/_ext/172253694/crypt_rsa_pukcl.o
 .comment       0x00000000       0x54 build/default/production/_ext/172253694/crypt_rsa_pukcl.o
 .ARM.attributes
                0x00000000       0x39 build/default/production/_ext/172253694/crypt_rsa_pukcl.o
 .text          0x00000000        0x0 build/default/production/_ext/172253694/crypt_sam_u2803.o
 .data          0x00000000        0x0 build/default/production/_ext/172253694/crypt_sam_u2803.o
 .bss           0x00000000        0x0 build/default/production/_ext/172253694/crypt_sam_u2803.o
 .debug_info    0x00000000      0x34c build/default/production/_ext/172253694/crypt_sam_u2803.o
 .debug_abbrev  0x00000000       0x44 build/default/production/_ext/172253694/crypt_sam_u2803.o
 .debug_aranges
                0x00000000       0x18 build/default/production/_ext/172253694/crypt_sam_u2803.o
 .debug_line    0x00000000       0x9e build/default/production/_ext/172253694/crypt_sam_u2803.o
 .debug_str     0x00000000        0x0 build/default/production/_ext/172253694/crypt_sam_u2803.o
 .comment       0x00000000       0x54 build/default/production/_ext/172253694/crypt_sam_u2803.o
 .ARM.attributes
                0x00000000       0x39 build/default/production/_ext/172253694/crypt_sam_u2803.o
 .text          0x00000000        0x0 build/default/production/_ext/172253694/crypt_sha1_sam11105.o
 .data          0x00000000        0x0 build/default/production/_ext/172253694/crypt_sha1_sam11105.o
 .bss           0x00000000        0x0 build/default/production/_ext/172253694/crypt_sha1_sam11105.o
 .debug_info    0x00000000      0x35f build/default/production/_ext/172253694/crypt_sha1_sam11105.o
 .debug_abbrev  0x00000000       0x44 build/default/production/_ext/172253694/crypt_sha1_sam11105.o
 .debug_aranges
                0x00000000       0x18 build/default/production/_ext/172253694/crypt_sha1_sam11105.o
 .debug_line    0x00000000       0x9e build/default/production/_ext/172253694/crypt_sha1_sam11105.o
 .debug_str     0x00000000        0x0 build/default/production/_ext/172253694/crypt_sha1_sam11105.o
 .comment       0x00000000       0x54 build/default/production/_ext/172253694/crypt_sha1_sam11105.o
 .ARM.attributes
                0x00000000       0x39 build/default/production/_ext/172253694/crypt_sha1_sam11105.o
 .text          0x00000000        0x0 build/default/production/_ext/172253694/crypt_sha1_sam6156.o
 .data          0x00000000        0x0 build/default/production/_ext/172253694/crypt_sha1_sam6156.o
 .bss           0x00000000        0x0 build/default/production/_ext/172253694/crypt_sha1_sam6156.o
 .debug_info    0x00000000      0x35e build/default/production/_ext/172253694/crypt_sha1_sam6156.o
 .debug_abbrev  0x00000000       0x44 build/default/production/_ext/172253694/crypt_sha1_sam6156.o
 .debug_aranges
                0x00000000       0x18 build/default/production/_ext/172253694/crypt_sha1_sam6156.o
 .debug_line    0x00000000       0x9e build/default/production/_ext/172253694/crypt_sha1_sam6156.o
 .debug_str     0x00000000        0x0 build/default/production/_ext/172253694/crypt_sha1_sam6156.o
 .comment       0x00000000       0x54 build/default/production/_ext/172253694/crypt_sha1_sam6156.o
 .ARM.attributes
                0x00000000       0x39 build/default/production/_ext/172253694/crypt_sha1_sam6156.o
 .text          0x00000000        0x0 build/default/production/_ext/172253694/crypt_sha224_sam11105.o
 .data          0x00000000        0x0 build/default/production/_ext/172253694/crypt_sha224_sam11105.o
 .bss           0x00000000        0x0 build/default/production/_ext/172253694/crypt_sha224_sam11105.o
 .debug_info    0x00000000      0x361 build/default/production/_ext/172253694/crypt_sha224_sam11105.o
 .debug_abbrev  0x00000000       0x44 build/default/production/_ext/172253694/crypt_sha224_sam11105.o
 .debug_aranges
                0x00000000       0x18 build/default/production/_ext/172253694/crypt_sha224_sam11105.o
 .debug_line    0x00000000       0x9e build/default/production/_ext/172253694/crypt_sha224_sam11105.o
 .debug_str     0x00000000        0x0 build/default/production/_ext/172253694/crypt_sha224_sam11105.o
 .comment       0x00000000       0x54 build/default/production/_ext/172253694/crypt_sha224_sam11105.o
 .ARM.attributes
                0x00000000       0x39 build/default/production/_ext/172253694/crypt_sha224_sam11105.o
 .text          0x00000000        0x0 build/default/production/_ext/172253694/crypt_sha224_sam6156.o
 .data          0x00000000        0x0 build/default/production/_ext/172253694/crypt_sha224_sam6156.o
 .bss           0x00000000        0x0 build/default/production/_ext/172253694/crypt_sha224_sam6156.o
 .debug_info    0x00000000      0x360 build/default/production/_ext/172253694/crypt_sha224_sam6156.o
 .debug_abbrev  0x00000000       0x44 build/default/production/_ext/172253694/crypt_sha224_sam6156.o
 .debug_aranges
                0x00000000       0x18 build/default/production/_ext/172253694/crypt_sha224_sam6156.o
 .debug_line    0x00000000       0x9e build/default/production/_ext/172253694/crypt_sha224_sam6156.o
 .debug_str     0x00000000        0x0 build/default/production/_ext/172253694/crypt_sha224_sam6156.o
 .comment       0x00000000       0x54 build/default/production/_ext/172253694/crypt_sha224_sam6156.o
 .ARM.attributes
                0x00000000       0x39 build/default/production/_ext/172253694/crypt_sha224_sam6156.o
 .text          0x00000000        0x0 build/default/production/_ext/172253694/crypt_sha256_sam11105.o
 .data          0x00000000        0x0 build/default/production/_ext/172253694/crypt_sha256_sam11105.o
 .bss           0x00000000        0x0 build/default/production/_ext/172253694/crypt_sha256_sam11105.o
 .debug_info    0x00000000      0x361 build/default/production/_ext/172253694/crypt_sha256_sam11105.o
 .debug_abbrev  0x00000000       0x44 build/default/production/_ext/172253694/crypt_sha256_sam11105.o
 .debug_aranges
                0x00000000       0x18 build/default/production/_ext/172253694/crypt_sha256_sam11105.o
 .debug_line    0x00000000       0x9e build/default/production/_ext/172253694/crypt_sha256_sam11105.o
 .debug_str     0x00000000        0x0 build/default/production/_ext/172253694/crypt_sha256_sam11105.o
 .comment       0x00000000       0x54 build/default/production/_ext/172253694/crypt_sha256_sam11105.o
 .ARM.attributes
                0x00000000       0x39 build/default/production/_ext/172253694/crypt_sha256_sam11105.o
 .text          0x00000000        0x0 build/default/production/_ext/172253694/crypt_sha256_sam6156.o
 .data          0x00000000        0x0 build/default/production/_ext/172253694/crypt_sha256_sam6156.o
 .bss           0x00000000        0x0 build/default/production/_ext/172253694/crypt_sha256_sam6156.o
 .debug_info    0x00000000      0x360 build/default/production/_ext/172253694/crypt_sha256_sam6156.o
 .debug_abbrev  0x00000000       0x44 build/default/production/_ext/172253694/crypt_sha256_sam6156.o
 .debug_aranges
                0x00000000       0x18 build/default/production/_ext/172253694/crypt_sha256_sam6156.o
 .debug_line    0x00000000       0x9e build/default/production/_ext/172253694/crypt_sha256_sam6156.o
 .debug_str     0x00000000        0x0 build/default/production/_ext/172253694/crypt_sha256_sam6156.o
 .comment       0x00000000       0x54 build/default/production/_ext/172253694/crypt_sha256_sam6156.o
 .ARM.attributes
                0x00000000       0x39 build/default/production/_ext/172253694/crypt_sha256_sam6156.o
 .text          0x00000000        0x0 build/default/production/_ext/172253694/crypt_sha384_sam6156.o
 .data          0x00000000        0x0 build/default/production/_ext/172253694/crypt_sha384_sam6156.o
 .bss           0x00000000        0x0 build/default/production/_ext/172253694/crypt_sha384_sam6156.o
 .debug_info    0x00000000      0x360 build/default/production/_ext/172253694/crypt_sha384_sam6156.o
 .debug_abbrev  0x00000000       0x44 build/default/production/_ext/172253694/crypt_sha384_sam6156.o
 .debug_aranges
                0x00000000       0x18 build/default/production/_ext/172253694/crypt_sha384_sam6156.o
 .debug_line    0x00000000       0x9e build/default/production/_ext/172253694/crypt_sha384_sam6156.o
 .debug_str     0x00000000        0x0 build/default/production/_ext/172253694/crypt_sha384_sam6156.o
 .comment       0x00000000       0x54 build/default/production/_ext/172253694/crypt_sha384_sam6156.o
 .ARM.attributes
                0x00000000       0x39 build/default/production/_ext/172253694/crypt_sha384_sam6156.o
 .text          0x00000000        0x0 build/default/production/_ext/172253694/crypt_sha512_sam6156.o
 .data          0x00000000        0x0 build/default/production/_ext/172253694/crypt_sha512_sam6156.o
 .bss           0x00000000        0x0 build/default/production/_ext/172253694/crypt_sha512_sam6156.o
 .debug_info    0x00000000      0x360 build/default/production/_ext/172253694/crypt_sha512_sam6156.o
 .debug_abbrev  0x00000000       0x44 build/default/production/_ext/172253694/crypt_sha512_sam6156.o
 .debug_aranges
                0x00000000       0x18 build/default/production/_ext/172253694/crypt_sha512_sam6156.o
 .debug_line    0x00000000       0x9e build/default/production/_ext/172253694/crypt_sha512_sam6156.o
 .debug_str     0x00000000        0x0 build/default/production/_ext/172253694/crypt_sha512_sam6156.o
 .comment       0x00000000       0x54 build/default/production/_ext/172253694/crypt_sha512_sam6156.o
 .ARM.attributes
                0x00000000       0x39 build/default/production/_ext/172253694/crypt_sha512_sam6156.o
 .text          0x00000000        0x0 build/default/production/_ext/172253694/crypt_tdes_sam6150.o
 .data          0x00000000        0x0 build/default/production/_ext/172253694/crypt_tdes_sam6150.o
 .bss           0x00000000        0x0 build/default/production/_ext/172253694/crypt_tdes_sam6150.o
 .debug_info    0x00000000      0x34f build/default/production/_ext/172253694/crypt_tdes_sam6150.o
 .debug_abbrev  0x00000000       0x44 build/default/production/_ext/172253694/crypt_tdes_sam6150.o
 .debug_aranges
                0x00000000       0x18 build/default/production/_ext/172253694/crypt_tdes_sam6150.o
 .debug_line    0x00000000       0x9e build/default/production/_ext/172253694/crypt_tdes_sam6150.o
 .debug_str     0x00000000        0x0 build/default/production/_ext/172253694/crypt_tdes_sam6150.o
 .comment       0x00000000       0x54 build/default/production/_ext/172253694/crypt_tdes_sam6150.o
 .ARM.attributes
                0x00000000       0x39 build/default/production/_ext/172253694/crypt_tdes_sam6150.o
 .text          0x00000000        0x0 build/default/production/_ext/172253694/crypt_wolfcryptcb.o
 .data          0x00000000        0x0 build/default/production/_ext/172253694/crypt_wolfcryptcb.o
 .bss           0x00000000        0x0 build/default/production/_ext/172253694/crypt_wolfcryptcb.o
 .text          0x00000000        0x0 build/default/production/_ext/1664057780/arc4.o
 .data          0x00000000        0x0 build/default/production/_ext/1664057780/arc4.o
 .bss           0x00000000        0x0 build/default/production/_ext/1664057780/arc4.o
 .debug_info    0x00000000      0x345 build/default/production/_ext/1664057780/arc4.o
 .debug_abbrev  0x00000000       0x44 build/default/production/_ext/1664057780/arc4.o
 .debug_aranges
                0x00000000       0x18 build/default/production/_ext/1664057780/arc4.o
 .debug_line    0x00000000       0x9e build/default/production/_ext/1664057780/arc4.o
 .debug_str     0x00000000        0x0 build/default/production/_ext/1664057780/arc4.o
 .comment       0x00000000       0x54 build/default/production/_ext/1664057780/arc4.o
 .ARM.attributes
                0x00000000       0x39 build/default/production/_ext/1664057780/arc4.o
 .text          0x00000000        0x0 build/default/production/_ext/1664057780/asm.o
 .data          0x00000000        0x0 build/default/production/_ext/1664057780/asm.o
 .bss           0x00000000        0x0 build/default/production/_ext/1664057780/asm.o
 .debug_info    0x00000000      0x344 build/default/production/_ext/1664057780/asm.o
 .debug_abbrev  0x00000000       0x44 build/default/production/_ext/1664057780/asm.o
 .debug_aranges
                0x00000000       0x18 build/default/production/_ext/1664057780/asm.o
 .debug_line    0x00000000       0x9e build/default/production/_ext/1664057780/asm.o
 .debug_str     0x00000000        0x0 build/default/production/_ext/1664057780/asm.o
 .comment       0x00000000       0x54 build/default/production/_ext/1664057780/asm.o
 .ARM.attributes
                0x00000000       0x39 build/default/production/_ext/1664057780/asm.o
 .text          0x00000000        0x0 build/default/production/_ext/1664057780/asn.o
 .data          0x00000000        0x0 build/default/production/_ext/1664057780/asn.o
 .bss           0x00000000        0x0 build/default/production/_ext/1664057780/asn.o
 .text.GetBoolean
                0x00000000       0x3a build/default/production/_ext/1664057780/asn.o
 .text.trim_leading_zeros
                0x00000000       0x42 build/default/production/_ext/1664057780/asn.o
 .text.CheckCurve
                0x00000000       0x28 build/default/production/_ext/1664057780/asn.o
 .text.MatchBaseName
                0x00000000       0xf4 build/default/production/_ext/1664057780/asn.o
 .text.OurPasswordCb
                0x00000000       0x22 build/default/production/_ext/1664057780/asn.o
 .text.GetLength_ex
                0x00000000       0x7a build/default/production/_ext/1664057780/asn.o
 .text.GetLength
                0x00000000       0x10 build/default/production/_ext/1664057780/asn.o
 .text.GetDateInfo
                0x00000000       0x8e build/default/production/_ext/1664057780/asn.o
 .text.GetASNTag
                0x00000000       0x36 build/default/production/_ext/1664057780/asn.o
 .text.GetASNHeader_ex
                0x00000000       0x58 build/default/production/_ext/1664057780/asn.o
 .text.GetASNInt
                0x00000000       0x6c build/default/production/_ext/1664057780/asn.o
 .text.GetSequence
                0x00000000       0x18 build/default/production/_ext/1664057780/asn.o
 .text.GetSequence_ex
                0x00000000       0x18 build/default/production/_ext/1664057780/asn.o
 .text.GetSet   0x00000000       0x18 build/default/production/_ext/1664057780/asn.o
 .text.GetSet_ex
                0x00000000       0x18 build/default/production/_ext/1664057780/asn.o
 .text.GetOctetString
                0x00000000       0x18 build/default/production/_ext/1664057780/asn.o
 .text.GetSigName
                0x00000000       0x7c build/default/production/_ext/1664057780/asn.o
 .text.GetMyVersion
                0x00000000       0x58 build/default/production/_ext/1664057780/asn.o
 .text.GetInt   0x00000000       0x56 build/default/production/_ext/1664057780/asn.o
 .text.CheckBitString
                0x00000000       0xbe build/default/production/_ext/1664057780/asn.o
 .text.OidFromId
                0x00000000      0x630 build/default/production/_ext/1664057780/asn.o
 .text.GetASNObjectId
                0x00000000       0x68 build/default/production/_ext/1664057780/asn.o
 .text.SkipObjectId
                0x00000000       0x26 build/default/production/_ext/1664057780/asn.o
 .text.GetObjectId
                0x00000000       0x94 build/default/production/_ext/1664057780/asn.o
 .text.GetAlgoId
                0x00000000       0x9c build/default/production/_ext/1664057780/asn.o
 .text.wc_RsaPrivateKeyDecode
                0x00000000      0x11a build/default/production/_ext/1664057780/asn.o
 .text.ToTraditionalInline_ex
                0x00000000       0xc2 build/default/production/_ext/1664057780/asn.o
 .text.ToTraditionalInline
                0x00000000       0x10 build/default/production/_ext/1664057780/asn.o
 .text.ToTraditional_ex
                0x00000000       0x40 build/default/production/_ext/1664057780/asn.o
 .text.ToTraditional
                0x00000000       0x10 build/default/production/_ext/1664057780/asn.o
 .text.wc_GetPkcs8TraditionalOffset
                0x00000000       0x30 build/default/production/_ext/1664057780/asn.o
 .text.wc_RsaPublicKeyDecode_ex
                0x00000000      0x17a build/default/production/_ext/1664057780/asn.o
 .text.wc_RsaPublicKeyDecodeRaw
                0x00000000       0x92 build/default/production/_ext/1664057780/asn.o
 .text.wc_RsaPublicKeyDecode
                0x00000000       0x48 build/default/production/_ext/1664057780/asn.o
 .text.FreeAltNames
                0x00000000       0x22 build/default/production/_ext/1664057780/asn.o
 .text.FreeNameSubtrees
                0x00000000       0x22 build/default/production/_ext/1664057780/asn.o
 .text.CalcHashId
                0x00000000        0x8 build/default/production/_ext/1664057780/asn.o
 .text.GetName  0x00000000      0x404 build/default/production/_ext/1664057780/asn.o
 .text.ExtractDate
                0x00000000      0x200 build/default/production/_ext/1664057780/asn.o
 .text.DateGreaterThan
                0x00000000       0x92 build/default/production/_ext/1664057780/asn.o
 .text.wc_ValidateDate
                0x00000000       0xfa build/default/production/_ext/1664057780/asn.o
 .text.GetDate  0x00000000       0xaa build/default/production/_ext/1664057780/asn.o
 .text.wc_GetTime
                0x00000000       0x22 build/default/production/_ext/1664057780/asn.o
 .text.wc_GetDateInfo
                0x00000000       0x1c build/default/production/_ext/1664057780/asn.o
 .text.wc_GetDateAsCalendarTime
                0x00000000       0x22 build/default/production/_ext/1664057780/asn.o
 .text.SetLength
                0x00000000       0x7a build/default/production/_ext/1664057780/asn.o
 .text.SetASNInt
                0x00000000       0x44 build/default/production/_ext/1664057780/asn.o
 .text.SetASNIntMP
                0x00000000       0x8a build/default/production/_ext/1664057780/asn.o
 .text.SetBitString
                0x00000000       0x28 build/default/production/_ext/1664057780/asn.o
 .text.SetObjectId
                0x00000000       0x16 build/default/production/_ext/1664057780/asn.o
 .text.SetCurve
                0x00000000       0x32 build/default/production/_ext/1664057780/asn.o
 .text.SetSequence
                0x00000000       0x16 build/default/production/_ext/1664057780/asn.o
 .text.SetOctetString
                0x00000000       0x10 build/default/production/_ext/1664057780/asn.o
 .text.SetSet   0x00000000       0x10 build/default/production/_ext/1664057780/asn.o
 .text.SetImplicit
                0x00000000       0x24 build/default/production/_ext/1664057780/asn.o
 .text.SetExplicit
                0x00000000       0x18 build/default/production/_ext/1664057780/asn.o
 .text.SetAlgoID
                0x00000000      0x108 build/default/production/_ext/1664057780/asn.o
 .text.SetEccPublicKey
                0x00000000       0xa0 build/default/production/_ext/1664057780/asn.o
 .text.wc_EncodeSignature
                0x00000000       0x66 build/default/production/_ext/1664057780/asn.o
 .text.wc_GetCTC_HashOID
                0x00000000       0x10 build/default/production/_ext/1664057780/asn.o
 .text.InitSignatureCtx
                0x00000000       0x1c build/default/production/_ext/1664057780/asn.o
 .text.InitDecodedCert
                0x00000000       0x4a build/default/production/_ext/1664057780/asn.o
 .text.FreeSignatureCtx
                0x00000000       0x5c build/default/production/_ext/1664057780/asn.o
 .text.FreeDecodedCert
                0x00000000       0x7e build/default/production/_ext/1664057780/asn.o
 .text.GetCA    0x00000000        0x2 build/default/production/_ext/1664057780/asn.o
 .text.GetCAByName
                0x00000000        0x2 build/default/production/_ext/1664057780/asn.o
 .text.MakeSigner
                0x00000000       0x18 build/default/production/_ext/1664057780/asn.o
 .text.FreeSigner
                0x00000000       0x32 build/default/production/_ext/1664057780/asn.o
 .text.FreeSignerTable
                0x00000000       0x3e build/default/production/_ext/1664057780/asn.o
 .text.SetMyVersion
                0x00000000       0x28 build/default/production/_ext/1664057780/asn.o
 .text.wc_CreatePKCS8Key
                0x00000000      0x146 build/default/production/_ext/1664057780/asn.o
 .text.wc_BuildEccKeyDer
                0x00000000      0x1da build/default/production/_ext/1664057780/asn.o
 .text.eccToPKCS8
                0x00000000      0x104 build/default/production/_ext/1664057780/asn.o
 .text.SetSerialNumber
                0x00000000       0x9c build/default/production/_ext/1664057780/asn.o
 .text.GetSerialNumber
                0x00000000       0x64 build/default/production/_ext/1664057780/asn.o
 .text.wc_GetPubX509
                0x00000000      0x16e build/default/production/_ext/1664057780/asn.o
 .text.DecodeToKey
                0x00000000      0x1cc build/default/production/_ext/1664057780/asn.o
 .text.AllocDer
                0x00000000       0x88 build/default/production/_ext/1664057780/asn.o
 .text.FreeDer  0x00000000       0x38 build/default/production/_ext/1664057780/asn.o
 .text.wc_AllocDer
                0x00000000        0x8 build/default/production/_ext/1664057780/asn.o
 .text.wc_FreeDer
                0x00000000        0x8 build/default/production/_ext/1664057780/asn.o
 .text.wc_PemGetHeaderFooter
                0x00000000       0xf0 build/default/production/_ext/1664057780/asn.o
 .text.PemToDer
                0x00000000      0x1d8 build/default/production/_ext/1664057780/asn.o
 .text.wc_PemToDer
                0x00000000       0x18 build/default/production/_ext/1664057780/asn.o
 .text.wc_KeyPemToDer
                0x00000000       0x8c build/default/production/_ext/1664057780/asn.o
 .text.wc_CertPemToDer
                0x00000000       0x7a build/default/production/_ext/1664057780/asn.o
 .text.wc_EccPublicKeyToDer
                0x00000000       0x56 build/default/production/_ext/1664057780/asn.o
 .text.wc_EccPublicKeyDerSize
                0x00000000        0xe build/default/production/_ext/1664057780/asn.o
 .text.StoreECC_DSA_Sig
                0x00000000       0x7a build/default/production/_ext/1664057780/asn.o
 .text.StoreECC_DSA_Sig_Bin
                0x00000000       0xe8 build/default/production/_ext/1664057780/asn.o
 .text.DecodeECC_DSA_Sig_Bin
                0x00000000       0x9a build/default/production/_ext/1664057780/asn.o
 .text.DecodeECC_DSA_Sig
                0x00000000       0x70 build/default/production/_ext/1664057780/asn.o
 .text.wc_EccPrivateKeyDecode
                0x00000000      0x1a0 build/default/production/_ext/1664057780/asn.o
 .text.wc_CheckPrivateKey
                0x00000000      0x18c build/default/production/_ext/1664057780/asn.o
 .text.wc_CheckPrivateKeyCert
                0x00000000       0x26 build/default/production/_ext/1664057780/asn.o
 .text.wc_EccPublicKeyDecode
                0x00000000      0x1f4 build/default/production/_ext/1664057780/asn.o
 .text.ConfirmSignature
                0x00000000      0x35e build/default/production/_ext/1664057780/asn.o
 .text.ParseCertRelative
                0x00000000     0x1176 build/default/production/_ext/1664057780/asn.o
 .text.ParseCert
                0x00000000       0x7e build/default/production/_ext/1664057780/asn.o
 .text.wc_EccKeyToDer
                0x00000000        0xa build/default/production/_ext/1664057780/asn.o
 .text.wc_EccPrivateKeyToDer
                0x00000000        0xa build/default/production/_ext/1664057780/asn.o
 .text.wc_EccPrivateKeyToPKCS8
                0x00000000        0xa build/default/production/_ext/1664057780/asn.o
 .text.wc_EccKeyToPKCS8
                0x00000000        0xa build/default/production/_ext/1664057780/asn.o
 .text.GetNameHash
                0x00000000       0x7c build/default/production/_ext/1664057780/asn.o
 .rodata        0x00000000      0x244 build/default/production/_ext/1664057780/asn.o
 .rodata.BEGIN_CERT
                0x00000000        0x4 build/default/production/_ext/1664057780/asn.o
 .rodata.BEGIN_DSA_PRIV
                0x00000000        0x4 build/default/production/_ext/1664057780/asn.o
 .rodata.BEGIN_EC_PRIV
                0x00000000        0x4 build/default/production/_ext/1664057780/asn.o
 .rodata.BEGIN_ENC_PRIV_KEY
                0x00000000        0x4 build/default/production/_ext/1664057780/asn.o
 .rodata.BEGIN_PRIV_KEY
                0x00000000        0x4 build/default/production/_ext/1664057780/asn.o
 .rodata.BEGIN_PUB_KEY
                0x00000000        0x4 build/default/production/_ext/1664057780/asn.o
 .rodata.BEGIN_RSA_PRIV
                0x00000000        0x4 build/default/production/_ext/1664057780/asn.o
 .rodata.BEGIN_X509_CRL
                0x00000000        0x4 build/default/production/_ext/1664057780/asn.o
 .rodata.END_CERT
                0x00000000        0x4 build/default/production/_ext/1664057780/asn.o
 .rodata.END_DSA_PRIV
                0x00000000        0x4 build/default/production/_ext/1664057780/asn.o
 .rodata.END_EC_PRIV
                0x00000000        0x4 build/default/production/_ext/1664057780/asn.o
 .rodata.END_ENC_PRIV_KEY
                0x00000000        0x4 build/default/production/_ext/1664057780/asn.o
 .rodata.END_PRIV_KEY
                0x00000000        0x4 build/default/production/_ext/1664057780/asn.o
 .rodata.END_PUB_KEY
                0x00000000        0x4 build/default/production/_ext/1664057780/asn.o
 .rodata.END_RSA_PRIV
                0x00000000        0x4 build/default/production/_ext/1664057780/asn.o
 .rodata.END_X509_CRL
                0x00000000        0x4 build/default/production/_ext/1664057780/asn.o
 .rodata.blkAes128CbcOid
                0x00000000        0xc build/default/production/_ext/1664057780/asn.o
 .rodata.blkAes128CcmOid
                0x00000000        0xc build/default/production/_ext/1664057780/asn.o
 .rodata.blkAes128GcmOid
                0x00000000        0xc build/default/production/_ext/1664057780/asn.o
 .rodata.blkAes192CbcOid
                0x00000000        0xc build/default/production/_ext/1664057780/asn.o
 .rodata.blkAes192CcmOid
                0x00000000        0xc build/default/production/_ext/1664057780/asn.o
 .rodata.blkAes192GcmOid
                0x00000000        0xc build/default/production/_ext/1664057780/asn.o
 .rodata.blkAes256CbcOid
                0x00000000        0xc build/default/production/_ext/1664057780/asn.o
 .rodata.blkAes256CcmOid
                0x00000000        0xc build/default/production/_ext/1664057780/asn.o
 .rodata.blkAes256GcmOid
                0x00000000        0xc build/default/production/_ext/1664057780/asn.o
 .rodata.blkDes3CbcOid
                0x00000000        0x8 build/default/production/_ext/1664057780/asn.o
 .rodata.blkDesCbcOid
                0x00000000        0x8 build/default/production/_ext/1664057780/asn.o
 .rodata.dhSinglePass_stdDH_sha1kdf_Oid
                0x00000000        0xc build/default/production/_ext/1664057780/asn.o
 .rodata.dhSinglePass_stdDH_sha224kdf_Oid
                0x00000000        0x8 build/default/production/_ext/1664057780/asn.o
 .rodata.dhSinglePass_stdDH_sha256kdf_Oid
                0x00000000        0x8 build/default/production/_ext/1664057780/asn.o
 .rodata.extAltNamesHwNameOid
                0x00000000        0x8 build/default/production/_ext/1664057780/asn.o
 .rodata.extAltNamesOid
                0x00000000        0x4 build/default/production/_ext/1664057780/asn.o
 .rodata.extAuthInfoCaIssuerOid
                0x00000000        0x8 build/default/production/_ext/1664057780/asn.o
 .rodata.extAuthInfoOid
                0x00000000        0x8 build/default/production/_ext/1664057780/asn.o
 .rodata.extAuthKeyOid
                0x00000000        0x4 build/default/production/_ext/1664057780/asn.o
 .rodata.extBasicCaOid
                0x00000000        0x4 build/default/production/_ext/1664057780/asn.o
 .rodata.extCertPolicyAnyOid
                0x00000000        0x4 build/default/production/_ext/1664057780/asn.o
 .rodata.extCertPolicyOid
                0x00000000        0x4 build/default/production/_ext/1664057780/asn.o
 .rodata.extCrlDistOid
                0x00000000        0x4 build/default/production/_ext/1664057780/asn.o
 .rodata.extExtKeyUsageAnyOid
                0x00000000        0x4 build/default/production/_ext/1664057780/asn.o
 .rodata.extExtKeyUsageClientAuthOid
                0x00000000        0x8 build/default/production/_ext/1664057780/asn.o
 .rodata.extExtKeyUsageCodeSigningOid
                0x00000000        0x8 build/default/production/_ext/1664057780/asn.o
 .rodata.extExtKeyUsageEmailProtectOid
                0x00000000        0x8 build/default/production/_ext/1664057780/asn.o
 .rodata.extExtKeyUsageOcspSignOid
                0x00000000        0x8 build/default/production/_ext/1664057780/asn.o
 .rodata.extExtKeyUsageOid
                0x00000000        0x4 build/default/production/_ext/1664057780/asn.o
 .rodata.extExtKeyUsageServerAuthOid
                0x00000000        0x8 build/default/production/_ext/1664057780/asn.o
 .rodata.extExtKeyUsageTimestampOid
                0x00000000        0x8 build/default/production/_ext/1664057780/asn.o
 .rodata.extInhibitAnyOid
                0x00000000        0x4 build/default/production/_ext/1664057780/asn.o
 .rodata.extKeyUsageOid
                0x00000000        0x4 build/default/production/_ext/1664057780/asn.o
 .rodata.extNameConsOid
                0x00000000        0x4 build/default/production/_ext/1664057780/asn.o
 .rodata.extSubjKeyOid
                0x00000000        0x4 build/default/production/_ext/1664057780/asn.o
 .rodata.hashMd5hOid
                0x00000000        0x8 build/default/production/_ext/1664057780/asn.o
 .rodata.hashSha1hOid
                0x00000000        0x8 build/default/production/_ext/1664057780/asn.o
 .rodata.hashSha224hOid
                0x00000000        0xc build/default/production/_ext/1664057780/asn.o
 .rodata.hashSha256hOid
                0x00000000        0xc build/default/production/_ext/1664057780/asn.o
 .rodata.hmacSha224Oid
                0x00000000        0x8 build/default/production/_ext/1664057780/asn.o
 .rodata.hmacSha256Oid
                0x00000000        0x8 build/default/production/_ext/1664057780/asn.o
 .rodata.keyEcdsaOid
                0x00000000        0x8 build/default/production/_ext/1664057780/asn.o
 .rodata.keyRsaOid
                0x00000000        0xc build/default/production/_ext/1664057780/asn.o
 .rodata.pbeSha1Des
                0x00000000        0xc build/default/production/_ext/1664057780/asn.o
 .rodata.pbeSha1Des3
                0x00000000        0xc build/default/production/_ext/1664057780/asn.o
 .rodata.pbes2  0x00000000        0xc build/default/production/_ext/1664057780/asn.o
 .rodata.pbkdf2Oid
                0x00000000        0xc build/default/production/_ext/1664057780/asn.o
 .rodata.pem_struct_min_sz
                0x00000000        0x4 build/default/production/_ext/1664057780/asn.o
 .rodata.sigMd5wRsaName
                0x00000000       0x18 build/default/production/_ext/1664057780/asn.o
 .rodata.sigMd5wRsaOid
                0x00000000        0xc build/default/production/_ext/1664057780/asn.o
 .rodata.sigSha1wEcdsaName
                0x00000000        0xc build/default/production/_ext/1664057780/asn.o
 .rodata.sigSha1wEcdsaOid
                0x00000000        0x8 build/default/production/_ext/1664057780/asn.o
 .rodata.sigSha1wRsaName
                0x00000000       0x18 build/default/production/_ext/1664057780/asn.o
 .rodata.sigSha1wRsaOid
                0x00000000        0xc build/default/production/_ext/1664057780/asn.o
 .rodata.sigSha224wEcdsaName
                0x00000000       0x10 build/default/production/_ext/1664057780/asn.o
 .rodata.sigSha224wEcdsaOid
                0x00000000        0x8 build/default/production/_ext/1664057780/asn.o
 .rodata.sigSha224wRsaName
                0x00000000       0x18 build/default/production/_ext/1664057780/asn.o
 .rodata.sigSha224wRsaOid
                0x00000000        0xc build/default/production/_ext/1664057780/asn.o
 .rodata.sigSha256wEcdsaName
                0x00000000       0x10 build/default/production/_ext/1664057780/asn.o
 .rodata.sigSha256wEcdsaOid
                0x00000000        0x8 build/default/production/_ext/1664057780/asn.o
 .rodata.sigSha256wRsaName
                0x00000000       0x18 build/default/production/_ext/1664057780/asn.o
 .rodata.sigSha256wRsaOid
                0x00000000        0xc build/default/production/_ext/1664057780/asn.o
 .rodata.sigUnknownName
                0x00000000        0x8 build/default/production/_ext/1664057780/asn.o
 .rodata.wrapAes128Oid
                0x00000000        0xc build/default/production/_ext/1664057780/asn.o
 .rodata.wrapAes192Oid
                0x00000000        0xc build/default/production/_ext/1664057780/asn.o
 .rodata.wrapAes256Oid
                0x00000000        0xc build/default/production/_ext/1664057780/asn.o
 .debug_info    0x00000000     0xfea5 build/default/production/_ext/1664057780/asn.o
 .debug_abbrev  0x00000000      0x6b0 build/default/production/_ext/1664057780/asn.o
 .debug_loc     0x00000000     0xd4e6 build/default/production/_ext/1664057780/asn.o
 .debug_aranges
                0x00000000      0x358 build/default/production/_ext/1664057780/asn.o
 .debug_ranges  0x00000000      0x9b0 build/default/production/_ext/1664057780/asn.o
 .debug_line    0x00000000     0x5b1f build/default/production/_ext/1664057780/asn.o
 .debug_str     0x00000000      0x401 build/default/production/_ext/1664057780/asn.o
 .comment       0x00000000       0x54 build/default/production/_ext/1664057780/asn.o
 .debug_frame   0x00000000      0xe78 build/default/production/_ext/1664057780/asn.o
 .ARM.attributes
                0x00000000       0x34 build/default/production/_ext/1664057780/asn.o
 .text          0x00000000        0x0 build/default/production/_ext/1664057780/blake2b.o
 .data          0x00000000        0x0 build/default/production/_ext/1664057780/blake2b.o
 .bss           0x00000000        0x0 build/default/production/_ext/1664057780/blake2b.o
 .debug_info    0x00000000      0x348 build/default/production/_ext/1664057780/blake2b.o
 .debug_abbrev  0x00000000       0x44 build/default/production/_ext/1664057780/blake2b.o
 .debug_aranges
                0x00000000       0x18 build/default/production/_ext/1664057780/blake2b.o
 .debug_line    0x00000000       0x9e build/default/production/_ext/1664057780/blake2b.o
 .debug_str     0x00000000        0x0 build/default/production/_ext/1664057780/blake2b.o
 .comment       0x00000000       0x54 build/default/production/_ext/1664057780/blake2b.o
 .ARM.attributes
                0x00000000       0x39 build/default/production/_ext/1664057780/blake2b.o
 .text          0x00000000        0x0 build/default/production/_ext/1664057780/blake2s.o
 .data          0x00000000        0x0 build/default/production/_ext/1664057780/blake2s.o
 .bss           0x00000000        0x0 build/default/production/_ext/1664057780/blake2s.o
 .debug_info    0x00000000      0x348 build/default/production/_ext/1664057780/blake2s.o
 .debug_abbrev  0x00000000       0x44 build/default/production/_ext/1664057780/blake2s.o
 .debug_aranges
                0x00000000       0x18 build/default/production/_ext/1664057780/blake2s.o
 .debug_line    0x00000000       0x9e build/default/production/_ext/1664057780/blake2s.o
 .debug_str     0x00000000        0x0 build/default/production/_ext/1664057780/blake2s.o
 .comment       0x00000000       0x54 build/default/production/_ext/1664057780/blake2s.o
 .ARM.attributes
                0x00000000       0x39 build/default/production/_ext/1664057780/blake2s.o
 .text          0x00000000        0x0 build/default/production/_ext/1664057780/camellia.o
 .data          0x00000000        0x0 build/default/production/_ext/1664057780/camellia.o
 .bss           0x00000000        0x0 build/default/production/_ext/1664057780/camellia.o
 .debug_info    0x00000000      0x349 build/default/production/_ext/1664057780/camellia.o
 .debug_abbrev  0x00000000       0x44 build/default/production/_ext/1664057780/camellia.o
 .debug_aranges
                0x00000000       0x18 build/default/production/_ext/1664057780/camellia.o
 .debug_line    0x00000000       0x9e build/default/production/_ext/1664057780/camellia.o
 .debug_str     0x00000000        0x0 build/default/production/_ext/1664057780/camellia.o
 .comment       0x00000000       0x54 build/default/production/_ext/1664057780/camellia.o
 .ARM.attributes
                0x00000000       0x39 build/default/production/_ext/1664057780/camellia.o
 .text          0x00000000        0x0 build/default/production/_ext/1664057780/chacha.o
 .data          0x00000000        0x0 build/default/production/_ext/1664057780/chacha.o
 .bss           0x00000000        0x0 build/default/production/_ext/1664057780/chacha.o
 .debug_info    0x00000000      0x347 build/default/production/_ext/1664057780/chacha.o
 .debug_abbrev  0x00000000       0x44 build/default/production/_ext/1664057780/chacha.o
 .debug_aranges
                0x00000000       0x18 build/default/production/_ext/1664057780/chacha.o
 .debug_line    0x00000000       0x9e build/default/production/_ext/1664057780/chacha.o
 .debug_str     0x00000000        0x0 build/default/production/_ext/1664057780/chacha.o
 .comment       0x00000000       0x54 build/default/production/_ext/1664057780/chacha.o
 .ARM.attributes
                0x00000000       0x39 build/default/production/_ext/1664057780/chacha.o
 .text          0x00000000        0x0 build/default/production/_ext/1664057780/chacha20_poly1305.o
 .data          0x00000000        0x0 build/default/production/_ext/1664057780/chacha20_poly1305.o
 .bss           0x00000000        0x0 build/default/production/_ext/1664057780/chacha20_poly1305.o
 .debug_info    0x00000000      0x352 build/default/production/_ext/1664057780/chacha20_poly1305.o
 .debug_abbrev  0x00000000       0x44 build/default/production/_ext/1664057780/chacha20_poly1305.o
 .debug_aranges
                0x00000000       0x18 build/default/production/_ext/1664057780/chacha20_poly1305.o
 .debug_line    0x00000000       0x9e build/default/production/_ext/1664057780/chacha20_poly1305.o
 .debug_str     0x00000000        0x0 build/default/production/_ext/1664057780/chacha20_poly1305.o
 .comment       0x00000000       0x54 build/default/production/_ext/1664057780/chacha20_poly1305.o
 .ARM.attributes
                0x00000000       0x39 build/default/production/_ext/1664057780/chacha20_poly1305.o
 .text          0x00000000        0x0 build/default/production/_ext/1664057780/cmac.o
 .data          0x00000000        0x0 build/default/production/_ext/1664057780/cmac.o
 .bss           0x00000000        0x0 build/default/production/_ext/1664057780/cmac.o
 .debug_info    0x00000000      0x345 build/default/production/_ext/1664057780/cmac.o
 .debug_abbrev  0x00000000       0x44 build/default/production/_ext/1664057780/cmac.o
 .debug_aranges
                0x00000000       0x18 build/default/production/_ext/1664057780/cmac.o
 .debug_line    0x00000000       0x9e build/default/production/_ext/1664057780/cmac.o
 .debug_str     0x00000000        0x0 build/default/production/_ext/1664057780/cmac.o
 .comment       0x00000000       0x54 build/default/production/_ext/1664057780/cmac.o
 .ARM.attributes
                0x00000000       0x39 build/default/production/_ext/1664057780/cmac.o
 .text          0x00000000        0x0 build/default/production/_ext/1664057780/coding.o
 .data          0x00000000        0x0 build/default/production/_ext/1664057780/coding.o
 .bss           0x00000000        0x0 build/default/production/_ext/1664057780/coding.o
 .text.Base64_Decode
                0x00000000      0x464 build/default/production/_ext/1664057780/coding.o
 .rodata.base64Decode
                0x00000000       0x50 build/default/production/_ext/1664057780/coding.o
 .debug_info    0x00000000     0x1cc9 build/default/production/_ext/1664057780/coding.o
 .debug_abbrev  0x00000000      0x217 build/default/production/_ext/1664057780/coding.o
 .debug_loc     0x00000000     0x1c94 build/default/production/_ext/1664057780/coding.o
 .debug_aranges
                0x00000000       0x20 build/default/production/_ext/1664057780/coding.o
 .debug_ranges  0x00000000      0x1e0 build/default/production/_ext/1664057780/coding.o
 .debug_line    0x00000000      0x6f7 build/default/production/_ext/1664057780/coding.o
 .debug_str     0x00000000        0x0 build/default/production/_ext/1664057780/coding.o
 .comment       0x00000000       0x54 build/default/production/_ext/1664057780/coding.o
 .debug_frame   0x00000000       0x40 build/default/production/_ext/1664057780/coding.o
 .ARM.attributes
                0x00000000       0x34 build/default/production/_ext/1664057780/coding.o
 .text          0x00000000        0x0 build/default/production/_ext/1664057780/compress.o
 .data          0x00000000        0x0 build/default/production/_ext/1664057780/compress.o
 .bss           0x00000000        0x0 build/default/production/_ext/1664057780/compress.o
 .debug_info    0x00000000      0x349 build/default/production/_ext/1664057780/compress.o
 .debug_abbrev  0x00000000       0x44 build/default/production/_ext/1664057780/compress.o
 .debug_aranges
                0x00000000       0x18 build/default/production/_ext/1664057780/compress.o
 .debug_line    0x00000000       0x9e build/default/production/_ext/1664057780/compress.o
 .debug_str     0x00000000        0x0 build/default/production/_ext/1664057780/compress.o
 .comment       0x00000000       0x54 build/default/production/_ext/1664057780/compress.o
 .ARM.attributes
                0x00000000       0x39 build/default/production/_ext/1664057780/compress.o
 .text          0x00000000        0x0 build/default/production/_ext/1664057780/cpuid.o
 .data          0x00000000        0x0 build/default/production/_ext/1664057780/cpuid.o
 .bss           0x00000000        0x0 build/default/production/_ext/1664057780/cpuid.o
 .debug_info    0x00000000      0x3a9 build/default/production/_ext/1664057780/cpuid.o
 .debug_abbrev  0x00000000       0x72 build/default/production/_ext/1664057780/cpuid.o
 .debug_aranges
                0x00000000       0x18 build/default/production/_ext/1664057780/cpuid.o
 .debug_line    0x00000000       0xe2 build/default/production/_ext/1664057780/cpuid.o
 .debug_str     0x00000000        0x0 build/default/production/_ext/1664057780/cpuid.o
 .comment       0x00000000       0x54 build/default/production/_ext/1664057780/cpuid.o
 .ARM.attributes
                0x00000000       0x39 build/default/production/_ext/1664057780/cpuid.o
 .text          0x00000000        0x0 build/default/production/_ext/1664057780/cryptocb.o
 .data          0x00000000        0x0 build/default/production/_ext/1664057780/cryptocb.o
 .bss           0x00000000        0x0 build/default/production/_ext/1664057780/cryptocb.o
 .text.wc_CryptoCb_FindDeviceByIndex
                0x00000000       0x48 build/default/production/_ext/1664057780/cryptocb.o
 .text.wc_CryptoCb_Init
                0x00000000       0x1c build/default/production/_ext/1664057780/cryptocb.o
 .text.wc_CryptoCb_GetDevIdAtIndex
                0x00000000       0x12 build/default/production/_ext/1664057780/cryptocb.o
 .text.wc_CryptoCb_UnRegisterDevice
                0x00000000       0x16 build/default/production/_ext/1664057780/cryptocb.o
 .text.wc_CryptoCb_Rsa
                0x00000000       0x78 build/default/production/_ext/1664057780/cryptocb.o
 .text.wc_CryptoCb_RsaCheckPrivKey
                0x00000000       0x60 build/default/production/_ext/1664057780/cryptocb.o
 .text.wc_CryptoCb_MakeEccKey
                0x00000000       0x68 build/default/production/_ext/1664057780/cryptocb.o
 .text.wc_CryptoCb_Ecdh
                0x00000000       0x66 build/default/production/_ext/1664057780/cryptocb.o
 .text.wc_CryptoCb_EccSign
                0x00000000       0x72 build/default/production/_ext/1664057780/cryptocb.o
 .text.wc_CryptoCb_EccVerify
                0x00000000       0x72 build/default/production/_ext/1664057780/cryptocb.o
 .text.wc_CryptoCb_EccCheckPrivKey
                0x00000000       0x5e build/default/production/_ext/1664057780/cryptocb.o
 .text.wc_CryptoCb_AesGcmEncrypt
                0x00000000       0x8e build/default/production/_ext/1664057780/cryptocb.o
 .text.wc_CryptoCb_AesGcmDecrypt
                0x00000000       0x8a build/default/production/_ext/1664057780/cryptocb.o
 .text.wc_CryptoCb_AesCbcEncrypt
                0x00000000       0x6e build/default/production/_ext/1664057780/cryptocb.o
 .text.wc_CryptoCb_AesCbcDecrypt
                0x00000000       0x6a build/default/production/_ext/1664057780/cryptocb.o
 .text.wc_CryptoCb_Des3Encrypt
                0x00000000       0x70 build/default/production/_ext/1664057780/cryptocb.o
 .text.wc_CryptoCb_Des3Decrypt
                0x00000000       0x6c build/default/production/_ext/1664057780/cryptocb.o
 .text.wc_CryptoCb_ShaHash
                0x00000000       0x6a build/default/production/_ext/1664057780/cryptocb.o
 .text.wc_CryptoCb_Sha256Hash
                0x00000000       0x6a build/default/production/_ext/1664057780/cryptocb.o
 .text.wc_CryptoCb_Hmac
                0x00000000       0x68 build/default/production/_ext/1664057780/cryptocb.o
 .text.wc_CryptoCb_RandomBlock
                0x00000000       0x5c build/default/production/_ext/1664057780/cryptocb.o
 .text.wc_CryptoCb_RandomSeed
                0x00000000       0x50 build/default/production/_ext/1664057780/cryptocb.o
 .text          0x00000000        0x0 build/default/production/_ext/1664057780/curve25519.o
 .data          0x00000000        0x0 build/default/production/_ext/1664057780/curve25519.o
 .bss           0x00000000        0x0 build/default/production/_ext/1664057780/curve25519.o
 .debug_info    0x00000000      0x34b build/default/production/_ext/1664057780/curve25519.o
 .debug_abbrev  0x00000000       0x44 build/default/production/_ext/1664057780/curve25519.o
 .debug_aranges
                0x00000000       0x18 build/default/production/_ext/1664057780/curve25519.o
 .debug_line    0x00000000       0x9e build/default/production/_ext/1664057780/curve25519.o
 .debug_str     0x00000000        0x0 build/default/production/_ext/1664057780/curve25519.o
 .comment       0x00000000       0x54 build/default/production/_ext/1664057780/curve25519.o
 .ARM.attributes
                0x00000000       0x39 build/default/production/_ext/1664057780/curve25519.o
 .text          0x00000000        0x0 build/default/production/_ext/1664057780/curve448.o
 .data          0x00000000        0x0 build/default/production/_ext/1664057780/curve448.o
 .bss           0x00000000        0x0 build/default/production/_ext/1664057780/curve448.o
 .debug_info    0x00000000      0x349 build/default/production/_ext/1664057780/curve448.o
 .debug_abbrev  0x00000000       0x44 build/default/production/_ext/1664057780/curve448.o
 .debug_aranges
                0x00000000       0x18 build/default/production/_ext/1664057780/curve448.o
 .debug_line    0x00000000       0x9e build/default/production/_ext/1664057780/curve448.o
 .debug_str     0x00000000        0x0 build/default/production/_ext/1664057780/curve448.o
 .comment       0x00000000       0x54 build/default/production/_ext/1664057780/curve448.o
 .ARM.attributes
                0x00000000       0x39 build/default/production/_ext/1664057780/curve448.o
 .text          0x00000000        0x0 build/default/production/_ext/1664057780/dh.o
 .data          0x00000000        0x0 build/default/production/_ext/1664057780/dh.o
 .bss           0x00000000        0x0 build/default/production/_ext/1664057780/dh.o
 .debug_info    0x00000000      0x343 build/default/production/_ext/1664057780/dh.o
 .debug_abbrev  0x00000000       0x44 build/default/production/_ext/1664057780/dh.o
 .debug_aranges
                0x00000000       0x18 build/default/production/_ext/1664057780/dh.o
 .debug_line    0x00000000       0x9e build/default/production/_ext/1664057780/dh.o
 .debug_str     0x00000000        0x0 build/default/production/_ext/1664057780/dh.o
 .comment       0x00000000       0x54 build/default/production/_ext/1664057780/dh.o
 .ARM.attributes
                0x00000000       0x39 build/default/production/_ext/1664057780/dh.o
 .text          0x00000000        0x0 build/default/production/_ext/1664057780/dsa.o
 .data          0x00000000        0x0 build/default/production/_ext/1664057780/dsa.o
 .bss           0x00000000        0x0 build/default/production/_ext/1664057780/dsa.o
 .debug_info    0x00000000      0x344 build/default/production/_ext/1664057780/dsa.o
 .debug_abbrev  0x00000000       0x44 build/default/production/_ext/1664057780/dsa.o
 .debug_aranges
                0x00000000       0x18 build/default/production/_ext/1664057780/dsa.o
 .debug_line    0x00000000       0x9e build/default/production/_ext/1664057780/dsa.o
 .debug_str     0x00000000        0x0 build/default/production/_ext/1664057780/dsa.o
 .comment       0x00000000       0x54 build/default/production/_ext/1664057780/dsa.o
 .ARM.attributes
                0x00000000       0x39 build/default/production/_ext/1664057780/dsa.o
 .text          0x00000000        0x0 build/default/production/_ext/1664057780/ecc_fp.o
 .data          0x00000000        0x0 build/default/production/_ext/1664057780/ecc_fp.o
 .bss           0x00000000        0x0 build/default/production/_ext/1664057780/ecc_fp.o
 .debug_line    0x00000000        0x0 build/default/production/_ext/1664057780/ecc_fp.o
 .debug_str     0x00000000        0x0 build/default/production/_ext/1664057780/ecc_fp.o
 .comment       0x00000000       0x54 build/default/production/_ext/1664057780/ecc_fp.o
 .ARM.attributes
                0x00000000       0x39 build/default/production/_ext/1664057780/ecc_fp.o
 .text          0x00000000        0x0 build/default/production/_ext/1664057780/ed25519.o
 .data          0x00000000        0x0 build/default/production/_ext/1664057780/ed25519.o
 .bss           0x00000000        0x0 build/default/production/_ext/1664057780/ed25519.o
 .debug_info    0x00000000      0x348 build/default/production/_ext/1664057780/ed25519.o
 .debug_abbrev  0x00000000       0x44 build/default/production/_ext/1664057780/ed25519.o
 .debug_aranges
                0x00000000       0x18 build/default/production/_ext/1664057780/ed25519.o
 .debug_line    0x00000000       0x9e build/default/production/_ext/1664057780/ed25519.o
 .debug_str     0x00000000        0x0 build/default/production/_ext/1664057780/ed25519.o
 .comment       0x00000000       0x54 build/default/production/_ext/1664057780/ed25519.o
 .ARM.attributes
                0x00000000       0x39 build/default/production/_ext/1664057780/ed25519.o
 .text          0x00000000        0x0 build/default/production/_ext/1664057780/ed448.o
 .data          0x00000000        0x0 build/default/production/_ext/1664057780/ed448.o
 .bss           0x00000000        0x0 build/default/production/_ext/1664057780/ed448.o
 .debug_info    0x00000000      0x346 build/default/production/_ext/1664057780/ed448.o
 .debug_abbrev  0x00000000       0x44 build/default/production/_ext/1664057780/ed448.o
 .debug_aranges
                0x00000000       0x18 build/default/production/_ext/1664057780/ed448.o
 .debug_line    0x00000000       0x9e build/default/production/_ext/1664057780/ed448.o
 .debug_str     0x00000000        0x0 build/default/production/_ext/1664057780/ed448.o
 .comment       0x00000000       0x54 build/default/production/_ext/1664057780/ed448.o
 .ARM.attributes
                0x00000000       0x39 build/default/production/_ext/1664057780/ed448.o
 .text          0x00000000        0x0 build/default/production/_ext/1664057780/error.o
 .data          0x00000000        0x0 build/default/production/_ext/1664057780/error.o
 .bss           0x00000000        0x0 build/default/production/_ext/1664057780/error.o
 .debug_info    0x00000000      0x3a9 build/default/production/_ext/1664057780/error.o
 .debug_abbrev  0x00000000       0x72 build/default/production/_ext/1664057780/error.o
 .debug_aranges
                0x00000000       0x18 build/default/production/_ext/1664057780/error.o
 .debug_line    0x00000000       0xe2 build/default/production/_ext/1664057780/error.o
 .debug_str     0x00000000        0x0 build/default/production/_ext/1664057780/error.o
 .comment       0x00000000       0x54 build/default/production/_ext/1664057780/error.o
 .ARM.attributes
                0x00000000       0x39 build/default/production/_ext/1664057780/error.o
 .text          0x00000000        0x0 build/default/production/_ext/1664057780/fe_448.o
 .data          0x00000000        0x0 build/default/production/_ext/1664057780/fe_448.o
 .bss           0x00000000        0x0 build/default/production/_ext/1664057780/fe_448.o
 .debug_info    0x00000000      0x347 build/default/production/_ext/1664057780/fe_448.o
 .debug_abbrev  0x00000000       0x44 build/default/production/_ext/1664057780/fe_448.o
 .debug_aranges
                0x00000000       0x18 build/default/production/_ext/1664057780/fe_448.o
 .debug_line    0x00000000       0x9e build/default/production/_ext/1664057780/fe_448.o
 .debug_str     0x00000000        0x0 build/default/production/_ext/1664057780/fe_448.o
 .comment       0x00000000       0x54 build/default/production/_ext/1664057780/fe_448.o
 .ARM.attributes
                0x00000000       0x39 build/default/production/_ext/1664057780/fe_448.o
 .text          0x00000000        0x0 build/default/production/_ext/1664057780/fe_low_mem.o
 .data          0x00000000        0x0 build/default/production/_ext/1664057780/fe_low_mem.o
 .bss           0x00000000        0x0 build/default/production/_ext/1664057780/fe_low_mem.o
 .debug_info    0x00000000      0x34b build/default/production/_ext/1664057780/fe_low_mem.o
 .debug_abbrev  0x00000000       0x44 build/default/production/_ext/1664057780/fe_low_mem.o
 .debug_aranges
                0x00000000       0x18 build/default/production/_ext/1664057780/fe_low_mem.o
 .debug_line    0x00000000       0x9e build/default/production/_ext/1664057780/fe_low_mem.o
 .debug_str     0x00000000        0x0 build/default/production/_ext/1664057780/fe_low_mem.o
 .comment       0x00000000       0x54 build/default/production/_ext/1664057780/fe_low_mem.o
 .ARM.attributes
                0x00000000       0x39 build/default/production/_ext/1664057780/fe_low_mem.o
 .text          0x00000000        0x0 build/default/production/_ext/1664057780/fe_operations.o
 .data          0x00000000        0x0 build/default/production/_ext/1664057780/fe_operations.o
 .bss           0x00000000        0x0 build/default/production/_ext/1664057780/fe_operations.o
 .debug_info    0x00000000      0x34e build/default/production/_ext/1664057780/fe_operations.o
 .debug_abbrev  0x00000000       0x44 build/default/production/_ext/1664057780/fe_operations.o
 .debug_aranges
                0x00000000       0x18 build/default/production/_ext/1664057780/fe_operations.o
 .debug_line    0x00000000       0x9e build/default/production/_ext/1664057780/fe_operations.o
 .debug_str     0x00000000        0x0 build/default/production/_ext/1664057780/fe_operations.o
 .comment       0x00000000       0x54 build/default/production/_ext/1664057780/fe_operations.o
 .ARM.attributes
                0x00000000       0x39 build/default/production/_ext/1664057780/fe_operations.o
 .text          0x00000000        0x0 build/default/production/_ext/1664057780/ge_448.o
 .data          0x00000000        0x0 build/default/production/_ext/1664057780/ge_448.o
 .bss           0x00000000        0x0 build/default/production/_ext/1664057780/ge_448.o
 .debug_info    0x00000000      0x347 build/default/production/_ext/1664057780/ge_448.o
 .debug_abbrev  0x00000000       0x44 build/default/production/_ext/1664057780/ge_448.o
 .debug_aranges
                0x00000000       0x18 build/default/production/_ext/1664057780/ge_448.o
 .debug_line    0x00000000       0x9e build/default/production/_ext/1664057780/ge_448.o
 .debug_str     0x00000000        0x0 build/default/production/_ext/1664057780/ge_448.o
 .comment       0x00000000       0x54 build/default/production/_ext/1664057780/ge_448.o
 .ARM.attributes
                0x00000000       0x39 build/default/production/_ext/1664057780/ge_448.o
 .text          0x00000000        0x0 build/default/production/_ext/1664057780/ge_low_mem.o
 .data          0x00000000        0x0 build/default/production/_ext/1664057780/ge_low_mem.o
 .bss           0x00000000        0x0 build/default/production/_ext/1664057780/ge_low_mem.o
 .debug_info    0x00000000      0x34b build/default/production/_ext/1664057780/ge_low_mem.o
 .debug_abbrev  0x00000000       0x44 build/default/production/_ext/1664057780/ge_low_mem.o
 .debug_aranges
                0x00000000       0x18 build/default/production/_ext/1664057780/ge_low_mem.o
 .debug_line    0x00000000       0x9e build/default/production/_ext/1664057780/ge_low_mem.o
 .debug_str     0x00000000        0x0 build/default/production/_ext/1664057780/ge_low_mem.o
 .comment       0x00000000       0x54 build/default/production/_ext/1664057780/ge_low_mem.o
 .ARM.attributes
                0x00000000       0x39 build/default/production/_ext/1664057780/ge_low_mem.o
 .text          0x00000000        0x0 build/default/production/_ext/1664057780/ge_operations.o
 .data          0x00000000        0x0 build/default/production/_ext/1664057780/ge_operations.o
 .bss           0x00000000        0x0 build/default/production/_ext/1664057780/ge_operations.o
 .debug_info    0x00000000      0x34e build/default/production/_ext/1664057780/ge_operations.o
 .debug_abbrev  0x00000000       0x44 build/default/production/_ext/1664057780/ge_operations.o
 .debug_aranges
                0x00000000       0x18 build/default/production/_ext/1664057780/ge_operations.o
 .debug_line    0x00000000       0x9e build/default/production/_ext/1664057780/ge_operations.o
 .debug_str     0x00000000        0x0 build/default/production/_ext/1664057780/ge_operations.o
 .comment       0x00000000       0x54 build/default/production/_ext/1664057780/ge_operations.o
 .ARM.attributes
                0x00000000       0x39 build/default/production/_ext/1664057780/ge_operations.o
 .text          0x00000000        0x0 build/default/production/_ext/1664057780/hash.o
 .data          0x00000000        0x0 build/default/production/_ext/1664057780/hash.o
 .bss           0x00000000        0x0 build/default/production/_ext/1664057780/hash.o
 .text.wc_HashTypeConvert
                0x00000000        0xc build/default/production/_ext/1664057780/hash.o
 .text.wc_HashGetOID
                0x00000000       0x3a build/default/production/_ext/1664057780/hash.o
 .text.wc_OidGetHash
                0x00000000       0x30 build/default/production/_ext/1664057780/hash.o
 .text.wc_HashGetDigestSize
                0x00000000       0x3a build/default/production/_ext/1664057780/hash.o
 .text.wc_HashGetBlockSize
                0x00000000       0x2e build/default/production/_ext/1664057780/hash.o
 .text.wc_HashInit_ex
                0x00000000       0x56 build/default/production/_ext/1664057780/hash.o
 .text.wc_HashInit
                0x00000000        0xe build/default/production/_ext/1664057780/hash.o
 .text.wc_HashUpdate
                0x00000000       0x66 build/default/production/_ext/1664057780/hash.o
 .text.wc_HashFinal
                0x00000000       0x54 build/default/production/_ext/1664057780/hash.o
 .text.wc_HashFree
                0x00000000       0x4c build/default/production/_ext/1664057780/hash.o
 .text.wc_HashSetFlags
                0x00000000       0x4c build/default/production/_ext/1664057780/hash.o
 .text.wc_HashGetFlags
                0x00000000       0x4c build/default/production/_ext/1664057780/hash.o
 .text.wc_Md5Hash
                0x00000000       0x3c build/default/production/_ext/1664057780/hash.o
 .text.wc_ShaHash
                0x00000000       0x56 build/default/production/_ext/1664057780/hash.o
 .text.wc_Sha224Hash
                0x00000000       0x3c build/default/production/_ext/1664057780/hash.o
 .text.wc_Sha256Hash
                0x00000000       0x56 build/default/production/_ext/1664057780/hash.o
 .text.wc_Hash  0x00000000       0x94 build/default/production/_ext/1664057780/hash.o
 .debug_info    0x00000000     0x2572 build/default/production/_ext/1664057780/hash.o
 .debug_abbrev  0x00000000      0x29e build/default/production/_ext/1664057780/hash.o
 .debug_loc     0x00000000     0x1af2 build/default/production/_ext/1664057780/hash.o
 .debug_aranges
                0x00000000       0xa0 build/default/production/_ext/1664057780/hash.o
 .debug_ranges  0x00000000       0x90 build/default/production/_ext/1664057780/hash.o
 .debug_line    0x00000000      0x7c5 build/default/production/_ext/1664057780/hash.o
 .debug_str     0x00000000      0x1f4 build/default/production/_ext/1664057780/hash.o
 .comment       0x00000000       0x54 build/default/production/_ext/1664057780/hash.o
 .debug_frame   0x00000000      0x1e4 build/default/production/_ext/1664057780/hash.o
 .ARM.attributes
                0x00000000       0x34 build/default/production/_ext/1664057780/hash.o
 .text          0x00000000        0x0 build/default/production/_ext/1664057780/hc128.o
 .data          0x00000000        0x0 build/default/production/_ext/1664057780/hc128.o
 .bss           0x00000000        0x0 build/default/production/_ext/1664057780/hc128.o
 .debug_info    0x00000000      0x346 build/default/production/_ext/1664057780/hc128.o
 .debug_abbrev  0x00000000       0x44 build/default/production/_ext/1664057780/hc128.o
 .debug_aranges
                0x00000000       0x18 build/default/production/_ext/1664057780/hc128.o
 .debug_line    0x00000000       0x9e build/default/production/_ext/1664057780/hc128.o
 .debug_str     0x00000000        0x0 build/default/production/_ext/1664057780/hc128.o
 .comment       0x00000000       0x54 build/default/production/_ext/1664057780/hc128.o
 .ARM.attributes
                0x00000000       0x39 build/default/production/_ext/1664057780/hc128.o
 .text          0x00000000        0x0 build/default/production/_ext/1664057780/hmac.o
 .data          0x00000000        0x0 build/default/production/_ext/1664057780/hmac.o
 .bss           0x00000000        0x0 build/default/production/_ext/1664057780/hmac.o
 .text.HmacKeyInnerHash
                0x00000000       0x50 build/default/production/_ext/1664057780/hmac.o
 .text.wc_HmacSizeByType
                0x00000000       0x30 build/default/production/_ext/1664057780/hmac.o
 .text._InitHmac
                0x00000000       0x36 build/default/production/_ext/1664057780/hmac.o
 .text.wc_HmacUpdate
                0x00000000       0xb0 build/default/production/_ext/1664057780/hmac.o
 .text.wc_HmacFinal
                0x00000000      0x17a build/default/production/_ext/1664057780/hmac.o
 .text.wc_HmacInit
                0x00000000       0x2a build/default/production/_ext/1664057780/hmac.o
 .text.wc_HmacFree
                0x00000000       0x90 build/default/production/_ext/1664057780/hmac.o
 .text.wc_HmacSetKey
                0x00000000      0x190 build/default/production/_ext/1664057780/hmac.o
 .text.wolfSSL_GetHmacMaxSize
                0x00000000        0x4 build/default/production/_ext/1664057780/hmac.o
 .debug_info    0x00000000     0x22f8 build/default/production/_ext/1664057780/hmac.o
 .debug_abbrev  0x00000000      0x323 build/default/production/_ext/1664057780/hmac.o
 .debug_loc     0x00000000      0xf06 build/default/production/_ext/1664057780/hmac.o
 .debug_aranges
                0x00000000       0x60 build/default/production/_ext/1664057780/hmac.o
 .debug_ranges  0x00000000       0x50 build/default/production/_ext/1664057780/hmac.o
 .debug_line    0x00000000      0x7c3 build/default/production/_ext/1664057780/hmac.o
 .debug_str     0x00000000      0x129 build/default/production/_ext/1664057780/hmac.o
 .comment       0x00000000       0x54 build/default/production/_ext/1664057780/hmac.o
 .debug_frame   0x00000000      0x134 build/default/production/_ext/1664057780/hmac.o
 .ARM.attributes
                0x00000000       0x34 build/default/production/_ext/1664057780/hmac.o
 .text          0x00000000        0x0 build/default/production/_ext/1664057780/idea.o
 .data          0x00000000        0x0 build/default/production/_ext/1664057780/idea.o
 .bss           0x00000000        0x0 build/default/production/_ext/1664057780/idea.o
 .debug_info    0x00000000      0x345 build/default/production/_ext/1664057780/idea.o
 .debug_abbrev  0x00000000       0x44 build/default/production/_ext/1664057780/idea.o
 .debug_aranges
                0x00000000       0x18 build/default/production/_ext/1664057780/idea.o
 .debug_line    0x00000000       0x9e build/default/production/_ext/1664057780/idea.o
 .debug_str     0x00000000        0x0 build/default/production/_ext/1664057780/idea.o
 .comment       0x00000000       0x54 build/default/production/_ext/1664057780/idea.o
 .ARM.attributes
                0x00000000       0x39 build/default/production/_ext/1664057780/idea.o
 .text          0x00000000        0x0 build/default/production/_ext/1664057780/integer.o
 .data          0x00000000        0x0 build/default/production/_ext/1664057780/integer.o
 .bss           0x00000000        0x0 build/default/production/_ext/1664057780/integer.o
 .debug_info    0x00000000      0x3ab build/default/production/_ext/1664057780/integer.o
 .debug_abbrev  0x00000000       0x72 build/default/production/_ext/1664057780/integer.o
 .debug_aranges
                0x00000000       0x18 build/default/production/_ext/1664057780/integer.o
 .debug_line    0x00000000       0xe2 build/default/production/_ext/1664057780/integer.o
 .debug_str     0x00000000        0x0 build/default/production/_ext/1664057780/integer.o
 .comment       0x00000000       0x54 build/default/production/_ext/1664057780/integer.o
 .ARM.attributes
                0x00000000       0x39 build/default/production/_ext/1664057780/integer.o
 .text          0x00000000        0x0 build/default/production/_ext/1664057780/logging.o
 .data          0x00000000        0x0 build/default/production/_ext/1664057780/logging.o
 .bss           0x00000000        0x0 build/default/production/_ext/1664057780/logging.o
 .text.wolfSSL_SetLoggingCb
                0x00000000        0x6 build/default/production/_ext/1664057780/logging.o
 .text.wolfSSL_GetLoggingCb
                0x00000000        0x4 build/default/production/_ext/1664057780/logging.o
 .text.wolfSSL_Debugging_ON
                0x00000000        0x6 build/default/production/_ext/1664057780/logging.o
 .text.wolfSSL_Debugging_OFF
                0x00000000        0x2 build/default/production/_ext/1664057780/logging.o
 .debug_info    0x00000000      0xfd6 build/default/production/_ext/1664057780/logging.o
 .debug_abbrev  0x00000000      0x111 build/default/production/_ext/1664057780/logging.o
 .debug_loc     0x00000000       0x25 build/default/production/_ext/1664057780/logging.o
 .debug_aranges
                0x00000000       0x38 build/default/production/_ext/1664057780/logging.o
 .debug_ranges  0x00000000       0x28 build/default/production/_ext/1664057780/logging.o
 .debug_line    0x00000000      0x1cb build/default/production/_ext/1664057780/logging.o
 .debug_str     0x00000000        0x0 build/default/production/_ext/1664057780/logging.o
 .comment       0x00000000       0x54 build/default/production/_ext/1664057780/logging.o
 .debug_frame   0x00000000       0x50 build/default/production/_ext/1664057780/logging.o
 .ARM.attributes
                0x00000000       0x34 build/default/production/_ext/1664057780/logging.o
 .text          0x00000000        0x0 build/default/production/_ext/1664057780/md2.o
 .data          0x00000000        0x0 build/default/production/_ext/1664057780/md2.o
 .bss           0x00000000        0x0 build/default/production/_ext/1664057780/md2.o
 .debug_info    0x00000000      0x344 build/default/production/_ext/1664057780/md2.o
 .debug_abbrev  0x00000000       0x44 build/default/production/_ext/1664057780/md2.o
 .debug_aranges
                0x00000000       0x18 build/default/production/_ext/1664057780/md2.o
 .debug_line    0x00000000       0x9e build/default/production/_ext/1664057780/md2.o
 .debug_str     0x00000000        0x0 build/default/production/_ext/1664057780/md2.o
 .comment       0x00000000       0x54 build/default/production/_ext/1664057780/md2.o
 .ARM.attributes
                0x00000000       0x39 build/default/production/_ext/1664057780/md2.o
 .text          0x00000000        0x0 build/default/production/_ext/1664057780/md4.o
 .data          0x00000000        0x0 build/default/production/_ext/1664057780/md4.o
 .bss           0x00000000        0x0 build/default/production/_ext/1664057780/md4.o
 .debug_info    0x00000000      0x344 build/default/production/_ext/1664057780/md4.o
 .debug_abbrev  0x00000000       0x44 build/default/production/_ext/1664057780/md4.o
 .debug_aranges
                0x00000000       0x18 build/default/production/_ext/1664057780/md4.o
 .debug_line    0x00000000       0x9e build/default/production/_ext/1664057780/md4.o
 .debug_str     0x00000000        0x0 build/default/production/_ext/1664057780/md4.o
 .comment       0x00000000       0x54 build/default/production/_ext/1664057780/md4.o
 .ARM.attributes
                0x00000000       0x39 build/default/production/_ext/1664057780/md4.o
 .text          0x00000000        0x0 build/default/production/_ext/1664057780/md5.o
 .data          0x00000000        0x0 build/default/production/_ext/1664057780/md5.o
 .bss           0x00000000        0x0 build/default/production/_ext/1664057780/md5.o
 .text.Transform
                0x00000000      0x6d0 build/default/production/_ext/1664057780/md5.o
 .text.wc_InitMd5_ex
                0x00000000       0x3c build/default/production/_ext/1664057780/md5.o
 .text.wc_Md5Update
                0x00000000       0xfe build/default/production/_ext/1664057780/md5.o
 .text.wc_Md5Final
                0x00000000       0xb8 build/default/production/_ext/1664057780/md5.o
 .text.wc_InitMd5
                0x00000000       0x16 build/default/production/_ext/1664057780/md5.o
 .text.wc_Md5Free
                0x00000000        0x2 build/default/production/_ext/1664057780/md5.o
 .text.wc_Md5Copy
                0x00000000       0x2a build/default/production/_ext/1664057780/md5.o
 .text.wc_Md5GetHash
                0x00000000       0x34 build/default/production/_ext/1664057780/md5.o
 .text.wc_Md5SetFlags
                0x00000000        0x8 build/default/production/_ext/1664057780/md5.o
 .text.wc_Md5GetFlags
                0x00000000        0xc build/default/production/_ext/1664057780/md5.o
 .debug_info    0x00000000     0x2539 build/default/production/_ext/1664057780/md5.o
 .debug_abbrev  0x00000000      0x301 build/default/production/_ext/1664057780/md5.o
 .debug_loc     0x00000000     0x2df9 build/default/production/_ext/1664057780/md5.o
 .debug_aranges
                0x00000000       0x68 build/default/production/_ext/1664057780/md5.o
 .debug_ranges  0x00000000       0x70 build/default/production/_ext/1664057780/md5.o
 .debug_line    0x00000000      0xc1b build/default/production/_ext/1664057780/md5.o
 .debug_str     0x00000000        0x0 build/default/production/_ext/1664057780/md5.o
 .comment       0x00000000       0x54 build/default/production/_ext/1664057780/md5.o
 .debug_frame   0x00000000      0x138 build/default/production/_ext/1664057780/md5.o
 .ARM.attributes
                0x00000000       0x34 build/default/production/_ext/1664057780/md5.o
 .text          0x00000000        0x0 build/default/production/_ext/1664057780/memory.o
 .data          0x00000000        0x0 build/default/production/_ext/1664057780/memory.o
 .bss           0x00000000        0x0 build/default/production/_ext/1664057780/memory.o
 .debug_info    0x00000000      0x347 build/default/production/_ext/1664057780/memory.o
 .debug_abbrev  0x00000000       0x44 build/default/production/_ext/1664057780/memory.o
 .debug_aranges
                0x00000000       0x18 build/default/production/_ext/1664057780/memory.o
 .debug_line    0x00000000       0x9e build/default/production/_ext/1664057780/memory.o
 .debug_str     0x00000000        0x0 build/default/production/_ext/1664057780/memory.o
 .comment       0x00000000       0x54 build/default/production/_ext/1664057780/memory.o
 .ARM.attributes
                0x00000000       0x39 build/default/production/_ext/1664057780/memory.o
 .text          0x00000000        0x0 build/default/production/_ext/1664057780/pkcs12.o
 .data          0x00000000        0x0 build/default/production/_ext/1664057780/pkcs12.o
 .bss           0x00000000        0x0 build/default/production/_ext/1664057780/pkcs12.o
 .debug_info    0x00000000      0x347 build/default/production/_ext/1664057780/pkcs12.o
 .debug_abbrev  0x00000000       0x44 build/default/production/_ext/1664057780/pkcs12.o
 .debug_aranges
                0x00000000       0x18 build/default/production/_ext/1664057780/pkcs12.o
 .debug_line    0x00000000       0x9e build/default/production/_ext/1664057780/pkcs12.o
 .debug_str     0x00000000        0x0 build/default/production/_ext/1664057780/pkcs12.o
 .comment       0x00000000       0x54 build/default/production/_ext/1664057780/pkcs12.o
 .ARM.attributes
                0x00000000       0x39 build/default/production/_ext/1664057780/pkcs12.o
 .text          0x00000000        0x0 build/default/production/_ext/1664057780/pkcs7.o
 .data          0x00000000        0x0 build/default/production/_ext/1664057780/pkcs7.o
 .bss           0x00000000        0x0 build/default/production/_ext/1664057780/pkcs7.o
 .debug_info    0x00000000      0x346 build/default/production/_ext/1664057780/pkcs7.o
 .debug_abbrev  0x00000000       0x44 build/default/production/_ext/1664057780/pkcs7.o
 .debug_aranges
                0x00000000       0x18 build/default/production/_ext/1664057780/pkcs7.o
 .debug_line    0x00000000       0x9e build/default/production/_ext/1664057780/pkcs7.o
 .debug_str     0x00000000        0x0 build/default/production/_ext/1664057780/pkcs7.o
 .comment       0x00000000       0x54 build/default/production/_ext/1664057780/pkcs7.o
 .ARM.attributes
                0x00000000       0x39 build/default/production/_ext/1664057780/pkcs7.o
 .text          0x00000000        0x0 build/default/production/_ext/1664057780/poly1305.o
 .data          0x00000000        0x0 build/default/production/_ext/1664057780/poly1305.o
 .bss           0x00000000        0x0 build/default/production/_ext/1664057780/poly1305.o
 .debug_info    0x00000000      0x349 build/default/production/_ext/1664057780/poly1305.o
 .debug_abbrev  0x00000000       0x44 build/default/production/_ext/1664057780/poly1305.o
 .debug_aranges
                0x00000000       0x18 build/default/production/_ext/1664057780/poly1305.o
 .debug_line    0x00000000       0x9e build/default/production/_ext/1664057780/poly1305.o
 .debug_str     0x00000000        0x0 build/default/production/_ext/1664057780/poly1305.o
 .comment       0x00000000       0x54 build/default/production/_ext/1664057780/poly1305.o
 .ARM.attributes
                0x00000000       0x39 build/default/production/_ext/1664057780/poly1305.o
 .text          0x00000000        0x0 build/default/production/_ext/1664057780/pwdbased.o
 .data          0x00000000        0x0 build/default/production/_ext/1664057780/pwdbased.o
 .bss           0x00000000        0x0 build/default/production/_ext/1664057780/pwdbased.o
 .debug_info    0x00000000      0x349 build/default/production/_ext/1664057780/pwdbased.o
 .debug_abbrev  0x00000000       0x44 build/default/production/_ext/1664057780/pwdbased.o
 .debug_aranges
                0x00000000       0x18 build/default/production/_ext/1664057780/pwdbased.o
 .debug_line    0x00000000       0x9e build/default/production/_ext/1664057780/pwdbased.o
 .debug_str     0x00000000        0x0 build/default/production/_ext/1664057780/pwdbased.o
 .comment       0x00000000       0x54 build/default/production/_ext/1664057780/pwdbased.o
 .ARM.attributes
                0x00000000       0x39 build/default/production/_ext/1664057780/pwdbased.o
 .text          0x00000000        0x0 build/default/production/_ext/1664057780/rabbit.o
 .data          0x00000000        0x0 build/default/production/_ext/1664057780/rabbit.o
 .bss           0x00000000        0x0 build/default/production/_ext/1664057780/rabbit.o
 .debug_info    0x00000000      0x347 build/default/production/_ext/1664057780/rabbit.o
 .debug_abbrev  0x00000000       0x44 build/default/production/_ext/1664057780/rabbit.o
 .debug_aranges
                0x00000000       0x18 build/default/production/_ext/1664057780/rabbit.o
 .debug_line    0x00000000       0x9e build/default/production/_ext/1664057780/rabbit.o
 .debug_str     0x00000000        0x0 build/default/production/_ext/1664057780/rabbit.o
 .comment       0x00000000       0x54 build/default/production/_ext/1664057780/rabbit.o
 .ARM.attributes
                0x00000000       0x39 build/default/production/_ext/1664057780/rabbit.o
 .text          0x00000000        0x0 build/default/production/_ext/1664057780/rc2.o
 .data          0x00000000        0x0 build/default/production/_ext/1664057780/rc2.o
 .bss           0x00000000        0x0 build/default/production/_ext/1664057780/rc2.o
 .debug_info    0x00000000      0x344 build/default/production/_ext/1664057780/rc2.o
 .debug_abbrev  0x00000000       0x44 build/default/production/_ext/1664057780/rc2.o
 .debug_aranges
                0x00000000       0x18 build/default/production/_ext/1664057780/rc2.o
 .debug_line    0x00000000       0x9e build/default/production/_ext/1664057780/rc2.o
 .debug_str     0x00000000        0x0 build/default/production/_ext/1664057780/rc2.o
 .comment       0x00000000       0x54 build/default/production/_ext/1664057780/rc2.o
 .ARM.attributes
                0x00000000       0x39 build/default/production/_ext/1664057780/rc2.o
 .text          0x00000000        0x0 build/default/production/_ext/1664057780/ripemd.o
 .data          0x00000000        0x0 build/default/production/_ext/1664057780/ripemd.o
 .bss           0x00000000        0x0 build/default/production/_ext/1664057780/ripemd.o
 .debug_info    0x00000000      0x347 build/default/production/_ext/1664057780/ripemd.o
 .debug_abbrev  0x00000000       0x44 build/default/production/_ext/1664057780/ripemd.o
 .debug_aranges
                0x00000000       0x18 build/default/production/_ext/1664057780/ripemd.o
 .debug_line    0x00000000       0x9e build/default/production/_ext/1664057780/ripemd.o
 .debug_str     0x00000000        0x0 build/default/production/_ext/1664057780/ripemd.o
 .comment       0x00000000       0x54 build/default/production/_ext/1664057780/ripemd.o
 .ARM.attributes
                0x00000000       0x39 build/default/production/_ext/1664057780/ripemd.o
 .text          0x00000000        0x0 build/default/production/_ext/1664057780/rsa.o
 .data          0x00000000        0x0 build/default/production/_ext/1664057780/rsa.o
 .bss           0x00000000        0x0 build/default/production/_ext/1664057780/rsa.o
 .text.wc_RsaCleanup
                0x00000000       0x66 build/default/production/_ext/1664057780/rsa.o
 .text.RsaMGF1  0x00000000       0xfa build/default/production/_ext/1664057780/rsa.o
 .text.RsaMGF   0x00000000       0x4a build/default/production/_ext/1664057780/rsa.o
 .text.RsaGetValue
                0x00000000       0x2c build/default/production/_ext/1664057780/rsa.o
 .text.wc_InitRsaKey_ex
                0x00000000       0x8c build/default/production/_ext/1664057780/rsa.o
 .text.wc_InitRsaKey
                0x00000000        0xc build/default/production/_ext/1664057780/rsa.o
 .text.wc_InitRsaKey_Id
                0x00000000       0x46 build/default/production/_ext/1664057780/rsa.o
 .text.wc_InitRsaKey_Label
                0x00000000       0x60 build/default/production/_ext/1664057780/rsa.o
 .text.wc_FreeRsaKey
                0x00000000       0x90 build/default/production/_ext/1664057780/rsa.o
 .text.wc_RsaPad_ex
                0x00000000      0x272 build/default/production/_ext/1664057780/rsa.o
 .text.wc_RsaUnPad_ex
                0x00000000      0x272 build/default/production/_ext/1664057780/rsa.o
 .text.wc_hash2mgf
                0x00000000       0x1a build/default/production/_ext/1664057780/rsa.o
 .text.wc_RsaEncryptSize
                0x00000000       0x2c build/default/production/_ext/1664057780/rsa.o
 .text.wc_RsaFunction
                0x00000000      0x2c4 build/default/production/_ext/1664057780/rsa.o
 .text.RsaPrivateDecryptEx
                0x00000000      0x20a build/default/production/_ext/1664057780/rsa.o
 .text.wc_RsaPrivateDecryptInline
                0x00000000       0x2c build/default/production/_ext/1664057780/rsa.o
 .text.wc_RsaPrivateDecryptInline_ex
                0x00000000       0x38 build/default/production/_ext/1664057780/rsa.o
 .text.wc_RsaPrivateDecrypt
                0x00000000       0x2a build/default/production/_ext/1664057780/rsa.o
 .text.wc_RsaPrivateDecrypt_ex
                0x00000000       0x36 build/default/production/_ext/1664057780/rsa.o
 .text.wc_RsaSSL_VerifyInline
                0x00000000       0x2a build/default/production/_ext/1664057780/rsa.o
 .text.wc_RsaSSL_Verify_ex2
                0x00000000       0x54 build/default/production/_ext/1664057780/rsa.o
 .text.wc_RsaSSL_Verify_ex
                0x00000000       0x18 build/default/production/_ext/1664057780/rsa.o
 .text.wc_RsaSSL_Verify
                0x00000000       0x14 build/default/production/_ext/1664057780/rsa.o
 .text.RsaPublicEncryptEx
                0x00000000      0x12a build/default/production/_ext/1664057780/rsa.o
 .text.wc_RsaPublicEncrypt
                0x00000000       0x28 build/default/production/_ext/1664057780/rsa.o
 .text.wc_RsaPublicEncrypt_ex
                0x00000000       0x34 build/default/production/_ext/1664057780/rsa.o
 .text.wc_RsaSSL_Sign
                0x00000000       0x2a build/default/production/_ext/1664057780/rsa.o
 .text.wc_RsaFlattenPublicKey
                0x00000000       0x8a build/default/production/_ext/1664057780/rsa.o
 .text.wc_RsaExportKey
                0x00000000       0xd0 build/default/production/_ext/1664057780/rsa.o
 .debug_info    0x00000000     0x514a build/default/production/_ext/1664057780/rsa.o
 .debug_abbrev  0x00000000      0x470 build/default/production/_ext/1664057780/rsa.o
 .debug_loc     0x00000000     0x4c18 build/default/production/_ext/1664057780/rsa.o
 .debug_aranges
                0x00000000      0x100 build/default/production/_ext/1664057780/rsa.o
 .debug_ranges  0x00000000      0x448 build/default/production/_ext/1664057780/rsa.o
 .debug_line    0x00000000     0x1529 build/default/production/_ext/1664057780/rsa.o
 .debug_str     0x00000000      0x19f build/default/production/_ext/1664057780/rsa.o
 .comment       0x00000000       0x54 build/default/production/_ext/1664057780/rsa.o
 .debug_frame   0x00000000      0x40c build/default/production/_ext/1664057780/rsa.o
 .ARM.attributes
                0x00000000       0x34 build/default/production/_ext/1664057780/rsa.o
 .text          0x00000000        0x0 build/default/production/_ext/1664057780/sha3.o
 .data          0x00000000        0x0 build/default/production/_ext/1664057780/sha3.o
 .bss           0x00000000        0x0 build/default/production/_ext/1664057780/sha3.o
 .debug_info    0x00000000      0x345 build/default/production/_ext/1664057780/sha3.o
 .debug_abbrev  0x00000000       0x44 build/default/production/_ext/1664057780/sha3.o
 .debug_aranges
                0x00000000       0x18 build/default/production/_ext/1664057780/sha3.o
 .debug_line    0x00000000       0x9e build/default/production/_ext/1664057780/sha3.o
 .debug_str     0x00000000        0x0 build/default/production/_ext/1664057780/sha3.o
 .comment       0x00000000       0x54 build/default/production/_ext/1664057780/sha3.o
 .ARM.attributes
                0x00000000       0x39 build/default/production/_ext/1664057780/sha3.o
 .text          0x00000000        0x0 build/default/production/_ext/1664057780/signature.o
 .data          0x00000000        0x0 build/default/production/_ext/1664057780/signature.o
 .bss           0x00000000        0x0 build/default/production/_ext/1664057780/signature.o
 .debug_info    0x00000000      0x599 build/default/production/_ext/1664057780/signature.o
 .debug_abbrev  0x00000000       0xaf build/default/production/_ext/1664057780/signature.o
 .debug_aranges
                0x00000000       0x18 build/default/production/_ext/1664057780/signature.o
 .debug_line    0x00000000      0x13a build/default/production/_ext/1664057780/signature.o
 .debug_str     0x00000000        0xd build/default/production/_ext/1664057780/signature.o
 .comment       0x00000000       0x54 build/default/production/_ext/1664057780/signature.o
 .ARM.attributes
                0x00000000       0x39 build/default/production/_ext/1664057780/signature.o
 .text          0x00000000        0x0 build/default/production/_ext/1664057780/sp_arm32.o
 .data          0x00000000        0x0 build/default/production/_ext/1664057780/sp_arm32.o
 .bss           0x00000000        0x0 build/default/production/_ext/1664057780/sp_arm32.o
 .debug_info    0x00000000      0x3ac build/default/production/_ext/1664057780/sp_arm32.o
 .debug_abbrev  0x00000000       0x72 build/default/production/_ext/1664057780/sp_arm32.o
 .debug_aranges
                0x00000000       0x18 build/default/production/_ext/1664057780/sp_arm32.o
 .debug_line    0x00000000       0xe2 build/default/production/_ext/1664057780/sp_arm32.o
 .debug_str     0x00000000        0x0 build/default/production/_ext/1664057780/sp_arm32.o
 .comment       0x00000000       0x54 build/default/production/_ext/1664057780/sp_arm32.o
 .ARM.attributes
                0x00000000       0x39 build/default/production/_ext/1664057780/sp_arm32.o
 .text          0x00000000        0x0 build/default/production/_ext/1664057780/sp_arm64.o
 .data          0x00000000        0x0 build/default/production/_ext/1664057780/sp_arm64.o
 .bss           0x00000000        0x0 build/default/production/_ext/1664057780/sp_arm64.o
 .debug_info    0x00000000      0x3ac build/default/production/_ext/1664057780/sp_arm64.o
 .debug_abbrev  0x00000000       0x72 build/default/production/_ext/1664057780/sp_arm64.o
 .debug_aranges
                0x00000000       0x18 build/default/production/_ext/1664057780/sp_arm64.o
 .debug_line    0x00000000       0xe2 build/default/production/_ext/1664057780/sp_arm64.o
 .debug_str     0x00000000        0x0 build/default/production/_ext/1664057780/sp_arm64.o
 .comment       0x00000000       0x54 build/default/production/_ext/1664057780/sp_arm64.o
 .ARM.attributes
                0x00000000       0x39 build/default/production/_ext/1664057780/sp_arm64.o
 .text          0x00000000        0x0 build/default/production/_ext/1664057780/sp_armthumb.o
 .data          0x00000000        0x0 build/default/production/_ext/1664057780/sp_armthumb.o
 .bss           0x00000000        0x0 build/default/production/_ext/1664057780/sp_armthumb.o
 .debug_info    0x00000000      0x3af build/default/production/_ext/1664057780/sp_armthumb.o
 .debug_abbrev  0x00000000       0x72 build/default/production/_ext/1664057780/sp_armthumb.o
 .debug_aranges
                0x00000000       0x18 build/default/production/_ext/1664057780/sp_armthumb.o
 .debug_line    0x00000000       0xe2 build/default/production/_ext/1664057780/sp_armthumb.o
 .debug_str     0x00000000        0x0 build/default/production/_ext/1664057780/sp_armthumb.o
 .comment       0x00000000       0x54 build/default/production/_ext/1664057780/sp_armthumb.o
 .ARM.attributes
                0x00000000       0x39 build/default/production/_ext/1664057780/sp_armthumb.o
 .text          0x00000000        0x0 build/default/production/_ext/1664057780/sp_c32.o
 .data          0x00000000        0x0 build/default/production/_ext/1664057780/sp_c32.o
 .bss           0x00000000        0x0 build/default/production/_ext/1664057780/sp_c32.o
 .debug_info    0x00000000      0x3aa build/default/production/_ext/1664057780/sp_c32.o
 .debug_abbrev  0x00000000       0x72 build/default/production/_ext/1664057780/sp_c32.o
 .debug_aranges
                0x00000000       0x18 build/default/production/_ext/1664057780/sp_c32.o
 .debug_line    0x00000000       0xe2 build/default/production/_ext/1664057780/sp_c32.o
 .debug_str     0x00000000        0x0 build/default/production/_ext/1664057780/sp_c32.o
 .comment       0x00000000       0x54 build/default/production/_ext/1664057780/sp_c32.o
 .ARM.attributes
                0x00000000       0x39 build/default/production/_ext/1664057780/sp_c32.o
 .text          0x00000000        0x0 build/default/production/_ext/1664057780/sp_c64.o
 .data          0x00000000        0x0 build/default/production/_ext/1664057780/sp_c64.o
 .bss           0x00000000        0x0 build/default/production/_ext/1664057780/sp_c64.o
 .debug_info    0x00000000      0x3aa build/default/production/_ext/1664057780/sp_c64.o
 .debug_abbrev  0x00000000       0x72 build/default/production/_ext/1664057780/sp_c64.o
 .debug_aranges
                0x00000000       0x18 build/default/production/_ext/1664057780/sp_c64.o
 .debug_line    0x00000000       0xe2 build/default/production/_ext/1664057780/sp_c64.o
 .debug_str     0x00000000        0x0 build/default/production/_ext/1664057780/sp_c64.o
 .comment       0x00000000       0x54 build/default/production/_ext/1664057780/sp_c64.o
 .ARM.attributes
                0x00000000       0x39 build/default/production/_ext/1664057780/sp_c64.o
 .text          0x00000000        0x0 build/default/production/_ext/1664057780/sp_cortexm.o
 .data          0x00000000        0x0 build/default/production/_ext/1664057780/sp_cortexm.o
 .bss           0x00000000        0x0 build/default/production/_ext/1664057780/sp_cortexm.o
 .debug_info    0x00000000      0x3ae build/default/production/_ext/1664057780/sp_cortexm.o
 .debug_abbrev  0x00000000       0x72 build/default/production/_ext/1664057780/sp_cortexm.o
 .debug_aranges
                0x00000000       0x18 build/default/production/_ext/1664057780/sp_cortexm.o
 .debug_line    0x00000000       0xe2 build/default/production/_ext/1664057780/sp_cortexm.o
 .debug_str     0x00000000        0x0 build/default/production/_ext/1664057780/sp_cortexm.o
 .comment       0x00000000       0x54 build/default/production/_ext/1664057780/sp_cortexm.o
 .ARM.attributes
                0x00000000       0x39 build/default/production/_ext/1664057780/sp_cortexm.o
 .text          0x00000000        0x0 build/default/production/_ext/1664057780/sp_dsp32.o
 .data          0x00000000        0x0 build/default/production/_ext/1664057780/sp_dsp32.o
 .bss           0x00000000        0x0 build/default/production/_ext/1664057780/sp_dsp32.o
 .debug_info    0x00000000      0x3ac build/default/production/_ext/1664057780/sp_dsp32.o
 .debug_abbrev  0x00000000       0x72 build/default/production/_ext/1664057780/sp_dsp32.o
 .debug_aranges
                0x00000000       0x18 build/default/production/_ext/1664057780/sp_dsp32.o
 .debug_line    0x00000000       0xe2 build/default/production/_ext/1664057780/sp_dsp32.o
 .debug_str     0x00000000        0x0 build/default/production/_ext/1664057780/sp_dsp32.o
 .comment       0x00000000       0x54 build/default/production/_ext/1664057780/sp_dsp32.o
 .ARM.attributes
                0x00000000       0x39 build/default/production/_ext/1664057780/sp_dsp32.o
 .text          0x00000000        0x0 build/default/production/_ext/1664057780/sp_int.o
 .data          0x00000000        0x0 build/default/production/_ext/1664057780/sp_int.o
 .bss           0x00000000        0x0 build/default/production/_ext/1664057780/sp_int.o
 .debug_info    0x00000000      0x3aa build/default/production/_ext/1664057780/sp_int.o
 .debug_abbrev  0x00000000       0x72 build/default/production/_ext/1664057780/sp_int.o
 .debug_aranges
                0x00000000       0x18 build/default/production/_ext/1664057780/sp_int.o
 .debug_line    0x00000000       0xe2 build/default/production/_ext/1664057780/sp_int.o
 .debug_str     0x00000000        0x0 build/default/production/_ext/1664057780/sp_int.o
 .comment       0x00000000       0x54 build/default/production/_ext/1664057780/sp_int.o
 .ARM.attributes
                0x00000000       0x39 build/default/production/_ext/1664057780/sp_int.o
 .text          0x00000000        0x0 build/default/production/_ext/1664057780/sp_x86_64.o
 .data          0x00000000        0x0 build/default/production/_ext/1664057780/sp_x86_64.o
 .bss           0x00000000        0x0 build/default/production/_ext/1664057780/sp_x86_64.o
 .debug_info    0x00000000      0x3ad build/default/production/_ext/1664057780/sp_x86_64.o
 .debug_abbrev  0x00000000       0x72 build/default/production/_ext/1664057780/sp_x86_64.o
 .debug_aranges
                0x00000000       0x18 build/default/production/_ext/1664057780/sp_x86_64.o
 .debug_line    0x00000000       0xe2 build/default/production/_ext/1664057780/sp_x86_64.o
 .debug_str     0x00000000        0x0 build/default/production/_ext/1664057780/sp_x86_64.o
 .comment       0x00000000       0x54 build/default/production/_ext/1664057780/sp_x86_64.o
 .ARM.attributes
                0x00000000       0x39 build/default/production/_ext/1664057780/sp_x86_64.o
 .text          0x00000000        0x0 build/default/production/_ext/1664057780/srp.o
 .data          0x00000000        0x0 build/default/production/_ext/1664057780/srp.o
 .bss           0x00000000        0x0 build/default/production/_ext/1664057780/srp.o
 .debug_info    0x00000000      0x344 build/default/production/_ext/1664057780/srp.o
 .debug_abbrev  0x00000000       0x44 build/default/production/_ext/1664057780/srp.o
 .debug_aranges
                0x00000000       0x18 build/default/production/_ext/1664057780/srp.o
 .debug_line    0x00000000       0x9e build/default/production/_ext/1664057780/srp.o
 .debug_str     0x00000000        0x0 build/default/production/_ext/1664057780/srp.o
 .comment       0x00000000       0x54 build/default/production/_ext/1664057780/srp.o
 .ARM.attributes
                0x00000000       0x39 build/default/production/_ext/1664057780/srp.o
 .text          0x00000000        0x0 build/default/production/_ext/1664057780/tfm.o
 .data          0x00000000        0x0 build/default/production/_ext/1664057780/tfm.o
 .bss           0x00000000        0x0 build/default/production/_ext/1664057780/tfm.o
 .text.fp_cmp_mag_ct
                0x00000000       0x60 build/default/production/_ext/1664057780/tfm.o
 .text.fp_cond_swap_ct
                0x00000000       0xa4 build/default/production/_ext/1664057780/tfm.o
 .text.CheckRunTimeSettings
                0x00000000        0x4 build/default/production/_ext/1664057780/tfm.o
 .text.CheckRunTimeFastMath
                0x00000000        0x4 build/default/production/_ext/1664057780/tfm.o
 .text.s_fp_add
                0x00000000       0xdc build/default/production/_ext/1664057780/tfm.o
 .text.s_fp_sub
                0x00000000       0xda build/default/production/_ext/1664057780/tfm.o
 .text.fp_mul_2
                0x00000000       0x80 build/default/production/_ext/1664057780/tfm.o
 .text.fp_mul_d
                0x00000000       0xea build/default/production/_ext/1664057780/tfm.o
 .text.fp_div_2
                0x00000000       0x8a build/default/production/_ext/1664057780/tfm.o
 .text.fp_div_2_mod_ct
                0x00000000       0xc6 build/default/production/_ext/1664057780/tfm.o
 .text.fp_submod_ct
                0x00000000       0xe6 build/default/production/_ext/1664057780/tfm.o
 .text.fp_addmod_ct
                0x00000000       0xc0 build/default/production/_ext/1664057780/tfm.o
 .text.fp_cmp_d
                0x00000000       0x38 build/default/production/_ext/1664057780/tfm.o
 .text.fp_cmp_mag
                0x00000000       0x66 build/default/production/_ext/1664057780/tfm.o
 .text.fp_add   0x00000000       0x4a build/default/production/_ext/1664057780/tfm.o
 .text.fp_sub   0x00000000       0x48 build/default/production/_ext/1664057780/tfm.o
 .text.fp_cmp   0x00000000       0x32 build/default/production/_ext/1664057780/tfm.o
 .text.fp_montgomery_setup
                0x00000000       0x40 build/default/production/_ext/1664057780/tfm.o
 .text.fp_montgomery_reduce_ex
                0x00000000      0x17a build/default/production/_ext/1664057780/tfm.o
 .text.fp_montgomery_reduce
                0x00000000        0xa build/default/production/_ext/1664057780/tfm.o
 .text.fp_to_unsigned_bin_at_pos
                0x00000000       0x58 build/default/production/_ext/1664057780/tfm.o
 .text.fp_to_unsigned_bin_len
                0x00000000       0x56 build/default/production/_ext/1664057780/tfm.o
 .text.fp_is_bit_set
                0x00000000       0x2c build/default/production/_ext/1664057780/tfm.o
 .text.fp_set_bit
                0x00000000       0x36 build/default/production/_ext/1664057780/tfm.o
 .text.fp_count_bits
                0x00000000       0x1a build/default/production/_ext/1664057780/tfm.o
 .text.fp_unsigned_bin_size
                0x00000000       0x1c build/default/production/_ext/1664057780/tfm.o
 .text.fp_leading_bit
                0x00000000       0x22 build/default/production/_ext/1664057780/tfm.o
 .text.fp_lshd  0x00000000       0x8c build/default/production/_ext/1664057780/tfm.o
 .text.fp_reverse
                0x00000000       0x32 build/default/production/_ext/1664057780/tfm.o
 .text.fp_zero  0x00000000       0x14 build/default/production/_ext/1664057780/tfm.o
 .text.fp_2expt
                0x00000000       0x3c build/default/production/_ext/1664057780/tfm.o
 .text.fp_read_unsigned_bin
                0x00000000       0x70 build/default/production/_ext/1664057780/tfm.o
 .text.fp_set   0x00000000       0x16 build/default/production/_ext/1664057780/tfm.o
 .text.fp_montgomery_calc_normalization
                0x00000000       0x72 build/default/production/_ext/1664057780/tfm.o
 .text.fp_rshd  0x00000000       0x70 build/default/production/_ext/1664057780/tfm.o
 .text.fp_rshb  0x00000000       0xa0 build/default/production/_ext/1664057780/tfm.o
 .text.fp_init  0x00000000        0x8 build/default/production/_ext/1664057780/tfm.o
 .text.mp_init  0x00000000        0xc build/default/production/_ext/1664057780/tfm.o
 .text.fp_sub_d
                0x00000000       0x2a build/default/production/_ext/1664057780/tfm.o
 .text.fp_clear
                0x00000000       0x14 build/default/production/_ext/1664057780/tfm.o
 .text.fp_forcezero
                0x00000000       0x1e build/default/production/_ext/1664057780/tfm.o
 .text.mp_forcezero
                0x00000000        0x8 build/default/production/_ext/1664057780/tfm.o
 .text.fp_free  0x00000000        0x2 build/default/production/_ext/1664057780/tfm.o
 .text.mp_clear
                0x00000000        0xa build/default/production/_ext/1664057780/tfm.o
 .text.mp_free  0x00000000        0x2 build/default/production/_ext/1664057780/tfm.o
 .text.mp_init_multi
                0x00000000       0x3e build/default/production/_ext/1664057780/tfm.o
 .text.mp_add   0x00000000        0x8 build/default/production/_ext/1664057780/tfm.o
 .text.mp_sub   0x00000000        0x8 build/default/production/_ext/1664057780/tfm.o
 .text.mp_mul_d
                0x00000000        0x8 build/default/production/_ext/1664057780/tfm.o
 .text.mp_submod_ct
                0x00000000        0x8 build/default/production/_ext/1664057780/tfm.o
 .text.mp_addmod_ct
                0x00000000        0x8 build/default/production/_ext/1664057780/tfm.o
 .text.mp_cmp   0x00000000        0x8 build/default/production/_ext/1664057780/tfm.o
 .text.mp_cmp_d
                0x00000000        0x8 build/default/production/_ext/1664057780/tfm.o
 .text.mp_unsigned_bin_size
                0x00000000        0x8 build/default/production/_ext/1664057780/tfm.o
 .text.mp_to_unsigned_bin_at_pos
                0x00000000        0x8 build/default/production/_ext/1664057780/tfm.o
 .text.mp_to_unsigned_bin_len
                0x00000000        0x8 build/default/production/_ext/1664057780/tfm.o
 .text.mp_read_unsigned_bin
                0x00000000        0x8 build/default/production/_ext/1664057780/tfm.o
 .text.mp_sub_d
                0x00000000        0x8 build/default/production/_ext/1664057780/tfm.o
 .text.mp_2expt
                0x00000000        0xa build/default/production/_ext/1664057780/tfm.o
 .text.fp_copy  0x00000000       0x24 build/default/production/_ext/1664057780/tfm.o
 .text.fp_mul_2d
                0x00000000       0xba build/default/production/_ext/1664057780/tfm.o
 .text.fp_set_int
                0x00000000       0x74 build/default/production/_ext/1664057780/tfm.o
 .text.mp_mul_2d
                0x00000000        0x8 build/default/production/_ext/1664057780/tfm.o
 .text.fp_mul_comba
                0x00000000      0x148 build/default/production/_ext/1664057780/tfm.o
 .text.fp_mul   0x00000000       0x48 build/default/production/_ext/1664057780/tfm.o
 .text.mp_mul   0x00000000        0x8 build/default/production/_ext/1664057780/tfm.o
 .text.fp_mod_2d
                0x00000000       0xbe build/default/production/_ext/1664057780/tfm.o
 .text.fp_div_2d
                0x00000000       0xaa build/default/production/_ext/1664057780/tfm.o
 .text.mp_div_2d
                0x00000000        0xa build/default/production/_ext/1664057780/tfm.o
 .text.fp_sqr_comba
                0x00000000      0x196 build/default/production/_ext/1664057780/tfm.o
 .text.fp_sqr   0x00000000       0x38 build/default/production/_ext/1664057780/tfm.o
 .text.fp_invmod_mont_ct
                0x00000000      0x1a8 build/default/production/_ext/1664057780/tfm.o
 .text.mp_invmod_mont_ct
                0x00000000        0x8 build/default/production/_ext/1664057780/tfm.o
 .text.fp_div_d
                0x00000000      0x14c build/default/production/_ext/1664057780/tfm.o
 .text.fp_init_copy
                0x00000000       0x1a build/default/production/_ext/1664057780/tfm.o
 .text.fp_div   0x00000000      0x3be build/default/production/_ext/1664057780/tfm.o
 .text.fp_mod   0x00000000       0x48 build/default/production/_ext/1664057780/tfm.o
 .text.fp_mulmod
                0x00000000       0x38 build/default/production/_ext/1664057780/tfm.o
 .text.mp_mulmod
                0x00000000        0x8 build/default/production/_ext/1664057780/tfm.o
 .text.fp_submod
                0x00000000       0x38 build/default/production/_ext/1664057780/tfm.o
 .text.mp_submod
                0x00000000        0x8 build/default/production/_ext/1664057780/tfm.o
 .text.fp_addmod
                0x00000000       0x38 build/default/production/_ext/1664057780/tfm.o
 .text.mp_addmod
                0x00000000        0x8 build/default/production/_ext/1664057780/tfm.o
 .text._fp_exptmod_ct
                0x00000000      0x14c build/default/production/_ext/1664057780/tfm.o
 .text._fp_exptmod_nct
                0x00000000      0x34a build/default/production/_ext/1664057780/tfm.o
 .text.mp_mod   0x00000000        0x8 build/default/production/_ext/1664057780/tfm.o
 .text.fp_invmod
                0x00000000      0x540 build/default/production/_ext/1664057780/tfm.o
 .text.mp_invmod
                0x00000000        0x8 build/default/production/_ext/1664057780/tfm.o
 .text.mp_div   0x00000000        0x8 build/default/production/_ext/1664057780/tfm.o
 .text.fp_exptmod
                0x00000000      0x24c build/default/production/_ext/1664057780/tfm.o
 .text.mp_exptmod
                0x00000000        0x8 build/default/production/_ext/1664057780/tfm.o
 .text.fp_exptmod_ex
                0x00000000       0xa6 build/default/production/_ext/1664057780/tfm.o
 .text.mp_exptmod_ex
                0x00000000       0x10 build/default/production/_ext/1664057780/tfm.o
 .text.fp_exptmod_nct
                0x00000000       0x90 build/default/production/_ext/1664057780/tfm.o
 .text.mp_exptmod_nct
                0x00000000        0x8 build/default/production/_ext/1664057780/tfm.o
 .text.fp_to_unsigned_bin
                0x00000000       0x2a build/default/production/_ext/1664057780/tfm.o
 .text.mp_to_unsigned_bin
                0x00000000        0x8 build/default/production/_ext/1664057780/tfm.o
 .text.mp_init_copy
                0x00000000        0xa build/default/production/_ext/1664057780/tfm.o
 .text.mp_copy  0x00000000        0xa build/default/production/_ext/1664057780/tfm.o
 .text.mp_isodd
                0x00000000       0x10 build/default/production/_ext/1664057780/tfm.o
 .text.mp_iszero
                0x00000000        0xa build/default/production/_ext/1664057780/tfm.o
 .text.mp_count_bits
                0x00000000        0x8 build/default/production/_ext/1664057780/tfm.o
 .text.mp_leading_bit
                0x00000000        0x8 build/default/production/_ext/1664057780/tfm.o
 .text.mp_rshb  0x00000000        0x8 build/default/production/_ext/1664057780/tfm.o
 .text.mp_rshd  0x00000000        0x8 build/default/production/_ext/1664057780/tfm.o
 .text.mp_set_int
                0x00000000        0x8 build/default/production/_ext/1664057780/tfm.o
 .text.mp_is_bit_set
                0x00000000        0x8 build/default/production/_ext/1664057780/tfm.o
 .text.mp_set_bit
                0x00000000        0x8 build/default/production/_ext/1664057780/tfm.o
 .text.fp_sqrmod
                0x00000000       0x34 build/default/production/_ext/1664057780/tfm.o
 .text.mp_sqrmod
                0x00000000        0x8 build/default/production/_ext/1664057780/tfm.o
 .text.mp_montgomery_calc_normalization
                0x00000000        0x8 build/default/production/_ext/1664057780/tfm.o
 .text.fp_cnt_lsb
                0x00000000       0x5c build/default/production/_ext/1664057780/tfm.o
 .text.fp_prime_miller_rabin_ex
                0x00000000       0xce build/default/production/_ext/1664057780/tfm.o
 .text.fp_isprime_ex
                0x00000000      0x110 build/default/production/_ext/1664057780/tfm.o
 .text.mp_mod_d
                0x00000000        0xc build/default/production/_ext/1664057780/tfm.o
 .text.mp_prime_is_prime
                0x00000000        0x8 build/default/production/_ext/1664057780/tfm.o
 .text.mp_prime_is_prime_ex
                0x00000000      0x1ac build/default/production/_ext/1664057780/tfm.o
 .text.mp_cond_swap_ct
                0x00000000        0x8 build/default/production/_ext/1664057780/tfm.o
 .text.fp_add_d
                0x00000000       0x2a build/default/production/_ext/1664057780/tfm.o
 .text.mp_add_d
                0x00000000        0x8 build/default/production/_ext/1664057780/tfm.o
 .text.mp_read_radix
                0x00000000      0x178 build/default/production/_ext/1664057780/tfm.o
 .text.mp_sqr   0x00000000        0x8 build/default/production/_ext/1664057780/tfm.o
 .text.mp_montgomery_reduce
                0x00000000        0x8 build/default/production/_ext/1664057780/tfm.o
 .text.mp_montgomery_reduce_ex
                0x00000000        0x8 build/default/production/_ext/1664057780/tfm.o
 .text.mp_montgomery_setup
                0x00000000        0x8 build/default/production/_ext/1664057780/tfm.o
 .text.mp_div_2
                0x00000000        0xa build/default/production/_ext/1664057780/tfm.o
 .text.mp_div_2_mod_ct
                0x00000000        0x8 build/default/production/_ext/1664057780/tfm.o
 .text.mp_set   0x00000000        0xa build/default/production/_ext/1664057780/tfm.o
 .text.mp_radix_size
                0x00000000       0xc8 build/default/production/_ext/1664057780/tfm.o
 .text.mp_toradix
                0x00000000       0xcc build/default/production/_ext/1664057780/tfm.o
 .text.mp_abs   0x00000000        0xe build/default/production/_ext/1664057780/tfm.o
 .text.mp_lshd  0x00000000        0x8 build/default/production/_ext/1664057780/tfm.o
 .rodata        0x00000000       0x44 build/default/production/_ext/1664057780/tfm.o
 .rodata.lnz    0x00000000       0x40 build/default/production/_ext/1664057780/tfm.o
 .rodata.primes
                0x00000000      0x400 build/default/production/_ext/1664057780/tfm.o
 .debug_info    0x00000000     0x8b18 build/default/production/_ext/1664057780/tfm.o
 .debug_abbrev  0x00000000      0x53a build/default/production/_ext/1664057780/tfm.o
 .debug_loc     0x00000000     0xad54 build/default/production/_ext/1664057780/tfm.o
 .debug_aranges
                0x00000000      0x438 build/default/production/_ext/1664057780/tfm.o
 .debug_ranges  0x00000000      0x5b8 build/default/production/_ext/1664057780/tfm.o
 .debug_line    0x00000000     0x403b build/default/production/_ext/1664057780/tfm.o
 .debug_str     0x00000000       0x44 build/default/production/_ext/1664057780/tfm.o
 .comment       0x00000000       0x54 build/default/production/_ext/1664057780/tfm.o
 .debug_frame   0x00000000      0xff0 build/default/production/_ext/1664057780/tfm.o
 .ARM.attributes
                0x00000000       0x34 build/default/production/_ext/1664057780/tfm.o
 .text          0x00000000        0x0 build/default/production/_ext/1664057780/wc_dsp.o
 .data          0x00000000        0x0 build/default/production/_ext/1664057780/wc_dsp.o
 .bss           0x00000000        0x0 build/default/production/_ext/1664057780/wc_dsp.o
 .debug_info    0x00000000      0x3aa build/default/production/_ext/1664057780/wc_dsp.o
 .debug_abbrev  0x00000000       0x72 build/default/production/_ext/1664057780/wc_dsp.o
 .debug_aranges
                0x00000000       0x18 build/default/production/_ext/1664057780/wc_dsp.o
 .debug_line    0x00000000       0xe2 build/default/production/_ext/1664057780/wc_dsp.o
 .debug_str     0x00000000        0x0 build/default/production/_ext/1664057780/wc_dsp.o
 .comment       0x00000000       0x54 build/default/production/_ext/1664057780/wc_dsp.o
 .ARM.attributes
                0x00000000       0x39 build/default/production/_ext/1664057780/wc_dsp.o
 .text          0x00000000        0x0 build/default/production/_ext/1664057780/wc_encrypt.o
 .data          0x00000000        0x0 build/default/production/_ext/1664057780/wc_encrypt.o
 .bss           0x00000000        0x0 build/default/production/_ext/1664057780/wc_encrypt.o
 .text.wc_AesCbcDecryptWithKey
                0x00000000       0x74 build/default/production/_ext/1664057780/wc_encrypt.o
 .text.wc_AesCbcEncryptWithKey
                0x00000000       0x52 build/default/production/_ext/1664057780/wc_encrypt.o
 .text.wc_Des_CbcEncryptWithKey
                0x00000000       0x30 build/default/production/_ext/1664057780/wc_encrypt.o
 .text.wc_Des_CbcDecryptWithKey
                0x00000000       0x30 build/default/production/_ext/1664057780/wc_encrypt.o
 .text.wc_Des3_CbcEncryptWithKey
                0x00000000       0x4e build/default/production/_ext/1664057780/wc_encrypt.o
 .text.wc_Des3_CbcDecryptWithKey
                0x00000000       0x4e build/default/production/_ext/1664057780/wc_encrypt.o
 .debug_info    0x00000000     0x1b48 build/default/production/_ext/1664057780/wc_encrypt.o
 .debug_abbrev  0x00000000      0x1a1 build/default/production/_ext/1664057780/wc_encrypt.o
 .debug_loc     0x00000000      0x97d build/default/production/_ext/1664057780/wc_encrypt.o
 .debug_aranges
                0x00000000       0x48 build/default/production/_ext/1664057780/wc_encrypt.o
 .debug_ranges  0x00000000       0x38 build/default/production/_ext/1664057780/wc_encrypt.o
 .debug_line    0x00000000      0x39a build/default/production/_ext/1664057780/wc_encrypt.o
 .debug_str     0x00000000       0xc4 build/default/production/_ext/1664057780/wc_encrypt.o
 .comment       0x00000000       0x54 build/default/production/_ext/1664057780/wc_encrypt.o
 .debug_frame   0x00000000      0x110 build/default/production/_ext/1664057780/wc_encrypt.o
 .ARM.attributes
                0x00000000       0x34 build/default/production/_ext/1664057780/wc_encrypt.o
 .text          0x00000000        0x0 build/default/production/_ext/1664057780/wc_pkcs11.o
 .data          0x00000000        0x0 build/default/production/_ext/1664057780/wc_pkcs11.o
 .bss           0x00000000        0x0 build/default/production/_ext/1664057780/wc_pkcs11.o
 .debug_info    0x00000000      0x34a build/default/production/_ext/1664057780/wc_pkcs11.o
 .debug_abbrev  0x00000000       0x44 build/default/production/_ext/1664057780/wc_pkcs11.o
 .debug_aranges
                0x00000000       0x18 build/default/production/_ext/1664057780/wc_pkcs11.o
 .debug_line    0x00000000       0x9e build/default/production/_ext/1664057780/wc_pkcs11.o
 .debug_str     0x00000000        0x0 build/default/production/_ext/1664057780/wc_pkcs11.o
 .comment       0x00000000       0x54 build/default/production/_ext/1664057780/wc_pkcs11.o
 .ARM.attributes
                0x00000000       0x39 build/default/production/_ext/1664057780/wc_pkcs11.o
 .text          0x00000000        0x0 build/default/production/_ext/1664057780/wc_port.o
 .data          0x00000000        0x0 build/default/production/_ext/1664057780/wc_port.o
 .bss           0x00000000        0x0 build/default/production/_ext/1664057780/wc_port.o
 .text.wolfCrypt_Init
                0x00000000       0x20 build/default/production/_ext/1664057780/wc_port.o
 .text.wolfCrypt_Cleanup
                0x00000000       0x24 build/default/production/_ext/1664057780/wc_port.o
 .text.wc_InitAndAllocMutex
                0x00000000        0xa build/default/production/_ext/1664057780/wc_port.o
 .text.wc_strtok
                0x00000000       0x84 build/default/production/_ext/1664057780/wc_port.o
 .text.wc_strsep
                0x00000000       0x40 build/default/production/_ext/1664057780/wc_port.o
 .text.wc_InitMutex
                0x00000000        0x4 build/default/production/_ext/1664057780/wc_port.o
 .text.wc_FreeMutex
                0x00000000        0x4 build/default/production/_ext/1664057780/wc_port.o
 .text.wc_LockMutex
                0x00000000        0x4 build/default/production/_ext/1664057780/wc_port.o
 .text.wc_UnLockMutex
                0x00000000        0x4 build/default/production/_ext/1664057780/wc_port.o
 .text.mystrnstr
                0x00000000       0x5c build/default/production/_ext/1664057780/wc_port.o
 .bss.initRefCount
                0x00000000        0x4 build/default/production/_ext/1664057780/wc_port.o
 .debug_info    0x00000000     0x116a build/default/production/_ext/1664057780/wc_port.o
 .debug_abbrev  0x00000000      0x285 build/default/production/_ext/1664057780/wc_port.o
 .debug_loc     0x00000000      0x4f4 build/default/production/_ext/1664057780/wc_port.o
 .debug_aranges
                0x00000000       0x68 build/default/production/_ext/1664057780/wc_port.o
 .debug_ranges  0x00000000       0x58 build/default/production/_ext/1664057780/wc_port.o
 .debug_line    0x00000000      0x4a4 build/default/production/_ext/1664057780/wc_port.o
 .debug_str     0x00000000       0x1e build/default/production/_ext/1664057780/wc_port.o
 .comment       0x00000000       0x54 build/default/production/_ext/1664057780/wc_port.o
 .debug_frame   0x00000000      0x120 build/default/production/_ext/1664057780/wc_port.o
 .ARM.attributes
                0x00000000       0x34 build/default/production/_ext/1664057780/wc_port.o
 .text          0x00000000        0x0 build/default/production/_ext/1664057780/wolfevent.o
 .data          0x00000000        0x0 build/default/production/_ext/1664057780/wolfevent.o
 .bss           0x00000000        0x0 build/default/production/_ext/1664057780/wolfevent.o
 .debug_info    0x00000000      0x34a build/default/production/_ext/1664057780/wolfevent.o
 .debug_abbrev  0x00000000       0x44 build/default/production/_ext/1664057780/wolfevent.o
 .debug_aranges
                0x00000000       0x18 build/default/production/_ext/1664057780/wolfevent.o
 .debug_line    0x00000000       0x9e build/default/production/_ext/1664057780/wolfevent.o
 .debug_str     0x00000000        0x0 build/default/production/_ext/1664057780/wolfevent.o
 .comment       0x00000000       0x54 build/default/production/_ext/1664057780/wolfevent.o
 .ARM.attributes
                0x00000000       0x39 build/default/production/_ext/1664057780/wolfevent.o
 .text          0x00000000        0x0 build/default/production/_ext/1664057780/wolfmath.o
 .data          0x00000000        0x0 build/default/production/_ext/1664057780/wolfmath.o
 .bss           0x00000000        0x0 build/default/production/_ext/1664057780/wolfmath.o
 .text.get_digit_count
                0x00000000        0xa build/default/production/_ext/1664057780/wolfmath.o
 .text.get_digit
                0x00000000       0x20 build/default/production/_ext/1664057780/wolfmath.o
 .text.mp_cond_copy
                0x00000000       0xb6 build/default/production/_ext/1664057780/wolfmath.o
 .text.get_rand_digit
                0x00000000        0xa build/default/production/_ext/1664057780/wolfmath.o
 .text.wc_export_int
                0x00000000       0x4e build/default/production/_ext/1664057780/wolfmath.o
 .rodata.wc_off_on_addr
                0x00000000        0x8 build/default/production/_ext/1664057780/wolfmath.o
 .debug_info    0x00000000     0x1639 build/default/production/_ext/1664057780/wolfmath.o
 .debug_abbrev  0x00000000      0x1fe build/default/production/_ext/1664057780/wolfmath.o
 .debug_loc     0x00000000      0x4a1 build/default/production/_ext/1664057780/wolfmath.o
 .debug_aranges
                0x00000000       0x40 build/default/production/_ext/1664057780/wolfmath.o
 .debug_ranges  0x00000000       0x30 build/default/production/_ext/1664057780/wolfmath.o
 .debug_line    0x00000000      0x33b build/default/production/_ext/1664057780/wolfmath.o
 .debug_str     0x00000000       0x48 build/default/production/_ext/1664057780/wolfmath.o
 .comment       0x00000000       0x54 build/default/production/_ext/1664057780/wolfmath.o
 .debug_frame   0x00000000       0xb0 build/default/production/_ext/1664057780/wolfmath.o
 .ARM.attributes
                0x00000000       0x34 build/default/production/_ext/1664057780/wolfmath.o
 .text          0x00000000        0x0 build/default/production/_ext/1664057780/aes.o
 .data          0x00000000        0x0 build/default/production/_ext/1664057780/aes.o
 .bss           0x00000000        0x0 build/default/production/_ext/1664057780/aes.o
 .text.col_mul  0x00000000       0x3a build/default/production/_ext/1664057780/aes.o
 .text.inv_col_mul
                0x00000000       0x66 build/default/production/_ext/1664057780/aes.o
 .text.wc_AesEncrypt
                0x00000000      0x3a0 build/default/production/_ext/1664057780/aes.o
 .text.wc_AesDecrypt
                0x00000000      0x390 build/default/production/_ext/1664057780/aes.o
 .text.GMULT    0x00000000       0xb8 build/default/production/_ext/1664057780/aes.o
 .text.roll_x   0x00000000       0xcc build/default/production/_ext/1664057780/aes.o
 .text.roll_auth
                0x00000000       0xf0 build/default/production/_ext/1664057780/aes.o
 .text.wc_AesSetIV
                0x00000000       0x40 build/default/production/_ext/1664057780/aes.o
 .text.wc_AesSetKeyLocal
                0x00000000      0x2a8 build/default/production/_ext/1664057780/aes.o
 .text.wc_AesSetKey
                0x00000000       0x26 build/default/production/_ext/1664057780/aes.o
 .text.wc_AesSetKeyDirect
                0x00000000       0x26 build/default/production/_ext/1664057780/aes.o
 .text.wc_AesEncryptDirect
                0x00000000        0xe build/default/production/_ext/1664057780/aes.o
 .text.wc_AesDecryptDirect
                0x00000000        0xe build/default/production/_ext/1664057780/aes.o
 .text.wc_AesCbcEncrypt
                0x00000000       0xca build/default/production/_ext/1664057780/aes.o
 .text.wc_AesCbcDecrypt
                0x00000000       0xf2 build/default/production/_ext/1664057780/aes.o
 .text.wc_AesCtrEncrypt
                0x00000000      0x1aa build/default/production/_ext/1664057780/aes.o
 .text.wc_AesGcmSetKey
                0x00000000       0x5e build/default/production/_ext/1664057780/aes.o
 .text.GHASH    0x00000000      0x38e build/default/production/_ext/1664057780/aes.o
 .text.wc_AesGcmSetExtIV
                0x00000000       0x4a build/default/production/_ext/1664057780/aes.o
 .text.wc_AesGcmSetIV
                0x00000000       0x86 build/default/production/_ext/1664057780/aes.o
 .text.wc_GmacSetKey
                0x00000000       0x18 build/default/production/_ext/1664057780/aes.o
 .text.wc_AesCcmSetKey
                0x00000000       0x24 build/default/production/_ext/1664057780/aes.o
 .text.wc_AesCcmCheckTagSize
                0x00000000       0x24 build/default/production/_ext/1664057780/aes.o
 .text.wc_AesCcmEncrypt
                0x00000000      0x308 build/default/production/_ext/1664057780/aes.o
 .text.wc_AesCcmDecrypt
                0x00000000      0x3a0 build/default/production/_ext/1664057780/aes.o
 .text.wc_AesCcmSetNonce
                0x00000000       0x3c build/default/production/_ext/1664057780/aes.o
 .text.wc_AesCcmEncrypt_ex
                0x00000000       0xda build/default/production/_ext/1664057780/aes.o
 .text.wc_AesInit
                0x00000000       0x1a build/default/production/_ext/1664057780/aes.o
 .text.wc_AesFree
                0x00000000       0x1a build/default/production/_ext/1664057780/aes.o
 .text.wc_AesGetKeySize
                0x00000000       0x42 build/default/production/_ext/1664057780/aes.o
 .text.wc_AesEcbEncrypt
                0x00000000       0x40 build/default/production/_ext/1664057780/aes.o
 .text.wc_AesGcmEncrypt
                0x00000000      0x34c build/default/production/_ext/1664057780/aes.o
 .text.wc_AesGcmEncrypt_ex
                0x00000000       0xf4 build/default/production/_ext/1664057780/aes.o
 .text.wc_Gmac  0x00000000       0xc4 build/default/production/_ext/1664057780/aes.o
 .text.wc_GmacUpdate
                0x00000000       0x24 build/default/production/_ext/1664057780/aes.o
 .text.wc_AesGcmDecrypt
                0x00000000      0x384 build/default/production/_ext/1664057780/aes.o
 .text.wc_GmacVerify
                0x00000000       0xa4 build/default/production/_ext/1664057780/aes.o
 .text.wc_AesEcbDecrypt
                0x00000000       0x40 build/default/production/_ext/1664057780/aes.o
 .text.wc_AesOfbEncrypt
                0x00000000      0x17a build/default/production/_ext/1664057780/aes.o
 .text.wc_AesOfbDecrypt
                0x00000000      0x184 build/default/production/_ext/1664057780/aes.o
 .rodata.Td4    0x00000000      0x100 build/default/production/_ext/1664057780/aes.o
 .rodata.Tsbox  0x00000000      0x100 build/default/production/_ext/1664057780/aes.o
 .rodata.rcon   0x00000000       0x28 build/default/production/_ext/1664057780/aes.o
 .debug_info    0x00000000     0x7a6b build/default/production/_ext/1664057780/aes.o
 .debug_abbrev  0x00000000      0x5ae build/default/production/_ext/1664057780/aes.o
 .debug_loc     0x00000000     0x9a74 build/default/production/_ext/1664057780/aes.o
 .debug_aranges
                0x00000000      0x158 build/default/production/_ext/1664057780/aes.o
 .debug_ranges  0x00000000      0xb50 build/default/production/_ext/1664057780/aes.o
 .debug_line    0x00000000     0x323e build/default/production/_ext/1664057780/aes.o
 .debug_str     0x00000000      0x107 build/default/production/_ext/1664057780/aes.o
 .comment       0x00000000       0x54 build/default/production/_ext/1664057780/aes.o
 .debug_frame   0x00000000      0x6b4 build/default/production/_ext/1664057780/aes.o
 .ARM.attributes
                0x00000000       0x34 build/default/production/_ext/1664057780/aes.o
 .text          0x00000000        0x0 build/default/production/_ext/1664057780/des3.o
 .data          0x00000000        0x0 build/default/production/_ext/1664057780/des3.o
 .bss           0x00000000        0x0 build/default/production/_ext/1664057780/des3.o
 .text.DesRawProcessBlock
                0x00000000      0x130 build/default/production/_ext/1664057780/des3.o
 .text.Des3ProcessBlock
                0x00000000      0x12a build/default/production/_ext/1664057780/des3.o
 .text.DesSetKey
                0x00000000      0x16c build/default/production/_ext/1664057780/des3.o
 .text.DesProcessBlock
                0x00000000      0x112 build/default/production/_ext/1664057780/des3.o
 .text.wc_Des_CbcEncrypt
                0x00000000       0x78 build/default/production/_ext/1664057780/des3.o
 .text.wc_Des_CbcDecrypt
                0x00000000       0x84 build/default/production/_ext/1664057780/des3.o
 .text.wc_Des3_CbcEncrypt
                0x00000000       0xbe build/default/production/_ext/1664057780/des3.o
 .text.wc_Des3_CbcDecrypt
                0x00000000       0xc6 build/default/production/_ext/1664057780/des3.o
 .text.wc_Des_SetIV
                0x00000000       0x18 build/default/production/_ext/1664057780/des3.o
 .text.wc_Des_SetKey
                0x00000000       0x1c build/default/production/_ext/1664057780/des3.o
 .text.wc_Des3_SetIV
                0x00000000       0x28 build/default/production/_ext/1664057780/des3.o
 .text.wc_Des3_SetKey
                0x00000000       0xb8 build/default/production/_ext/1664057780/des3.o
 .text.wc_Des3Init
                0x00000000       0x1a build/default/production/_ext/1664057780/des3.o
 .text.wc_Des3Free
                0x00000000       0x1a build/default/production/_ext/1664057780/des3.o
 .rodata.Spbox  0x00000000      0x800 build/default/production/_ext/1664057780/des3.o
 .rodata.bytebit
                0x00000000       0x20 build/default/production/_ext/1664057780/des3.o
 .rodata.pc1    0x00000000       0x38 build/default/production/_ext/1664057780/des3.o
 .rodata.pc2    0x00000000       0x30 build/default/production/_ext/1664057780/des3.o
 .rodata.totrot
                0x00000000       0x10 build/default/production/_ext/1664057780/des3.o
 .debug_info    0x00000000     0x3126 build/default/production/_ext/1664057780/des3.o
 .debug_abbrev  0x00000000      0x3a2 build/default/production/_ext/1664057780/des3.o
 .debug_loc     0x00000000     0x74c8 build/default/production/_ext/1664057780/des3.o
 .debug_aranges
                0x00000000       0x88 build/default/production/_ext/1664057780/des3.o
 .debug_ranges  0x00000000      0x450 build/default/production/_ext/1664057780/des3.o
 .debug_line    0x00000000      0xfb5 build/default/production/_ext/1664057780/des3.o
 .debug_str     0x00000000       0x44 build/default/production/_ext/1664057780/des3.o
 .comment       0x00000000       0x54 build/default/production/_ext/1664057780/des3.o
 .debug_frame   0x00000000      0x1fc build/default/production/_ext/1664057780/des3.o
 .ARM.attributes
                0x00000000       0x34 build/default/production/_ext/1664057780/des3.o
 .text          0x00000000        0x0 build/default/production/_ext/1664057780/random.o
 .data          0x00000000        0x0 build/default/production/_ext/1664057780/random.o
 .bss           0x00000000        0x0 build/default/production/_ext/1664057780/random.o
 .text.Hash_DRBG_Uninstantiate
                0x00000000       0x34 build/default/production/_ext/1664057780/random.o
 .text.Hash_df  0x00000000      0x13e build/default/production/_ext/1664057780/random.o
 .text.Hash_DRBG_Reseed
                0x00000000       0xaa build/default/production/_ext/1664057780/random.o
 .text.Hash_DRBG_Instantiate
                0x00000000       0x72 build/default/production/_ext/1664057780/random.o
 .text.Hash_DRBG_Generate
                0x00000000      0x2d0 build/default/production/_ext/1664057780/random.o
 .text.wc_RNG_DRBG_Reseed
                0x00000000       0x1a build/default/production/_ext/1664057780/random.o
 .text.wc_RNG_TestSeed
                0x00000000       0x68 build/default/production/_ext/1664057780/random.o
 .text.wc_FreeRng
                0x00000000       0x34 build/default/production/_ext/1664057780/random.o
 .text.wc_rng_free
                0x00000000       0x28 build/default/production/_ext/1664057780/random.o
 .text.wc_RNG_HealthTest_ex
                0x00000000       0xa2 build/default/production/_ext/1664057780/random.o
 .text.wc_RNG_HealthTest
                0x00000000       0x2c build/default/production/_ext/1664057780/random.o
 .text.wc_GenerateSeed
                0x00000000       0x74 build/default/production/_ext/1664057780/random.o
 .text._InitRng
                0x00000000      0x184 build/default/production/_ext/1664057780/random.o
 .text.wc_rng_new
                0x00000000       0x36 build/default/production/_ext/1664057780/random.o
 .text.wc_InitRng
                0x00000000       0x1a build/default/production/_ext/1664057780/random.o
 .text.wc_InitRng_ex
                0x00000000       0x16 build/default/production/_ext/1664057780/random.o
 .text.wc_InitRngNonce
                0x00000000       0x16 build/default/production/_ext/1664057780/random.o
 .text.wc_InitRngNonce_ex
                0x00000000       0x10 build/default/production/_ext/1664057780/random.o
 .text.wc_RNG_GenerateBlock
                0x00000000      0x11c build/default/production/_ext/1664057780/random.o
 .text.wc_RNG_GenerateByte
                0x00000000        0xa build/default/production/_ext/1664057780/random.o
 .rodata.outputA_data
                0x00000000       0x80 build/default/production/_ext/1664057780/random.o
 .rodata.outputB_data
                0x00000000       0x80 build/default/production/_ext/1664057780/random.o
 .rodata.reseedSeedA_data
                0x00000000       0x20 build/default/production/_ext/1664057780/random.o
 .rodata.seedA_data
                0x00000000       0x30 build/default/production/_ext/1664057780/random.o
 .rodata.seedB_data
                0x00000000       0x30 build/default/production/_ext/1664057780/random.o
 .debug_info    0x00000000     0x3d18 build/default/production/_ext/1664057780/random.o
 .debug_abbrev  0x00000000      0x451 build/default/production/_ext/1664057780/random.o
 .debug_loc     0x00000000     0x29ba build/default/production/_ext/1664057780/random.o
 .debug_aranges
                0x00000000       0xb8 build/default/production/_ext/1664057780/random.o
 .debug_ranges  0x00000000      0x1e8 build/default/production/_ext/1664057780/random.o
 .debug_line    0x00000000     0x103f build/default/production/_ext/1664057780/random.o
 .debug_str     0x00000000       0xec build/default/production/_ext/1664057780/random.o
 .comment       0x00000000       0x54 build/default/production/_ext/1664057780/random.o
 .debug_frame   0x00000000      0x2e8 build/default/production/_ext/1664057780/random.o
 .ARM.attributes
                0x00000000       0x34 build/default/production/_ext/1664057780/random.o
 .text          0x00000000        0x0 build/default/production/_ext/1664057780/sha.o
 .data          0x00000000        0x0 build/default/production/_ext/1664057780/sha.o
 .bss           0x00000000        0x0 build/default/production/_ext/1664057780/sha.o
 .text.Transform
                0x00000000      0xdb8 build/default/production/_ext/1664057780/sha.o
 .text.wc_InitSha_ex
                0x00000000       0x44 build/default/production/_ext/1664057780/sha.o
 .text.wc_ShaUpdate
                0x00000000      0x15c build/default/production/_ext/1664057780/sha.o
 .text.wc_ShaFinalRaw
                0x00000000       0x54 build/default/production/_ext/1664057780/sha.o
 .text.wc_ShaFinal
                0x00000000      0x15c build/default/production/_ext/1664057780/sha.o
 .text.wc_InitSha
                0x00000000        0xe build/default/production/_ext/1664057780/sha.o
 .text.wc_ShaFree
                0x00000000        0x2 build/default/production/_ext/1664057780/sha.o
 .text.wc_ShaCopy
                0x00000000       0x2a build/default/production/_ext/1664057780/sha.o
 .text.wc_ShaGetHash
                0x00000000       0x34 build/default/production/_ext/1664057780/sha.o
 .text.wc_ShaSetFlags
                0x00000000        0x8 build/default/production/_ext/1664057780/sha.o
 .text.wc_ShaGetFlags
                0x00000000        0xc build/default/production/_ext/1664057780/sha.o
 .debug_info    0x00000000     0x4d7a build/default/production/_ext/1664057780/sha.o
 .debug_abbrev  0x00000000      0x365 build/default/production/_ext/1664057780/sha.o
 .debug_loc     0x00000000     0x69a4 build/default/production/_ext/1664057780/sha.o
 .debug_aranges
                0x00000000       0x70 build/default/production/_ext/1664057780/sha.o
 .debug_ranges  0x00000000      0x6d8 build/default/production/_ext/1664057780/sha.o
 .debug_line    0x00000000     0x1e7d build/default/production/_ext/1664057780/sha.o
 .debug_str     0x00000000       0x21 build/default/production/_ext/1664057780/sha.o
 .comment       0x00000000       0x54 build/default/production/_ext/1664057780/sha.o
 .debug_frame   0x00000000      0x154 build/default/production/_ext/1664057780/sha.o
 .ARM.attributes
                0x00000000       0x34 build/default/production/_ext/1664057780/sha.o
 .text          0x00000000        0x0 build/default/production/_ext/1664057780/sha256.o
 .data          0x00000000        0x0 build/default/production/_ext/1664057780/sha256.o
 .bss           0x00000000        0x0 build/default/production/_ext/1664057780/sha256.o
 .text.Transform_Sha256
                0x00000000      0x30c build/default/production/_ext/1664057780/sha256.o
 .text.wc_InitSha256_ex
                0x00000000       0x64 build/default/production/_ext/1664057780/sha256.o
 .text.wc_Sha256Update
                0x00000000      0x144 build/default/production/_ext/1664057780/sha256.o
 .text.wc_Sha256FinalRaw
                0x00000000       0x5a build/default/production/_ext/1664057780/sha256.o
 .text.wc_Sha256Final
                0x00000000      0x188 build/default/production/_ext/1664057780/sha256.o
 .text.wc_InitSha224_ex
                0x00000000       0x64 build/default/production/_ext/1664057780/sha256.o
 .text.wc_Sha224Update
                0x00000000      0x12c build/default/production/_ext/1664057780/sha256.o
 .text.wc_Sha224Final
                0x00000000      0x16c build/default/production/_ext/1664057780/sha256.o
 .text.wc_InitSha224
                0x00000000        0xe build/default/production/_ext/1664057780/sha256.o
 .text.wc_Sha224Free
                0x00000000        0x2 build/default/production/_ext/1664057780/sha256.o
 .text.wc_InitSha256
                0x00000000        0xe build/default/production/_ext/1664057780/sha256.o
 .text.wc_Sha256Free
                0x00000000        0x2 build/default/production/_ext/1664057780/sha256.o
 .text.wc_Sha224Copy
                0x00000000       0x2a build/default/production/_ext/1664057780/sha256.o
 .text.wc_Sha224GetHash
                0x00000000       0x34 build/default/production/_ext/1664057780/sha256.o
 .text.wc_Sha224SetFlags
                0x00000000        0x8 build/default/production/_ext/1664057780/sha256.o
 .text.wc_Sha224GetFlags
                0x00000000        0xc build/default/production/_ext/1664057780/sha256.o
 .text.wc_Sha256Copy
                0x00000000       0x2a build/default/production/_ext/1664057780/sha256.o
 .text.wc_Sha256GetHash
                0x00000000       0x34 build/default/production/_ext/1664057780/sha256.o
 .text.wc_Sha256SetFlags
                0x00000000        0x8 build/default/production/_ext/1664057780/sha256.o
 .text.wc_Sha256GetFlags
                0x00000000        0xc build/default/production/_ext/1664057780/sha256.o
 .rodata.K      0x00000000      0x100 build/default/production/_ext/1664057780/sha256.o
 .debug_info    0x00000000     0x3d48 build/default/production/_ext/1664057780/sha256.o
 .debug_abbrev  0x00000000      0x3f3 build/default/production/_ext/1664057780/sha256.o
 .debug_loc     0x00000000     0x284a build/default/production/_ext/1664057780/sha256.o
 .debug_aranges
                0x00000000       0xb8 build/default/production/_ext/1664057780/sha256.o
 .debug_ranges  0x00000000      0x400 build/default/production/_ext/1664057780/sha256.o
 .debug_line    0x00000000     0x12b7 build/default/production/_ext/1664057780/sha256.o
 .debug_str     0x00000000       0x42 build/default/production/_ext/1664057780/sha256.o
 .comment       0x00000000       0x54 build/default/production/_ext/1664057780/sha256.o
 .debug_frame   0x00000000      0x23c build/default/production/_ext/1664057780/sha256.o
 .ARM.attributes
                0x00000000       0x34 build/default/production/_ext/1664057780/sha256.o
 .text          0x00000000        0x0 build/default/production/_ext/1664057780/sha512.o
 .data          0x00000000        0x0 build/default/production/_ext/1664057780/sha512.o
 .bss           0x00000000        0x0 build/default/production/_ext/1664057780/sha512.o
 .debug_info    0x00000000      0x347 build/default/production/_ext/1664057780/sha512.o
 .debug_abbrev  0x00000000       0x44 build/default/production/_ext/1664057780/sha512.o
 .debug_aranges
                0x00000000       0x18 build/default/production/_ext/1664057780/sha512.o
 .debug_line    0x00000000       0x9e build/default/production/_ext/1664057780/sha512.o
 .debug_str     0x00000000        0x0 build/default/production/_ext/1664057780/sha512.o
 .comment       0x00000000       0x54 build/default/production/_ext/1664057780/sha512.o
 .ARM.attributes
                0x00000000       0x39 build/default/production/_ext/1664057780/sha512.o
 .text          0x00000000        0x0 build/default/production/_ext/1664057780/ecc.o
 .data          0x00000000        0x0 build/default/production/_ext/1664057780/ecc.o
 .bss           0x00000000        0x0 build/default/production/_ext/1664057780/ecc.o
 .text.ecc_point_to_mont
                0x00000000       0xa8 build/default/production/_ext/1664057780/ecc.o
 .text.wc_ecc_cmp_param
                0x00000000       0x84 build/default/production/_ext/1664057780/ecc.o
 .text.wc_ecc_curve_cache_load_item
                0x00000000       0x50 build/default/production/_ext/1664057780/ecc.o
 .text.wc_ecc_curve_free
                0x00000000       0xa8 build/default/production/_ext/1664057780/ecc.o
 .text.wc_ecc_curve_load
                0x00000000       0xbe build/default/production/_ext/1664057780/ecc.o
 .text.wc_ecc_get_curve_order_bit_count
                0x00000000       0x46 build/default/production/_ext/1664057780/ecc.o
 .text.wc_ecc_set_curve
                0x00000000       0x6c build/default/production/_ext/1664057780/ecc.o
 .text.wc_ecc_import_raw_private
                0x00000000      0x142 build/default/production/_ext/1664057780/ecc.o
 .text.ecc_projective_dbl_point
                0x00000000      0x27a build/default/production/_ext/1664057780/ecc.o
 .text.ecc_projective_add_point
                0x00000000      0x46c build/default/production/_ext/1664057780/ecc.o
 .text.ecc_map_ex
                0x00000000      0x13a build/default/production/_ext/1664057780/ecc.o
 .text.ecc_map  0x00000000        0xa build/default/production/_ext/1664057780/ecc.o
 .text.wc_ecc_new_point_h
                0x00000000       0x40 build/default/production/_ext/1664057780/ecc.o
 .text.wc_ecc_new_point
                0x00000000        0xa build/default/production/_ext/1664057780/ecc.o
 .text.wc_ecc_del_point_h
                0x00000000       0x24 build/default/production/_ext/1664057780/ecc.o
 .text.wc_ecc_del_point
                0x00000000        0xa build/default/production/_ext/1664057780/ecc.o
 .text.wc_ecc_copy_point
                0x00000000       0x44 build/default/production/_ext/1664057780/ecc.o
 .text.wc_ecc_cmp_point
                0x00000000       0x44 build/default/production/_ext/1664057780/ecc.o
 .text.wc_ecc_is_valid_idx
                0x00000000       0x14 build/default/production/_ext/1664057780/ecc.o
 .text.wc_ecc_get_curve_idx
                0x00000000       0x28 build/default/production/_ext/1664057780/ecc.o
 .text.wc_ecc_get_name
                0x00000000       0x20 build/default/production/_ext/1664057780/ecc.o
 .text.wc_ecc_get_curve_id
                0x00000000       0x20 build/default/production/_ext/1664057780/ecc.o
 .text.wc_ecc_get_curve_size_from_id
                0x00000000       0x24 build/default/production/_ext/1664057780/ecc.o
 .text.wc_ecc_get_curve_idx_from_name
                0x00000000       0x50 build/default/production/_ext/1664057780/ecc.o
 .text.wc_ecc_get_curve_size_from_name
                0x00000000       0x24 build/default/production/_ext/1664057780/ecc.o
 .text.wc_ecc_get_curve_id_from_name
                0x00000000       0x24 build/default/production/_ext/1664057780/ecc.o
 .text.wc_ecc_get_curve_id_from_params
                0x00000000       0xfc build/default/production/_ext/1664057780/ecc.o
 .text.wc_ecc_get_curve_id_from_dp_params
                0x00000000      0x138 build/default/production/_ext/1664057780/ecc.o
 .text.wc_ecc_get_curve_id_from_oid
                0x00000000       0x58 build/default/production/_ext/1664057780/ecc.o
 .text.wc_ecc_get_curve_params
                0x00000000       0x14 build/default/production/_ext/1664057780/ecc.o
 .text.wc_ecc_point_is_at_infinity
                0x00000000       0x26 build/default/production/_ext/1664057780/ecc.o
 .text.wc_ecc_gen_k
                0x00000000       0x72 build/default/production/_ext/1664057780/ecc.o
 .text.wc_ecc_init_ex
                0x00000000       0x4e build/default/production/_ext/1664057780/ecc.o
 .text.wc_ecc_key_new
                0x00000000       0x2a build/default/production/_ext/1664057780/ecc.o
 .text.wc_ecc_init
                0x00000000        0xe build/default/production/_ext/1664057780/ecc.o
 .text.wc_ecc_init_id
                0x00000000       0x42 build/default/production/_ext/1664057780/ecc.o
 .text.wc_ecc_init_label
                0x00000000       0x5a build/default/production/_ext/1664057780/ecc.o
 .text.wc_ecc_set_flags
                0x00000000       0x12 build/default/production/_ext/1664057780/ecc.o
 .text.wc_ecc_free
                0x00000000       0x2c build/default/production/_ext/1664057780/ecc.o
 .text.wc_ecc_key_free
                0x00000000       0x28 build/default/production/_ext/1664057780/ecc.o
 .text.ecc_projective_add_point_safe
                0x00000000      0x14c build/default/production/_ext/1664057780/ecc.o
 .text.ecc_projective_dbl_point_safe
                0x00000000       0x3a build/default/production/_ext/1664057780/ecc.o
 .text.ecc_mulmod
                0x00000000      0x270 build/default/production/_ext/1664057780/ecc.o
 .text.wc_ecc_mulmod_ex
                0x00000000       0xfa build/default/production/_ext/1664057780/ecc.o
 .text.wc_ecc_mulmod
                0x00000000       0x18 build/default/production/_ext/1664057780/ecc.o
 .text.wc_ecc_mulmod_ex2
                0x00000000      0x100 build/default/production/_ext/1664057780/ecc.o
 .text.wc_ecc_shared_secret_gen
                0x00000000      0x12a build/default/production/_ext/1664057780/ecc.o
 .text.wc_ecc_shared_secret_ex
                0x00000000       0x94 build/default/production/_ext/1664057780/ecc.o
 .text.wc_ecc_shared_secret
                0x00000000       0x90 build/default/production/_ext/1664057780/ecc.o
 .text.ecc_make_pub_ex
                0x00000000      0x196 build/default/production/_ext/1664057780/ecc.o
 .text.wc_ecc_make_pub
                0x00000000        0xe build/default/production/_ext/1664057780/ecc.o
 .text.wc_ecc_make_pub_ex
                0x00000000        0xe build/default/production/_ext/1664057780/ecc.o
 .text.wc_ecc_make_key_ex2
                0x00000000       0xd6 build/default/production/_ext/1664057780/ecc.o
 .text.wc_ecc_make_key_ex
                0x00000000       0x10 build/default/production/_ext/1664057780/ecc.o
 .text.wc_ecc_make_key
                0x00000000        0xa build/default/production/_ext/1664057780/ecc.o
 .text.wc_ecc_sign_hash_ex
                0x00000000      0x2b6 build/default/production/_ext/1664057780/ecc.o
 .text.wc_ecc_sign_hash
                0x00000000       0xe0 build/default/production/_ext/1664057780/ecc.o
 .text.wc_ecc_verify_hash_ex
                0x00000000      0x494 build/default/production/_ext/1664057780/ecc.o
 .text.wc_ecc_verify_hash
                0x00000000       0xee build/default/production/_ext/1664057780/ecc.o
 .text.wc_ecc_import_point_der_ex
                0x00000000       0xcc build/default/production/_ext/1664057780/ecc.o
 .text.wc_ecc_import_point_der
                0x00000000       0x10 build/default/production/_ext/1664057780/ecc.o
 .text.wc_ecc_export_point_der
                0x00000000       0xe8 build/default/production/_ext/1664057780/ecc.o
 .text.wc_ecc_export_point_der_ex
                0x00000000       0x12 build/default/production/_ext/1664057780/ecc.o
 .text.wc_ecc_export_x963
                0x00000000      0x11c build/default/production/_ext/1664057780/ecc.o
 .text.wc_ecc_export_x963_ex
                0x00000000       0x10 build/default/production/_ext/1664057780/ecc.o
 .text.wc_ecc_is_point
                0x00000000      0x110 build/default/production/_ext/1664057780/ecc.o
 .text.wc_ecc_check_key
                0x00000000      0x29a build/default/production/_ext/1664057780/ecc.o
 .text.wc_ecc_import_x963_ex
                0x00000000       0xd6 build/default/production/_ext/1664057780/ecc.o
 .text.wc_ecc_import_x963
                0x00000000        0xa build/default/production/_ext/1664057780/ecc.o
 .text.wc_ecc_export_ex
                0x00000000       0xca build/default/production/_ext/1664057780/ecc.o
 .text.wc_ecc_export_private_only
                0x00000000       0x30 build/default/production/_ext/1664057780/ecc.o
 .text.wc_ecc_export_public_raw
                0x00000000       0x3a build/default/production/_ext/1664057780/ecc.o
 .text.wc_ecc_export_private_raw
                0x00000000       0x1c build/default/production/_ext/1664057780/ecc.o
 .text.wc_ecc_import_private_key_ex
                0x00000000       0x70 build/default/production/_ext/1664057780/ecc.o
 .text.wc_ecc_import_private_key
                0x00000000       0x14 build/default/production/_ext/1664057780/ecc.o
 .text.wc_ecc_rs_to_sig
                0x00000000       0xb2 build/default/production/_ext/1664057780/ecc.o
 .text.wc_ecc_rs_raw_to_sig
                0x00000000       0x40 build/default/production/_ext/1664057780/ecc.o
 .text.wc_ecc_sig_to_rs
                0x00000000       0x3c build/default/production/_ext/1664057780/ecc.o
 .text.wc_ecc_import_raw_ex
                0x00000000       0x14 build/default/production/_ext/1664057780/ecc.o
 .text.wc_ecc_import_unsigned
                0x00000000       0x14 build/default/production/_ext/1664057780/ecc.o
 .text.wc_ecc_import_raw
                0x00000000       0x88 build/default/production/_ext/1664057780/ecc.o
 .text.wc_ecc_size
                0x00000000        0xc build/default/production/_ext/1664057780/ecc.o
 .text.wc_ecc_sig_size_calc
                0x00000000       0x10 build/default/production/_ext/1664057780/ecc.o
 .text.wc_ecc_sig_size
                0x00000000       0x3a build/default/production/_ext/1664057780/ecc.o
 .text.wc_ecc_get_oid
                0x00000000       0x5c build/default/production/_ext/1664057780/ecc.o
 .rodata        0x00000000      0xa2c build/default/production/_ext/1664057780/ecc.o
 .rodata.ecc_oid_prime239v1
                0x00000000        0x8 build/default/production/_ext/1664057780/ecc.o
 .rodata.ecc_oid_secp224r1
                0x00000000        0x8 build/default/production/_ext/1664057780/ecc.o
 .rodata.ecc_oid_secp256r1
                0x00000000        0x8 build/default/production/_ext/1664057780/ecc.o
 .rodata.ecc_oid_secp384r1
                0x00000000        0x8 build/default/production/_ext/1664057780/ecc.o
 .rodata.ecc_oid_secp521r1
                0x00000000        0x8 build/default/production/_ext/1664057780/ecc.o
 .rodata.ecc_sets
                0x00000000      0x138 build/default/production/_ext/1664057780/ecc.o
 .rodata.ecc_sets_count
                0x00000000        0x4 build/default/production/_ext/1664057780/ecc.o
 .debug_info    0x00000000     0xa9df build/default/production/_ext/1664057780/ecc.o
 .debug_abbrev  0x00000000      0x4b5 build/default/production/_ext/1664057780/ecc.o
 .debug_loc     0x00000000     0x9dc3 build/default/production/_ext/1664057780/ecc.o
 .debug_aranges
                0x00000000      0x2c0 build/default/production/_ext/1664057780/ecc.o
 .debug_ranges  0x00000000      0x458 build/default/production/_ext/1664057780/ecc.o
 .debug_line    0x00000000     0x3912 build/default/production/_ext/1664057780/ecc.o
 .debug_str     0x00000000      0x318 build/default/production/_ext/1664057780/ecc.o
 .comment       0x00000000       0x54 build/default/production/_ext/1664057780/ecc.o
 .debug_frame   0x00000000      0xc24 build/default/production/_ext/1664057780/ecc.o
 .ARM.attributes
                0x00000000       0x34 build/default/production/_ext/1664057780/ecc.o
 .text          0x00000000        0x0 build/default/production/_ext/1360937237/main.o
 .data          0x00000000        0x0 build/default/production/_ext/1360937237/main.o
 .bss           0x00000000        0x0 build/default/production/_ext/1360937237/main.o
 .text          0x00000000        0x0 build/default/production/_ext/1360937237/app.o
 .data          0x00000000        0x0 build/default/production/_ext/1360937237/app.o
 .bss           0x00000000        0x0 build/default/production/_ext/1360937237/app.o
 .text          0x00000000        0x0 build/default/production/_ext/1664057780/misc.o
 .data          0x00000000        0x0 build/default/production/_ext/1664057780/misc.o
 .bss           0x00000000        0x0 build/default/production/_ext/1664057780/misc.o
 .debug_info    0x00000000      0x3a8 build/default/production/_ext/1664057780/misc.o
 .debug_abbrev  0x00000000       0x72 build/default/production/_ext/1664057780/misc.o
 .debug_aranges
                0x00000000       0x18 build/default/production/_ext/1664057780/misc.o
 .debug_line    0x00000000       0xe2 build/default/production/_ext/1664057780/misc.o
 .debug_str     0x00000000        0x0 build/default/production/_ext/1664057780/misc.o
 .comment       0x00000000       0x54 build/default/production/_ext/1664057780/misc.o
 .ARM.attributes
                0x00000000       0x39 build/default/production/_ext/1664057780/misc.o
 .text          0x00000000        0x0 build/default/production/_ext/1664057780/evp.o
 .data          0x00000000        0x0 build/default/production/_ext/1664057780/evp.o
 .bss           0x00000000        0x0 build/default/production/_ext/1664057780/evp.o
 .debug_info    0x00000000      0x344 build/default/production/_ext/1664057780/evp.o
 .debug_abbrev  0x00000000       0x44 build/default/production/_ext/1664057780/evp.o
 .debug_aranges
                0x00000000       0x18 build/default/production/_ext/1664057780/evp.o
 .debug_line    0x00000000       0x9e build/default/production/_ext/1664057780/evp.o
 .debug_str     0x00000000        0x0 build/default/production/_ext/1664057780/evp.o
 .comment       0x00000000       0x54 build/default/production/_ext/1664057780/evp.o
 .ARM.attributes
                0x00000000       0x39 build/default/production/_ext/1664057780/evp.o
 .text          0x00000000        0x0 c:/program files/microchip/xc32/v4.00/bin/bin/../../lib/gcc/pic32c/8.3.1/../../../../pic32c/lib/thumb/v7e-m+fp/hard\libpic32c.a(data_init.o)
 .data          0x00000000        0x0 c:/program files/microchip/xc32/v4.00/bin/bin/../../lib/gcc/pic32c/8.3.1/../../../../pic32c/lib/thumb/v7e-m+fp/hard\libpic32c.a(data_init.o)
 .xc_stack_usage
                0x00000000       0x2a c:/program files/microchip/xc32/v4.00/bin/bin/../../lib/gcc/pic32c/8.3.1/../../../../pic32c/lib/thumb/v7e-m+fp/hard\libpic32c.a(data_init.o)
 .xc_stack_usage.hdr
                0x00000000        0xe c:/program files/microchip/xc32/v4.00/bin/bin/../../lib/gcc/pic32c/8.3.1/../../../../pic32c/lib/thumb/v7e-m+fp/hard\libpic32c.a(data_init.o)
 .text          0x00000000        0x0 c:/program files/microchip/xc32/v4.00/bin/bin/../../lib/gcc/pic32c/8.3.1/../../../../pic32c/lib/thumb/v7e-m+fp/hard\libm-emfloat.a(floatasmops_arm.o)
 .data          0x00000000        0x0 c:/program files/microchip/xc32/v4.00/bin/bin/../../lib/gcc/pic32c/8.3.1/../../../../pic32c/lib/thumb/v7e-m+fp/hard\libm-emfloat.a(floatasmops_arm.o)
 .bss           0x00000000        0x0 c:/program files/microchip/xc32/v4.00/bin/bin/../../lib/gcc/pic32c/8.3.1/../../../../pic32c/lib/thumb/v7e-m+fp/hard\libm-emfloat.a(floatasmops_arm.o)
 .rodata.__aeabi_ddiv_reciprocal_table
                0x00000000      0x180 c:/program files/microchip/xc32/v4.00/bin/bin/../../lib/gcc/pic32c/8.3.1/../../../../pic32c/lib/thumb/v7e-m+fp/hard\libm-emfloat.a(floatasmops_arm.o)
 .text.__aeabi_fadd
                0x00000000       0x14 c:/program files/microchip/xc32/v4.00/bin/bin/../../lib/gcc/pic32c/8.3.1/../../../../pic32c/lib/thumb/v7e-m+fp/hard\libm-emfloat.a(floatasmops_arm.o)
 .text.__aeabi_fsub
                0x00000000       0x14 c:/program files/microchip/xc32/v4.00/bin/bin/../../lib/gcc/pic32c/8.3.1/../../../../pic32c/lib/thumb/v7e-m+fp/hard\libm-emfloat.a(floatasmops_arm.o)
 .text.__aeabi_frsub
                0x00000000       0x14 c:/program files/microchip/xc32/v4.00/bin/bin/../../lib/gcc/pic32c/8.3.1/../../../../pic32c/lib/thumb/v7e-m+fp/hard\libm-emfloat.a(floatasmops_arm.o)
 .text.__aeabi_drsub
                0x00000000        0x8 c:/program files/microchip/xc32/v4.00/bin/bin/../../lib/gcc/pic32c/8.3.1/../../../../pic32c/lib/thumb/v7e-m+fp/hard\libm-emfloat.a(floatasmops_arm.o)
 .text.__aeabi_fmul
                0x00000000       0x14 c:/program files/microchip/xc32/v4.00/bin/bin/../../lib/gcc/pic32c/8.3.1/../../../../pic32c/lib/thumb/v7e-m+fp/hard\libm-emfloat.a(floatasmops_arm.o)
 .text.__aeabi_fdiv
                0x00000000       0x14 c:/program files/microchip/xc32/v4.00/bin/bin/../../lib/gcc/pic32c/8.3.1/../../../../pic32c/lib/thumb/v7e-m+fp/hard\libm-emfloat.a(floatasmops_arm.o)
 .text.__aeabi_fcmple
                0x00000000       0x18 c:/program files/microchip/xc32/v4.00/bin/bin/../../lib/gcc/pic32c/8.3.1/../../../../pic32c/lib/thumb/v7e-m+fp/hard\libm-emfloat.a(floatasmops_arm.o)
 .text.__aeabi_dcmple
                0x00000000       0x3c c:/program files/microchip/xc32/v4.00/bin/bin/../../lib/gcc/pic32c/8.3.1/../../../../pic32c/lib/thumb/v7e-m+fp/hard\libm-emfloat.a(floatasmops_arm.o)
 .text.__aeabi_fcmpeq
                0x00000000       0x18 c:/program files/microchip/xc32/v4.00/bin/bin/../../lib/gcc/pic32c/8.3.1/../../../../pic32c/lib/thumb/v7e-m+fp/hard\libm-emfloat.a(floatasmops_arm.o)
 .text.__aeabi_fcmpge
                0x00000000       0x18 c:/program files/microchip/xc32/v4.00/bin/bin/../../lib/gcc/pic32c/8.3.1/../../../../pic32c/lib/thumb/v7e-m+fp/hard\libm-emfloat.a(floatasmops_arm.o)
 .text.__aeabi_dcmpge
                0x00000000       0x3c c:/program files/microchip/xc32/v4.00/bin/bin/../../lib/gcc/pic32c/8.3.1/../../../../pic32c/lib/thumb/v7e-m+fp/hard\libm-emfloat.a(floatasmops_arm.o)
 .text.__aeabi_fcmpgt
                0x00000000       0x18 c:/program files/microchip/xc32/v4.00/bin/bin/../../lib/gcc/pic32c/8.3.1/../../../../pic32c/lib/thumb/v7e-m+fp/hard\libm-emfloat.a(floatasmops_arm.o)
 .text.__aeabi_fcmplt
                0x00000000       0x18 c:/program files/microchip/xc32/v4.00/bin/bin/../../lib/gcc/pic32c/8.3.1/../../../../pic32c/lib/thumb/v7e-m+fp/hard\libm-emfloat.a(floatasmops_arm.o)
 .text.__aeabi_fcmpun
                0x00000000       0x18 c:/program files/microchip/xc32/v4.00/bin/bin/../../lib/gcc/pic32c/8.3.1/../../../../pic32c/lib/thumb/v7e-m+fp/hard\libm-emfloat.a(floatasmops_arm.o)
 .text.__aeabi_dcmpun
                0x00000000       0x28 c:/program files/microchip/xc32/v4.00/bin/bin/../../lib/gcc/pic32c/8.3.1/../../../../pic32c/lib/thumb/v7e-m+fp/hard\libm-emfloat.a(floatasmops_arm.o)
 .text.__aeabi_cfcmpeq
                0x00000000       0x28 c:/program files/microchip/xc32/v4.00/bin/bin/../../lib/gcc/pic32c/8.3.1/../../../../pic32c/lib/thumb/v7e-m+fp/hard\libm-emfloat.a(floatasmops_arm.o)
 .text.__aeabi_cdcmpeq
                0x00000000       0x10 c:/program files/microchip/xc32/v4.00/bin/bin/../../lib/gcc/pic32c/8.3.1/../../../../pic32c/lib/thumb/v7e-m+fp/hard\libm-emfloat.a(floatasmops_arm.o)
 .text.__aeabi_cfcmple
                0x00000000       0x14 c:/program files/microchip/xc32/v4.00/bin/bin/../../lib/gcc/pic32c/8.3.1/../../../../pic32c/lib/thumb/v7e-m+fp/hard\libm-emfloat.a(floatasmops_arm.o)
 .text.__aeabi_cdcmple
                0x00000000       0x10 c:/program files/microchip/xc32/v4.00/bin/bin/../../lib/gcc/pic32c/8.3.1/../../../../pic32c/lib/thumb/v7e-m+fp/hard\libm-emfloat.a(floatasmops_arm.o)
 .text.__aeabi_cfrcmple
                0x00000000       0x14 c:/program files/microchip/xc32/v4.00/bin/bin/../../lib/gcc/pic32c/8.3.1/../../../../pic32c/lib/thumb/v7e-m+fp/hard\libm-emfloat.a(floatasmops_arm.o)
 .text.__aeabi_cdrcmple
                0x00000000       0x1c c:/program files/microchip/xc32/v4.00/bin/bin/../../lib/gcc/pic32c/8.3.1/../../../../pic32c/lib/thumb/v7e-m+fp/hard\libm-emfloat.a(floatasmops_arm.o)
 .text.__aeabi_cfcmp_impl
                0x00000000       0x22 c:/program files/microchip/xc32/v4.00/bin/bin/../../lib/gcc/pic32c/8.3.1/../../../../pic32c/lib/thumb/v7e-m+fp/hard\libm-emfloat.a(floatasmops_arm.o)
 .text.__aeabi_cdcmp_impl
                0x00000000       0x64 c:/program files/microchip/xc32/v4.00/bin/bin/../../lib/gcc/pic32c/8.3.1/../../../../pic32c/lib/thumb/v7e-m+fp/hard\libm-emfloat.a(floatasmops_arm.o)
 .text.__aeabi_f2iz
                0x00000000       0x10 c:/program files/microchip/xc32/v4.00/bin/bin/../../lib/gcc/pic32c/8.3.1/../../../../pic32c/lib/thumb/v7e-m+fp/hard\libm-emfloat.a(floatasmops_arm.o)
 .text.__aeabi_f2lz
                0x00000000       0x74 c:/program files/microchip/xc32/v4.00/bin/bin/../../lib/gcc/pic32c/8.3.1/../../../../pic32c/lib/thumb/v7e-m+fp/hard\libm-emfloat.a(floatasmops_arm.o)
 .text.__aeabi_d2lz
                0x00000000       0x80 c:/program files/microchip/xc32/v4.00/bin/bin/../../lib/gcc/pic32c/8.3.1/../../../../pic32c/lib/thumb/v7e-m+fp/hard\libm-emfloat.a(floatasmops_arm.o)
 .text.__aeabi_f2uiz
                0x00000000       0x10 c:/program files/microchip/xc32/v4.00/bin/bin/../../lib/gcc/pic32c/8.3.1/../../../../pic32c/lib/thumb/v7e-m+fp/hard\libm-emfloat.a(floatasmops_arm.o)
 .text.__aeabi_f2ulz
                0x00000000       0x40 c:/program files/microchip/xc32/v4.00/bin/bin/../../lib/gcc/pic32c/8.3.1/../../../../pic32c/lib/thumb/v7e-m+fp/hard\libm-emfloat.a(floatasmops_arm.o)
 .text.__aeabi_d2ulz
                0x00000000       0x40 c:/program files/microchip/xc32/v4.00/bin/bin/../../lib/gcc/pic32c/8.3.1/../../../../pic32c/lib/thumb/v7e-m+fp/hard\libm-emfloat.a(floatasmops_arm.o)
 .text.__aeabi_i2f
                0x00000000       0x10 c:/program files/microchip/xc32/v4.00/bin/bin/../../lib/gcc/pic32c/8.3.1/../../../../pic32c/lib/thumb/v7e-m+fp/hard\libm-emfloat.a(floatasmops_arm.o)
 .text.__aeabi_l2f
                0x00000000       0x64 c:/program files/microchip/xc32/v4.00/bin/bin/../../lib/gcc/pic32c/8.3.1/../../../../pic32c/lib/thumb/v7e-m+fp/hard\libm-emfloat.a(floatasmops_arm.o)
 .text.__aeabi_l2d
                0x00000000       0x68 c:/program files/microchip/xc32/v4.00/bin/bin/../../lib/gcc/pic32c/8.3.1/../../../../pic32c/lib/thumb/v7e-m+fp/hard\libm-emfloat.a(floatasmops_arm.o)
 .text.__aeabi_ui2f
                0x00000000       0x10 c:/program files/microchip/xc32/v4.00/bin/bin/../../lib/gcc/pic32c/8.3.1/../../../../pic32c/lib/thumb/v7e-m+fp/hard\libm-emfloat.a(floatasmops_arm.o)
 .text.__aeabi_ul2f
                0x00000000       0x54 c:/program files/microchip/xc32/v4.00/bin/bin/../../lib/gcc/pic32c/8.3.1/../../../../pic32c/lib/thumb/v7e-m+fp/hard\libm-emfloat.a(floatasmops_arm.o)
 .text.__aeabi_ul2d
                0x00000000       0x5c c:/program files/microchip/xc32/v4.00/bin/bin/../../lib/gcc/pic32c/8.3.1/../../../../pic32c/lib/thumb/v7e-m+fp/hard\libm-emfloat.a(floatasmops_arm.o)
 .text.__aeabi_f2d
                0x00000000       0x34 c:/program files/microchip/xc32/v4.00/bin/bin/../../lib/gcc/pic32c/8.3.1/../../../../pic32c/lib/thumb/v7e-m+fp/hard\libm-emfloat.a(floatasmops_arm.o)
 .text.__aeabi_d2f
                0x00000000       0x4c c:/program files/microchip/xc32/v4.00/bin/bin/../../lib/gcc/pic32c/8.3.1/../../../../pic32c/lib/thumb/v7e-m+fp/hard\libm-emfloat.a(floatasmops_arm.o)
 .xc_stack_usage.hdr
                0x00000000        0xe c:/program files/microchip/xc32/v4.00/bin/bin/../../lib/gcc/pic32c/8.3.1/../../../../pic32c/lib/thumb/v7e-m+fp/hard\libm-emfloat.a(floatasmops_arm.o)
 .xc_stack_usage
                0x00000000      0x518 c:/program files/microchip/xc32/v4.00/bin/bin/../../lib/gcc/pic32c/8.3.1/../../../../pic32c/lib/thumb/v7e-m+fp/hard\libm-emfloat.a(floatasmops_arm.o)
 .text          0x00000000        0x0 c:/program files/microchip/xc32/v4.00/bin/bin/../../lib/gcc/pic32c/8.3.1/../../../../pic32c/lib/thumb/v7e-m+fp/hard\libc-musl.a(isxdigit.o)
 .data          0x00000000        0x0 c:/program files/microchip/xc32/v4.00/bin/bin/../../lib/gcc/pic32c/8.3.1/../../../../pic32c/lib/thumb/v7e-m+fp/hard\libc-musl.a(isxdigit.o)
 .bss           0x00000000        0x0 c:/program files/microchip/xc32/v4.00/bin/bin/../../lib/gcc/pic32c/8.3.1/../../../../pic32c/lib/thumb/v7e-m+fp/hard\libc-musl.a(isxdigit.o)
 .xc_stack_usage
                0x00000000       0x30 c:/program files/microchip/xc32/v4.00/bin/bin/../../lib/gcc/pic32c/8.3.1/../../../../pic32c/lib/thumb/v7e-m+fp/hard\libc-musl.a(isxdigit.o)
 .text.__isxdigit_l
                0x00000000        0x4 c:/program files/microchip/xc32/v4.00/bin/bin/../../lib/gcc/pic32c/8.3.1/../../../../pic32c/lib/thumb/v7e-m+fp/hard\libc-musl.a(isxdigit.o)
 .xc_stack_usage.hdr
                0x00000000        0xe c:/program files/microchip/xc32/v4.00/bin/bin/../../lib/gcc/pic32c/8.3.1/../../../../pic32c/lib/thumb/v7e-m+fp/hard\libc-musl.a(isxdigit.o)
 .text          0x00000000        0x0 c:/program files/microchip/xc32/v4.00/bin/bin/../../lib/gcc/pic32c/8.3.1/../../../../pic32c/lib/thumb/v7e-m+fp/hard\libc-musl.a(tolower.o)
 .data          0x00000000        0x0 c:/program files/microchip/xc32/v4.00/bin/bin/../../lib/gcc/pic32c/8.3.1/../../../../pic32c/lib/thumb/v7e-m+fp/hard\libc-musl.a(tolower.o)
 .bss           0x00000000        0x0 c:/program files/microchip/xc32/v4.00/bin/bin/../../lib/gcc/pic32c/8.3.1/../../../../pic32c/lib/thumb/v7e-m+fp/hard\libc-musl.a(tolower.o)
 .xc_stack_usage
                0x00000000       0x2e c:/program files/microchip/xc32/v4.00/bin/bin/../../lib/gcc/pic32c/8.3.1/../../../../pic32c/lib/thumb/v7e-m+fp/hard\libc-musl.a(tolower.o)
 .text.__tolower_l
                0x00000000        0x4 c:/program files/microchip/xc32/v4.00/bin/bin/../../lib/gcc/pic32c/8.3.1/../../../../pic32c/lib/thumb/v7e-m+fp/hard\libc-musl.a(tolower.o)
 .xc_stack_usage.hdr
                0x00000000        0xe c:/program files/microchip/xc32/v4.00/bin/bin/../../lib/gcc/pic32c/8.3.1/../../../../pic32c/lib/thumb/v7e-m+fp/hard\libc-musl.a(tolower.o)
 .text          0x00000000        0x0 c:/program files/microchip/xc32/v4.00/bin/bin/../../lib/gcc/pic32c/8.3.1/../../../../pic32c/lib/thumb/v7e-m+fp/hard\libc-musl.a(toupper.o)
 .data          0x00000000        0x0 c:/program files/microchip/xc32/v4.00/bin/bin/../../lib/gcc/pic32c/8.3.1/../../../../pic32c/lib/thumb/v7e-m+fp/hard\libc-musl.a(toupper.o)
 .bss           0x00000000        0x0 c:/program files/microchip/xc32/v4.00/bin/bin/../../lib/gcc/pic32c/8.3.1/../../../../pic32c/lib/thumb/v7e-m+fp/hard\libc-musl.a(toupper.o)
 .xc_stack_usage
                0x00000000       0x2e c:/program files/microchip/xc32/v4.00/bin/bin/../../lib/gcc/pic32c/8.3.1/../../../../pic32c/lib/thumb/v7e-m+fp/hard\libc-musl.a(toupper.o)
 .text.__toupper_l
                0x00000000        0x4 c:/program files/microchip/xc32/v4.00/bin/bin/../../lib/gcc/pic32c/8.3.1/../../../../pic32c/lib/thumb/v7e-m+fp/hard\libc-musl.a(toupper.o)
 .xc_stack_usage.hdr
                0x00000000        0xe c:/program files/microchip/xc32/v4.00/bin/bin/../../lib/gcc/pic32c/8.3.1/../../../../pic32c/lib/thumb/v7e-m+fp/hard\libc-musl.a(toupper.o)
 .text          0x00000000        0x0 c:/program files/microchip/xc32/v4.00/bin/bin/../../lib/gcc/pic32c/8.3.1/../../../../pic32c/lib/thumb/v7e-m+fp/hard\libc-musl.a(__libc_start_main.o)
 .data          0x00000000        0x0 c:/program files/microchip/xc32/v4.00/bin/bin/../../lib/gcc/pic32c/8.3.1/../../../../pic32c/lib/thumb/v7e-m+fp/hard\libc-musl.a(__libc_start_main.o)
 .bss           0x00000000        0x0 c:/program files/microchip/xc32/v4.00/bin/bin/../../lib/gcc/pic32c/8.3.1/../../../../pic32c/lib/thumb/v7e-m+fp/hard\libc-musl.a(__libc_start_main.o)
 .xc_stack_usage
                0x00000000       0x34 c:/program files/microchip/xc32/v4.00/bin/bin/../../lib/gcc/pic32c/8.3.1/../../../../pic32c/lib/thumb/v7e-m+fp/hard\libc-musl.a(__libc_start_main.o)
 .xc_stack_usage.hdr
                0x00000000        0xe c:/program files/microchip/xc32/v4.00/bin/bin/../../lib/gcc/pic32c/8.3.1/../../../../pic32c/lib/thumb/v7e-m+fp/hard\libc-musl.a(__libc_start_main.o)
 .text          0x00000000        0x0 c:/program files/microchip/xc32/v4.00/bin/bin/../../lib/gcc/pic32c/8.3.1/../../../../pic32c/lib/thumb/v7e-m+fp/hard\libc-musl.a(__errno_location.o)
 .data          0x00000000        0x0 c:/program files/microchip/xc32/v4.00/bin/bin/../../lib/gcc/pic32c/8.3.1/../../../../pic32c/lib/thumb/v7e-m+fp/hard\libc-musl.a(__errno_location.o)
 .xc_stack_usage.hdr
                0x00000000        0xe c:/program files/microchip/xc32/v4.00/bin/bin/../../lib/gcc/pic32c/8.3.1/../../../../pic32c/lib/thumb/v7e-m+fp/hard\libc-musl.a(__errno_location.o)
 .text          0x00000000        0x0 c:/program files/microchip/xc32/v4.00/bin/bin/../../lib/gcc/pic32c/8.3.1/../../../../pic32c/lib/thumb/v7e-m+fp/hard\libc-musl.a(libc.o)
 .data          0x00000000        0x0 c:/program files/microchip/xc32/v4.00/bin/bin/../../lib/gcc/pic32c/8.3.1/../../../../pic32c/lib/thumb/v7e-m+fp/hard\libc-musl.a(libc.o)
 .xc_stack_usage.hdr
                0x00000000        0xe c:/program files/microchip/xc32/v4.00/bin/bin/../../lib/gcc/pic32c/8.3.1/../../../../pic32c/lib/thumb/v7e-m+fp/hard\libc-musl.a(libc.o)
 .text          0x00000000        0x0 c:/program files/microchip/xc32/v4.00/bin/bin/../../lib/gcc/pic32c/8.3.1/../../../../pic32c/lib/thumb/v7e-m+fp/hard\libc-musl.a(calloc.o)
 .data          0x00000000        0x0 c:/program files/microchip/xc32/v4.00/bin/bin/../../lib/gcc/pic32c/8.3.1/../../../../pic32c/lib/thumb/v7e-m+fp/hard\libc-musl.a(calloc.o)
 .bss           0x00000000        0x0 c:/program files/microchip/xc32/v4.00/bin/bin/../../lib/gcc/pic32c/8.3.1/../../../../pic32c/lib/thumb/v7e-m+fp/hard\libc-musl.a(calloc.o)
 .xc_stack_usage
                0x00000000       0x14 c:/program files/microchip/xc32/v4.00/bin/bin/../../lib/gcc/pic32c/8.3.1/../../../../pic32c/lib/thumb/v7e-m+fp/hard\libc-musl.a(calloc.o)
 .xc_stack_usage.hdr
                0x00000000        0xe c:/program files/microchip/xc32/v4.00/bin/bin/../../lib/gcc/pic32c/8.3.1/../../../../pic32c/lib/thumb/v7e-m+fp/hard\libc-musl.a(calloc.o)
 .text          0x00000000        0x0 c:/program files/microchip/xc32/v4.00/bin/bin/../../lib/gcc/pic32c/8.3.1/../../../../pic32c/lib/thumb/v7e-m+fp/hard\libc-musl.a(malloc.o)
 .data          0x00000000        0x0 c:/program files/microchip/xc32/v4.00/bin/bin/../../lib/gcc/pic32c/8.3.1/../../../../pic32c/lib/thumb/v7e-m+fp/hard\libc-musl.a(malloc.o)
 .xc_stack_usage
                0x00000000       0xeb c:/program files/microchip/xc32/v4.00/bin/bin/../../lib/gcc/pic32c/8.3.1/../../../../pic32c/lib/thumb/v7e-m+fp/hard\libc-musl.a(malloc.o)
 .text.realloc  0x00000000       0x90 c:/program files/microchip/xc32/v4.00/bin/bin/../../lib/gcc/pic32c/8.3.1/../../../../pic32c/lib/thumb/v7e-m+fp/hard\libc-musl.a(malloc.o)
 .xc_stack_usage.hdr
                0x00000000        0xe c:/program files/microchip/xc32/v4.00/bin/bin/../../lib/gcc/pic32c/8.3.1/../../../../pic32c/lib/thumb/v7e-m+fp/hard\libc-musl.a(malloc.o)
 .text          0x00000000        0x0 c:/program files/microchip/xc32/v4.00/bin/bin/../../lib/gcc/pic32c/8.3.1/../../../../pic32c/lib/thumb/v7e-m+fp/hard\libc-musl.a(expand_heap.o)
 .data          0x00000000        0x0 c:/program files/microchip/xc32/v4.00/bin/bin/../../lib/gcc/pic32c/8.3.1/../../../../pic32c/lib/thumb/v7e-m+fp/hard\libc-musl.a(expand_heap.o)
 .bss           0x00000000        0x0 c:/program files/microchip/xc32/v4.00/bin/bin/../../lib/gcc/pic32c/8.3.1/../../../../pic32c/lib/thumb/v7e-m+fp/hard\libc-musl.a(expand_heap.o)
 .xc_stack_usage
                0x00000000       0x1b c:/program files/microchip/xc32/v4.00/bin/bin/../../lib/gcc/pic32c/8.3.1/../../../../pic32c/lib/thumb/v7e-m+fp/hard\libc-musl.a(expand_heap.o)
 .xc_stack_usage.hdr
                0x00000000        0xe c:/program files/microchip/xc32/v4.00/bin/bin/../../lib/gcc/pic32c/8.3.1/../../../../pic32c/lib/thumb/v7e-m+fp/hard\libc-musl.a(expand_heap.o)
 .text          0x00000000        0x0 c:/program files/microchip/xc32/v4.00/bin/bin/../../lib/gcc/pic32c/8.3.1/../../../../pic32c/lib/thumb/v7e-m+fp/hard\libc-musl.a(rand.o)
 .data          0x00000000        0x0 c:/program files/microchip/xc32/v4.00/bin/bin/../../lib/gcc/pic32c/8.3.1/../../../../pic32c/lib/thumb/v7e-m+fp/hard\libc-musl.a(rand.o)
 .xc_stack_usage
                0x00000000       0x25 c:/program files/microchip/xc32/v4.00/bin/bin/../../lib/gcc/pic32c/8.3.1/../../../../pic32c/lib/thumb/v7e-m+fp/hard\libc-musl.a(rand.o)
 .text.srand    0x00000000        0xc c:/program files/microchip/xc32/v4.00/bin/bin/../../lib/gcc/pic32c/8.3.1/../../../../pic32c/lib/thumb/v7e-m+fp/hard\libc-musl.a(rand.o)
 .xc_stack_usage.hdr
                0x00000000        0xe c:/program files/microchip/xc32/v4.00/bin/bin/../../lib/gcc/pic32c/8.3.1/../../../../pic32c/lib/thumb/v7e-m+fp/hard\libc-musl.a(rand.o)
 .text          0x00000000        0x0 c:/program files/microchip/xc32/v4.00/bin/bin/../../lib/gcc/pic32c/8.3.1/../../../../pic32c/lib/thumb/v7e-m+fp/hard\libc-musl.a(vsnprintf.o)
 .data          0x00000000        0x0 c:/program files/microchip/xc32/v4.00/bin/bin/../../lib/gcc/pic32c/8.3.1/../../../../pic32c/lib/thumb/v7e-m+fp/hard\libc-musl.a(vsnprintf.o)
 .bss           0x00000000        0x0 c:/program files/microchip/xc32/v4.00/bin/bin/../../lib/gcc/pic32c/8.3.1/../../../../pic32c/lib/thumb/v7e-m+fp/hard\libc-musl.a(vsnprintf.o)
 .xc_stack_usage
                0x00000000       0x17 c:/program files/microchip/xc32/v4.00/bin/bin/../../lib/gcc/pic32c/8.3.1/../../../../pic32c/lib/thumb/v7e-m+fp/hard\libc-musl.a(vsnprintf.o)
 .xc_stack_usage.hdr
                0x00000000        0xe c:/program files/microchip/xc32/v4.00/bin/bin/../../lib/gcc/pic32c/8.3.1/../../../../pic32c/lib/thumb/v7e-m+fp/hard\libc-musl.a(vsnprintf.o)
 .text          0x00000000        0x0 c:/program files/microchip/xc32/v4.00/bin/bin/../../lib/gcc/pic32c/8.3.1/../../../../pic32c/lib/thumb/v7e-m+fp/hard\libc-musl.a(snprintf.o)
 .data          0x00000000        0x0 c:/program files/microchip/xc32/v4.00/bin/bin/../../lib/gcc/pic32c/8.3.1/../../../../pic32c/lib/thumb/v7e-m+fp/hard\libc-musl.a(snprintf.o)
 .bss           0x00000000        0x0 c:/program files/microchip/xc32/v4.00/bin/bin/../../lib/gcc/pic32c/8.3.1/../../../../pic32c/lib/thumb/v7e-m+fp/hard\libc-musl.a(snprintf.o)
 .xc_stack_usage
                0x00000000       0x16 c:/program files/microchip/xc32/v4.00/bin/bin/../../lib/gcc/pic32c/8.3.1/../../../../pic32c/lib/thumb/v7e-m+fp/hard\libc-musl.a(snprintf.o)
 .xc_stack_usage.hdr
                0x00000000        0xe c:/program files/microchip/xc32/v4.00/bin/bin/../../lib/gcc/pic32c/8.3.1/../../../../pic32c/lib/thumb/v7e-m+fp/hard\libc-musl.a(snprintf.o)
 .text          0x00000000        0x0 c:/program files/microchip/xc32/v4.00/bin/bin/../../lib/gcc/pic32c/8.3.1/../../../../pic32c/lib/thumb/v7e-m+fp/hard\libc-musl.a(sprintf.o)
 .data          0x00000000        0x0 c:/program files/microchip/xc32/v4.00/bin/bin/../../lib/gcc/pic32c/8.3.1/../../../../pic32c/lib/thumb/v7e-m+fp/hard\libc-musl.a(sprintf.o)
 .bss           0x00000000        0x0 c:/program files/microchip/xc32/v4.00/bin/bin/../../lib/gcc/pic32c/8.3.1/../../../../pic32c/lib/thumb/v7e-m+fp/hard\libc-musl.a(sprintf.o)
 .xc_stack_usage
                0x00000000       0x15 c:/program files/microchip/xc32/v4.00/bin/bin/../../lib/gcc/pic32c/8.3.1/../../../../pic32c/lib/thumb/v7e-m+fp/hard\libc-musl.a(sprintf.o)
 .xc_stack_usage.hdr
                0x00000000        0xe c:/program files/microchip/xc32/v4.00/bin/bin/../../lib/gcc/pic32c/8.3.1/../../../../pic32c/lib/thumb/v7e-m+fp/hard\libc-musl.a(sprintf.o)
 .text          0x00000000        0x0 c:/program files/microchip/xc32/v4.00/bin/bin/../../lib/gcc/pic32c/8.3.1/../../../../pic32c/lib/thumb/v7e-m+fp/hard\libc-musl.a(vsprintf.o)
 .data          0x00000000        0x0 c:/program files/microchip/xc32/v4.00/bin/bin/../../lib/gcc/pic32c/8.3.1/../../../../pic32c/lib/thumb/v7e-m+fp/hard\libc-musl.a(vsprintf.o)
 .bss           0x00000000        0x0 c:/program files/microchip/xc32/v4.00/bin/bin/../../lib/gcc/pic32c/8.3.1/../../../../pic32c/lib/thumb/v7e-m+fp/hard\libc-musl.a(vsprintf.o)
 .xc_stack_usage
                0x00000000       0x16 c:/program files/microchip/xc32/v4.00/bin/bin/../../lib/gcc/pic32c/8.3.1/../../../../pic32c/lib/thumb/v7e-m+fp/hard\libc-musl.a(vsprintf.o)
 .xc_stack_usage.hdr
                0x00000000        0xe c:/program files/microchip/xc32/v4.00/bin/bin/../../lib/gcc/pic32c/8.3.1/../../../../pic32c/lib/thumb/v7e-m+fp/hard\libc-musl.a(vsprintf.o)
 .text          0x00000000        0x0 c:/program files/microchip/xc32/v4.00/bin/bin/../../lib/gcc/pic32c/8.3.1/../../../../pic32c/lib/thumb/v7e-m+fp/hard\libc-musl.a(atoi.o)
 .data          0x00000000        0x0 c:/program files/microchip/xc32/v4.00/bin/bin/../../lib/gcc/pic32c/8.3.1/../../../../pic32c/lib/thumb/v7e-m+fp/hard\libc-musl.a(atoi.o)
 .bss           0x00000000        0x0 c:/program files/microchip/xc32/v4.00/bin/bin/../../lib/gcc/pic32c/8.3.1/../../../../pic32c/lib/thumb/v7e-m+fp/hard\libc-musl.a(atoi.o)
 .xc_stack_usage
                0x00000000       0x12 c:/program files/microchip/xc32/v4.00/bin/bin/../../lib/gcc/pic32c/8.3.1/../../../../pic32c/lib/thumb/v7e-m+fp/hard\libc-musl.a(atoi.o)
 .xc_stack_usage.hdr
                0x00000000        0xe c:/program files/microchip/xc32/v4.00/bin/bin/../../lib/gcc/pic32c/8.3.1/../../../../pic32c/lib/thumb/v7e-m+fp/hard\libc-musl.a(atoi.o)
 .text          0x00000000        0x0 c:/program files/microchip/xc32/v4.00/bin/bin/../../lib/gcc/pic32c/8.3.1/../../../../pic32c/lib/thumb/v7e-m+fp/hard\libc-musl.a(strtol.o)
 .data          0x00000000        0x0 c:/program files/microchip/xc32/v4.00/bin/bin/../../lib/gcc/pic32c/8.3.1/../../../../pic32c/lib/thumb/v7e-m+fp/hard\libc-musl.a(strtol.o)
 .bss           0x00000000        0x0 c:/program files/microchip/xc32/v4.00/bin/bin/../../lib/gcc/pic32c/8.3.1/../../../../pic32c/lib/thumb/v7e-m+fp/hard\libc-musl.a(strtol.o)
 .xc_stack_usage
                0x00000000       0x96 c:/program files/microchip/xc32/v4.00/bin/bin/../../lib/gcc/pic32c/8.3.1/../../../../pic32c/lib/thumb/v7e-m+fp/hard\libc-musl.a(strtol.o)
 .text.strtox   0x00000000       0x54 c:/program files/microchip/xc32/v4.00/bin/bin/../../lib/gcc/pic32c/8.3.1/../../../../pic32c/lib/thumb/v7e-m+fp/hard\libc-musl.a(strtol.o)
 .text.strtoull
                0x00000000       0x16 c:/program files/microchip/xc32/v4.00/bin/bin/../../lib/gcc/pic32c/8.3.1/../../../../pic32c/lib/thumb/v7e-m+fp/hard\libc-musl.a(strtol.o)
 .text.strtoll  0x00000000       0x14 c:/program files/microchip/xc32/v4.00/bin/bin/../../lib/gcc/pic32c/8.3.1/../../../../pic32c/lib/thumb/v7e-m+fp/hard\libc-musl.a(strtol.o)
 .text.strtoul  0x00000000       0x14 c:/program files/microchip/xc32/v4.00/bin/bin/../../lib/gcc/pic32c/8.3.1/../../../../pic32c/lib/thumb/v7e-m+fp/hard\libc-musl.a(strtol.o)
 .text.strtol   0x00000000       0x14 c:/program files/microchip/xc32/v4.00/bin/bin/../../lib/gcc/pic32c/8.3.1/../../../../pic32c/lib/thumb/v7e-m+fp/hard\libc-musl.a(strtol.o)
 .text.strtoimax
                0x00000000        0x4 c:/program files/microchip/xc32/v4.00/bin/bin/../../lib/gcc/pic32c/8.3.1/../../../../pic32c/lib/thumb/v7e-m+fp/hard\libc-musl.a(strtol.o)
 .text.strtoumax
                0x00000000        0x4 c:/program files/microchip/xc32/v4.00/bin/bin/../../lib/gcc/pic32c/8.3.1/../../../../pic32c/lib/thumb/v7e-m+fp/hard\libc-musl.a(strtol.o)
 .xc_stack_usage.hdr
                0x00000000        0xe c:/program files/microchip/xc32/v4.00/bin/bin/../../lib/gcc/pic32c/8.3.1/../../../../pic32c/lib/thumb/v7e-m+fp/hard\libc-musl.a(strtol.o)
 .debug_info    0x00000000      0xc6d c:/program files/microchip/xc32/v4.00/bin/bin/../../lib/gcc/pic32c/8.3.1/../../../../pic32c/lib/thumb/v7e-m+fp/hard\libc-musl.a(strtol.o)
 .debug_abbrev  0x00000000      0x1da c:/program files/microchip/xc32/v4.00/bin/bin/../../lib/gcc/pic32c/8.3.1/../../../../pic32c/lib/thumb/v7e-m+fp/hard\libc-musl.a(strtol.o)
 .debug_loc     0x00000000      0x440 c:/program files/microchip/xc32/v4.00/bin/bin/../../lib/gcc/pic32c/8.3.1/../../../../pic32c/lib/thumb/v7e-m+fp/hard\libc-musl.a(strtol.o)
 .debug_aranges
                0x00000000       0x50 c:/program files/microchip/xc32/v4.00/bin/bin/../../lib/gcc/pic32c/8.3.1/../../../../pic32c/lib/thumb/v7e-m+fp/hard\libc-musl.a(strtol.o)
 .debug_ranges  0x00000000       0x40 c:/program files/microchip/xc32/v4.00/bin/bin/../../lib/gcc/pic32c/8.3.1/../../../../pic32c/lib/thumb/v7e-m+fp/hard\libc-musl.a(strtol.o)
 .debug_line    0x00000000      0x2fb c:/program files/microchip/xc32/v4.00/bin/bin/../../lib/gcc/pic32c/8.3.1/../../../../pic32c/lib/thumb/v7e-m+fp/hard\libc-musl.a(strtol.o)
 .debug_str     0x00000000        0xf c:/program files/microchip/xc32/v4.00/bin/bin/../../lib/gcc/pic32c/8.3.1/../../../../pic32c/lib/thumb/v7e-m+fp/hard\libc-musl.a(strtol.o)
 .comment       0x00000000       0x54 c:/program files/microchip/xc32/v4.00/bin/bin/../../lib/gcc/pic32c/8.3.1/../../../../pic32c/lib/thumb/v7e-m+fp/hard\libc-musl.a(strtol.o)
 .note.GNU-stack
                0x00000000        0x0 c:/program files/microchip/xc32/v4.00/bin/bin/../../lib/gcc/pic32c/8.3.1/../../../../pic32c/lib/thumb/v7e-m+fp/hard\libc-musl.a(strtol.o)
 .debug_frame   0x00000000       0xc4 c:/program files/microchip/xc32/v4.00/bin/bin/../../lib/gcc/pic32c/8.3.1/../../../../pic32c/lib/thumb/v7e-m+fp/hard\libc-musl.a(strtol.o)
 .ARM.attributes
                0x00000000       0x36 c:/program files/microchip/xc32/v4.00/bin/bin/../../lib/gcc/pic32c/8.3.1/../../../../pic32c/lib/thumb/v7e-m+fp/hard\libc-musl.a(strtol.o)
 .text          0x00000000        0x0 c:/program files/microchip/xc32/v4.00/bin/bin/../../lib/gcc/pic32c/8.3.1/../../../../pic32c/lib/thumb/v7e-m+fp/hard\libc-musl.a(memcmp.o)
 .data          0x00000000        0x0 c:/program files/microchip/xc32/v4.00/bin/bin/../../lib/gcc/pic32c/8.3.1/../../../../pic32c/lib/thumb/v7e-m+fp/hard\libc-musl.a(memcmp.o)
 .bss           0x00000000        0x0 c:/program files/microchip/xc32/v4.00/bin/bin/../../lib/gcc/pic32c/8.3.1/../../../../pic32c/lib/thumb/v7e-m+fp/hard\libc-musl.a(memcmp.o)
 .xc_stack_usage
                0x00000000       0x14 c:/program files/microchip/xc32/v4.00/bin/bin/../../lib/gcc/pic32c/8.3.1/../../../../pic32c/lib/thumb/v7e-m+fp/hard\libc-musl.a(memcmp.o)
 .xc_stack_usage.hdr
                0x00000000        0xe c:/program files/microchip/xc32/v4.00/bin/bin/../../lib/gcc/pic32c/8.3.1/../../../../pic32c/lib/thumb/v7e-m+fp/hard\libc-musl.a(memcmp.o)
 .text          0x00000000        0x0 c:/program files/microchip/xc32/v4.00/bin/bin/../../lib/gcc/pic32c/8.3.1/../../../../pic32c/lib/thumb/v7e-m+fp/hard\libc-musl.a(memcpy.o)
 .data          0x00000000        0x0 c:/program files/microchip/xc32/v4.00/bin/bin/../../lib/gcc/pic32c/8.3.1/../../../../pic32c/lib/thumb/v7e-m+fp/hard\libc-musl.a(memcpy.o)
 .bss           0x00000000        0x0 c:/program files/microchip/xc32/v4.00/bin/bin/../../lib/gcc/pic32c/8.3.1/../../../../pic32c/lib/thumb/v7e-m+fp/hard\libc-musl.a(memcpy.o)
 .xc_stack_usage
                0x00000000       0x14 c:/program files/microchip/xc32/v4.00/bin/bin/../../lib/gcc/pic32c/8.3.1/../../../../pic32c/lib/thumb/v7e-m+fp/hard\libc-musl.a(memcpy.o)
 .xc_stack_usage.hdr
                0x00000000        0xe c:/program files/microchip/xc32/v4.00/bin/bin/../../lib/gcc/pic32c/8.3.1/../../../../pic32c/lib/thumb/v7e-m+fp/hard\libc-musl.a(memcpy.o)
 .text          0x00000000        0x0 c:/program files/microchip/xc32/v4.00/bin/bin/../../lib/gcc/pic32c/8.3.1/../../../../pic32c/lib/thumb/v7e-m+fp/hard\libc-musl.a(memmove.o)
 .data          0x00000000        0x0 c:/program files/microchip/xc32/v4.00/bin/bin/../../lib/gcc/pic32c/8.3.1/../../../../pic32c/lib/thumb/v7e-m+fp/hard\libc-musl.a(memmove.o)
 .bss           0x00000000        0x0 c:/program files/microchip/xc32/v4.00/bin/bin/../../lib/gcc/pic32c/8.3.1/../../../../pic32c/lib/thumb/v7e-m+fp/hard\libc-musl.a(memmove.o)
 .xc_stack_usage
                0x00000000       0x15 c:/program files/microchip/xc32/v4.00/bin/bin/../../lib/gcc/pic32c/8.3.1/../../../../pic32c/lib/thumb/v7e-m+fp/hard\libc-musl.a(memmove.o)
 .text.memmove  0x00000000       0x34 c:/program files/microchip/xc32/v4.00/bin/bin/../../lib/gcc/pic32c/8.3.1/../../../../pic32c/lib/thumb/v7e-m+fp/hard\libc-musl.a(memmove.o)
 .xc_stack_usage.hdr
                0x00000000        0xe c:/program files/microchip/xc32/v4.00/bin/bin/../../lib/gcc/pic32c/8.3.1/../../../../pic32c/lib/thumb/v7e-m+fp/hard\libc-musl.a(memmove.o)
 .debug_info    0x00000000      0x320 c:/program files/microchip/xc32/v4.00/bin/bin/../../lib/gcc/pic32c/8.3.1/../../../../pic32c/lib/thumb/v7e-m+fp/hard\libc-musl.a(memmove.o)
 .debug_abbrev  0x00000000       0xa3 c:/program files/microchip/xc32/v4.00/bin/bin/../../lib/gcc/pic32c/8.3.1/../../../../pic32c/lib/thumb/v7e-m+fp/hard\libc-musl.a(memmove.o)
 .debug_loc     0x00000000      0x1af c:/program files/microchip/xc32/v4.00/bin/bin/../../lib/gcc/pic32c/8.3.1/../../../../pic32c/lib/thumb/v7e-m+fp/hard\libc-musl.a(memmove.o)
 .debug_aranges
                0x00000000       0x20 c:/program files/microchip/xc32/v4.00/bin/bin/../../lib/gcc/pic32c/8.3.1/../../../../pic32c/lib/thumb/v7e-m+fp/hard\libc-musl.a(memmove.o)
 .debug_ranges  0x00000000       0x10 c:/program files/microchip/xc32/v4.00/bin/bin/../../lib/gcc/pic32c/8.3.1/../../../../pic32c/lib/thumb/v7e-m+fp/hard\libc-musl.a(memmove.o)
 .debug_line    0x00000000      0x11f c:/program files/microchip/xc32/v4.00/bin/bin/../../lib/gcc/pic32c/8.3.1/../../../../pic32c/lib/thumb/v7e-m+fp/hard\libc-musl.a(memmove.o)
 .debug_str     0x00000000        0x0 c:/program files/microchip/xc32/v4.00/bin/bin/../../lib/gcc/pic32c/8.3.1/../../../../pic32c/lib/thumb/v7e-m+fp/hard\libc-musl.a(memmove.o)
 .comment       0x00000000       0x54 c:/program files/microchip/xc32/v4.00/bin/bin/../../lib/gcc/pic32c/8.3.1/../../../../pic32c/lib/thumb/v7e-m+fp/hard\libc-musl.a(memmove.o)
 .note.GNU-stack
                0x00000000        0x0 c:/program files/microchip/xc32/v4.00/bin/bin/../../lib/gcc/pic32c/8.3.1/../../../../pic32c/lib/thumb/v7e-m+fp/hard\libc-musl.a(memmove.o)
 .debug_frame   0x00000000       0x28 c:/program files/microchip/xc32/v4.00/bin/bin/../../lib/gcc/pic32c/8.3.1/../../../../pic32c/lib/thumb/v7e-m+fp/hard\libc-musl.a(memmove.o)
 .ARM.attributes
                0x00000000       0x36 c:/program files/microchip/xc32/v4.00/bin/bin/../../lib/gcc/pic32c/8.3.1/../../../../pic32c/lib/thumb/v7e-m+fp/hard\libc-musl.a(memmove.o)
 .text          0x00000000        0x0 c:/program files/microchip/xc32/v4.00/bin/bin/../../lib/gcc/pic32c/8.3.1/../../../../pic32c/lib/thumb/v7e-m+fp/hard\libc-musl.a(memset.o)
 .data          0x00000000        0x0 c:/program files/microchip/xc32/v4.00/bin/bin/../../lib/gcc/pic32c/8.3.1/../../../../pic32c/lib/thumb/v7e-m+fp/hard\libc-musl.a(memset.o)
 .bss           0x00000000        0x0 c:/program files/microchip/xc32/v4.00/bin/bin/../../lib/gcc/pic32c/8.3.1/../../../../pic32c/lib/thumb/v7e-m+fp/hard\libc-musl.a(memset.o)
 .xc_stack_usage
                0x00000000       0x14 c:/program files/microchip/xc32/v4.00/bin/bin/../../lib/gcc/pic32c/8.3.1/../../../../pic32c/lib/thumb/v7e-m+fp/hard\libc-musl.a(memset.o)
 .xc_stack_usage.hdr
                0x00000000        0xe c:/program files/microchip/xc32/v4.00/bin/bin/../../lib/gcc/pic32c/8.3.1/../../../../pic32c/lib/thumb/v7e-m+fp/hard\libc-musl.a(memset.o)
 .text          0x00000000        0x0 c:/program files/microchip/xc32/v4.00/bin/bin/../../lib/gcc/pic32c/8.3.1/../../../../pic32c/lib/thumb/v7e-m+fp/hard\libc-musl.a(strlen.o)
 .data          0x00000000        0x0 c:/program files/microchip/xc32/v4.00/bin/bin/../../lib/gcc/pic32c/8.3.1/../../../../pic32c/lib/thumb/v7e-m+fp/hard\libc-musl.a(strlen.o)
 .bss           0x00000000        0x0 c:/program files/microchip/xc32/v4.00/bin/bin/../../lib/gcc/pic32c/8.3.1/../../../../pic32c/lib/thumb/v7e-m+fp/hard\libc-musl.a(strlen.o)
 .xc_stack_usage
                0x00000000       0x14 c:/program files/microchip/xc32/v4.00/bin/bin/../../lib/gcc/pic32c/8.3.1/../../../../pic32c/lib/thumb/v7e-m+fp/hard\libc-musl.a(strlen.o)
 .xc_stack_usage.hdr
                0x00000000        0xe c:/program files/microchip/xc32/v4.00/bin/bin/../../lib/gcc/pic32c/8.3.1/../../../../pic32c/lib/thumb/v7e-m+fp/hard\libc-musl.a(strlen.o)
 .text          0x00000000        0x0 c:/program files/microchip/xc32/v4.00/bin/bin/../../lib/gcc/pic32c/8.3.1/../../../../pic32c/lib/thumb/v7e-m+fp/hard\libc-musl.a(strstr.o)
 .data          0x00000000        0x0 c:/program files/microchip/xc32/v4.00/bin/bin/../../lib/gcc/pic32c/8.3.1/../../../../pic32c/lib/thumb/v7e-m+fp/hard\libc-musl.a(strstr.o)
 .bss           0x00000000        0x0 c:/program files/microchip/xc32/v4.00/bin/bin/../../lib/gcc/pic32c/8.3.1/../../../../pic32c/lib/thumb/v7e-m+fp/hard\libc-musl.a(strstr.o)
 .xc_stack_usage
                0x00000000       0x14 c:/program files/microchip/xc32/v4.00/bin/bin/../../lib/gcc/pic32c/8.3.1/../../../../pic32c/lib/thumb/v7e-m+fp/hard\libc-musl.a(strstr.o)
 .xc_stack_usage.hdr
                0x00000000        0xe c:/program files/microchip/xc32/v4.00/bin/bin/../../lib/gcc/pic32c/8.3.1/../../../../pic32c/lib/thumb/v7e-m+fp/hard\libc-musl.a(strstr.o)
 .text          0x00000000        0x0 c:/program files/microchip/xc32/v4.00/bin/bin/../../lib/gcc/pic32c/8.3.1/../../../../pic32c/lib/thumb/v7e-m+fp/hard\libc-musl.a(strchr.o)
 .data          0x00000000        0x0 c:/program files/microchip/xc32/v4.00/bin/bin/../../lib/gcc/pic32c/8.3.1/../../../../pic32c/lib/thumb/v7e-m+fp/hard\libc-musl.a(strchr.o)
 .bss           0x00000000        0x0 c:/program files/microchip/xc32/v4.00/bin/bin/../../lib/gcc/pic32c/8.3.1/../../../../pic32c/lib/thumb/v7e-m+fp/hard\libc-musl.a(strchr.o)
 .xc_stack_usage
                0x00000000       0x14 c:/program files/microchip/xc32/v4.00/bin/bin/../../lib/gcc/pic32c/8.3.1/../../../../pic32c/lib/thumb/v7e-m+fp/hard\libc-musl.a(strchr.o)
 .xc_stack_usage.hdr
                0x00000000        0xe c:/program files/microchip/xc32/v4.00/bin/bin/../../lib/gcc/pic32c/8.3.1/../../../../pic32c/lib/thumb/v7e-m+fp/hard\libc-musl.a(strchr.o)
 .text          0x00000000        0x0 c:/program files/microchip/xc32/v4.00/bin/bin/../../lib/gcc/pic32c/8.3.1/../../../../pic32c/lib/thumb/v7e-m+fp/hard\libc-musl.a(strchrnul.o)
 .data          0x00000000        0x0 c:/program files/microchip/xc32/v4.00/bin/bin/../../lib/gcc/pic32c/8.3.1/../../../../pic32c/lib/thumb/v7e-m+fp/hard\libc-musl.a(strchrnul.o)
 .bss           0x00000000        0x0 c:/program files/microchip/xc32/v4.00/bin/bin/../../lib/gcc/pic32c/8.3.1/../../../../pic32c/lib/thumb/v7e-m+fp/hard\libc-musl.a(strchrnul.o)
 .xc_stack_usage
                0x00000000       0x19 c:/program files/microchip/xc32/v4.00/bin/bin/../../lib/gcc/pic32c/8.3.1/../../../../pic32c/lib/thumb/v7e-m+fp/hard\libc-musl.a(strchrnul.o)
 .xc_stack_usage.hdr
                0x00000000        0xe c:/program files/microchip/xc32/v4.00/bin/bin/../../lib/gcc/pic32c/8.3.1/../../../../pic32c/lib/thumb/v7e-m+fp/hard\libc-musl.a(strchrnul.o)
 .text          0x00000000        0x0 c:/program files/microchip/xc32/v4.00/bin/bin/../../lib/gcc/pic32c/8.3.1/../../../../pic32c/lib/thumb/v7e-m+fp/hard\libc-musl.a(strcmp.o)
 .data          0x00000000        0x0 c:/program files/microchip/xc32/v4.00/bin/bin/../../lib/gcc/pic32c/8.3.1/../../../../pic32c/lib/thumb/v7e-m+fp/hard\libc-musl.a(strcmp.o)
 .bss           0x00000000        0x0 c:/program files/microchip/xc32/v4.00/bin/bin/../../lib/gcc/pic32c/8.3.1/../../../../pic32c/lib/thumb/v7e-m+fp/hard\libc-musl.a(strcmp.o)
 .xc_stack_usage
                0x00000000       0x14 c:/program files/microchip/xc32/v4.00/bin/bin/../../lib/gcc/pic32c/8.3.1/../../../../pic32c/lib/thumb/v7e-m+fp/hard\libc-musl.a(strcmp.o)
 .xc_stack_usage.hdr
                0x00000000        0xe c:/program files/microchip/xc32/v4.00/bin/bin/../../lib/gcc/pic32c/8.3.1/../../../../pic32c/lib/thumb/v7e-m+fp/hard\libc-musl.a(strcmp.o)
 .text          0x00000000        0x0 c:/program files/microchip/xc32/v4.00/bin/bin/../../lib/gcc/pic32c/8.3.1/../../../../pic32c/lib/thumb/v7e-m+fp/hard\libc-musl.a(strcpy.o)
 .data          0x00000000        0x0 c:/program files/microchip/xc32/v4.00/bin/bin/../../lib/gcc/pic32c/8.3.1/../../../../pic32c/lib/thumb/v7e-m+fp/hard\libc-musl.a(strcpy.o)
 .bss           0x00000000        0x0 c:/program files/microchip/xc32/v4.00/bin/bin/../../lib/gcc/pic32c/8.3.1/../../../../pic32c/lib/thumb/v7e-m+fp/hard\libc-musl.a(strcpy.o)
 .xc_stack_usage
                0x00000000       0x14 c:/program files/microchip/xc32/v4.00/bin/bin/../../lib/gcc/pic32c/8.3.1/../../../../pic32c/lib/thumb/v7e-m+fp/hard\libc-musl.a(strcpy.o)
 .xc_stack_usage.hdr
                0x00000000        0xe c:/program files/microchip/xc32/v4.00/bin/bin/../../lib/gcc/pic32c/8.3.1/../../../../pic32c/lib/thumb/v7e-m+fp/hard\libc-musl.a(strcpy.o)
 .text          0x00000000        0x0 c:/program files/microchip/xc32/v4.00/bin/bin/../../lib/gcc/pic32c/8.3.1/../../../../pic32c/lib/thumb/v7e-m+fp/hard\libc-musl.a(strncmp.o)
 .data          0x00000000        0x0 c:/program files/microchip/xc32/v4.00/bin/bin/../../lib/gcc/pic32c/8.3.1/../../../../pic32c/lib/thumb/v7e-m+fp/hard\libc-musl.a(strncmp.o)
 .bss           0x00000000        0x0 c:/program files/microchip/xc32/v4.00/bin/bin/../../lib/gcc/pic32c/8.3.1/../../../../pic32c/lib/thumb/v7e-m+fp/hard\libc-musl.a(strncmp.o)
 .xc_stack_usage
                0x00000000       0x15 c:/program files/microchip/xc32/v4.00/bin/bin/../../lib/gcc/pic32c/8.3.1/../../../../pic32c/lib/thumb/v7e-m+fp/hard\libc-musl.a(strncmp.o)
 .xc_stack_usage.hdr
                0x00000000        0xe c:/program files/microchip/xc32/v4.00/bin/bin/../../lib/gcc/pic32c/8.3.1/../../../../pic32c/lib/thumb/v7e-m+fp/hard\libc-musl.a(strncmp.o)
 .text          0x00000000        0x0 c:/program files/microchip/xc32/v4.00/bin/bin/../../lib/gcc/pic32c/8.3.1/../../../../pic32c/lib/thumb/v7e-m+fp/hard\libc-musl.a(strncpy.o)
 .data          0x00000000        0x0 c:/program files/microchip/xc32/v4.00/bin/bin/../../lib/gcc/pic32c/8.3.1/../../../../pic32c/lib/thumb/v7e-m+fp/hard\libc-musl.a(strncpy.o)
 .bss           0x00000000        0x0 c:/program files/microchip/xc32/v4.00/bin/bin/../../lib/gcc/pic32c/8.3.1/../../../../pic32c/lib/thumb/v7e-m+fp/hard\libc-musl.a(strncpy.o)
 .xc_stack_usage
                0x00000000       0x15 c:/program files/microchip/xc32/v4.00/bin/bin/../../lib/gcc/pic32c/8.3.1/../../../../pic32c/lib/thumb/v7e-m+fp/hard\libc-musl.a(strncpy.o)
 .xc_stack_usage.hdr
                0x00000000        0xe c:/program files/microchip/xc32/v4.00/bin/bin/../../lib/gcc/pic32c/8.3.1/../../../../pic32c/lib/thumb/v7e-m+fp/hard\libc-musl.a(strncpy.o)
 .text          0x00000000        0x0 c:/program files/microchip/xc32/v4.00/bin/bin/../../lib/gcc/pic32c/8.3.1/../../../../pic32c/lib/thumb/v7e-m+fp/hard\libc-musl.a(strtok.o)
 .data          0x00000000        0x0 c:/program files/microchip/xc32/v4.00/bin/bin/../../lib/gcc/pic32c/8.3.1/../../../../pic32c/lib/thumb/v7e-m+fp/hard\libc-musl.a(strtok.o)
 .xc_stack_usage
                0x00000000       0x14 c:/program files/microchip/xc32/v4.00/bin/bin/../../lib/gcc/pic32c/8.3.1/../../../../pic32c/lib/thumb/v7e-m+fp/hard\libc-musl.a(strtok.o)
 .xc_stack_usage.hdr
                0x00000000        0xe c:/program files/microchip/xc32/v4.00/bin/bin/../../lib/gcc/pic32c/8.3.1/../../../../pic32c/lib/thumb/v7e-m+fp/hard\libc-musl.a(strtok.o)
 .text          0x00000000        0x0 c:/program files/microchip/xc32/v4.00/bin/bin/../../lib/gcc/pic32c/8.3.1/../../../../pic32c/lib/thumb/v7e-m+fp/hard\libc-musl.a(gmtime.o)
 .data          0x00000000        0x0 c:/program files/microchip/xc32/v4.00/bin/bin/../../lib/gcc/pic32c/8.3.1/../../../../pic32c/lib/thumb/v7e-m+fp/hard\libc-musl.a(gmtime.o)
 .bss           0x00000000       0x2c c:/program files/microchip/xc32/v4.00/bin/bin/../../lib/gcc/pic32c/8.3.1/../../../../pic32c/lib/thumb/v7e-m+fp/hard\libc-musl.a(gmtime.o)
 .xc_stack_usage
                0x00000000       0x14 c:/program files/microchip/xc32/v4.00/bin/bin/../../lib/gcc/pic32c/8.3.1/../../../../pic32c/lib/thumb/v7e-m+fp/hard\libc-musl.a(gmtime.o)
 .text.gmtime   0x00000000        0xc c:/program files/microchip/xc32/v4.00/bin/bin/../../lib/gcc/pic32c/8.3.1/../../../../pic32c/lib/thumb/v7e-m+fp/hard\libc-musl.a(gmtime.o)
 .xc_stack_usage.hdr
                0x00000000        0xe c:/program files/microchip/xc32/v4.00/bin/bin/../../lib/gcc/pic32c/8.3.1/../../../../pic32c/lib/thumb/v7e-m+fp/hard\libc-musl.a(gmtime.o)
 .debug_info    0x00000000      0x473 c:/program files/microchip/xc32/v4.00/bin/bin/../../lib/gcc/pic32c/8.3.1/../../../../pic32c/lib/thumb/v7e-m+fp/hard\libc-musl.a(gmtime.o)
 .debug_abbrev  0x00000000       0xf8 c:/program files/microchip/xc32/v4.00/bin/bin/../../lib/gcc/pic32c/8.3.1/../../../../pic32c/lib/thumb/v7e-m+fp/hard\libc-musl.a(gmtime.o)
 .debug_loc     0x00000000       0x25 c:/program files/microchip/xc32/v4.00/bin/bin/../../lib/gcc/pic32c/8.3.1/../../../../pic32c/lib/thumb/v7e-m+fp/hard\libc-musl.a(gmtime.o)
 .debug_aranges
                0x00000000       0x20 c:/program files/microchip/xc32/v4.00/bin/bin/../../lib/gcc/pic32c/8.3.1/../../../../pic32c/lib/thumb/v7e-m+fp/hard\libc-musl.a(gmtime.o)
 .debug_ranges  0x00000000       0x10 c:/program files/microchip/xc32/v4.00/bin/bin/../../lib/gcc/pic32c/8.3.1/../../../../pic32c/lib/thumb/v7e-m+fp/hard\libc-musl.a(gmtime.o)
 .debug_line    0x00000000      0x1b0 c:/program files/microchip/xc32/v4.00/bin/bin/../../lib/gcc/pic32c/8.3.1/../../../../pic32c/lib/thumb/v7e-m+fp/hard\libc-musl.a(gmtime.o)
 .debug_str     0x00000000        0xb c:/program files/microchip/xc32/v4.00/bin/bin/../../lib/gcc/pic32c/8.3.1/../../../../pic32c/lib/thumb/v7e-m+fp/hard\libc-musl.a(gmtime.o)
 .comment       0x00000000       0x54 c:/program files/microchip/xc32/v4.00/bin/bin/../../lib/gcc/pic32c/8.3.1/../../../../pic32c/lib/thumb/v7e-m+fp/hard\libc-musl.a(gmtime.o)
 .note.GNU-stack
                0x00000000        0x0 c:/program files/microchip/xc32/v4.00/bin/bin/../../lib/gcc/pic32c/8.3.1/../../../../pic32c/lib/thumb/v7e-m+fp/hard\libc-musl.a(gmtime.o)
 .debug_frame   0x00000000       0x20 c:/program files/microchip/xc32/v4.00/bin/bin/../../lib/gcc/pic32c/8.3.1/../../../../pic32c/lib/thumb/v7e-m+fp/hard\libc-musl.a(gmtime.o)
 .ARM.attributes
                0x00000000       0x36 c:/program files/microchip/xc32/v4.00/bin/bin/../../lib/gcc/pic32c/8.3.1/../../../../pic32c/lib/thumb/v7e-m+fp/hard\libc-musl.a(gmtime.o)
 .text          0x00000000        0x0 c:/program files/microchip/xc32/v4.00/bin/bin/../../lib/gcc/pic32c/8.3.1/../../../../pic32c/lib/thumb/v7e-m+fp/hard\libc-musl.a(gmtime_r.o)
 .data          0x00000000        0x0 c:/program files/microchip/xc32/v4.00/bin/bin/../../lib/gcc/pic32c/8.3.1/../../../../pic32c/lib/thumb/v7e-m+fp/hard\libc-musl.a(gmtime_r.o)
 .bss           0x00000000        0x0 c:/program files/microchip/xc32/v4.00/bin/bin/../../lib/gcc/pic32c/8.3.1/../../../../pic32c/lib/thumb/v7e-m+fp/hard\libc-musl.a(gmtime_r.o)
 .xc_stack_usage
                0x00000000       0x18 c:/program files/microchip/xc32/v4.00/bin/bin/../../lib/gcc/pic32c/8.3.1/../../../../pic32c/lib/thumb/v7e-m+fp/hard\libc-musl.a(gmtime_r.o)
 .text.__gmtime_r
                0x00000000       0x34 c:/program files/microchip/xc32/v4.00/bin/bin/../../lib/gcc/pic32c/8.3.1/../../../../pic32c/lib/thumb/v7e-m+fp/hard\libc-musl.a(gmtime_r.o)
 .xc_stack_usage.hdr
                0x00000000        0xe c:/program files/microchip/xc32/v4.00/bin/bin/../../lib/gcc/pic32c/8.3.1/../../../../pic32c/lib/thumb/v7e-m+fp/hard\libc-musl.a(gmtime_r.o)
 .debug_info    0x00000000      0x77c c:/program files/microchip/xc32/v4.00/bin/bin/../../lib/gcc/pic32c/8.3.1/../../../../pic32c/lib/thumb/v7e-m+fp/hard\libc-musl.a(gmtime_r.o)
 .debug_abbrev  0x00000000      0x10f c:/program files/microchip/xc32/v4.00/bin/bin/../../lib/gcc/pic32c/8.3.1/../../../../pic32c/lib/thumb/v7e-m+fp/hard\libc-musl.a(gmtime_r.o)
 .debug_loc     0x00000000       0x84 c:/program files/microchip/xc32/v4.00/bin/bin/../../lib/gcc/pic32c/8.3.1/../../../../pic32c/lib/thumb/v7e-m+fp/hard\libc-musl.a(gmtime_r.o)
 .debug_aranges
                0x00000000       0x20 c:/program files/microchip/xc32/v4.00/bin/bin/../../lib/gcc/pic32c/8.3.1/../../../../pic32c/lib/thumb/v7e-m+fp/hard\libc-musl.a(gmtime_r.o)
 .debug_ranges  0x00000000       0x10 c:/program files/microchip/xc32/v4.00/bin/bin/../../lib/gcc/pic32c/8.3.1/../../../../pic32c/lib/thumb/v7e-m+fp/hard\libc-musl.a(gmtime_r.o)
 .debug_line    0x00000000      0x277 c:/program files/microchip/xc32/v4.00/bin/bin/../../lib/gcc/pic32c/8.3.1/../../../../pic32c/lib/thumb/v7e-m+fp/hard\libc-musl.a(gmtime_r.o)
 .debug_str     0x00000000        0xd c:/program files/microchip/xc32/v4.00/bin/bin/../../lib/gcc/pic32c/8.3.1/../../../../pic32c/lib/thumb/v7e-m+fp/hard\libc-musl.a(gmtime_r.o)
 .comment       0x00000000       0x54 c:/program files/microchip/xc32/v4.00/bin/bin/../../lib/gcc/pic32c/8.3.1/../../../../pic32c/lib/thumb/v7e-m+fp/hard\libc-musl.a(gmtime_r.o)
 .note.GNU-stack
                0x00000000        0x0 c:/program files/microchip/xc32/v4.00/bin/bin/../../lib/gcc/pic32c/8.3.1/../../../../pic32c/lib/thumb/v7e-m+fp/hard\libc-musl.a(gmtime_r.o)
 .debug_frame   0x00000000       0x2c c:/program files/microchip/xc32/v4.00/bin/bin/../../lib/gcc/pic32c/8.3.1/../../../../pic32c/lib/thumb/v7e-m+fp/hard\libc-musl.a(gmtime_r.o)
 .ARM.attributes
                0x00000000       0x36 c:/program files/microchip/xc32/v4.00/bin/bin/../../lib/gcc/pic32c/8.3.1/../../../../pic32c/lib/thumb/v7e-m+fp/hard\libc-musl.a(gmtime_r.o)
 .text          0x00000000        0x0 c:/program files/microchip/xc32/v4.00/bin/bin/../../lib/gcc/pic32c/8.3.1/../../../../pic32c/lib/thumb/v7e-m+fp/hard\libc-musl.a(__tz.o)
 .data          0x00000000        0x8 c:/program files/microchip/xc32/v4.00/bin/bin/../../lib/gcc/pic32c/8.3.1/../../../../pic32c/lib/thumb/v7e-m+fp/hard\libc-musl.a(__tz.o)
 .bss           0x00000000       0x50 c:/program files/microchip/xc32/v4.00/bin/bin/../../lib/gcc/pic32c/8.3.1/../../../../pic32c/lib/thumb/v7e-m+fp/hard\libc-musl.a(__tz.o)
 .xc_stack_usage
                0x00000000       0xcf c:/program files/microchip/xc32/v4.00/bin/bin/../../lib/gcc/pic32c/8.3.1/../../../../pic32c/lib/thumb/v7e-m+fp/hard\libc-musl.a(__tz.o)
 .text.getint   0x00000000       0x1e c:/program files/microchip/xc32/v4.00/bin/bin/../../lib/gcc/pic32c/8.3.1/../../../../pic32c/lib/thumb/v7e-m+fp/hard\libc-musl.a(__tz.o)
 .text.getoff   0x00000000       0x60 c:/program files/microchip/xc32/v4.00/bin/bin/../../lib/gcc/pic32c/8.3.1/../../../../pic32c/lib/thumb/v7e-m+fp/hard\libc-musl.a(__tz.o)
 .text.getrule  0x00000000       0x68 c:/program files/microchip/xc32/v4.00/bin/bin/../../lib/gcc/pic32c/8.3.1/../../../../pic32c/lib/thumb/v7e-m+fp/hard\libc-musl.a(__tz.o)
 .text.getname  0x00000000       0x4e c:/program files/microchip/xc32/v4.00/bin/bin/../../lib/gcc/pic32c/8.3.1/../../../../pic32c/lib/thumb/v7e-m+fp/hard\libc-musl.a(__tz.o)
 .text.do_tzset
                0x00000000       0xd0 c:/program files/microchip/xc32/v4.00/bin/bin/../../lib/gcc/pic32c/8.3.1/../../../../pic32c/lib/thumb/v7e-m+fp/hard\libc-musl.a(__tz.o)
 .text.rule_to_secs
                0x00000000       0xe0 c:/program files/microchip/xc32/v4.00/bin/bin/../../lib/gcc/pic32c/8.3.1/../../../../pic32c/lib/thumb/v7e-m+fp/hard\libc-musl.a(__tz.o)
 .text.__secs_to_zone
                0x00000000      0x114 c:/program files/microchip/xc32/v4.00/bin/bin/../../lib/gcc/pic32c/8.3.1/../../../../pic32c/lib/thumb/v7e-m+fp/hard\libc-musl.a(__tz.o)
 .text.__tzset  0x00000000        0x4 c:/program files/microchip/xc32/v4.00/bin/bin/../../lib/gcc/pic32c/8.3.1/../../../../pic32c/lib/thumb/v7e-m+fp/hard\libc-musl.a(__tz.o)
 .text.__tm_to_tzname
                0x00000000        0xc c:/program files/microchip/xc32/v4.00/bin/bin/../../lib/gcc/pic32c/8.3.1/../../../../pic32c/lib/thumb/v7e-m+fp/hard\libc-musl.a(__tz.o)
 .rodata        0x00000000        0x4 c:/program files/microchip/xc32/v4.00/bin/bin/../../lib/gcc/pic32c/8.3.1/../../../../pic32c/lib/thumb/v7e-m+fp/hard\libc-musl.a(__tz.o)
 .xc_stack_usage.hdr
                0x00000000        0xe c:/program files/microchip/xc32/v4.00/bin/bin/../../lib/gcc/pic32c/8.3.1/../../../../pic32c/lib/thumb/v7e-m+fp/hard\libc-musl.a(__tz.o)
 .debug_info    0x00000000      0xf2f c:/program files/microchip/xc32/v4.00/bin/bin/../../lib/gcc/pic32c/8.3.1/../../../../pic32c/lib/thumb/v7e-m+fp/hard\libc-musl.a(__tz.o)
 .debug_abbrev  0x00000000      0x2bf c:/program files/microchip/xc32/v4.00/bin/bin/../../lib/gcc/pic32c/8.3.1/../../../../pic32c/lib/thumb/v7e-m+fp/hard\libc-musl.a(__tz.o)
 .debug_loc     0x00000000      0x6c1 c:/program files/microchip/xc32/v4.00/bin/bin/../../lib/gcc/pic32c/8.3.1/../../../../pic32c/lib/thumb/v7e-m+fp/hard\libc-musl.a(__tz.o)
 .debug_aranges
                0x00000000       0x60 c:/program files/microchip/xc32/v4.00/bin/bin/../../lib/gcc/pic32c/8.3.1/../../../../pic32c/lib/thumb/v7e-m+fp/hard\libc-musl.a(__tz.o)
 .debug_ranges  0x00000000       0x70 c:/program files/microchip/xc32/v4.00/bin/bin/../../lib/gcc/pic32c/8.3.1/../../../../pic32c/lib/thumb/v7e-m+fp/hard\libc-musl.a(__tz.o)
 .debug_line    0x00000000      0x7f5 c:/program files/microchip/xc32/v4.00/bin/bin/../../lib/gcc/pic32c/8.3.1/../../../../pic32c/lib/thumb/v7e-m+fp/hard\libc-musl.a(__tz.o)
 .debug_str     0x00000000       0x1f c:/program files/microchip/xc32/v4.00/bin/bin/../../lib/gcc/pic32c/8.3.1/../../../../pic32c/lib/thumb/v7e-m+fp/hard\libc-musl.a(__tz.o)
 .comment       0x00000000       0x54 c:/program files/microchip/xc32/v4.00/bin/bin/../../lib/gcc/pic32c/8.3.1/../../../../pic32c/lib/thumb/v7e-m+fp/hard\libc-musl.a(__tz.o)
 .note.GNU-stack
                0x00000000        0x0 c:/program files/microchip/xc32/v4.00/bin/bin/../../lib/gcc/pic32c/8.3.1/../../../../pic32c/lib/thumb/v7e-m+fp/hard\libc-musl.a(__tz.o)
 .debug_frame   0x00000000      0x118 c:/program files/microchip/xc32/v4.00/bin/bin/../../lib/gcc/pic32c/8.3.1/../../../../pic32c/lib/thumb/v7e-m+fp/hard\libc-musl.a(__tz.o)
 .ARM.attributes
                0x00000000       0x36 c:/program files/microchip/xc32/v4.00/bin/bin/../../lib/gcc/pic32c/8.3.1/../../../../pic32c/lib/thumb/v7e-m+fp/hard\libc-musl.a(__tz.o)
 .text          0x00000000        0x0 c:/program files/microchip/xc32/v4.00/bin/bin/../../lib/gcc/pic32c/8.3.1/../../../../pic32c/lib/thumb/v7e-m+fp/hard\libc-musl.a(time.o)
 .data          0x00000000        0x0 c:/program files/microchip/xc32/v4.00/bin/bin/../../lib/gcc/pic32c/8.3.1/../../../../pic32c/lib/thumb/v7e-m+fp/hard\libc-musl.a(time.o)
 .bss           0x00000000        0x0 c:/program files/microchip/xc32/v4.00/bin/bin/../../lib/gcc/pic32c/8.3.1/../../../../pic32c/lib/thumb/v7e-m+fp/hard\libc-musl.a(time.o)
 .xc_stack_usage
                0x00000000       0x12 c:/program files/microchip/xc32/v4.00/bin/bin/../../lib/gcc/pic32c/8.3.1/../../../../pic32c/lib/thumb/v7e-m+fp/hard\libc-musl.a(time.o)
 .text.time     0x00000000       0x16 c:/program files/microchip/xc32/v4.00/bin/bin/../../lib/gcc/pic32c/8.3.1/../../../../pic32c/lib/thumb/v7e-m+fp/hard\libc-musl.a(time.o)
 .xc_stack_usage.hdr
                0x00000000        0xe c:/program files/microchip/xc32/v4.00/bin/bin/../../lib/gcc/pic32c/8.3.1/../../../../pic32c/lib/thumb/v7e-m+fp/hard\libc-musl.a(time.o)
 .debug_info    0x00000000      0x67f c:/program files/microchip/xc32/v4.00/bin/bin/../../lib/gcc/pic32c/8.3.1/../../../../pic32c/lib/thumb/v7e-m+fp/hard\libc-musl.a(time.o)
 .debug_abbrev  0x00000000      0x13d c:/program files/microchip/xc32/v4.00/bin/bin/../../lib/gcc/pic32c/8.3.1/../../../../pic32c/lib/thumb/v7e-m+fp/hard\libc-musl.a(time.o)
 .debug_loc     0x00000000       0x4e c:/program files/microchip/xc32/v4.00/bin/bin/../../lib/gcc/pic32c/8.3.1/../../../../pic32c/lib/thumb/v7e-m+fp/hard\libc-musl.a(time.o)
 .debug_aranges
                0x00000000       0x20 c:/program files/microchip/xc32/v4.00/bin/bin/../../lib/gcc/pic32c/8.3.1/../../../../pic32c/lib/thumb/v7e-m+fp/hard\libc-musl.a(time.o)
 .debug_ranges  0x00000000       0x10 c:/program files/microchip/xc32/v4.00/bin/bin/../../lib/gcc/pic32c/8.3.1/../../../../pic32c/lib/thumb/v7e-m+fp/hard\libc-musl.a(time.o)
 .debug_line    0x00000000      0x240 c:/program files/microchip/xc32/v4.00/bin/bin/../../lib/gcc/pic32c/8.3.1/../../../../pic32c/lib/thumb/v7e-m+fp/hard\libc-musl.a(time.o)
 .debug_str     0x00000000       0x10 c:/program files/microchip/xc32/v4.00/bin/bin/../../lib/gcc/pic32c/8.3.1/../../../../pic32c/lib/thumb/v7e-m+fp/hard\libc-musl.a(time.o)
 .comment       0x00000000       0x54 c:/program files/microchip/xc32/v4.00/bin/bin/../../lib/gcc/pic32c/8.3.1/../../../../pic32c/lib/thumb/v7e-m+fp/hard\libc-musl.a(time.o)
 .note.GNU-stack
                0x00000000        0x0 c:/program files/microchip/xc32/v4.00/bin/bin/../../lib/gcc/pic32c/8.3.1/../../../../pic32c/lib/thumb/v7e-m+fp/hard\libc-musl.a(time.o)
 .debug_frame   0x00000000       0x2c c:/program files/microchip/xc32/v4.00/bin/bin/../../lib/gcc/pic32c/8.3.1/../../../../pic32c/lib/thumb/v7e-m+fp/hard\libc-musl.a(time.o)
 .ARM.attributes
                0x00000000       0x36 c:/program files/microchip/xc32/v4.00/bin/bin/../../lib/gcc/pic32c/8.3.1/../../../../pic32c/lib/thumb/v7e-m+fp/hard\libc-musl.a(time.o)
 .text          0x00000000        0x0 c:/program files/microchip/xc32/v4.00/bin/bin/../../lib/gcc/pic32c/8.3.1/../../../../pic32c/lib/thumb/v7e-m+fp/hard\libc-musl.a(__environ.o)
 .data          0x00000000        0x0 c:/program files/microchip/xc32/v4.00/bin/bin/../../lib/gcc/pic32c/8.3.1/../../../../pic32c/lib/thumb/v7e-m+fp/hard\libc-musl.a(__environ.o)
 .xc_stack_usage.hdr
                0x00000000        0xe c:/program files/microchip/xc32/v4.00/bin/bin/../../lib/gcc/pic32c/8.3.1/../../../../pic32c/lib/thumb/v7e-m+fp/hard\libc-musl.a(__environ.o)
 .text          0x00000000        0x0 c:/program files/microchip/xc32/v4.00/bin/bin/../../lib/gcc/pic32c/8.3.1/../../../../pic32c/lib/thumb/v7e-m+fp/hard\libc-musl.a(intscan.o)
 .data          0x00000000        0x0 c:/program files/microchip/xc32/v4.00/bin/bin/../../lib/gcc/pic32c/8.3.1/../../../../pic32c/lib/thumb/v7e-m+fp/hard\libc-musl.a(intscan.o)
 .bss           0x00000000        0x0 c:/program files/microchip/xc32/v4.00/bin/bin/../../lib/gcc/pic32c/8.3.1/../../../../pic32c/lib/thumb/v7e-m+fp/hard\libc-musl.a(intscan.o)
 .xc_stack_usage
                0x00000000       0x17 c:/program files/microchip/xc32/v4.00/bin/bin/../../lib/gcc/pic32c/8.3.1/../../../../pic32c/lib/thumb/v7e-m+fp/hard\libc-musl.a(intscan.o)
 .text.__intscan
                0x00000000      0x408 c:/program files/microchip/xc32/v4.00/bin/bin/../../lib/gcc/pic32c/8.3.1/../../../../pic32c/lib/thumb/v7e-m+fp/hard\libc-musl.a(intscan.o)
 .rodata        0x00000000      0x10a c:/program files/microchip/xc32/v4.00/bin/bin/../../lib/gcc/pic32c/8.3.1/../../../../pic32c/lib/thumb/v7e-m+fp/hard\libc-musl.a(intscan.o)
 .xc_stack_usage.hdr
                0x00000000        0xe c:/program files/microchip/xc32/v4.00/bin/bin/../../lib/gcc/pic32c/8.3.1/../../../../pic32c/lib/thumb/v7e-m+fp/hard\libc-musl.a(intscan.o)
 .debug_info    0x00000000      0xacf c:/program files/microchip/xc32/v4.00/bin/bin/../../lib/gcc/pic32c/8.3.1/../../../../pic32c/lib/thumb/v7e-m+fp/hard\libc-musl.a(intscan.o)
 .debug_abbrev  0x00000000      0x1cb c:/program files/microchip/xc32/v4.00/bin/bin/../../lib/gcc/pic32c/8.3.1/../../../../pic32c/lib/thumb/v7e-m+fp/hard\libc-musl.a(intscan.o)
 .debug_loc     0x00000000      0x5f2 c:/program files/microchip/xc32/v4.00/bin/bin/../../lib/gcc/pic32c/8.3.1/../../../../pic32c/lib/thumb/v7e-m+fp/hard\libc-musl.a(intscan.o)
 .debug_aranges
                0x00000000       0x20 c:/program files/microchip/xc32/v4.00/bin/bin/../../lib/gcc/pic32c/8.3.1/../../../../pic32c/lib/thumb/v7e-m+fp/hard\libc-musl.a(intscan.o)
 .debug_ranges  0x00000000       0x28 c:/program files/microchip/xc32/v4.00/bin/bin/../../lib/gcc/pic32c/8.3.1/../../../../pic32c/lib/thumb/v7e-m+fp/hard\libc-musl.a(intscan.o)
 .debug_line    0x00000000      0x4d1 c:/program files/microchip/xc32/v4.00/bin/bin/../../lib/gcc/pic32c/8.3.1/../../../../pic32c/lib/thumb/v7e-m+fp/hard\libc-musl.a(intscan.o)
 .debug_str     0x00000000        0x9 c:/program files/microchip/xc32/v4.00/bin/bin/../../lib/gcc/pic32c/8.3.1/../../../../pic32c/lib/thumb/v7e-m+fp/hard\libc-musl.a(intscan.o)
 .comment       0x00000000       0x54 c:/program files/microchip/xc32/v4.00/bin/bin/../../lib/gcc/pic32c/8.3.1/../../../../pic32c/lib/thumb/v7e-m+fp/hard\libc-musl.a(intscan.o)
 .note.GNU-stack
                0x00000000        0x0 c:/program files/microchip/xc32/v4.00/bin/bin/../../lib/gcc/pic32c/8.3.1/../../../../pic32c/lib/thumb/v7e-m+fp/hard\libc-musl.a(intscan.o)
 .debug_frame   0x00000000       0x40 c:/program files/microchip/xc32/v4.00/bin/bin/../../lib/gcc/pic32c/8.3.1/../../../../pic32c/lib/thumb/v7e-m+fp/hard\libc-musl.a(intscan.o)
 .ARM.attributes
                0x00000000       0x36 c:/program files/microchip/xc32/v4.00/bin/bin/../../lib/gcc/pic32c/8.3.1/../../../../pic32c/lib/thumb/v7e-m+fp/hard\libc-musl.a(intscan.o)
 .text          0x00000000        0x0 c:/program files/microchip/xc32/v4.00/bin/bin/../../lib/gcc/pic32c/8.3.1/../../../../pic32c/lib/thumb/v7e-m+fp/hard\libc-musl.a(shgetc.o)
 .data          0x00000000        0x0 c:/program files/microchip/xc32/v4.00/bin/bin/../../lib/gcc/pic32c/8.3.1/../../../../pic32c/lib/thumb/v7e-m+fp/hard\libc-musl.a(shgetc.o)
 .bss           0x00000000        0x0 c:/program files/microchip/xc32/v4.00/bin/bin/../../lib/gcc/pic32c/8.3.1/../../../../pic32c/lib/thumb/v7e-m+fp/hard\libc-musl.a(shgetc.o)
 .xc_stack_usage
                0x00000000       0x2b c:/program files/microchip/xc32/v4.00/bin/bin/../../lib/gcc/pic32c/8.3.1/../../../../pic32c/lib/thumb/v7e-m+fp/hard\libc-musl.a(shgetc.o)
 .text.__shlim  0x00000000       0x26 c:/program files/microchip/xc32/v4.00/bin/bin/../../lib/gcc/pic32c/8.3.1/../../../../pic32c/lib/thumb/v7e-m+fp/hard\libc-musl.a(shgetc.o)
 .text.__shgetc
                0x00000000       0x92 c:/program files/microchip/xc32/v4.00/bin/bin/../../lib/gcc/pic32c/8.3.1/../../../../pic32c/lib/thumb/v7e-m+fp/hard\libc-musl.a(shgetc.o)
 .xc_stack_usage.hdr
                0x00000000        0xe c:/program files/microchip/xc32/v4.00/bin/bin/../../lib/gcc/pic32c/8.3.1/../../../../pic32c/lib/thumb/v7e-m+fp/hard\libc-musl.a(shgetc.o)
 .debug_info    0x00000000      0x8d4 c:/program files/microchip/xc32/v4.00/bin/bin/../../lib/gcc/pic32c/8.3.1/../../../../pic32c/lib/thumb/v7e-m+fp/hard\libc-musl.a(shgetc.o)
 .debug_abbrev  0x00000000      0x15d c:/program files/microchip/xc32/v4.00/bin/bin/../../lib/gcc/pic32c/8.3.1/../../../../pic32c/lib/thumb/v7e-m+fp/hard\libc-musl.a(shgetc.o)
 .debug_loc     0x00000000       0x77 c:/program files/microchip/xc32/v4.00/bin/bin/../../lib/gcc/pic32c/8.3.1/../../../../pic32c/lib/thumb/v7e-m+fp/hard\libc-musl.a(shgetc.o)
 .debug_aranges
                0x00000000       0x28 c:/program files/microchip/xc32/v4.00/bin/bin/../../lib/gcc/pic32c/8.3.1/../../../../pic32c/lib/thumb/v7e-m+fp/hard\libc-musl.a(shgetc.o)
 .debug_ranges  0x00000000       0x18 c:/program files/microchip/xc32/v4.00/bin/bin/../../lib/gcc/pic32c/8.3.1/../../../../pic32c/lib/thumb/v7e-m+fp/hard\libc-musl.a(shgetc.o)
 .debug_line    0x00000000      0x217 c:/program files/microchip/xc32/v4.00/bin/bin/../../lib/gcc/pic32c/8.3.1/../../../../pic32c/lib/thumb/v7e-m+fp/hard\libc-musl.a(shgetc.o)
 .debug_str     0x00000000        0x0 c:/program files/microchip/xc32/v4.00/bin/bin/../../lib/gcc/pic32c/8.3.1/../../../../pic32c/lib/thumb/v7e-m+fp/hard\libc-musl.a(shgetc.o)
 .comment       0x00000000       0x54 c:/program files/microchip/xc32/v4.00/bin/bin/../../lib/gcc/pic32c/8.3.1/../../../../pic32c/lib/thumb/v7e-m+fp/hard\libc-musl.a(shgetc.o)
 .note.GNU-stack
                0x00000000        0x0 c:/program files/microchip/xc32/v4.00/bin/bin/../../lib/gcc/pic32c/8.3.1/../../../../pic32c/lib/thumb/v7e-m+fp/hard\libc-musl.a(shgetc.o)
 .debug_frame   0x00000000       0x54 c:/program files/microchip/xc32/v4.00/bin/bin/../../lib/gcc/pic32c/8.3.1/../../../../pic32c/lib/thumb/v7e-m+fp/hard\libc-musl.a(shgetc.o)
 .ARM.attributes
                0x00000000       0x36 c:/program files/microchip/xc32/v4.00/bin/bin/../../lib/gcc/pic32c/8.3.1/../../../../pic32c/lib/thumb/v7e-m+fp/hard\libc-musl.a(shgetc.o)
 .text          0x00000000        0x0 c:/program files/microchip/xc32/v4.00/bin/bin/../../lib/gcc/pic32c/8.3.1/../../../../pic32c/lib/thumb/v7e-m+fp/hard\libc-musl.a(__uflow.o)
 .data          0x00000000        0x0 c:/program files/microchip/xc32/v4.00/bin/bin/../../lib/gcc/pic32c/8.3.1/../../../../pic32c/lib/thumb/v7e-m+fp/hard\libc-musl.a(__uflow.o)
 .bss           0x00000000        0x0 c:/program files/microchip/xc32/v4.00/bin/bin/../../lib/gcc/pic32c/8.3.1/../../../../pic32c/lib/thumb/v7e-m+fp/hard\libc-musl.a(__uflow.o)
 .xc_stack_usage
                0x00000000       0x15 c:/program files/microchip/xc32/v4.00/bin/bin/../../lib/gcc/pic32c/8.3.1/../../../../pic32c/lib/thumb/v7e-m+fp/hard\libc-musl.a(__uflow.o)
 .text.__uflow  0x00000000       0x28 c:/program files/microchip/xc32/v4.00/bin/bin/../../lib/gcc/pic32c/8.3.1/../../../../pic32c/lib/thumb/v7e-m+fp/hard\libc-musl.a(__uflow.o)
 .xc_stack_usage.hdr
                0x00000000        0xe c:/program files/microchip/xc32/v4.00/bin/bin/../../lib/gcc/pic32c/8.3.1/../../../../pic32c/lib/thumb/v7e-m+fp/hard\libc-musl.a(__uflow.o)
 .debug_info    0x00000000      0x8a0 c:/program files/microchip/xc32/v4.00/bin/bin/../../lib/gcc/pic32c/8.3.1/../../../../pic32c/lib/thumb/v7e-m+fp/hard\libc-musl.a(__uflow.o)
 .debug_abbrev  0x00000000      0x138 c:/program files/microchip/xc32/v4.00/bin/bin/../../lib/gcc/pic32c/8.3.1/../../../../pic32c/lib/thumb/v7e-m+fp/hard\libc-musl.a(__uflow.o)
 .debug_loc     0x00000000       0x5a c:/program files/microchip/xc32/v4.00/bin/bin/../../lib/gcc/pic32c/8.3.1/../../../../pic32c/lib/thumb/v7e-m+fp/hard\libc-musl.a(__uflow.o)
 .debug_aranges
                0x00000000       0x20 c:/program files/microchip/xc32/v4.00/bin/bin/../../lib/gcc/pic32c/8.3.1/../../../../pic32c/lib/thumb/v7e-m+fp/hard\libc-musl.a(__uflow.o)
 .debug_ranges  0x00000000       0x10 c:/program files/microchip/xc32/v4.00/bin/bin/../../lib/gcc/pic32c/8.3.1/../../../../pic32c/lib/thumb/v7e-m+fp/hard\libc-musl.a(__uflow.o)
 .debug_line    0x00000000      0x1e1 c:/program files/microchip/xc32/v4.00/bin/bin/../../lib/gcc/pic32c/8.3.1/../../../../pic32c/lib/thumb/v7e-m+fp/hard\libc-musl.a(__uflow.o)
 .debug_str     0x00000000        0x9 c:/program files/microchip/xc32/v4.00/bin/bin/../../lib/gcc/pic32c/8.3.1/../../../../pic32c/lib/thumb/v7e-m+fp/hard\libc-musl.a(__uflow.o)
 .comment       0x00000000       0x54 c:/program files/microchip/xc32/v4.00/bin/bin/../../lib/gcc/pic32c/8.3.1/../../../../pic32c/lib/thumb/v7e-m+fp/hard\libc-musl.a(__uflow.o)
 .note.GNU-stack
                0x00000000        0x0 c:/program files/microchip/xc32/v4.00/bin/bin/../../lib/gcc/pic32c/8.3.1/../../../../pic32c/lib/thumb/v7e-m+fp/hard\libc-musl.a(__uflow.o)
 .debug_frame   0x00000000       0x30 c:/program files/microchip/xc32/v4.00/bin/bin/../../lib/gcc/pic32c/8.3.1/../../../../pic32c/lib/thumb/v7e-m+fp/hard\libc-musl.a(__uflow.o)
 .ARM.attributes
                0x00000000       0x36 c:/program files/microchip/xc32/v4.00/bin/bin/../../lib/gcc/pic32c/8.3.1/../../../../pic32c/lib/thumb/v7e-m+fp/hard\libc-musl.a(__uflow.o)
 .text          0x00000000        0x0 c:/program files/microchip/xc32/v4.00/bin/bin/../../lib/gcc/pic32c/8.3.1/../../../../pic32c/lib/thumb/v7e-m+fp/hard\libc-musl.a(vfprintf.o)
 .data          0x00000000        0x0 c:/program files/microchip/xc32/v4.00/bin/bin/../../lib/gcc/pic32c/8.3.1/../../../../pic32c/lib/thumb/v7e-m+fp/hard\libc-musl.a(vfprintf.o)
 .bss           0x00000000        0x0 c:/program files/microchip/xc32/v4.00/bin/bin/../../lib/gcc/pic32c/8.3.1/../../../../pic32c/lib/thumb/v7e-m+fp/hard\libc-musl.a(vfprintf.o)
 .xc_stack_usage
                0x00000000       0x38 c:/program files/microchip/xc32/v4.00/bin/bin/../../lib/gcc/pic32c/8.3.1/../../../../pic32c/lib/thumb/v7e-m+fp/hard\libc-musl.a(vfprintf.o)
 .xc_stack_usage.hdr
                0x00000000        0xe c:/program files/microchip/xc32/v4.00/bin/bin/../../lib/gcc/pic32c/8.3.1/../../../../pic32c/lib/thumb/v7e-m+fp/hard\libc-musl.a(vfprintf.o)
 .text          0x00000000        0x0 c:/program files/microchip/xc32/v4.00/bin/bin/../../lib/gcc/pic32c/8.3.1/../../../../pic32c/lib/thumb/v7e-m+fp/hard\libc-musl.a(stpcpy.o)
 .data          0x00000000        0x0 c:/program files/microchip/xc32/v4.00/bin/bin/../../lib/gcc/pic32c/8.3.1/../../../../pic32c/lib/thumb/v7e-m+fp/hard\libc-musl.a(stpcpy.o)
 .bss           0x00000000        0x0 c:/program files/microchip/xc32/v4.00/bin/bin/../../lib/gcc/pic32c/8.3.1/../../../../pic32c/lib/thumb/v7e-m+fp/hard\libc-musl.a(stpcpy.o)
 .xc_stack_usage
                0x00000000       0x14 c:/program files/microchip/xc32/v4.00/bin/bin/../../lib/gcc/pic32c/8.3.1/../../../../pic32c/lib/thumb/v7e-m+fp/hard\libc-musl.a(stpcpy.o)
 .xc_stack_usage.hdr
                0x00000000        0xe c:/program files/microchip/xc32/v4.00/bin/bin/../../lib/gcc/pic32c/8.3.1/../../../../pic32c/lib/thumb/v7e-m+fp/hard\libc-musl.a(stpcpy.o)
 .text          0x00000000        0x0 c:/program files/microchip/xc32/v4.00/bin/bin/../../lib/gcc/pic32c/8.3.1/../../../../pic32c/lib/thumb/v7e-m+fp/hard\libc-musl.a(stpncpy.o)
 .data          0x00000000        0x0 c:/program files/microchip/xc32/v4.00/bin/bin/../../lib/gcc/pic32c/8.3.1/../../../../pic32c/lib/thumb/v7e-m+fp/hard\libc-musl.a(stpncpy.o)
 .bss           0x00000000        0x0 c:/program files/microchip/xc32/v4.00/bin/bin/../../lib/gcc/pic32c/8.3.1/../../../../pic32c/lib/thumb/v7e-m+fp/hard\libc-musl.a(stpncpy.o)
 .xc_stack_usage
                0x00000000       0x15 c:/program files/microchip/xc32/v4.00/bin/bin/../../lib/gcc/pic32c/8.3.1/../../../../pic32c/lib/thumb/v7e-m+fp/hard\libc-musl.a(stpncpy.o)
 .xc_stack_usage.hdr
                0x00000000        0xe c:/program files/microchip/xc32/v4.00/bin/bin/../../lib/gcc/pic32c/8.3.1/../../../../pic32c/lib/thumb/v7e-m+fp/hard\libc-musl.a(stpncpy.o)
 .text          0x00000000        0x0 c:/program files/microchip/xc32/v4.00/bin/bin/../../lib/gcc/pic32c/8.3.1/../../../../pic32c/lib/thumb/v7e-m+fp/hard\libc-musl.a(strcspn.o)
 .data          0x00000000        0x0 c:/program files/microchip/xc32/v4.00/bin/bin/../../lib/gcc/pic32c/8.3.1/../../../../pic32c/lib/thumb/v7e-m+fp/hard\libc-musl.a(strcspn.o)
 .bss           0x00000000        0x0 c:/program files/microchip/xc32/v4.00/bin/bin/../../lib/gcc/pic32c/8.3.1/../../../../pic32c/lib/thumb/v7e-m+fp/hard\libc-musl.a(strcspn.o)
 .xc_stack_usage
                0x00000000       0x15 c:/program files/microchip/xc32/v4.00/bin/bin/../../lib/gcc/pic32c/8.3.1/../../../../pic32c/lib/thumb/v7e-m+fp/hard\libc-musl.a(strcspn.o)
 .xc_stack_usage.hdr
                0x00000000        0xe c:/program files/microchip/xc32/v4.00/bin/bin/../../lib/gcc/pic32c/8.3.1/../../../../pic32c/lib/thumb/v7e-m+fp/hard\libc-musl.a(strcspn.o)
 .text          0x00000000        0x0 c:/program files/microchip/xc32/v4.00/bin/bin/../../lib/gcc/pic32c/8.3.1/../../../../pic32c/lib/thumb/v7e-m+fp/hard\libc-musl.a(strspn.o)
 .data          0x00000000        0x0 c:/program files/microchip/xc32/v4.00/bin/bin/../../lib/gcc/pic32c/8.3.1/../../../../pic32c/lib/thumb/v7e-m+fp/hard\libc-musl.a(strspn.o)
 .bss           0x00000000        0x0 c:/program files/microchip/xc32/v4.00/bin/bin/../../lib/gcc/pic32c/8.3.1/../../../../pic32c/lib/thumb/v7e-m+fp/hard\libc-musl.a(strspn.o)
 .xc_stack_usage
                0x00000000       0x14 c:/program files/microchip/xc32/v4.00/bin/bin/../../lib/gcc/pic32c/8.3.1/../../../../pic32c/lib/thumb/v7e-m+fp/hard\libc-musl.a(strspn.o)
 .xc_stack_usage.hdr
                0x00000000        0xe c:/program files/microchip/xc32/v4.00/bin/bin/../../lib/gcc/pic32c/8.3.1/../../../../pic32c/lib/thumb/v7e-m+fp/hard\libc-musl.a(strspn.o)
 .text          0x00000000        0x0 c:/program files/microchip/xc32/v4.00/bin/bin/../../lib/gcc/pic32c/8.3.1/../../../../pic32c/lib/thumb/v7e-m+fp/hard\libc-musl.a(__month_to_secs.o)
 .data          0x00000000        0x0 c:/program files/microchip/xc32/v4.00/bin/bin/../../lib/gcc/pic32c/8.3.1/../../../../pic32c/lib/thumb/v7e-m+fp/hard\libc-musl.a(__month_to_secs.o)
 .bss           0x00000000        0x0 c:/program files/microchip/xc32/v4.00/bin/bin/../../lib/gcc/pic32c/8.3.1/../../../../pic32c/lib/thumb/v7e-m+fp/hard\libc-musl.a(__month_to_secs.o)
 .xc_stack_usage
                0x00000000       0x1d c:/program files/microchip/xc32/v4.00/bin/bin/../../lib/gcc/pic32c/8.3.1/../../../../pic32c/lib/thumb/v7e-m+fp/hard\libc-musl.a(__month_to_secs.o)
 .text.__month_to_secs
                0x00000000       0x1c c:/program files/microchip/xc32/v4.00/bin/bin/../../lib/gcc/pic32c/8.3.1/../../../../pic32c/lib/thumb/v7e-m+fp/hard\libc-musl.a(__month_to_secs.o)
 .rodata        0x00000000       0x30 c:/program files/microchip/xc32/v4.00/bin/bin/../../lib/gcc/pic32c/8.3.1/../../../../pic32c/lib/thumb/v7e-m+fp/hard\libc-musl.a(__month_to_secs.o)
 .xc_stack_usage.hdr
                0x00000000        0xe c:/program files/microchip/xc32/v4.00/bin/bin/../../lib/gcc/pic32c/8.3.1/../../../../pic32c/lib/thumb/v7e-m+fp/hard\libc-musl.a(__month_to_secs.o)
 .debug_info    0x00000000      0x30b c:/program files/microchip/xc32/v4.00/bin/bin/../../lib/gcc/pic32c/8.3.1/../../../../pic32c/lib/thumb/v7e-m+fp/hard\libc-musl.a(__month_to_secs.o)
 .debug_abbrev  0x00000000       0xa2 c:/program files/microchip/xc32/v4.00/bin/bin/../../lib/gcc/pic32c/8.3.1/../../../../pic32c/lib/thumb/v7e-m+fp/hard\libc-musl.a(__month_to_secs.o)
 .debug_loc     0x00000000       0x5d c:/program files/microchip/xc32/v4.00/bin/bin/../../lib/gcc/pic32c/8.3.1/../../../../pic32c/lib/thumb/v7e-m+fp/hard\libc-musl.a(__month_to_secs.o)
 .debug_aranges
                0x00000000       0x20 c:/program files/microchip/xc32/v4.00/bin/bin/../../lib/gcc/pic32c/8.3.1/../../../../pic32c/lib/thumb/v7e-m+fp/hard\libc-musl.a(__month_to_secs.o)
 .debug_ranges  0x00000000       0x10 c:/program files/microchip/xc32/v4.00/bin/bin/../../lib/gcc/pic32c/8.3.1/../../../../pic32c/lib/thumb/v7e-m+fp/hard\libc-musl.a(__month_to_secs.o)
 .debug_line    0x00000000       0xcf c:/program files/microchip/xc32/v4.00/bin/bin/../../lib/gcc/pic32c/8.3.1/../../../../pic32c/lib/thumb/v7e-m+fp/hard\libc-musl.a(__month_to_secs.o)
 .debug_str     0x00000000        0x0 c:/program files/microchip/xc32/v4.00/bin/bin/../../lib/gcc/pic32c/8.3.1/../../../../pic32c/lib/thumb/v7e-m+fp/hard\libc-musl.a(__month_to_secs.o)
 .comment       0x00000000       0x54 c:/program files/microchip/xc32/v4.00/bin/bin/../../lib/gcc/pic32c/8.3.1/../../../../pic32c/lib/thumb/v7e-m+fp/hard\libc-musl.a(__month_to_secs.o)
 .note.GNU-stack
                0x00000000        0x0 c:/program files/microchip/xc32/v4.00/bin/bin/../../lib/gcc/pic32c/8.3.1/../../../../pic32c/lib/thumb/v7e-m+fp/hard\libc-musl.a(__month_to_secs.o)
 .debug_frame   0x00000000       0x20 c:/program files/microchip/xc32/v4.00/bin/bin/../../lib/gcc/pic32c/8.3.1/../../../../pic32c/lib/thumb/v7e-m+fp/hard\libc-musl.a(__month_to_secs.o)
 .ARM.attributes
                0x00000000       0x36 c:/program files/microchip/xc32/v4.00/bin/bin/../../lib/gcc/pic32c/8.3.1/../../../../pic32c/lib/thumb/v7e-m+fp/hard\libc-musl.a(__month_to_secs.o)
 .text          0x00000000        0x0 c:/program files/microchip/xc32/v4.00/bin/bin/../../lib/gcc/pic32c/8.3.1/../../../../pic32c/lib/thumb/v7e-m+fp/hard\libc-musl.a(__secs_to_tm.o)
 .data          0x00000000        0x0 c:/program files/microchip/xc32/v4.00/bin/bin/../../lib/gcc/pic32c/8.3.1/../../../../pic32c/lib/thumb/v7e-m+fp/hard\libc-musl.a(__secs_to_tm.o)
 .bss           0x00000000        0x0 c:/program files/microchip/xc32/v4.00/bin/bin/../../lib/gcc/pic32c/8.3.1/../../../../pic32c/lib/thumb/v7e-m+fp/hard\libc-musl.a(__secs_to_tm.o)
 .xc_stack_usage
                0x00000000       0x1a c:/program files/microchip/xc32/v4.00/bin/bin/../../lib/gcc/pic32c/8.3.1/../../../../pic32c/lib/thumb/v7e-m+fp/hard\libc-musl.a(__secs_to_tm.o)
 .text.__secs_to_tm
                0x00000000      0x1c8 c:/program files/microchip/xc32/v4.00/bin/bin/../../lib/gcc/pic32c/8.3.1/../../../../pic32c/lib/thumb/v7e-m+fp/hard\libc-musl.a(__secs_to_tm.o)
 .rodata        0x00000000        0xc c:/program files/microchip/xc32/v4.00/bin/bin/../../lib/gcc/pic32c/8.3.1/../../../../pic32c/lib/thumb/v7e-m+fp/hard\libc-musl.a(__secs_to_tm.o)
 .xc_stack_usage.hdr
                0x00000000        0xe c:/program files/microchip/xc32/v4.00/bin/bin/../../lib/gcc/pic32c/8.3.1/../../../../pic32c/lib/thumb/v7e-m+fp/hard\libc-musl.a(__secs_to_tm.o)
 .debug_info    0x00000000      0x5b0 c:/program files/microchip/xc32/v4.00/bin/bin/../../lib/gcc/pic32c/8.3.1/../../../../pic32c/lib/thumb/v7e-m+fp/hard\libc-musl.a(__secs_to_tm.o)
 .debug_abbrev  0x00000000       0xcf c:/program files/microchip/xc32/v4.00/bin/bin/../../lib/gcc/pic32c/8.3.1/../../../../pic32c/lib/thumb/v7e-m+fp/hard\libc-musl.a(__secs_to_tm.o)
 .debug_loc     0x00000000      0x301 c:/program files/microchip/xc32/v4.00/bin/bin/../../lib/gcc/pic32c/8.3.1/../../../../pic32c/lib/thumb/v7e-m+fp/hard\libc-musl.a(__secs_to_tm.o)
 .debug_aranges
                0x00000000       0x20 c:/program files/microchip/xc32/v4.00/bin/bin/../../lib/gcc/pic32c/8.3.1/../../../../pic32c/lib/thumb/v7e-m+fp/hard\libc-musl.a(__secs_to_tm.o)
 .debug_ranges  0x00000000       0x10 c:/program files/microchip/xc32/v4.00/bin/bin/../../lib/gcc/pic32c/8.3.1/../../../../pic32c/lib/thumb/v7e-m+fp/hard\libc-musl.a(__secs_to_tm.o)
 .debug_line    0x00000000      0x2f0 c:/program files/microchip/xc32/v4.00/bin/bin/../../lib/gcc/pic32c/8.3.1/../../../../pic32c/lib/thumb/v7e-m+fp/hard\libc-musl.a(__secs_to_tm.o)
 .debug_str     0x00000000        0x0 c:/program files/microchip/xc32/v4.00/bin/bin/../../lib/gcc/pic32c/8.3.1/../../../../pic32c/lib/thumb/v7e-m+fp/hard\libc-musl.a(__secs_to_tm.o)
 .comment       0x00000000       0x54 c:/program files/microchip/xc32/v4.00/bin/bin/../../lib/gcc/pic32c/8.3.1/../../../../pic32c/lib/thumb/v7e-m+fp/hard\libc-musl.a(__secs_to_tm.o)
 .note.GNU-stack
                0x00000000        0x0 c:/program files/microchip/xc32/v4.00/bin/bin/../../lib/gcc/pic32c/8.3.1/../../../../pic32c/lib/thumb/v7e-m+fp/hard\libc-musl.a(__secs_to_tm.o)
 .debug_frame   0x00000000       0x38 c:/program files/microchip/xc32/v4.00/bin/bin/../../lib/gcc/pic32c/8.3.1/../../../../pic32c/lib/thumb/v7e-m+fp/hard\libc-musl.a(__secs_to_tm.o)
 .ARM.attributes
                0x00000000       0x36 c:/program files/microchip/xc32/v4.00/bin/bin/../../lib/gcc/pic32c/8.3.1/../../../../pic32c/lib/thumb/v7e-m+fp/hard\libc-musl.a(__secs_to_tm.o)
 .text          0x00000000        0x0 c:/program files/microchip/xc32/v4.00/bin/bin/../../lib/gcc/pic32c/8.3.1/../../../../pic32c/lib/thumb/v7e-m+fp/hard\libc-musl.a(__year_to_secs.o)
 .data          0x00000000        0x0 c:/program files/microchip/xc32/v4.00/bin/bin/../../lib/gcc/pic32c/8.3.1/../../../../pic32c/lib/thumb/v7e-m+fp/hard\libc-musl.a(__year_to_secs.o)
 .bss           0x00000000        0x0 c:/program files/microchip/xc32/v4.00/bin/bin/../../lib/gcc/pic32c/8.3.1/../../../../pic32c/lib/thumb/v7e-m+fp/hard\libc-musl.a(__year_to_secs.o)
 .xc_stack_usage
                0x00000000       0x1c c:/program files/microchip/xc32/v4.00/bin/bin/../../lib/gcc/pic32c/8.3.1/../../../../pic32c/lib/thumb/v7e-m+fp/hard\libc-musl.a(__year_to_secs.o)
 .text.__year_to_secs
                0x00000000       0xe8 c:/program files/microchip/xc32/v4.00/bin/bin/../../lib/gcc/pic32c/8.3.1/../../../../pic32c/lib/thumb/v7e-m+fp/hard\libc-musl.a(__year_to_secs.o)
 .xc_stack_usage.hdr
                0x00000000        0xe c:/program files/microchip/xc32/v4.00/bin/bin/../../lib/gcc/pic32c/8.3.1/../../../../pic32c/lib/thumb/v7e-m+fp/hard\libc-musl.a(__year_to_secs.o)
 .debug_info    0x00000000      0x360 c:/program files/microchip/xc32/v4.00/bin/bin/../../lib/gcc/pic32c/8.3.1/../../../../pic32c/lib/thumb/v7e-m+fp/hard\libc-musl.a(__year_to_secs.o)
 .debug_abbrev  0x00000000       0x77 c:/program files/microchip/xc32/v4.00/bin/bin/../../lib/gcc/pic32c/8.3.1/../../../../pic32c/lib/thumb/v7e-m+fp/hard\libc-musl.a(__year_to_secs.o)
 .debug_loc     0x00000000      0x261 c:/program files/microchip/xc32/v4.00/bin/bin/../../lib/gcc/pic32c/8.3.1/../../../../pic32c/lib/thumb/v7e-m+fp/hard\libc-musl.a(__year_to_secs.o)
 .debug_aranges
                0x00000000       0x20 c:/program files/microchip/xc32/v4.00/bin/bin/../../lib/gcc/pic32c/8.3.1/../../../../pic32c/lib/thumb/v7e-m+fp/hard\libc-musl.a(__year_to_secs.o)
 .debug_ranges  0x00000000       0x28 c:/program files/microchip/xc32/v4.00/bin/bin/../../lib/gcc/pic32c/8.3.1/../../../../pic32c/lib/thumb/v7e-m+fp/hard\libc-musl.a(__year_to_secs.o)
 .debug_line    0x00000000      0x1f4 c:/program files/microchip/xc32/v4.00/bin/bin/../../lib/gcc/pic32c/8.3.1/../../../../pic32c/lib/thumb/v7e-m+fp/hard\libc-musl.a(__year_to_secs.o)
 .debug_str     0x00000000        0x0 c:/program files/microchip/xc32/v4.00/bin/bin/../../lib/gcc/pic32c/8.3.1/../../../../pic32c/lib/thumb/v7e-m+fp/hard\libc-musl.a(__year_to_secs.o)
 .comment       0x00000000       0x54 c:/program files/microchip/xc32/v4.00/bin/bin/../../lib/gcc/pic32c/8.3.1/../../../../pic32c/lib/thumb/v7e-m+fp/hard\libc-musl.a(__year_to_secs.o)
 .note.GNU-stack
                0x00000000        0x0 c:/program files/microchip/xc32/v4.00/bin/bin/../../lib/gcc/pic32c/8.3.1/../../../../pic32c/lib/thumb/v7e-m+fp/hard\libc-musl.a(__year_to_secs.o)
 .debug_frame   0x00000000       0x3c c:/program files/microchip/xc32/v4.00/bin/bin/../../lib/gcc/pic32c/8.3.1/../../../../pic32c/lib/thumb/v7e-m+fp/hard\libc-musl.a(__year_to_secs.o)
 .ARM.attributes
                0x00000000       0x36 c:/program files/microchip/xc32/v4.00/bin/bin/../../lib/gcc/pic32c/8.3.1/../../../../pic32c/lib/thumb/v7e-m+fp/hard\libc-musl.a(__year_to_secs.o)
 .text          0x00000000        0x0 c:/program files/microchip/xc32/v4.00/bin/bin/../../lib/gcc/pic32c/8.3.1/../../../../pic32c/lib/thumb/v7e-m+fp/hard\libc-musl.a(clock_gettime.o)
 .data          0x00000000        0x0 c:/program files/microchip/xc32/v4.00/bin/bin/../../lib/gcc/pic32c/8.3.1/../../../../pic32c/lib/thumb/v7e-m+fp/hard\libc-musl.a(clock_gettime.o)
 .bss           0x00000000        0x0 c:/program files/microchip/xc32/v4.00/bin/bin/../../lib/gcc/pic32c/8.3.1/../../../../pic32c/lib/thumb/v7e-m+fp/hard\libc-musl.a(clock_gettime.o)
 .xc_stack_usage
                0x00000000       0x1d c:/program files/microchip/xc32/v4.00/bin/bin/../../lib/gcc/pic32c/8.3.1/../../../../pic32c/lib/thumb/v7e-m+fp/hard\libc-musl.a(clock_gettime.o)
 .text.__clock_gettime
                0x00000000       0x2c c:/program files/microchip/xc32/v4.00/bin/bin/../../lib/gcc/pic32c/8.3.1/../../../../pic32c/lib/thumb/v7e-m+fp/hard\libc-musl.a(clock_gettime.o)
 .xc_stack_usage.hdr
                0x00000000        0xe c:/program files/microchip/xc32/v4.00/bin/bin/../../lib/gcc/pic32c/8.3.1/../../../../pic32c/lib/thumb/v7e-m+fp/hard\libc-musl.a(clock_gettime.o)
 .debug_info    0x00000000      0x81e c:/program files/microchip/xc32/v4.00/bin/bin/../../lib/gcc/pic32c/8.3.1/../../../../pic32c/lib/thumb/v7e-m+fp/hard\libc-musl.a(clock_gettime.o)
 .debug_abbrev  0x00000000      0x1a5 c:/program files/microchip/xc32/v4.00/bin/bin/../../lib/gcc/pic32c/8.3.1/../../../../pic32c/lib/thumb/v7e-m+fp/hard\libc-musl.a(clock_gettime.o)
 .debug_loc     0x00000000       0xe6 c:/program files/microchip/xc32/v4.00/bin/bin/../../lib/gcc/pic32c/8.3.1/../../../../pic32c/lib/thumb/v7e-m+fp/hard\libc-musl.a(clock_gettime.o)
 .debug_aranges
                0x00000000       0x20 c:/program files/microchip/xc32/v4.00/bin/bin/../../lib/gcc/pic32c/8.3.1/../../../../pic32c/lib/thumb/v7e-m+fp/hard\libc-musl.a(clock_gettime.o)
 .debug_ranges  0x00000000       0x10 c:/program files/microchip/xc32/v4.00/bin/bin/../../lib/gcc/pic32c/8.3.1/../../../../pic32c/lib/thumb/v7e-m+fp/hard\libc-musl.a(clock_gettime.o)
 .debug_line    0x00000000      0x303 c:/program files/microchip/xc32/v4.00/bin/bin/../../lib/gcc/pic32c/8.3.1/../../../../pic32c/lib/thumb/v7e-m+fp/hard\libc-musl.a(clock_gettime.o)
 .debug_str     0x00000000       0x1b c:/program files/microchip/xc32/v4.00/bin/bin/../../lib/gcc/pic32c/8.3.1/../../../../pic32c/lib/thumb/v7e-m+fp/hard\libc-musl.a(clock_gettime.o)
 .comment       0x00000000       0x54 c:/program files/microchip/xc32/v4.00/bin/bin/../../lib/gcc/pic32c/8.3.1/../../../../pic32c/lib/thumb/v7e-m+fp/hard\libc-musl.a(clock_gettime.o)
 .note.GNU-stack
                0x00000000        0x0 c:/program files/microchip/xc32/v4.00/bin/bin/../../lib/gcc/pic32c/8.3.1/../../../../pic32c/lib/thumb/v7e-m+fp/hard\libc-musl.a(clock_gettime.o)
 .debug_frame   0x00000000       0x30 c:/program files/microchip/xc32/v4.00/bin/bin/../../lib/gcc/pic32c/8.3.1/../../../../pic32c/lib/thumb/v7e-m+fp/hard\libc-musl.a(clock_gettime.o)
 .ARM.attributes
                0x00000000       0x36 c:/program files/microchip/xc32/v4.00/bin/bin/../../lib/gcc/pic32c/8.3.1/../../../../pic32c/lib/thumb/v7e-m+fp/hard\libc-musl.a(clock_gettime.o)
 .text          0x00000000        0x0 c:/program files/microchip/xc32/v4.00/bin/bin/../../lib/gcc/pic32c/8.3.1/../../../../pic32c/lib/thumb/v7e-m+fp/hard\libc-musl.a(gettimeofday.o)
 .data          0x00000000        0x0 c:/program files/microchip/xc32/v4.00/bin/bin/../../lib/gcc/pic32c/8.3.1/../../../../pic32c/lib/thumb/v7e-m+fp/hard\libc-musl.a(gettimeofday.o)
 .bss           0x00000000        0x0 c:/program files/microchip/xc32/v4.00/bin/bin/../../lib/gcc/pic32c/8.3.1/../../../../pic32c/lib/thumb/v7e-m+fp/hard\libc-musl.a(gettimeofday.o)
 .xc_stack_usage
                0x00000000       0x1c c:/program files/microchip/xc32/v4.00/bin/bin/../../lib/gcc/pic32c/8.3.1/../../../../pic32c/lib/thumb/v7e-m+fp/hard\libc-musl.a(gettimeofday.o)
 .text.__gettimeofday
                0x00000000        0x6 c:/program files/microchip/xc32/v4.00/bin/bin/../../lib/gcc/pic32c/8.3.1/../../../../pic32c/lib/thumb/v7e-m+fp/hard\libc-musl.a(gettimeofday.o)
 .xc_stack_usage.hdr
                0x00000000        0xe c:/program files/microchip/xc32/v4.00/bin/bin/../../lib/gcc/pic32c/8.3.1/../../../../pic32c/lib/thumb/v7e-m+fp/hard\libc-musl.a(gettimeofday.o)
 .debug_info    0x00000000      0x684 c:/program files/microchip/xc32/v4.00/bin/bin/../../lib/gcc/pic32c/8.3.1/../../../../pic32c/lib/thumb/v7e-m+fp/hard\libc-musl.a(gettimeofday.o)
 .debug_abbrev  0x00000000      0x110 c:/program files/microchip/xc32/v4.00/bin/bin/../../lib/gcc/pic32c/8.3.1/../../../../pic32c/lib/thumb/v7e-m+fp/hard\libc-musl.a(gettimeofday.o)
 .debug_loc     0x00000000       0x25 c:/program files/microchip/xc32/v4.00/bin/bin/../../lib/gcc/pic32c/8.3.1/../../../../pic32c/lib/thumb/v7e-m+fp/hard\libc-musl.a(gettimeofday.o)
 .debug_aranges
                0x00000000       0x20 c:/program files/microchip/xc32/v4.00/bin/bin/../../lib/gcc/pic32c/8.3.1/../../../../pic32c/lib/thumb/v7e-m+fp/hard\libc-musl.a(gettimeofday.o)
 .debug_ranges  0x00000000       0x10 c:/program files/microchip/xc32/v4.00/bin/bin/../../lib/gcc/pic32c/8.3.1/../../../../pic32c/lib/thumb/v7e-m+fp/hard\libc-musl.a(gettimeofday.o)
 .debug_line    0x00000000      0x231 c:/program files/microchip/xc32/v4.00/bin/bin/../../lib/gcc/pic32c/8.3.1/../../../../pic32c/lib/thumb/v7e-m+fp/hard\libc-musl.a(gettimeofday.o)
 .debug_str     0x00000000        0x0 c:/program files/microchip/xc32/v4.00/bin/bin/../../lib/gcc/pic32c/8.3.1/../../../../pic32c/lib/thumb/v7e-m+fp/hard\libc-musl.a(gettimeofday.o)
 .comment       0x00000000       0x54 c:/program files/microchip/xc32/v4.00/bin/bin/../../lib/gcc/pic32c/8.3.1/../../../../pic32c/lib/thumb/v7e-m+fp/hard\libc-musl.a(gettimeofday.o)
 .note.GNU-stack
                0x00000000        0x0 c:/program files/microchip/xc32/v4.00/bin/bin/../../lib/gcc/pic32c/8.3.1/../../../../pic32c/lib/thumb/v7e-m+fp/hard\libc-musl.a(gettimeofday.o)
 .debug_frame   0x00000000       0x20 c:/program files/microchip/xc32/v4.00/bin/bin/../../lib/gcc/pic32c/8.3.1/../../../../pic32c/lib/thumb/v7e-m+fp/hard\libc-musl.a(gettimeofday.o)
 .ARM.attributes
                0x00000000       0x36 c:/program files/microchip/xc32/v4.00/bin/bin/../../lib/gcc/pic32c/8.3.1/../../../../pic32c/lib/thumb/v7e-m+fp/hard\libc-musl.a(gettimeofday.o)
 .text          0x00000000        0x0 c:/program files/microchip/xc32/v4.00/bin/bin/../../lib/gcc/pic32c/8.3.1/../../../../pic32c/lib/thumb/v7e-m+fp/hard\libc-musl.a(syscall_ret.o)
 .data          0x00000000        0x0 c:/program files/microchip/xc32/v4.00/bin/bin/../../lib/gcc/pic32c/8.3.1/../../../../pic32c/lib/thumb/v7e-m+fp/hard\libc-musl.a(syscall_ret.o)
 .bss           0x00000000        0x0 c:/program files/microchip/xc32/v4.00/bin/bin/../../lib/gcc/pic32c/8.3.1/../../../../pic32c/lib/thumb/v7e-m+fp/hard\libc-musl.a(syscall_ret.o)
 .xc_stack_usage
                0x00000000       0x1b c:/program files/microchip/xc32/v4.00/bin/bin/../../lib/gcc/pic32c/8.3.1/../../../../pic32c/lib/thumb/v7e-m+fp/hard\libc-musl.a(syscall_ret.o)
 .text.__syscall_ret
                0x00000000       0x18 c:/program files/microchip/xc32/v4.00/bin/bin/../../lib/gcc/pic32c/8.3.1/../../../../pic32c/lib/thumb/v7e-m+fp/hard\libc-musl.a(syscall_ret.o)
 .xc_stack_usage.hdr
                0x00000000        0xe c:/program files/microchip/xc32/v4.00/bin/bin/../../lib/gcc/pic32c/8.3.1/../../../../pic32c/lib/thumb/v7e-m+fp/hard\libc-musl.a(syscall_ret.o)
 .debug_info    0x00000000      0x5d1 c:/program files/microchip/xc32/v4.00/bin/bin/../../lib/gcc/pic32c/8.3.1/../../../../pic32c/lib/thumb/v7e-m+fp/hard\libc-musl.a(syscall_ret.o)
 .debug_abbrev  0x00000000       0xdf c:/program files/microchip/xc32/v4.00/bin/bin/../../lib/gcc/pic32c/8.3.1/../../../../pic32c/lib/thumb/v7e-m+fp/hard\libc-musl.a(syscall_ret.o)
 .debug_loc     0x00000000       0x25 c:/program files/microchip/xc32/v4.00/bin/bin/../../lib/gcc/pic32c/8.3.1/../../../../pic32c/lib/thumb/v7e-m+fp/hard\libc-musl.a(syscall_ret.o)
 .debug_aranges
                0x00000000       0x20 c:/program files/microchip/xc32/v4.00/bin/bin/../../lib/gcc/pic32c/8.3.1/../../../../pic32c/lib/thumb/v7e-m+fp/hard\libc-musl.a(syscall_ret.o)
 .debug_ranges  0x00000000       0x10 c:/program files/microchip/xc32/v4.00/bin/bin/../../lib/gcc/pic32c/8.3.1/../../../../pic32c/lib/thumb/v7e-m+fp/hard\libc-musl.a(syscall_ret.o)
 .debug_line    0x00000000      0x1e7 c:/program files/microchip/xc32/v4.00/bin/bin/../../lib/gcc/pic32c/8.3.1/../../../../pic32c/lib/thumb/v7e-m+fp/hard\libc-musl.a(syscall_ret.o)
 .debug_str     0x00000000        0x0 c:/program files/microchip/xc32/v4.00/bin/bin/../../lib/gcc/pic32c/8.3.1/../../../../pic32c/lib/thumb/v7e-m+fp/hard\libc-musl.a(syscall_ret.o)
 .comment       0x00000000       0x54 c:/program files/microchip/xc32/v4.00/bin/bin/../../lib/gcc/pic32c/8.3.1/../../../../pic32c/lib/thumb/v7e-m+fp/hard\libc-musl.a(syscall_ret.o)
 .note.GNU-stack
                0x00000000        0x0 c:/program files/microchip/xc32/v4.00/bin/bin/../../lib/gcc/pic32c/8.3.1/../../../../pic32c/lib/thumb/v7e-m+fp/hard\libc-musl.a(syscall_ret.o)
 .debug_frame   0x00000000       0x20 c:/program files/microchip/xc32/v4.00/bin/bin/../../lib/gcc/pic32c/8.3.1/../../../../pic32c/lib/thumb/v7e-m+fp/hard\libc-musl.a(syscall_ret.o)
 .ARM.attributes
                0x00000000       0x36 c:/program files/microchip/xc32/v4.00/bin/bin/../../lib/gcc/pic32c/8.3.1/../../../../pic32c/lib/thumb/v7e-m+fp/hard\libc-musl.a(syscall_ret.o)
 .text          0x00000000        0x0 c:/program files/microchip/xc32/v4.00/bin/bin/../../lib/gcc/pic32c/8.3.1/../../../../pic32c/lib/thumb/v7e-m+fp/hard\libc-musl.a(__toread.o)
 .data          0x00000000        0x0 c:/program files/microchip/xc32/v4.00/bin/bin/../../lib/gcc/pic32c/8.3.1/../../../../pic32c/lib/thumb/v7e-m+fp/hard\libc-musl.a(__toread.o)
 .bss           0x00000000        0x0 c:/program files/microchip/xc32/v4.00/bin/bin/../../lib/gcc/pic32c/8.3.1/../../../../pic32c/lib/thumb/v7e-m+fp/hard\libc-musl.a(__toread.o)
 .xc_stack_usage
                0x00000000       0x3d c:/program files/microchip/xc32/v4.00/bin/bin/../../lib/gcc/pic32c/8.3.1/../../../../pic32c/lib/thumb/v7e-m+fp/hard\libc-musl.a(__toread.o)
 .text.__toread
                0x00000000       0x4a c:/program files/microchip/xc32/v4.00/bin/bin/../../lib/gcc/pic32c/8.3.1/../../../../pic32c/lib/thumb/v7e-m+fp/hard\libc-musl.a(__toread.o)
 .text.__toread_needs_stdio_exit
                0x00000000        0x4 c:/program files/microchip/xc32/v4.00/bin/bin/../../lib/gcc/pic32c/8.3.1/../../../../pic32c/lib/thumb/v7e-m+fp/hard\libc-musl.a(__toread.o)
 .xc_stack_usage.hdr
                0x00000000        0xe c:/program files/microchip/xc32/v4.00/bin/bin/../../lib/gcc/pic32c/8.3.1/../../../../pic32c/lib/thumb/v7e-m+fp/hard\libc-musl.a(__toread.o)
 .debug_info    0x00000000      0x8ba c:/program files/microchip/xc32/v4.00/bin/bin/../../lib/gcc/pic32c/8.3.1/../../../../pic32c/lib/thumb/v7e-m+fp/hard\libc-musl.a(__toread.o)
 .debug_abbrev  0x00000000      0x142 c:/program files/microchip/xc32/v4.00/bin/bin/../../lib/gcc/pic32c/8.3.1/../../../../pic32c/lib/thumb/v7e-m+fp/hard\libc-musl.a(__toread.o)
 .debug_loc     0x00000000       0x42 c:/program files/microchip/xc32/v4.00/bin/bin/../../lib/gcc/pic32c/8.3.1/../../../../pic32c/lib/thumb/v7e-m+fp/hard\libc-musl.a(__toread.o)
 .debug_aranges
                0x00000000       0x28 c:/program files/microchip/xc32/v4.00/bin/bin/../../lib/gcc/pic32c/8.3.1/../../../../pic32c/lib/thumb/v7e-m+fp/hard\libc-musl.a(__toread.o)
 .debug_ranges  0x00000000       0x18 c:/program files/microchip/xc32/v4.00/bin/bin/../../lib/gcc/pic32c/8.3.1/../../../../pic32c/lib/thumb/v7e-m+fp/hard\libc-musl.a(__toread.o)
 .debug_line    0x00000000      0x231 c:/program files/microchip/xc32/v4.00/bin/bin/../../lib/gcc/pic32c/8.3.1/../../../../pic32c/lib/thumb/v7e-m+fp/hard\libc-musl.a(__toread.o)
 .debug_str     0x00000000       0x14 c:/program files/microchip/xc32/v4.00/bin/bin/../../lib/gcc/pic32c/8.3.1/../../../../pic32c/lib/thumb/v7e-m+fp/hard\libc-musl.a(__toread.o)
 .comment       0x00000000       0x54 c:/program files/microchip/xc32/v4.00/bin/bin/../../lib/gcc/pic32c/8.3.1/../../../../pic32c/lib/thumb/v7e-m+fp/hard\libc-musl.a(__toread.o)
 .note.GNU-stack
                0x00000000        0x0 c:/program files/microchip/xc32/v4.00/bin/bin/../../lib/gcc/pic32c/8.3.1/../../../../pic32c/lib/thumb/v7e-m+fp/hard\libc-musl.a(__toread.o)
 .debug_frame   0x00000000       0x38 c:/program files/microchip/xc32/v4.00/bin/bin/../../lib/gcc/pic32c/8.3.1/../../../../pic32c/lib/thumb/v7e-m+fp/hard\libc-musl.a(__toread.o)
 .ARM.attributes
                0x00000000       0x36 c:/program files/microchip/xc32/v4.00/bin/bin/../../lib/gcc/pic32c/8.3.1/../../../../pic32c/lib/thumb/v7e-m+fp/hard\libc-musl.a(__toread.o)
 .text          0x00000000        0x0 c:/program files/microchip/xc32/v4.00/bin/bin/../../lib/gcc/pic32c/8.3.1/../../../../pic32c/lib/thumb/v7e-m+fp/hard\libc-musl.a(__io_fmt_needed.o)
 .data          0x00000000        0x0 c:/program files/microchip/xc32/v4.00/bin/bin/../../lib/gcc/pic32c/8.3.1/../../../../pic32c/lib/thumb/v7e-m+fp/hard\libc-musl.a(__io_fmt_needed.o)
 .bss           0x00000000        0x0 c:/program files/microchip/xc32/v4.00/bin/bin/../../lib/gcc/pic32c/8.3.1/../../../../pic32c/lib/thumb/v7e-m+fp/hard\libc-musl.a(__io_fmt_needed.o)
 .xc_stack_usage
                0x00000000       0x1d c:/program files/microchip/xc32/v4.00/bin/bin/../../lib/gcc/pic32c/8.3.1/../../../../pic32c/lib/thumb/v7e-m+fp/hard\libc-musl.a(__io_fmt_needed.o)
 .xc_stack_usage.hdr
                0x00000000        0xe c:/program files/microchip/xc32/v4.00/bin/bin/../../lib/gcc/pic32c/8.3.1/../../../../pic32c/lib/thumb/v7e-m+fp/hard\libc-musl.a(__io_fmt_needed.o)
 .debug_info    0x00000000      0x8fb c:/program files/microchip/xc32/v4.00/bin/bin/../../lib/gcc/pic32c/8.3.1/../../../../pic32c/lib/thumb/v7e-m+fp/hard\libc-musl.a(__io_fmt_needed.o)
 .debug_abbrev  0x00000000      0x108 c:/program files/microchip/xc32/v4.00/bin/bin/../../lib/gcc/pic32c/8.3.1/../../../../pic32c/lib/thumb/v7e-m+fp/hard\libc-musl.a(__io_fmt_needed.o)
 .debug_loc     0x00000000       0x2c c:/program files/microchip/xc32/v4.00/bin/bin/../../lib/gcc/pic32c/8.3.1/../../../../pic32c/lib/thumb/v7e-m+fp/hard\libc-musl.a(__io_fmt_needed.o)
 .debug_aranges
                0x00000000       0x20 c:/program files/microchip/xc32/v4.00/bin/bin/../../lib/gcc/pic32c/8.3.1/../../../../pic32c/lib/thumb/v7e-m+fp/hard\libc-musl.a(__io_fmt_needed.o)
 .debug_ranges  0x00000000       0x10 c:/program files/microchip/xc32/v4.00/bin/bin/../../lib/gcc/pic32c/8.3.1/../../../../pic32c/lib/thumb/v7e-m+fp/hard\libc-musl.a(__io_fmt_needed.o)
 .debug_line    0x00000000      0x1e5 c:/program files/microchip/xc32/v4.00/bin/bin/../../lib/gcc/pic32c/8.3.1/../../../../pic32c/lib/thumb/v7e-m+fp/hard\libc-musl.a(__io_fmt_needed.o)
 .debug_str     0x00000000       0x69 c:/program files/microchip/xc32/v4.00/bin/bin/../../lib/gcc/pic32c/8.3.1/../../../../pic32c/lib/thumb/v7e-m+fp/hard\libc-musl.a(__io_fmt_needed.o)
 .comment       0x00000000       0x54 c:/program files/microchip/xc32/v4.00/bin/bin/../../lib/gcc/pic32c/8.3.1/../../../../pic32c/lib/thumb/v7e-m+fp/hard\libc-musl.a(__io_fmt_needed.o)
 .note.GNU-stack
                0x00000000        0x0 c:/program files/microchip/xc32/v4.00/bin/bin/../../lib/gcc/pic32c/8.3.1/../../../../pic32c/lib/thumb/v7e-m+fp/hard\libc-musl.a(__io_fmt_needed.o)
 .debug_frame   0x00000000       0x2c c:/program files/microchip/xc32/v4.00/bin/bin/../../lib/gcc/pic32c/8.3.1/../../../../pic32c/lib/thumb/v7e-m+fp/hard\libc-musl.a(__io_fmt_needed.o)
 .ARM.attributes
                0x00000000       0x36 c:/program files/microchip/xc32/v4.00/bin/bin/../../lib/gcc/pic32c/8.3.1/../../../../pic32c/lib/thumb/v7e-m+fp/hard\libc-musl.a(__io_fmt_needed.o)
 .text          0x00000000        0x0 c:/program files/microchip/xc32/v4.00/bin/bin/../../lib/gcc/pic32c/8.3.1/../../../../pic32c/lib/thumb/v7e-m+fp/hard\libc-musl.a(__printf_core.o)
 .data          0x00000000        0x0 c:/program files/microchip/xc32/v4.00/bin/bin/../../lib/gcc/pic32c/8.3.1/../../../../pic32c/lib/thumb/v7e-m+fp/hard\libc-musl.a(__printf_core.o)
 .bss           0x00000000        0x0 c:/program files/microchip/xc32/v4.00/bin/bin/../../lib/gcc/pic32c/8.3.1/../../../../pic32c/lib/thumb/v7e-m+fp/hard\libc-musl.a(__printf_core.o)
 .xc_stack_usage
                0x00000000       0xaf c:/program files/microchip/xc32/v4.00/bin/bin/../../lib/gcc/pic32c/8.3.1/../../../../pic32c/lib/thumb/v7e-m+fp/hard\libc-musl.a(__printf_core.o)
 .text.__dummy_fmt3
                0x00000000        0x4 c:/program files/microchip/xc32/v4.00/bin/bin/../../lib/gcc/pic32c/8.3.1/../../../../pic32c/lib/thumb/v7e-m+fp/hard\libc-musl.a(__printf_core.o)
 .text.__dummy_fmt4
                0x00000000        0x4 c:/program files/microchip/xc32/v4.00/bin/bin/../../lib/gcc/pic32c/8.3.1/../../../../pic32c/lib/thumb/v7e-m+fp/hard\libc-musl.a(__printf_core.o)
 .text.__dummy_fmts
                0x00000000        0x4 c:/program files/microchip/xc32/v4.00/bin/bin/../../lib/gcc/pic32c/8.3.1/../../../../pic32c/lib/thumb/v7e-m+fp/hard\libc-musl.a(__printf_core.o)
 .xc_stack_usage.hdr
                0x00000000        0xe c:/program files/microchip/xc32/v4.00/bin/bin/../../lib/gcc/pic32c/8.3.1/../../../../pic32c/lib/thumb/v7e-m+fp/hard\libc-musl.a(__printf_core.o)
 .text          0x00000000        0x0 c:/program files/microchip/xc32/v4.00/bin/bin/../../lib/gcc/pic32c/8.3.1/../../../../pic32c/lib/thumb/v7e-m+fp/hard\libc-musl.a(__stdio_exit.o)
 .data          0x00000000        0x0 c:/program files/microchip/xc32/v4.00/bin/bin/../../lib/gcc/pic32c/8.3.1/../../../../pic32c/lib/thumb/v7e-m+fp/hard\libc-musl.a(__stdio_exit.o)
 .bss           0x00000000        0x4 c:/program files/microchip/xc32/v4.00/bin/bin/../../lib/gcc/pic32c/8.3.1/../../../../pic32c/lib/thumb/v7e-m+fp/hard\libc-musl.a(__stdio_exit.o)
 .xc_stack_usage
                0x00000000       0x45 c:/program files/microchip/xc32/v4.00/bin/bin/../../lib/gcc/pic32c/8.3.1/../../../../pic32c/lib/thumb/v7e-m+fp/hard\libc-musl.a(__stdio_exit.o)
 .text.__dummy  0x00000000        0x2 c:/program files/microchip/xc32/v4.00/bin/bin/../../lib/gcc/pic32c/8.3.1/../../../../pic32c/lib/thumb/v7e-m+fp/hard\libc-musl.a(__stdio_exit.o)
 .text.__dummy1
                0x00000000        0x4 c:/program files/microchip/xc32/v4.00/bin/bin/../../lib/gcc/pic32c/8.3.1/../../../../pic32c/lib/thumb/v7e-m+fp/hard\libc-musl.a(__stdio_exit.o)
 .text.__stdio_exit
                0x00000000       0x34 c:/program files/microchip/xc32/v4.00/bin/bin/../../lib/gcc/pic32c/8.3.1/../../../../pic32c/lib/thumb/v7e-m+fp/hard\libc-musl.a(__stdio_exit.o)
 .xc_stack_usage.hdr
                0x00000000        0xe c:/program files/microchip/xc32/v4.00/bin/bin/../../lib/gcc/pic32c/8.3.1/../../../../pic32c/lib/thumb/v7e-m+fp/hard\libc-musl.a(__stdio_exit.o)
 .debug_info    0x00000000      0x87d c:/program files/microchip/xc32/v4.00/bin/bin/../../lib/gcc/pic32c/8.3.1/../../../../pic32c/lib/thumb/v7e-m+fp/hard\libc-musl.a(__stdio_exit.o)
 .debug_abbrev  0x00000000      0x18c c:/program files/microchip/xc32/v4.00/bin/bin/../../lib/gcc/pic32c/8.3.1/../../../../pic32c/lib/thumb/v7e-m+fp/hard\libc-musl.a(__stdio_exit.o)
 .debug_loc     0x00000000       0x45 c:/program files/microchip/xc32/v4.00/bin/bin/../../lib/gcc/pic32c/8.3.1/../../../../pic32c/lib/thumb/v7e-m+fp/hard\libc-musl.a(__stdio_exit.o)
 .debug_aranges
                0x00000000       0x30 c:/program files/microchip/xc32/v4.00/bin/bin/../../lib/gcc/pic32c/8.3.1/../../../../pic32c/lib/thumb/v7e-m+fp/hard\libc-musl.a(__stdio_exit.o)
 .debug_ranges  0x00000000       0x20 c:/program files/microchip/xc32/v4.00/bin/bin/../../lib/gcc/pic32c/8.3.1/../../../../pic32c/lib/thumb/v7e-m+fp/hard\libc-musl.a(__stdio_exit.o)
 .debug_line    0x00000000      0x20a c:/program files/microchip/xc32/v4.00/bin/bin/../../lib/gcc/pic32c/8.3.1/../../../../pic32c/lib/thumb/v7e-m+fp/hard\libc-musl.a(__stdio_exit.o)
 .debug_str     0x00000000        0x0 c:/program files/microchip/xc32/v4.00/bin/bin/../../lib/gcc/pic32c/8.3.1/../../../../pic32c/lib/thumb/v7e-m+fp/hard\libc-musl.a(__stdio_exit.o)
 .comment       0x00000000       0x54 c:/program files/microchip/xc32/v4.00/bin/bin/../../lib/gcc/pic32c/8.3.1/../../../../pic32c/lib/thumb/v7e-m+fp/hard\libc-musl.a(__stdio_exit.o)
 .note.GNU-stack
                0x00000000        0x0 c:/program files/microchip/xc32/v4.00/bin/bin/../../lib/gcc/pic32c/8.3.1/../../../../pic32c/lib/thumb/v7e-m+fp/hard\libc-musl.a(__stdio_exit.o)
 .debug_frame   0x00000000       0x48 c:/program files/microchip/xc32/v4.00/bin/bin/../../lib/gcc/pic32c/8.3.1/../../../../pic32c/lib/thumb/v7e-m+fp/hard\libc-musl.a(__stdio_exit.o)
 .ARM.attributes
                0x00000000       0x36 c:/program files/microchip/xc32/v4.00/bin/bin/../../lib/gcc/pic32c/8.3.1/../../../../pic32c/lib/thumb/v7e-m+fp/hard\libc-musl.a(__stdio_exit.o)
 .text          0x00000000        0x0 c:/program files/microchip/xc32/v4.00/bin/bin/../../lib/gcc/pic32c/8.3.1/../../../../pic32c/lib/thumb/v7e-m+fp/hard\libc-musl.a(__fmt_a.o)
 .data          0x00000000        0x0 c:/program files/microchip/xc32/v4.00/bin/bin/../../lib/gcc/pic32c/8.3.1/../../../../pic32c/lib/thumb/v7e-m+fp/hard\libc-musl.a(__fmt_a.o)
 .bss           0x00000000        0x0 c:/program files/microchip/xc32/v4.00/bin/bin/../../lib/gcc/pic32c/8.3.1/../../../../pic32c/lib/thumb/v7e-m+fp/hard\libc-musl.a(__fmt_a.o)
 .xc_stack_usage
                0x00000000       0x15 c:/program files/microchip/xc32/v4.00/bin/bin/../../lib/gcc/pic32c/8.3.1/../../../../pic32c/lib/thumb/v7e-m+fp/hard\libc-musl.a(__fmt_a.o)
 .xc_stack_usage.hdr
                0x00000000        0xe c:/program files/microchip/xc32/v4.00/bin/bin/../../lib/gcc/pic32c/8.3.1/../../../../pic32c/lib/thumb/v7e-m+fp/hard\libc-musl.a(__fmt_a.o)
 .text          0x00000000        0x0 c:/program files/microchip/xc32/v4.00/bin/bin/../../lib/gcc/pic32c/8.3.1/../../../../pic32c/lib/thumb/v7e-m+fp/hard\libc-musl.a(__fmt_d.o)
 .data          0x00000000        0x0 c:/program files/microchip/xc32/v4.00/bin/bin/../../lib/gcc/pic32c/8.3.1/../../../../pic32c/lib/thumb/v7e-m+fp/hard\libc-musl.a(__fmt_d.o)
 .bss           0x00000000        0x0 c:/program files/microchip/xc32/v4.00/bin/bin/../../lib/gcc/pic32c/8.3.1/../../../../pic32c/lib/thumb/v7e-m+fp/hard\libc-musl.a(__fmt_d.o)
 .xc_stack_usage
                0x00000000       0x15 c:/program files/microchip/xc32/v4.00/bin/bin/../../lib/gcc/pic32c/8.3.1/../../../../pic32c/lib/thumb/v7e-m+fp/hard\libc-musl.a(__fmt_d.o)
 .xc_stack_usage.hdr
                0x00000000        0xe c:/program files/microchip/xc32/v4.00/bin/bin/../../lib/gcc/pic32c/8.3.1/../../../../pic32c/lib/thumb/v7e-m+fp/hard\libc-musl.a(__fmt_d.o)
 .text          0x00000000        0x0 c:/program files/microchip/xc32/v4.00/bin/bin/../../lib/gcc/pic32c/8.3.1/../../../../pic32c/lib/thumb/v7e-m+fp/hard\libc-musl.a(__fmt_fp.o)
 .data          0x00000000        0x0 c:/program files/microchip/xc32/v4.00/bin/bin/../../lib/gcc/pic32c/8.3.1/../../../../pic32c/lib/thumb/v7e-m+fp/hard\libc-musl.a(__fmt_fp.o)
 .bss           0x00000000        0x0 c:/program files/microchip/xc32/v4.00/bin/bin/../../lib/gcc/pic32c/8.3.1/../../../../pic32c/lib/thumb/v7e-m+fp/hard\libc-musl.a(__fmt_fp.o)
 .xc_stack_usage
                0x00000000       0x16 c:/program files/microchip/xc32/v4.00/bin/bin/../../lib/gcc/pic32c/8.3.1/../../../../pic32c/lib/thumb/v7e-m+fp/hard\libc-musl.a(__fmt_fp.o)
 .xc_stack_usage.hdr
                0x00000000        0xe c:/program files/microchip/xc32/v4.00/bin/bin/../../lib/gcc/pic32c/8.3.1/../../../../pic32c/lib/thumb/v7e-m+fp/hard\libc-musl.a(__fmt_fp.o)
 .text          0x00000000        0x0 c:/program files/microchip/xc32/v4.00/bin/bin/../../lib/gcc/pic32c/8.3.1/../../../../pic32c/lib/thumb/v7e-m+fp/hard\libc-musl.a(__fmt_o.o)
 .data          0x00000000        0x0 c:/program files/microchip/xc32/v4.00/bin/bin/../../lib/gcc/pic32c/8.3.1/../../../../pic32c/lib/thumb/v7e-m+fp/hard\libc-musl.a(__fmt_o.o)
 .bss           0x00000000        0x0 c:/program files/microchip/xc32/v4.00/bin/bin/../../lib/gcc/pic32c/8.3.1/../../../../pic32c/lib/thumb/v7e-m+fp/hard\libc-musl.a(__fmt_o.o)
 .xc_stack_usage
                0x00000000       0x15 c:/program files/microchip/xc32/v4.00/bin/bin/../../lib/gcc/pic32c/8.3.1/../../../../pic32c/lib/thumb/v7e-m+fp/hard\libc-musl.a(__fmt_o.o)
 .xc_stack_usage.hdr
                0x00000000        0xe c:/program files/microchip/xc32/v4.00/bin/bin/../../lib/gcc/pic32c/8.3.1/../../../../pic32c/lib/thumb/v7e-m+fp/hard\libc-musl.a(__fmt_o.o)
 .text          0x00000000        0x0 c:/program files/microchip/xc32/v4.00/bin/bin/../../lib/gcc/pic32c/8.3.1/../../../../pic32c/lib/thumb/v7e-m+fp/hard\libc-musl.a(__fmt_s.o)
 .data          0x00000000        0x0 c:/program files/microchip/xc32/v4.00/bin/bin/../../lib/gcc/pic32c/8.3.1/../../../../pic32c/lib/thumb/v7e-m+fp/hard\libc-musl.a(__fmt_s.o)
 .bss           0x00000000        0x0 c:/program files/microchip/xc32/v4.00/bin/bin/../../lib/gcc/pic32c/8.3.1/../../../../pic32c/lib/thumb/v7e-m+fp/hard\libc-musl.a(__fmt_s.o)
 .xc_stack_usage
                0x00000000       0x15 c:/program files/microchip/xc32/v4.00/bin/bin/../../lib/gcc/pic32c/8.3.1/../../../../pic32c/lib/thumb/v7e-m+fp/hard\libc-musl.a(__fmt_s.o)
 .xc_stack_usage.hdr
                0x00000000        0xe c:/program files/microchip/xc32/v4.00/bin/bin/../../lib/gcc/pic32c/8.3.1/../../../../pic32c/lib/thumb/v7e-m+fp/hard\libc-musl.a(__fmt_s.o)
 .text          0x00000000        0x0 c:/program files/microchip/xc32/v4.00/bin/bin/../../lib/gcc/pic32c/8.3.1/../../../../pic32c/lib/thumb/v7e-m+fp/hard\libc-musl.a(__fmt_u.o)
 .data          0x00000000        0x0 c:/program files/microchip/xc32/v4.00/bin/bin/../../lib/gcc/pic32c/8.3.1/../../../../pic32c/lib/thumb/v7e-m+fp/hard\libc-musl.a(__fmt_u.o)
 .bss           0x00000000        0x0 c:/program files/microchip/xc32/v4.00/bin/bin/../../lib/gcc/pic32c/8.3.1/../../../../pic32c/lib/thumb/v7e-m+fp/hard\libc-musl.a(__fmt_u.o)
 .xc_stack_usage
                0x00000000       0x2a c:/program files/microchip/xc32/v4.00/bin/bin/../../lib/gcc/pic32c/8.3.1/../../../../pic32c/lib/thumb/v7e-m+fp/hard\libc-musl.a(__fmt_u.o)
 .xc_stack_usage.hdr
                0x00000000        0xe c:/program files/microchip/xc32/v4.00/bin/bin/../../lib/gcc/pic32c/8.3.1/../../../../pic32c/lib/thumb/v7e-m+fp/hard\libc-musl.a(__fmt_u.o)
 .text          0x00000000        0x0 c:/program files/microchip/xc32/v4.00/bin/bin/../../lib/gcc/pic32c/8.3.1/../../../../pic32c/lib/thumb/v7e-m+fp/hard\libc-musl.a(__fmt_x.o)
 .data          0x00000000        0x0 c:/program files/microchip/xc32/v4.00/bin/bin/../../lib/gcc/pic32c/8.3.1/../../../../pic32c/lib/thumb/v7e-m+fp/hard\libc-musl.a(__fmt_x.o)
 .bss           0x00000000        0x0 c:/program files/microchip/xc32/v4.00/bin/bin/../../lib/gcc/pic32c/8.3.1/../../../../pic32c/lib/thumb/v7e-m+fp/hard\libc-musl.a(__fmt_x.o)
 .xc_stack_usage
                0x00000000       0x15 c:/program files/microchip/xc32/v4.00/bin/bin/../../lib/gcc/pic32c/8.3.1/../../../../pic32c/lib/thumb/v7e-m+fp/hard\libc-musl.a(__fmt_x.o)
 .xc_stack_usage.hdr
                0x00000000        0xe c:/program files/microchip/xc32/v4.00/bin/bin/../../lib/gcc/pic32c/8.3.1/../../../../pic32c/lib/thumb/v7e-m+fp/hard\libc-musl.a(__fmt_x.o)
 .text          0x00000000        0x0 c:/program files/microchip/xc32/v4.00/bin/bin/../../lib/gcc/pic32c/8.3.1/../../../../pic32c/lib/thumb/v7e-m+fp/hard\libc-musl.a(__pop_float.o)
 .data          0x00000000        0x0 c:/program files/microchip/xc32/v4.00/bin/bin/../../lib/gcc/pic32c/8.3.1/../../../../pic32c/lib/thumb/v7e-m+fp/hard\libc-musl.a(__pop_float.o)
 .bss           0x00000000        0x0 c:/program files/microchip/xc32/v4.00/bin/bin/../../lib/gcc/pic32c/8.3.1/../../../../pic32c/lib/thumb/v7e-m+fp/hard\libc-musl.a(__pop_float.o)
 .xc_stack_usage
                0x00000000       0x19 c:/program files/microchip/xc32/v4.00/bin/bin/../../lib/gcc/pic32c/8.3.1/../../../../pic32c/lib/thumb/v7e-m+fp/hard\libc-musl.a(__pop_float.o)
 .xc_stack_usage.hdr
                0x00000000        0xe c:/program files/microchip/xc32/v4.00/bin/bin/../../lib/gcc/pic32c/8.3.1/../../../../pic32c/lib/thumb/v7e-m+fp/hard\libc-musl.a(__pop_float.o)
 .text          0x00000000        0x0 c:/program files/microchip/xc32/v4.00/bin/bin/../../lib/gcc/pic32c/8.3.1/../../../../pic32c/lib/thumb/v7e-m+fp/hard\libc-musl.a(__pop_int.o)
 .data          0x00000000        0x0 c:/program files/microchip/xc32/v4.00/bin/bin/../../lib/gcc/pic32c/8.3.1/../../../../pic32c/lib/thumb/v7e-m+fp/hard\libc-musl.a(__pop_int.o)
 .bss           0x00000000        0x0 c:/program files/microchip/xc32/v4.00/bin/bin/../../lib/gcc/pic32c/8.3.1/../../../../pic32c/lib/thumb/v7e-m+fp/hard\libc-musl.a(__pop_int.o)
 .xc_stack_usage
                0x00000000       0x17 c:/program files/microchip/xc32/v4.00/bin/bin/../../lib/gcc/pic32c/8.3.1/../../../../pic32c/lib/thumb/v7e-m+fp/hard\libc-musl.a(__pop_int.o)
 .xc_stack_usage.hdr
                0x00000000        0xe c:/program files/microchip/xc32/v4.00/bin/bin/../../lib/gcc/pic32c/8.3.1/../../../../pic32c/lib/thumb/v7e-m+fp/hard\libc-musl.a(__pop_int.o)
 .text          0x00000000        0x0 c:/program files/microchip/xc32/v4.00/bin/bin/../../lib/gcc/pic32c/8.3.1/../../../../pic32c/lib/thumb/v7e-m+fp/hard\libc-musl.a(__pop_ptr.o)
 .data          0x00000000        0x0 c:/program files/microchip/xc32/v4.00/bin/bin/../../lib/gcc/pic32c/8.3.1/../../../../pic32c/lib/thumb/v7e-m+fp/hard\libc-musl.a(__pop_ptr.o)
 .bss           0x00000000        0x0 c:/program files/microchip/xc32/v4.00/bin/bin/../../lib/gcc/pic32c/8.3.1/../../../../pic32c/lib/thumb/v7e-m+fp/hard\libc-musl.a(__pop_ptr.o)
 .xc_stack_usage
                0x00000000       0x17 c:/program files/microchip/xc32/v4.00/bin/bin/../../lib/gcc/pic32c/8.3.1/../../../../pic32c/lib/thumb/v7e-m+fp/hard\libc-musl.a(__pop_ptr.o)
 .xc_stack_usage.hdr
                0x00000000        0xe c:/program files/microchip/xc32/v4.00/bin/bin/../../lib/gcc/pic32c/8.3.1/../../../../pic32c/lib/thumb/v7e-m+fp/hard\libc-musl.a(__pop_ptr.o)
 .text          0x00000000        0x0 c:/program files/microchip/xc32/v4.00/bin/bin/../../lib/gcc/pic32c/8.3.1/../../../../pic32c/lib/thumb/v7e-m+fp/hard\libm-emfloat.a(lib_a-_FLOOR.o)
 .data          0x00000000        0x0 c:/program files/microchip/xc32/v4.00/bin/bin/../../lib/gcc/pic32c/8.3.1/../../../../pic32c/lib/thumb/v7e-m+fp/hard\libm-emfloat.a(lib_a-_FLOOR.o)
 .bss           0x00000000        0x0 c:/program files/microchip/xc32/v4.00/bin/bin/../../lib/gcc/pic32c/8.3.1/../../../../pic32c/lib/thumb/v7e-m+fp/hard\libm-emfloat.a(lib_a-_FLOOR.o)
 .xc_stack_usage
                0x00000000      0x298 c:/program files/microchip/xc32/v4.00/bin/bin/../../lib/gcc/pic32c/8.3.1/../../../../pic32c/lib/thumb/v7e-m+fp/hard\libm-emfloat.a(lib_a-_FLOOR.o)
 .text.__SEGGER_RTL_float64_cdiv
                0x00000000      0x334 c:/program files/microchip/xc32/v4.00/bin/bin/../../lib/gcc/pic32c/8.3.1/../../../../pic32c/lib/thumb/v7e-m+fp/hard\libm-emfloat.a(lib_a-_FLOOR.o)
 .text.__SEGGER_RTL_float64_cmplx
                0x00000000       0x28 c:/program files/microchip/xc32/v4.00/bin/bin/../../lib/gcc/pic32c/8.3.1/../../../../pic32c/lib/thumb/v7e-m+fp/hard\libm-emfloat.a(lib_a-_FLOOR.o)
 .text.__mulsc3
                0x00000000      0x2b0 c:/program files/microchip/xc32/v4.00/bin/bin/../../lib/gcc/pic32c/8.3.1/../../../../pic32c/lib/thumb/v7e-m+fp/hard\libm-emfloat.a(lib_a-_FLOOR.o)
 .text.__divdc3
                0x00000000       0x2c c:/program files/microchip/xc32/v4.00/bin/bin/../../lib/gcc/pic32c/8.3.1/../../../../pic32c/lib/thumb/v7e-m+fp/hard\libm-emfloat.a(lib_a-_FLOOR.o)
 .text.__SEGGER_RTL_float32_isnan
                0x00000000       0x10 c:/program files/microchip/xc32/v4.00/bin/bin/../../lib/gcc/pic32c/8.3.1/../../../../pic32c/lib/thumb/v7e-m+fp/hard\libm-emfloat.a(lib_a-_FLOOR.o)
 .text.__SEGGER_RTL_float32_isinf
                0x00000000       0x14 c:/program files/microchip/xc32/v4.00/bin/bin/../../lib/gcc/pic32c/8.3.1/../../../../pic32c/lib/thumb/v7e-m+fp/hard\libm-emfloat.a(lib_a-_FLOOR.o)
 .text.__SEGGER_RTL_float32_isfinite
                0x00000000       0x14 c:/program files/microchip/xc32/v4.00/bin/bin/../../lib/gcc/pic32c/8.3.1/../../../../pic32c/lib/thumb/v7e-m+fp/hard\libm-emfloat.a(lib_a-_FLOOR.o)
 .text.__SEGGER_RTL_float32_isnormal
                0x00000000       0x18 c:/program files/microchip/xc32/v4.00/bin/bin/../../lib/gcc/pic32c/8.3.1/../../../../pic32c/lib/thumb/v7e-m+fp/hard\libm-emfloat.a(lib_a-_FLOOR.o)
 .text.__SEGGER_RTL_float32_signbit
                0x00000000        0x8 c:/program files/microchip/xc32/v4.00/bin/bin/../../lib/gcc/pic32c/8.3.1/../../../../pic32c/lib/thumb/v7e-m+fp/hard\libm-emfloat.a(lib_a-_FLOOR.o)
 .text.__SEGGER_RTL_float32_classify
                0x00000000       0x3c c:/program files/microchip/xc32/v4.00/bin/bin/../../lib/gcc/pic32c/8.3.1/../../../../pic32c/lib/thumb/v7e-m+fp/hard\libm-emfloat.a(lib_a-_FLOOR.o)
 .text.__SEGGER_RTL_float64_isnan
                0x00000000       0x28 c:/program files/microchip/xc32/v4.00/bin/bin/../../lib/gcc/pic32c/8.3.1/../../../../pic32c/lib/thumb/v7e-m+fp/hard\libm-emfloat.a(lib_a-_FLOOR.o)
 .text.__SEGGER_RTL_float64_isinf
                0x00000000       0x20 c:/program files/microchip/xc32/v4.00/bin/bin/../../lib/gcc/pic32c/8.3.1/../../../../pic32c/lib/thumb/v7e-m+fp/hard\libm-emfloat.a(lib_a-_FLOOR.o)
 .text.__SEGGER_RTL_float64_isfinite
                0x00000000       0x14 c:/program files/microchip/xc32/v4.00/bin/bin/../../lib/gcc/pic32c/8.3.1/../../../../pic32c/lib/thumb/v7e-m+fp/hard\libm-emfloat.a(lib_a-_FLOOR.o)
 .text.__SEGGER_RTL_float64_isnormal
                0x00000000       0x34 c:/program files/microchip/xc32/v4.00/bin/bin/../../lib/gcc/pic32c/8.3.1/../../../../pic32c/lib/thumb/v7e-m+fp/hard\libm-emfloat.a(lib_a-_FLOOR.o)
 .text.__SEGGER_RTL_float64_signbit
                0x00000000        0x8 c:/program files/microchip/xc32/v4.00/bin/bin/../../lib/gcc/pic32c/8.3.1/../../../../pic32c/lib/thumb/v7e-m+fp/hard\libm-emfloat.a(lib_a-_FLOOR.o)
 .text.__SEGGER_RTL_float64_classify
                0x00000000       0x70 c:/program files/microchip/xc32/v4.00/bin/bin/../../lib/gcc/pic32c/8.3.1/../../../../pic32c/lib/thumb/v7e-m+fp/hard\libm-emfloat.a(lib_a-_FLOOR.o)
 .text.floorl   0x00000000        0x8 c:/program files/microchip/xc32/v4.00/bin/bin/../../lib/gcc/pic32c/8.3.1/../../../../pic32c/lib/thumb/v7e-m+fp/hard\libm-emfloat.a(lib_a-_FLOOR.o)
 .xc_stack_usage.hdr
                0x00000000        0xe c:/program files/microchip/xc32/v4.00/bin/bin/../../lib/gcc/pic32c/8.3.1/../../../../pic32c/lib/thumb/v7e-m+fp/hard\libm-emfloat.a(lib_a-_FLOOR.o)
 .text          0x00000000        0x0 c:/program files/microchip/xc32/v4.00/bin/bin/../../lib/gcc/pic32c/8.3.1/../../../../pic32c/lib/thumb/v7e-m+fp/hard\libm-emfloat.a(lib_a-_FMA.o)
 .data          0x00000000        0x0 c:/program files/microchip/xc32/v4.00/bin/bin/../../lib/gcc/pic32c/8.3.1/../../../../pic32c/lib/thumb/v7e-m+fp/hard\libm-emfloat.a(lib_a-_FMA.o)
 .bss           0x00000000        0x0 c:/program files/microchip/xc32/v4.00/bin/bin/../../lib/gcc/pic32c/8.3.1/../../../../pic32c/lib/thumb/v7e-m+fp/hard\libm-emfloat.a(lib_a-_FMA.o)
 .xc_stack_usage
                0x00000000      0x294 c:/program files/microchip/xc32/v4.00/bin/bin/../../lib/gcc/pic32c/8.3.1/../../../../pic32c/lib/thumb/v7e-m+fp/hard\libm-emfloat.a(lib_a-_FMA.o)
 .text.__SEGGER_RTL_float64_cdiv
                0x00000000      0x334 c:/program files/microchip/xc32/v4.00/bin/bin/../../lib/gcc/pic32c/8.3.1/../../../../pic32c/lib/thumb/v7e-m+fp/hard\libm-emfloat.a(lib_a-_FMA.o)
 .text.__SEGGER_RTL_float64_cmplx
                0x00000000       0x28 c:/program files/microchip/xc32/v4.00/bin/bin/../../lib/gcc/pic32c/8.3.1/../../../../pic32c/lib/thumb/v7e-m+fp/hard\libm-emfloat.a(lib_a-_FMA.o)
 .text.__mulsc3
                0x00000000      0x2b0 c:/program files/microchip/xc32/v4.00/bin/bin/../../lib/gcc/pic32c/8.3.1/../../../../pic32c/lib/thumb/v7e-m+fp/hard\libm-emfloat.a(lib_a-_FMA.o)
 .text.__divdc3
                0x00000000       0x2c c:/program files/microchip/xc32/v4.00/bin/bin/../../lib/gcc/pic32c/8.3.1/../../../../pic32c/lib/thumb/v7e-m+fp/hard\libm-emfloat.a(lib_a-_FMA.o)
 .text.__SEGGER_RTL_float32_isnan
                0x00000000       0x10 c:/program files/microchip/xc32/v4.00/bin/bin/../../lib/gcc/pic32c/8.3.1/../../../../pic32c/lib/thumb/v7e-m+fp/hard\libm-emfloat.a(lib_a-_FMA.o)
 .text.__SEGGER_RTL_float32_isinf
                0x00000000       0x14 c:/program files/microchip/xc32/v4.00/bin/bin/../../lib/gcc/pic32c/8.3.1/../../../../pic32c/lib/thumb/v7e-m+fp/hard\libm-emfloat.a(lib_a-_FMA.o)
 .text.__SEGGER_RTL_float32_isfinite
                0x00000000       0x14 c:/program files/microchip/xc32/v4.00/bin/bin/../../lib/gcc/pic32c/8.3.1/../../../../pic32c/lib/thumb/v7e-m+fp/hard\libm-emfloat.a(lib_a-_FMA.o)
 .text.__SEGGER_RTL_float32_isnormal
                0x00000000       0x18 c:/program files/microchip/xc32/v4.00/bin/bin/../../lib/gcc/pic32c/8.3.1/../../../../pic32c/lib/thumb/v7e-m+fp/hard\libm-emfloat.a(lib_a-_FMA.o)
 .text.__SEGGER_RTL_float32_signbit
                0x00000000        0x8 c:/program files/microchip/xc32/v4.00/bin/bin/../../lib/gcc/pic32c/8.3.1/../../../../pic32c/lib/thumb/v7e-m+fp/hard\libm-emfloat.a(lib_a-_FMA.o)
 .text.__SEGGER_RTL_float32_classify
                0x00000000       0x3c c:/program files/microchip/xc32/v4.00/bin/bin/../../lib/gcc/pic32c/8.3.1/../../../../pic32c/lib/thumb/v7e-m+fp/hard\libm-emfloat.a(lib_a-_FMA.o)
 .text.__SEGGER_RTL_float64_isnan
                0x00000000       0x28 c:/program files/microchip/xc32/v4.00/bin/bin/../../lib/gcc/pic32c/8.3.1/../../../../pic32c/lib/thumb/v7e-m+fp/hard\libm-emfloat.a(lib_a-_FMA.o)
 .text.__SEGGER_RTL_float64_isinf
                0x00000000       0x20 c:/program files/microchip/xc32/v4.00/bin/bin/../../lib/gcc/pic32c/8.3.1/../../../../pic32c/lib/thumb/v7e-m+fp/hard\libm-emfloat.a(lib_a-_FMA.o)
 .text.__SEGGER_RTL_float64_isfinite
                0x00000000       0x14 c:/program files/microchip/xc32/v4.00/bin/bin/../../lib/gcc/pic32c/8.3.1/../../../../pic32c/lib/thumb/v7e-m+fp/hard\libm-emfloat.a(lib_a-_FMA.o)
 .text.__SEGGER_RTL_float64_isnormal
                0x00000000       0x34 c:/program files/microchip/xc32/v4.00/bin/bin/../../lib/gcc/pic32c/8.3.1/../../../../pic32c/lib/thumb/v7e-m+fp/hard\libm-emfloat.a(lib_a-_FMA.o)
 .text.__SEGGER_RTL_float64_signbit
                0x00000000        0x8 c:/program files/microchip/xc32/v4.00/bin/bin/../../lib/gcc/pic32c/8.3.1/../../../../pic32c/lib/thumb/v7e-m+fp/hard\libm-emfloat.a(lib_a-_FMA.o)
 .text.__SEGGER_RTL_float64_classify
                0x00000000       0x70 c:/program files/microchip/xc32/v4.00/bin/bin/../../lib/gcc/pic32c/8.3.1/../../../../pic32c/lib/thumb/v7e-m+fp/hard\libm-emfloat.a(lib_a-_FMA.o)
 .text.fmal     0x00000000        0x8 c:/program files/microchip/xc32/v4.00/bin/bin/../../lib/gcc/pic32c/8.3.1/../../../../pic32c/lib/thumb/v7e-m+fp/hard\libm-emfloat.a(lib_a-_FMA.o)
 .xc_stack_usage.hdr
                0x00000000        0xe c:/program files/microchip/xc32/v4.00/bin/bin/../../lib/gcc/pic32c/8.3.1/../../../../pic32c/lib/thumb/v7e-m+fp/hard\libm-emfloat.a(lib_a-_FMA.o)
 .text          0x00000000        0x0 c:/program files/microchip/xc32/v4.00/bin/bin/../../lib/gcc/pic32c/8.3.1/../../../../pic32c/lib/thumb/v7e-m+fp/hard\libm-emfloat.a(lib_a-_ILOGB.o)
 .data          0x00000000        0x0 c:/program files/microchip/xc32/v4.00/bin/bin/../../lib/gcc/pic32c/8.3.1/../../../../pic32c/lib/thumb/v7e-m+fp/hard\libm-emfloat.a(lib_a-_ILOGB.o)
 .bss           0x00000000        0x0 c:/program files/microchip/xc32/v4.00/bin/bin/../../lib/gcc/pic32c/8.3.1/../../../../pic32c/lib/thumb/v7e-m+fp/hard\libm-emfloat.a(lib_a-_ILOGB.o)
 .xc_stack_usage
                0x00000000      0x298 c:/program files/microchip/xc32/v4.00/bin/bin/../../lib/gcc/pic32c/8.3.1/../../../../pic32c/lib/thumb/v7e-m+fp/hard\libm-emfloat.a(lib_a-_ILOGB.o)
 .text.__SEGGER_RTL_float64_cmplx
                0x00000000       0x28 c:/program files/microchip/xc32/v4.00/bin/bin/../../lib/gcc/pic32c/8.3.1/../../../../pic32c/lib/thumb/v7e-m+fp/hard\libm-emfloat.a(lib_a-_ILOGB.o)
 .text.__mulsc3
                0x00000000      0x2b0 c:/program files/microchip/xc32/v4.00/bin/bin/../../lib/gcc/pic32c/8.3.1/../../../../pic32c/lib/thumb/v7e-m+fp/hard\libm-emfloat.a(lib_a-_ILOGB.o)
 .text.__SEGGER_RTL_float32_isnan
                0x00000000       0x10 c:/program files/microchip/xc32/v4.00/bin/bin/../../lib/gcc/pic32c/8.3.1/../../../../pic32c/lib/thumb/v7e-m+fp/hard\libm-emfloat.a(lib_a-_ILOGB.o)
 .text.__SEGGER_RTL_float32_isinf
                0x00000000       0x14 c:/program files/microchip/xc32/v4.00/bin/bin/../../lib/gcc/pic32c/8.3.1/../../../../pic32c/lib/thumb/v7e-m+fp/hard\libm-emfloat.a(lib_a-_ILOGB.o)
 .text.__SEGGER_RTL_float32_isfinite
                0x00000000       0x14 c:/program files/microchip/xc32/v4.00/bin/bin/../../lib/gcc/pic32c/8.3.1/../../../../pic32c/lib/thumb/v7e-m+fp/hard\libm-emfloat.a(lib_a-_ILOGB.o)
 .text.__SEGGER_RTL_float32_isnormal
                0x00000000       0x18 c:/program files/microchip/xc32/v4.00/bin/bin/../../lib/gcc/pic32c/8.3.1/../../../../pic32c/lib/thumb/v7e-m+fp/hard\libm-emfloat.a(lib_a-_ILOGB.o)
 .text.__SEGGER_RTL_float32_signbit
                0x00000000        0x8 c:/program files/microchip/xc32/v4.00/bin/bin/../../lib/gcc/pic32c/8.3.1/../../../../pic32c/lib/thumb/v7e-m+fp/hard\libm-emfloat.a(lib_a-_ILOGB.o)
 .text.__SEGGER_RTL_float32_classify
                0x00000000       0x3c c:/program files/microchip/xc32/v4.00/bin/bin/../../lib/gcc/pic32c/8.3.1/../../../../pic32c/lib/thumb/v7e-m+fp/hard\libm-emfloat.a(lib_a-_ILOGB.o)
 .text.__SEGGER_RTL_float64_isnan
                0x00000000       0x28 c:/program files/microchip/xc32/v4.00/bin/bin/../../lib/gcc/pic32c/8.3.1/../../../../pic32c/lib/thumb/v7e-m+fp/hard\libm-emfloat.a(lib_a-_ILOGB.o)
 .text.__SEGGER_RTL_float64_isinf
                0x00000000       0x20 c:/program files/microchip/xc32/v4.00/bin/bin/../../lib/gcc/pic32c/8.3.1/../../../../pic32c/lib/thumb/v7e-m+fp/hard\libm-emfloat.a(lib_a-_ILOGB.o)
 .text.__SEGGER_RTL_float64_isfinite
                0x00000000       0x14 c:/program files/microchip/xc32/v4.00/bin/bin/../../lib/gcc/pic32c/8.3.1/../../../../pic32c/lib/thumb/v7e-m+fp/hard\libm-emfloat.a(lib_a-_ILOGB.o)
 .text.__SEGGER_RTL_float64_isnormal
                0x00000000       0x34 c:/program files/microchip/xc32/v4.00/bin/bin/../../lib/gcc/pic32c/8.3.1/../../../../pic32c/lib/thumb/v7e-m+fp/hard\libm-emfloat.a(lib_a-_ILOGB.o)
 .text.__SEGGER_RTL_float64_signbit
                0x00000000        0x8 c:/program files/microchip/xc32/v4.00/bin/bin/../../lib/gcc/pic32c/8.3.1/../../../../pic32c/lib/thumb/v7e-m+fp/hard\libm-emfloat.a(lib_a-_ILOGB.o)
 .text.__SEGGER_RTL_float64_classify
                0x00000000       0x70 c:/program files/microchip/xc32/v4.00/bin/bin/../../lib/gcc/pic32c/8.3.1/../../../../pic32c/lib/thumb/v7e-m+fp/hard\libm-emfloat.a(lib_a-_ILOGB.o)
 .text.ilogb    0x00000000       0x58 c:/program files/microchip/xc32/v4.00/bin/bin/../../lib/gcc/pic32c/8.3.1/../../../../pic32c/lib/thumb/v7e-m+fp/hard\libm-emfloat.a(lib_a-_ILOGB.o)
 .text.__SEGGER_RTL_float64_cdiv
                0x00000000      0x334 c:/program files/microchip/xc32/v4.00/bin/bin/../../lib/gcc/pic32c/8.3.1/../../../../pic32c/lib/thumb/v7e-m+fp/hard\libm-emfloat.a(lib_a-_ILOGB.o)
 .text.__divdc3
                0x00000000       0x2c c:/program files/microchip/xc32/v4.00/bin/bin/../../lib/gcc/pic32c/8.3.1/../../../../pic32c/lib/thumb/v7e-m+fp/hard\libm-emfloat.a(lib_a-_ILOGB.o)
 .text.ilogbl   0x00000000        0x8 c:/program files/microchip/xc32/v4.00/bin/bin/../../lib/gcc/pic32c/8.3.1/../../../../pic32c/lib/thumb/v7e-m+fp/hard\libm-emfloat.a(lib_a-_ILOGB.o)
 .xc_stack_usage.hdr
                0x00000000        0xe c:/program files/microchip/xc32/v4.00/bin/bin/../../lib/gcc/pic32c/8.3.1/../../../../pic32c/lib/thumb/v7e-m+fp/hard\libm-emfloat.a(lib_a-_ILOGB.o)
 .comment       0x00000000       0x54 c:/program files/microchip/xc32/v4.00/bin/bin/../../lib/gcc/pic32c/8.3.1/../../../../pic32c/lib/thumb/v7e-m+fp/hard\libm-emfloat.a(lib_a-_ILOGB.o)
 .ARM.attributes
                0x00000000       0x34 c:/program files/microchip/xc32/v4.00/bin/bin/../../lib/gcc/pic32c/8.3.1/../../../../pic32c/lib/thumb/v7e-m+fp/hard\libm-emfloat.a(lib_a-_ILOGB.o)
 .text          0x00000000        0x0 c:/program files/microchip/xc32/v4.00/bin/bin/../../lib/gcc/pic32c/8.3.1/../../../../pic32c/lib/thumb/v7e-m+fp/hard\libm-emfloat.a(lib_a-_LDEXP.o)
 .data          0x00000000        0x0 c:/program files/microchip/xc32/v4.00/bin/bin/../../lib/gcc/pic32c/8.3.1/../../../../pic32c/lib/thumb/v7e-m+fp/hard\libm-emfloat.a(lib_a-_LDEXP.o)
 .bss           0x00000000        0x0 c:/program files/microchip/xc32/v4.00/bin/bin/../../lib/gcc/pic32c/8.3.1/../../../../pic32c/lib/thumb/v7e-m+fp/hard\libm-emfloat.a(lib_a-_LDEXP.o)
 .xc_stack_usage
                0x00000000      0x298 c:/program files/microchip/xc32/v4.00/bin/bin/../../lib/gcc/pic32c/8.3.1/../../../../pic32c/lib/thumb/v7e-m+fp/hard\libm-emfloat.a(lib_a-_LDEXP.o)
 .text.__SEGGER_RTL_float64_cmplx
                0x00000000       0x28 c:/program files/microchip/xc32/v4.00/bin/bin/../../lib/gcc/pic32c/8.3.1/../../../../pic32c/lib/thumb/v7e-m+fp/hard\libm-emfloat.a(lib_a-_LDEXP.o)
 .text.__mulsc3
                0x00000000      0x2b0 c:/program files/microchip/xc32/v4.00/bin/bin/../../lib/gcc/pic32c/8.3.1/../../../../pic32c/lib/thumb/v7e-m+fp/hard\libm-emfloat.a(lib_a-_LDEXP.o)
 .text.__SEGGER_RTL_float32_isnan
                0x00000000       0x10 c:/program files/microchip/xc32/v4.00/bin/bin/../../lib/gcc/pic32c/8.3.1/../../../../pic32c/lib/thumb/v7e-m+fp/hard\libm-emfloat.a(lib_a-_LDEXP.o)
 .text.__SEGGER_RTL_float32_isinf
                0x00000000       0x14 c:/program files/microchip/xc32/v4.00/bin/bin/../../lib/gcc/pic32c/8.3.1/../../../../pic32c/lib/thumb/v7e-m+fp/hard\libm-emfloat.a(lib_a-_LDEXP.o)
 .text.__SEGGER_RTL_float32_isfinite
                0x00000000       0x14 c:/program files/microchip/xc32/v4.00/bin/bin/../../lib/gcc/pic32c/8.3.1/../../../../pic32c/lib/thumb/v7e-m+fp/hard\libm-emfloat.a(lib_a-_LDEXP.o)
 .text.__SEGGER_RTL_float32_isnormal
                0x00000000       0x18 c:/program files/microchip/xc32/v4.00/bin/bin/../../lib/gcc/pic32c/8.3.1/../../../../pic32c/lib/thumb/v7e-m+fp/hard\libm-emfloat.a(lib_a-_LDEXP.o)
 .text.__SEGGER_RTL_float32_signbit
                0x00000000        0x8 c:/program files/microchip/xc32/v4.00/bin/bin/../../lib/gcc/pic32c/8.3.1/../../../../pic32c/lib/thumb/v7e-m+fp/hard\libm-emfloat.a(lib_a-_LDEXP.o)
 .text.__SEGGER_RTL_float32_classify
                0x00000000       0x3c c:/program files/microchip/xc32/v4.00/bin/bin/../../lib/gcc/pic32c/8.3.1/../../../../pic32c/lib/thumb/v7e-m+fp/hard\libm-emfloat.a(lib_a-_LDEXP.o)
 .text.__SEGGER_RTL_float64_isnan
                0x00000000       0x28 c:/program files/microchip/xc32/v4.00/bin/bin/../../lib/gcc/pic32c/8.3.1/../../../../pic32c/lib/thumb/v7e-m+fp/hard\libm-emfloat.a(lib_a-_LDEXP.o)
 .text.__SEGGER_RTL_float64_isinf
                0x00000000       0x20 c:/program files/microchip/xc32/v4.00/bin/bin/../../lib/gcc/pic32c/8.3.1/../../../../pic32c/lib/thumb/v7e-m+fp/hard\libm-emfloat.a(lib_a-_LDEXP.o)
 .text.__SEGGER_RTL_float64_isfinite
                0x00000000       0x14 c:/program files/microchip/xc32/v4.00/bin/bin/../../lib/gcc/pic32c/8.3.1/../../../../pic32c/lib/thumb/v7e-m+fp/hard\libm-emfloat.a(lib_a-_LDEXP.o)
 .text.__SEGGER_RTL_float64_isnormal
                0x00000000       0x34 c:/program files/microchip/xc32/v4.00/bin/bin/../../lib/gcc/pic32c/8.3.1/../../../../pic32c/lib/thumb/v7e-m+fp/hard\libm-emfloat.a(lib_a-_LDEXP.o)
 .text.__SEGGER_RTL_float64_signbit
                0x00000000        0x8 c:/program files/microchip/xc32/v4.00/bin/bin/../../lib/gcc/pic32c/8.3.1/../../../../pic32c/lib/thumb/v7e-m+fp/hard\libm-emfloat.a(lib_a-_LDEXP.o)
 .text.__SEGGER_RTL_float64_classify
                0x00000000       0x70 c:/program files/microchip/xc32/v4.00/bin/bin/../../lib/gcc/pic32c/8.3.1/../../../../pic32c/lib/thumb/v7e-m+fp/hard\libm-emfloat.a(lib_a-_LDEXP.o)
 .text.ldexp    0x00000000       0x54 c:/program files/microchip/xc32/v4.00/bin/bin/../../lib/gcc/pic32c/8.3.1/../../../../pic32c/lib/thumb/v7e-m+fp/hard\libm-emfloat.a(lib_a-_LDEXP.o)
 .text.__SEGGER_RTL_float64_cdiv
                0x00000000      0x334 c:/program files/microchip/xc32/v4.00/bin/bin/../../lib/gcc/pic32c/8.3.1/../../../../pic32c/lib/thumb/v7e-m+fp/hard\libm-emfloat.a(lib_a-_LDEXP.o)
 .text.__divdc3
                0x00000000       0x2c c:/program files/microchip/xc32/v4.00/bin/bin/../../lib/gcc/pic32c/8.3.1/../../../../pic32c/lib/thumb/v7e-m+fp/hard\libm-emfloat.a(lib_a-_LDEXP.o)
 .text.ldexpl   0x00000000        0x8 c:/program files/microchip/xc32/v4.00/bin/bin/../../lib/gcc/pic32c/8.3.1/../../../../pic32c/lib/thumb/v7e-m+fp/hard\libm-emfloat.a(lib_a-_LDEXP.o)
 .xc_stack_usage.hdr
                0x00000000        0xe c:/program files/microchip/xc32/v4.00/bin/bin/../../lib/gcc/pic32c/8.3.1/../../../../pic32c/lib/thumb/v7e-m+fp/hard\libm-emfloat.a(lib_a-_LDEXP.o)
 .comment       0x00000000       0x54 c:/program files/microchip/xc32/v4.00/bin/bin/../../lib/gcc/pic32c/8.3.1/../../../../pic32c/lib/thumb/v7e-m+fp/hard\libm-emfloat.a(lib_a-_LDEXP.o)
 .ARM.attributes
                0x00000000       0x34 c:/program files/microchip/xc32/v4.00/bin/bin/../../lib/gcc/pic32c/8.3.1/../../../../pic32c/lib/thumb/v7e-m+fp/hard\libm-emfloat.a(lib_a-_LDEXP.o)
 .text          0x00000000       0xa0 c:/program files/microchip/xc32/v4.00/bin/bin/../../lib/gcc/pic32c/8.3.1/thumb/v7e-m+fp/hard\libgcc.a(_aeabi_ldivmod.o)
 .data          0x00000000        0x0 c:/program files/microchip/xc32/v4.00/bin/bin/../../lib/gcc/pic32c/8.3.1/thumb/v7e-m+fp/hard\libgcc.a(_aeabi_ldivmod.o)
 .bss           0x00000000        0x0 c:/program files/microchip/xc32/v4.00/bin/bin/../../lib/gcc/pic32c/8.3.1/thumb/v7e-m+fp/hard\libgcc.a(_aeabi_ldivmod.o)
 .xc_stack_usage.hdr
                0x00000000        0xe c:/program files/microchip/xc32/v4.00/bin/bin/../../lib/gcc/pic32c/8.3.1/thumb/v7e-m+fp/hard\libgcc.a(_aeabi_ldivmod.o)
 .xc_stack_usage
                0x00000000       0x1d c:/program files/microchip/xc32/v4.00/bin/bin/../../lib/gcc/pic32c/8.3.1/thumb/v7e-m+fp/hard\libgcc.a(_aeabi_ldivmod.o)
 .debug_line    0x00000000       0xba c:/program files/microchip/xc32/v4.00/bin/bin/../../lib/gcc/pic32c/8.3.1/thumb/v7e-m+fp/hard\libgcc.a(_aeabi_ldivmod.o)
 .debug_info    0x00000000       0x26 c:/program files/microchip/xc32/v4.00/bin/bin/../../lib/gcc/pic32c/8.3.1/thumb/v7e-m+fp/hard\libgcc.a(_aeabi_ldivmod.o)
 .debug_abbrev  0x00000000       0x14 c:/program files/microchip/xc32/v4.00/bin/bin/../../lib/gcc/pic32c/8.3.1/thumb/v7e-m+fp/hard\libgcc.a(_aeabi_ldivmod.o)
 .debug_aranges
                0x00000000       0x20 c:/program files/microchip/xc32/v4.00/bin/bin/../../lib/gcc/pic32c/8.3.1/thumb/v7e-m+fp/hard\libgcc.a(_aeabi_ldivmod.o)
 .debug_str     0x00000000       0xee c:/program files/microchip/xc32/v4.00/bin/bin/../../lib/gcc/pic32c/8.3.1/thumb/v7e-m+fp/hard\libgcc.a(_aeabi_ldivmod.o)
 .debug_frame   0x00000000       0x44 c:/program files/microchip/xc32/v4.00/bin/bin/../../lib/gcc/pic32c/8.3.1/thumb/v7e-m+fp/hard\libgcc.a(_aeabi_ldivmod.o)
 .ARM.attributes
                0x00000000       0x1e c:/program files/microchip/xc32/v4.00/bin/bin/../../lib/gcc/pic32c/8.3.1/thumb/v7e-m+fp/hard\libgcc.a(_aeabi_ldivmod.o)
 .data          0x00000000        0x0 c:/program files/microchip/xc32/v4.00/bin/bin/../../lib/gcc/pic32c/8.3.1/thumb/v7e-m+fp/hard\libgcc.a(_aeabi_uldivmod.o)
 .bss           0x00000000        0x0 c:/program files/microchip/xc32/v4.00/bin/bin/../../lib/gcc/pic32c/8.3.1/thumb/v7e-m+fp/hard\libgcc.a(_aeabi_uldivmod.o)
 .xc_stack_usage.hdr
                0x00000000        0xe c:/program files/microchip/xc32/v4.00/bin/bin/../../lib/gcc/pic32c/8.3.1/thumb/v7e-m+fp/hard\libgcc.a(_aeabi_uldivmod.o)
 .xc_stack_usage
                0x00000000       0x1e c:/program files/microchip/xc32/v4.00/bin/bin/../../lib/gcc/pic32c/8.3.1/thumb/v7e-m+fp/hard\libgcc.a(_aeabi_uldivmod.o)
 .data          0x00000000        0x0 c:/program files/microchip/xc32/v4.00/bin/bin/../../lib/gcc/pic32c/8.3.1/thumb/v7e-m+fp/hard\libgcc.a(_udivmoddi4.o)
 .bss           0x00000000        0x0 c:/program files/microchip/xc32/v4.00/bin/bin/../../lib/gcc/pic32c/8.3.1/thumb/v7e-m+fp/hard\libgcc.a(_udivmoddi4.o)
 .xc_stack_usage
                0x00000000       0x1a c:/program files/microchip/xc32/v4.00/bin/bin/../../lib/gcc/pic32c/8.3.1/thumb/v7e-m+fp/hard\libgcc.a(_udivmoddi4.o)
 .ARM.extab     0x00000000        0x0 c:/program files/microchip/xc32/v4.00/bin/bin/../../lib/gcc/pic32c/8.3.1/thumb/v7e-m+fp/hard\libgcc.a(_udivmoddi4.o)
 .xc_stack_usage.hdr
                0x00000000        0xe c:/program files/microchip/xc32/v4.00/bin/bin/../../lib/gcc/pic32c/8.3.1/thumb/v7e-m+fp/hard\libgcc.a(_udivmoddi4.o)
 .data          0x00000000        0x0 c:/program files/microchip/xc32/v4.00/bin/bin/../../lib/gcc/pic32c/8.3.1/thumb/v7e-m+fp/hard\libgcc.a(_dvmd_tls.o)
 .bss           0x00000000        0x0 c:/program files/microchip/xc32/v4.00/bin/bin/../../lib/gcc/pic32c/8.3.1/thumb/v7e-m+fp/hard\libgcc.a(_dvmd_tls.o)
 .xc_stack_usage.hdr
                0x00000000        0xe c:/program files/microchip/xc32/v4.00/bin/bin/../../lib/gcc/pic32c/8.3.1/thumb/v7e-m+fp/hard\libgcc.a(_dvmd_tls.o)
 .xc_stack_usage
                0x00000000       0x36 c:/program files/microchip/xc32/v4.00/bin/bin/../../lib/gcc/pic32c/8.3.1/thumb/v7e-m+fp/hard\libgcc.a(_dvmd_tls.o)
 .text          0x00000000        0x0 c:/program files/microchip/xc32/v4.00/bin/bin/../../lib/gcc/pic32c/8.3.1/../../../../pic32c/lib/thumb/v7e-m+fp/hard\libpic32c.a(sbrk.o)
 .data          0x00000000        0x0 c:/program files/microchip/xc32/v4.00/bin/bin/../../lib/gcc/pic32c/8.3.1/../../../../pic32c/lib/thumb/v7e-m+fp/hard\libpic32c.a(sbrk.o)
 .xc_stack_usage
                0x00000000       0x13 c:/program files/microchip/xc32/v4.00/bin/bin/../../lib/gcc/pic32c/8.3.1/../../../../pic32c/lib/thumb/v7e-m+fp/hard\libpic32c.a(sbrk.o)
 .xc_stack_usage.hdr
                0x00000000        0xe c:/program files/microchip/xc32/v4.00/bin/bin/../../lib/gcc/pic32c/8.3.1/../../../../pic32c/lib/thumb/v7e-m+fp/hard\libpic32c.a(sbrk.o)
 .text          0x00000000        0x0 c:/program files/microchip/xc32/v4.00/bin/bin/../../lib/gcc/pic32c/8.3.1/thumb/v7e-m+fp/hard/crtend.o
 .data          0x00000000        0x0 c:/program files/microchip/xc32/v4.00/bin/bin/../../lib/gcc/pic32c/8.3.1/thumb/v7e-m+fp/hard/crtend.o
 .bss           0x00000000        0x0 c:/program files/microchip/xc32/v4.00/bin/bin/../../lib/gcc/pic32c/8.3.1/thumb/v7e-m+fp/hard/crtend.o
 .eh_frame      0x00000000        0x4 c:/program files/microchip/xc32/v4.00/bin/bin/../../lib/gcc/pic32c/8.3.1/thumb/v7e-m+fp/hard/crtend.o
 .xc_stack_usage.hdr
                0x00000000        0xe c:/program files/microchip/xc32/v4.00/bin/bin/../../lib/gcc/pic32c/8.3.1/thumb/v7e-m+fp/hard/crtend.o
 .comment       0x00000000       0x54 c:/program files/microchip/xc32/v4.00/bin/bin/../../lib/gcc/pic32c/8.3.1/thumb/v7e-m+fp/hard/crtend.o
 .ARM.attributes
                0x00000000       0x32 c:/program files/microchip/xc32/v4.00/bin/bin/../../lib/gcc/pic32c/8.3.1/thumb/v7e-m+fp/hard/crtend.o
 .text          0x00000000        0x0 c:/program files/microchip/xc32/v4.00/bin/bin/../../lib/gcc/pic32c/8.3.1/thumb/v7e-m+fp/hard/crtn.o
 .data          0x00000000        0x0 c:/program files/microchip/xc32/v4.00/bin/bin/../../lib/gcc/pic32c/8.3.1/thumb/v7e-m+fp/hard/crtn.o
 .bss           0x00000000        0x0 c:/program files/microchip/xc32/v4.00/bin/bin/../../lib/gcc/pic32c/8.3.1/thumb/v7e-m+fp/hard/crtn.o
 .xc_stack_usage.hdr
                0x00000000        0xe c:/program files/microchip/xc32/v4.00/bin/bin/../../lib/gcc/pic32c/8.3.1/thumb/v7e-m+fp/hard/crtn.o

Memory Configuration

Name             Origin             Length             Attributes
rom              0x00000000         0x00100000         xrl
ram              0x20000000         0x00040000         xw !r
tcm              0x03000000         0x00000000         xw
bkupram          0x47000000         0x00002000
config_00804000  0x00804000         0x00000004
config_00804008  0x00804008         0x00000004
config_00804004  0x00804004         0x00000004
*default*        0x00000000         0xffffffff

Linker script and memory map

LOAD c:/program files/microchip/xc32/v4.00/bin/bin/../../lib/gcc/pic32c/8.3.1/thumb/v7e-m+fp/hard/crti.o
LOAD c:/program files/microchip/xc32/v4.00/bin/bin/../../lib/gcc/pic32c/8.3.1/thumb/v7e-m+fp/hard/crtbegin.o
LOAD build/default/production/_ext/1645245335/crypto.o
LOAD build/default/production/_ext/444070925/drv_ethphy.o
LOAD build/default/production/_ext/444070925/drv_extphy_ksz8061.o
LOAD build/default/production/_ext/1546807373/drv_gmac.o
LOAD build/default/production/_ext/1546807373/drv_gmac_lib_samE5x.o
LOAD build/default/production/_ext/438849557/drv_miim.o
LOAD build/default/production/_ext/20954303/drv_sdmmc_file_system.o
LOAD build/default/production/_ext/20954303/drv_sdmmc.o
LOAD build/default/production/_ext/1751889202/sys_fs_shell.o
LOAD build/default/production/_ext/1033058136/helpers.o
LOAD build/default/production/_ext/1033058136/tcp.o
LOAD build/default/production/_ext/1033058136/arp.o
LOAD build/default/production/_ext/1033058136/ipv4.o
LOAD build/default/production/_ext/1033058136/tcpip_heap_alloc.o
LOAD build/default/production/_ext/1033058136/tcpip_heap_internal.o
LOAD build/default/production/_ext/1033058136/dhcp.o
LOAD build/default/production/_ext/1033058136/dns.o
LOAD build/default/production/_ext/1033058136/hash_fnv.o
LOAD build/default/production/_ext/1033058136/oahash.o
LOAD build/default/production/_ext/1033058136/tcpip_helpers.o
LOAD build/default/production/_ext/1033058136/tcpip_manager.o
LOAD build/default/production/_ext/1033058136/tcpip_notify.o
LOAD build/default/production/_ext/1033058136/tcpip_packet.o
LOAD build/default/production/_ext/1033058136/ftp.o
LOAD build/default/production/_ext/1033058136/icmp.o
LOAD build/default/production/_ext/1033058136/berkeley_api.o
LOAD build/default/production/_ext/1033058136/tcpip_announce.o
LOAD build/default/production/_ext/1033058136/udp.o
LOAD build/default/production/_ext/1033058136/iperf.o
LOAD build/default/production/_ext/1508031553/net_pres.o
LOAD build/default/production/_ext/1640433940/net_pres_enc_glue.o
LOAD build/default/production/_ext/1640433940/net_pres_cert_store.o
LOAD build/default/production/_ext/1984496892/plib_clock.o
LOAD build/default/production/_ext/1865131932/plib_cmcc.o
LOAD build/default/production/_ext/1986646378/plib_evsys.o
LOAD build/default/production/_ext/1865468468/plib_nvic.o
LOAD build/default/production/_ext/1593096446/plib_nvmctrl.o
LOAD build/default/production/_ext/1865521619/plib_port.o
LOAD build/default/production/_ext/1865600094/plib_sdhc1.o
LOAD build/default/production/_ext/504274921/plib_sercom1_usart.o
LOAD build/default/production/_ext/829342655/plib_tc0.o
LOAD build/default/production/_ext/163028504/xc32_monitor.o
LOAD build/default/production/_ext/1014039709/sys_cache.o
LOAD build/default/production/_ext/1376093119/sys_command.o
LOAD build/default/production/_ext/1832805299/sys_console.o
LOAD build/default/production/_ext/1832805299/sys_console_uart.o
LOAD build/default/production/_ext/944882569/sys_debug.o
LOAD build/default/production/_ext/411819097/ff.o
LOAD build/default/production/_ext/411819097/ffunicode.o
LOAD build/default/production/_ext/565198302/diskio.o
LOAD build/default/production/_ext/1269487135/sys_fs.o
LOAD build/default/production/_ext/1269487135/sys_fs_media_manager.o
LOAD build/default/production/_ext/1269487135/sys_fs_fat_interface.o
LOAD build/default/production/_ext/1881668453/sys_int.o
LOAD build/default/production/_ext/1000052432/sys_reset.o
LOAD build/default/production/_ext/101884895/sys_time.o
LOAD build/default/production/_ext/753841488/sys_time_h2_adapter.o
LOAD build/default/production/_ext/753841488/sys_random_h2_adapter.o
LOAD build/default/production/_ext/1171490990/initialization.o
LOAD build/default/production/_ext/1171490990/interrupts.o
LOAD build/default/production/_ext/1171490990/exceptions.o
LOAD build/default/production/_ext/1171490990/startup_xc32.o
LOAD build/default/production/_ext/1171490990/libc_syscalls.o
LOAD build/default/production/_ext/1171490990/tasks.o
LOAD build/default/production/_ext/172253694/pic32mz-crypt.o
LOAD build/default/production/_ext/172253694/crypt_aes_sam6149.o
LOAD build/default/production/_ext/172253694/crypt_aes_u2238.o
LOAD build/default/production/_ext/172253694/crypt_ecc_ba414e.o
LOAD build/default/production/_ext/172253694/crypt_ecc_pukcl.o
LOAD build/default/production/_ext/172253694/crypt_pukcl_functions.o
LOAD build/default/production/_ext/172253694/crypt_rng_sam6334.o
LOAD build/default/production/_ext/172253694/crypt_rng_u2242.o
LOAD build/default/production/_ext/172253694/crypt_rsa_pukcl.o
LOAD build/default/production/_ext/172253694/crypt_sam_u2803.o
LOAD build/default/production/_ext/172253694/crypt_sha1_sam11105.o
LOAD build/default/production/_ext/172253694/crypt_sha1_sam6156.o
LOAD build/default/production/_ext/172253694/crypt_sha224_sam11105.o
LOAD build/default/production/_ext/172253694/crypt_sha224_sam6156.o
LOAD build/default/production/_ext/172253694/crypt_sha256_sam11105.o
LOAD build/default/production/_ext/172253694/crypt_sha256_sam6156.o
LOAD build/default/production/_ext/172253694/crypt_sha384_sam6156.o
LOAD build/default/production/_ext/172253694/crypt_sha512_sam6156.o
LOAD build/default/production/_ext/172253694/crypt_tdes_sam6150.o
LOAD build/default/production/_ext/172253694/crypt_wolfcryptcb.o
LOAD build/default/production/_ext/1664057780/arc4.o
LOAD build/default/production/_ext/1664057780/asm.o
LOAD build/default/production/_ext/1664057780/asn.o
LOAD build/default/production/_ext/1664057780/blake2b.o
LOAD build/default/production/_ext/1664057780/blake2s.o
LOAD build/default/production/_ext/1664057780/camellia.o
LOAD build/default/production/_ext/1664057780/chacha.o
LOAD build/default/production/_ext/1664057780/chacha20_poly1305.o
LOAD build/default/production/_ext/1664057780/cmac.o
LOAD build/default/production/_ext/1664057780/coding.o
LOAD build/default/production/_ext/1664057780/compress.o
LOAD build/default/production/_ext/1664057780/cpuid.o
LOAD build/default/production/_ext/1664057780/cryptocb.o
LOAD build/default/production/_ext/1664057780/curve25519.o
LOAD build/default/production/_ext/1664057780/curve448.o
LOAD build/default/production/_ext/1664057780/dh.o
LOAD build/default/production/_ext/1664057780/dsa.o
LOAD build/default/production/_ext/1664057780/ecc_fp.o
LOAD build/default/production/_ext/1664057780/ed25519.o
LOAD build/default/production/_ext/1664057780/ed448.o
LOAD build/default/production/_ext/1664057780/error.o
LOAD build/default/production/_ext/1664057780/fe_448.o
LOAD build/default/production/_ext/1664057780/fe_low_mem.o
LOAD build/default/production/_ext/1664057780/fe_operations.o
LOAD build/default/production/_ext/1664057780/ge_448.o
LOAD build/default/production/_ext/1664057780/ge_low_mem.o
LOAD build/default/production/_ext/1664057780/ge_operations.o
LOAD build/default/production/_ext/1664057780/hash.o
LOAD build/default/production/_ext/1664057780/hc128.o
LOAD build/default/production/_ext/1664057780/hmac.o
LOAD build/default/production/_ext/1664057780/idea.o
LOAD build/default/production/_ext/1664057780/integer.o
LOAD build/default/production/_ext/1664057780/logging.o
LOAD build/default/production/_ext/1664057780/md2.o
LOAD build/default/production/_ext/1664057780/md4.o
LOAD build/default/production/_ext/1664057780/md5.o
LOAD build/default/production/_ext/1664057780/memory.o
LOAD build/default/production/_ext/1664057780/pkcs12.o
LOAD build/default/production/_ext/1664057780/pkcs7.o
LOAD build/default/production/_ext/1664057780/poly1305.o
LOAD build/default/production/_ext/1664057780/pwdbased.o
LOAD build/default/production/_ext/1664057780/rabbit.o
LOAD build/default/production/_ext/1664057780/rc2.o
LOAD build/default/production/_ext/1664057780/ripemd.o
LOAD build/default/production/_ext/1664057780/rsa.o
LOAD build/default/production/_ext/1664057780/sha3.o
LOAD build/default/production/_ext/1664057780/signature.o
LOAD build/default/production/_ext/1664057780/sp_arm32.o
LOAD build/default/production/_ext/1664057780/sp_arm64.o
LOAD build/default/production/_ext/1664057780/sp_armthumb.o
LOAD build/default/production/_ext/1664057780/sp_c32.o
LOAD build/default/production/_ext/1664057780/sp_c64.o
LOAD build/default/production/_ext/1664057780/sp_cortexm.o
LOAD build/default/production/_ext/1664057780/sp_dsp32.o
LOAD build/default/production/_ext/1664057780/sp_int.o
LOAD build/default/production/_ext/1664057780/sp_x86_64.o
LOAD build/default/production/_ext/1664057780/srp.o
LOAD build/default/production/_ext/1664057780/tfm.o
LOAD build/default/production/_ext/1664057780/wc_dsp.o
LOAD build/default/production/_ext/1664057780/wc_encrypt.o
LOAD build/default/production/_ext/1664057780/wc_pkcs11.o
LOAD build/default/production/_ext/1664057780/wc_port.o
LOAD build/default/production/_ext/1664057780/wolfevent.o
LOAD build/default/production/_ext/1664057780/wolfmath.o
LOAD build/default/production/_ext/1664057780/aes.o
LOAD build/default/production/_ext/1664057780/des3.o
LOAD build/default/production/_ext/1664057780/random.o
LOAD build/default/production/_ext/1664057780/sha.o
LOAD build/default/production/_ext/1664057780/sha256.o
LOAD build/default/production/_ext/1664057780/sha512.o
LOAD build/default/production/_ext/1664057780/ecc.o
LOAD build/default/production/_ext/1360937237/main.o
LOAD build/default/production/_ext/1360937237/app.o
LOAD build/default/production/_ext/1664057780/misc.o
LOAD build/default/production/_ext/1664057780/evp.o
                0x00000001                __MPLAB_BUILD = 0x1
                0x00100000                __rom_end = (ORIGIN (rom) + LENGTH (rom))
                0x20040000                __ram_end = (ORIGIN (ram) + LENGTH (ram))

.config_00804000
 *(.config_00804000)

.config_00804008
 *(.config_00804008)

.config_00804004
 *(.config_00804004)

.vectors        0x00000000      0x264
                0x00000000                . = ALIGN (0x4)
                0x00000000                _sfixed = .
 *(.vectors .vectors.* .vectors_default .vectors_default.*)
 .vectors.exception_table
                0x00000000      0x264 build/default/production/_ext/1171490990/interrupts.o
                0x00000000                exception_table
 *(.isr_vector)
 *(.reset*)
 *(.after_vectors)

.text           0x00000264       0x20
                0x00000264                . = ALIGN (0x4)
 *(.glue_7t)
 .glue_7t       0x00000264        0x0 linker stubs
 *(.glue_7)
 .glue_7        0x00000264        0x0 linker stubs
 *(.gnu.linkonce.r.*)
 *(.ARM.extab* .gnu.linkonce.armextab.*)
                0x00000264                . = ALIGN (0x4)
 *(.init)
 .init          0x00000264        0x4 c:/program files/microchip/xc32/v4.00/bin/bin/../../lib/gcc/pic32c/8.3.1/thumb/v7e-m+fp/hard/crti.o
                0x00000264                _init
 .init          0x00000268        0x8 c:/program files/microchip/xc32/v4.00/bin/bin/../../lib/gcc/pic32c/8.3.1/thumb/v7e-m+fp/hard/crtn.o
                0x00000270                . = ALIGN (0x4)
                0x00000270                __preinit_array_start = .
 *(.preinit_array)
                0x00000270                __preinit_array_end = .
                0x00000270                . = ALIGN (0x4)
                0x00000270                __init_array_start = .
 *(SORT_BY_NAME(.init_array.*))
 *(.init_array)
 .init_array    0x00000270        0x4 c:/program files/microchip/xc32/v4.00/bin/bin/../../lib/gcc/pic32c/8.3.1/thumb/v7e-m+fp/hard/crtbegin.o
                0x00000274                __init_array_end = .
                0x00000274                . = ALIGN (0x4)
 *crtbegin.o(.ctors)
 *(EXCLUDE_FILE(*crtend.o) .ctors)
 *(SORT_BY_NAME(.ctors.*))
 *crtend.o(.ctors)
                0x00000274                . = ALIGN (0x4)
 *(.fini)
 .fini          0x00000274        0x4 c:/program files/microchip/xc32/v4.00/bin/bin/../../lib/gcc/pic32c/8.3.1/thumb/v7e-m+fp/hard/crti.o
                0x00000274                _fini
 .fini          0x00000278        0x8 c:/program files/microchip/xc32/v4.00/bin/bin/../../lib/gcc/pic32c/8.3.1/thumb/v7e-m+fp/hard/crtn.o
                0x00000280                . = ALIGN (0x4)
                0x00000280                __fini_array_start = .
 *(.fini_array)
 .fini_array    0x00000280        0x4 c:/program files/microchip/xc32/v4.00/bin/bin/../../lib/gcc/pic32c/8.3.1/thumb/v7e-m+fp/hard/crtbegin.o
 *(SORT_BY_NAME(.fini_array.*))
                0x00000284                __fini_array_end = .
 *crtbegin.o(.dtors)
 *(EXCLUDE_FILE(*crtend.o) .dtors)
 *(SORT_BY_NAME(.dtors.*))
 *crtend.o(.dtors)
                0x00000284                . = ALIGN (0x4)
                0x00000284                _efixed = .
                [!provide]                PROVIDE (__exidx_start = .)

.ARM.exidx      0x00000284        0x8
 *(.ARM.exidx* .gnu.linkonce.armexidx.*)
 .ARM.exidx     0x00000284        0x8 c:/program files/microchip/xc32/v4.00/bin/bin/../../lib/gcc/pic32c/8.3.1/thumb/v7e-m+fp/hard\libgcc.a(_udivmoddi4.o)
                [!provide]                PROVIDE (__exidx_end = .)
                0x0000028c                . = ALIGN (0x4)
                0x0000028c                _etext = .

.bss            0x20000000        0x0
                0x20000000                . = ALIGN (0x4)
                0x20000000                __bss_start__ = .
                0x20000000                _sbss = .
                0x20000000                _szero = .
 *(COMMON)
                0x20000000                . = ALIGN (0x4)
                0x20000000                __bss_end__ = .
                0x20000000                _ebss = .
                0x20000000                _ezero = .
                0x20000000                . = ALIGN (0x4)
                0x20000000                _end = .
                0x2003ffff                _ram_end_ = ((ORIGIN (ram) + LENGTH (ram)) - 0x1)

.bkupram_bss
 *(.bkupram_bss .bkupram_bss.*)
 *(.pbss .pbss.*)
                0x000186a0                _min_heap_size = 0x186a0
START GROUP
LOAD c:/program files/microchip/xc32/v4.00/bin/bin/../../lib/gcc/pic32c/8.3.1/../../../../pic32c/lib/thumb/v7e-m+fp/hard\libpic32c.a
LOAD c:/program files/microchip/xc32/v4.00/bin/bin/../../lib/gcc/pic32c/8.3.1/../../../../pic32c/lib/thumb/v7e-m+fp/hard\libm-emfloat.a
LOAD c:/program files/microchip/xc32/v4.00/bin/bin/../../lib/gcc/pic32c/8.3.1/../../../../pic32c/lib/thumb/v7e-m+fp/hard\libc-musl.a
LOAD c:/program files/microchip/xc32/v4.00/bin/bin/../../lib/gcc/pic32c/8.3.1/../../../../pic32c/lib/thumb/v7e-m+fp/hard\libm-emfloat.a
LOAD c:/program files/microchip/xc32/v4.00/bin/bin/../../lib/gcc/pic32c/8.3.1/thumb/v7e-m+fp/hard\libgcc.a
END GROUP
LOAD c:/program files/microchip/xc32/v4.00/bin/bin/../../lib/gcc/pic32c/8.3.1/thumb/v7e-m+fp/hard/crtend.o
LOAD c:/program files/microchip/xc32/v4.00/bin/bin/../../lib/gcc/pic32c/8.3.1/thumb/v7e-m+fp/hard/crtn.o
OUTPUT(dist/default/production/same54_cu_tcpip.X.production.elf elf32-littlearm)
LOAD stack
LOAD data_init

.ARM.attributes
                0x00000000       0x32
 .ARM.attributes
                0x00000000       0x1e c:/program files/microchip/xc32/v4.00/bin/bin/../../lib/gcc/pic32c/8.3.1/thumb/v7e-m+fp/hard/crti.o
 .ARM.attributes
                0x0000001e       0x34 c:/program files/microchip/xc32/v4.00/bin/bin/../../lib/gcc/pic32c/8.3.1/thumb/v7e-m+fp/hard/crtbegin.o
 .ARM.attributes
                0x00000052       0x34 build/default/production/_ext/444070925/drv_ethphy.o
 .ARM.attributes
                0x00000086       0x34 build/default/production/_ext/444070925/drv_extphy_ksz8061.o
 .ARM.attributes
                0x000000ba       0x34 build/default/production/_ext/1546807373/drv_gmac.o
 .ARM.attributes
                0x000000ee       0x34 build/default/production/_ext/1546807373/drv_gmac_lib_samE5x.o
 .ARM.attributes
                0x00000122       0x34 build/default/production/_ext/438849557/drv_miim.o
 .ARM.attributes
                0x00000156       0x34 build/default/production/_ext/20954303/drv_sdmmc_file_system.o
 .ARM.attributes
                0x0000018a       0x34 build/default/production/_ext/20954303/drv_sdmmc.o
 .ARM.attributes
                0x000001be       0x34 build/default/production/_ext/1751889202/sys_fs_shell.o
 .ARM.attributes
                0x000001f2       0x34 build/default/production/_ext/1033058136/helpers.o
 .ARM.attributes
                0x00000226       0x34 build/default/production/_ext/1033058136/tcp.o
 .ARM.attributes
                0x0000025a       0x34 build/default/production/_ext/1033058136/arp.o
 .ARM.attributes
                0x0000028e       0x34 build/default/production/_ext/1033058136/ipv4.o
 .ARM.attributes
                0x000002c2       0x34 build/default/production/_ext/1033058136/tcpip_heap_alloc.o
 .ARM.attributes
                0x000002f6       0x34 build/default/production/_ext/1033058136/tcpip_heap_internal.o
 .ARM.attributes
                0x0000032a       0x34 build/default/production/_ext/1033058136/dns.o
 .ARM.attributes
                0x0000035e       0x34 build/default/production/_ext/1033058136/hash_fnv.o
 .ARM.attributes
                0x00000392       0x34 build/default/production/_ext/1033058136/oahash.o
 .ARM.attributes
                0x000003c6       0x34 build/default/production/_ext/1033058136/tcpip_helpers.o
 .ARM.attributes
                0x000003fa       0x34 build/default/production/_ext/1033058136/tcpip_manager.o
 .ARM.attributes
                0x0000042e       0x34 build/default/production/_ext/1033058136/tcpip_notify.o
 .ARM.attributes
                0x00000462       0x34 build/default/production/_ext/1033058136/tcpip_packet.o
 .ARM.attributes
                0x00000496       0x34 build/default/production/_ext/1033058136/ftp.o
 .ARM.attributes
                0x000004ca       0x34 build/default/production/_ext/1033058136/icmp.o
 .ARM.attributes
                0x000004fe       0x34 build/default/production/_ext/1033058136/berkeley_api.o
 .ARM.attributes
                0x00000532       0x34 build/default/production/_ext/1033058136/tcpip_announce.o
 .ARM.attributes
                0x00000566       0x34 build/default/production/_ext/1033058136/udp.o
 .ARM.attributes
                0x0000059a       0x34 build/default/production/_ext/1033058136/iperf.o
 .ARM.attributes
                0x000005ce       0x34 build/default/production/_ext/1508031553/net_pres.o
 .ARM.attributes
                0x00000602       0x34 build/default/production/_ext/1984496892/plib_clock.o
 .ARM.attributes
                0x00000636       0x34 build/default/production/_ext/1986646378/plib_evsys.o
 .ARM.attributes
                0x0000066a       0x34 build/default/production/_ext/1865468468/plib_nvic.o
 .ARM.attributes
                0x0000069e       0x34 build/default/production/_ext/1593096446/plib_nvmctrl.o
 .ARM.attributes
                0x000006d2       0x34 build/default/production/_ext/1865521619/plib_port.o
 .ARM.attributes
                0x00000706       0x34 build/default/production/_ext/1865600094/plib_sdhc1.o
 .ARM.attributes
                0x0000073a       0x34 build/default/production/_ext/504274921/plib_sercom1_usart.o
 .ARM.attributes
                0x0000076e       0x34 build/default/production/_ext/829342655/plib_tc0.o
 .ARM.attributes
                0x000007a2       0x34 build/default/production/_ext/1376093119/sys_command.o
 .ARM.attributes
                0x000007d6       0x34 build/default/production/_ext/1832805299/sys_console.o
 .ARM.attributes
                0x0000080a       0x34 build/default/production/_ext/1832805299/sys_console_uart.o
 .ARM.attributes
                0x0000083e       0x34 build/default/production/_ext/944882569/sys_debug.o
 .ARM.attributes
                0x00000872       0x34 build/default/production/_ext/411819097/ff.o
 .ARM.attributes
                0x000008a6       0x34 build/default/production/_ext/411819097/ffunicode.o
 .ARM.attributes
                0x000008da       0x34 build/default/production/_ext/565198302/diskio.o
 .ARM.attributes
                0x0000090e       0x34 build/default/production/_ext/1269487135/sys_fs.o
 .ARM.attributes
                0x00000942       0x34 build/default/production/_ext/1269487135/sys_fs_media_manager.o
 .ARM.attributes
                0x00000976       0x34 build/default/production/_ext/1269487135/sys_fs_fat_interface.o
 .ARM.attributes
                0x000009aa       0x34 build/default/production/_ext/1881668453/sys_int.o
 .ARM.attributes
                0x000009de       0x34 build/default/production/_ext/1000052432/sys_reset.o
 .ARM.attributes
                0x00000a12       0x34 build/default/production/_ext/101884895/sys_time.o
 .ARM.attributes
                0x00000a46       0x34 build/default/production/_ext/753841488/sys_time_h2_adapter.o
 .ARM.attributes
                0x00000a7a       0x34 build/default/production/_ext/1171490990/initialization.o
 .ARM.attributes
                0x00000aae       0x34 build/default/production/_ext/1171490990/interrupts.o
 .ARM.attributes
                0x00000ae2       0x34 build/default/production/_ext/1171490990/exceptions.o
 .ARM.attributes
                0x00000b16       0x34 build/default/production/_ext/1171490990/startup_xc32.o
 .ARM.attributes
                0x00000b4a       0x34 build/default/production/_ext/1171490990/tasks.o
 .ARM.attributes
                0x00000b7e       0x34 build/default/production/_ext/172253694/crypt_wolfcryptcb.o
 .ARM.attributes
                0x00000bb2       0x34 build/default/production/_ext/1664057780/cryptocb.o
 .ARM.attributes
                0x00000be6       0x34 build/default/production/_ext/1360937237/main.o
 .ARM.attributes
                0x00000c1a       0x34 build/default/production/_ext/1360937237/app.o
 .ARM.attributes
                0x00000c4e       0x34 c:/program files/microchip/xc32/v4.00/bin/bin/../../lib/gcc/pic32c/8.3.1/../../../../pic32c/lib/thumb/v7e-m+fp/hard\libpic32c.a(data_init.o)
 .ARM.attributes
                0x00000c82       0x20 c:/program files/microchip/xc32/v4.00/bin/bin/../../lib/gcc/pic32c/8.3.1/../../../../pic32c/lib/thumb/v7e-m+fp/hard\libm-emfloat.a(floatasmops_arm.o)
 .ARM.attributes
                0x00000ca2       0x36 c:/program files/microchip/xc32/v4.00/bin/bin/../../lib/gcc/pic32c/8.3.1/../../../../pic32c/lib/thumb/v7e-m+fp/hard\libc-musl.a(isxdigit.o)
 .ARM.attributes
                0x00000cd8       0x36 c:/program files/microchip/xc32/v4.00/bin/bin/../../lib/gcc/pic32c/8.3.1/../../../../pic32c/lib/thumb/v7e-m+fp/hard\libc-musl.a(tolower.o)
 .ARM.attributes
                0x00000d0e       0x36 c:/program files/microchip/xc32/v4.00/bin/bin/../../lib/gcc/pic32c/8.3.1/../../../../pic32c/lib/thumb/v7e-m+fp/hard\libc-musl.a(toupper.o)
 .ARM.attributes
                0x00000d44       0x36 c:/program files/microchip/xc32/v4.00/bin/bin/../../lib/gcc/pic32c/8.3.1/../../../../pic32c/lib/thumb/v7e-m+fp/hard\libc-musl.a(__libc_start_main.o)
 .ARM.attributes
                0x00000d7a       0x34 c:/program files/microchip/xc32/v4.00/bin/bin/../../lib/gcc/pic32c/8.3.1/../../../../pic32c/lib/thumb/v7e-m+fp/hard\libc-musl.a(__errno_location.o)
 .ARM.attributes
                0x00000dae       0x34 c:/program files/microchip/xc32/v4.00/bin/bin/../../lib/gcc/pic32c/8.3.1/../../../../pic32c/lib/thumb/v7e-m+fp/hard\libc-musl.a(libc.o)
 .ARM.attributes
                0x00000de2       0x36 c:/program files/microchip/xc32/v4.00/bin/bin/../../lib/gcc/pic32c/8.3.1/../../../../pic32c/lib/thumb/v7e-m+fp/hard\libc-musl.a(calloc.o)
 .ARM.attributes
                0x00000e18       0x36 c:/program files/microchip/xc32/v4.00/bin/bin/../../lib/gcc/pic32c/8.3.1/../../../../pic32c/lib/thumb/v7e-m+fp/hard\libc-musl.a(malloc.o)
 .ARM.attributes
                0x00000e4e       0x36 c:/program files/microchip/xc32/v4.00/bin/bin/../../lib/gcc/pic32c/8.3.1/../../../../pic32c/lib/thumb/v7e-m+fp/hard\libc-musl.a(expand_heap.o)
 .ARM.attributes
                0x00000e84       0x36 c:/program files/microchip/xc32/v4.00/bin/bin/../../lib/gcc/pic32c/8.3.1/../../../../pic32c/lib/thumb/v7e-m+fp/hard\libc-musl.a(rand.o)
 .ARM.attributes
                0x00000eba       0x36 c:/program files/microchip/xc32/v4.00/bin/bin/../../lib/gcc/pic32c/8.3.1/../../../../pic32c/lib/thumb/v7e-m+fp/hard\libc-musl.a(vsnprintf.o)
 .ARM.attributes
                0x00000ef0       0x36 c:/program files/microchip/xc32/v4.00/bin/bin/../../lib/gcc/pic32c/8.3.1/../../../../pic32c/lib/thumb/v7e-m+fp/hard\libc-musl.a(snprintf.o)
 .ARM.attributes
                0x00000f26       0x36 c:/program files/microchip/xc32/v4.00/bin/bin/../../lib/gcc/pic32c/8.3.1/../../../../pic32c/lib/thumb/v7e-m+fp/hard\libc-musl.a(sprintf.o)
 .ARM.attributes
                0x00000f5c       0x36 c:/program files/microchip/xc32/v4.00/bin/bin/../../lib/gcc/pic32c/8.3.1/../../../../pic32c/lib/thumb/v7e-m+fp/hard\libc-musl.a(vsprintf.o)
 .ARM.attributes
                0x00000f92       0x36 c:/program files/microchip/xc32/v4.00/bin/bin/../../lib/gcc/pic32c/8.3.1/../../../../pic32c/lib/thumb/v7e-m+fp/hard\libc-musl.a(atoi.o)
 .ARM.attributes
                0x00000fc8       0x36 c:/program files/microchip/xc32/v4.00/bin/bin/../../lib/gcc/pic32c/8.3.1/../../../../pic32c/lib/thumb/v7e-m+fp/hard\libc-musl.a(memcmp.o)
 .ARM.attributes
                0x00000ffe       0x36 c:/program files/microchip/xc32/v4.00/bin/bin/../../lib/gcc/pic32c/8.3.1/../../../../pic32c/lib/thumb/v7e-m+fp/hard\libc-musl.a(memcpy.o)
 .ARM.attributes
                0x00001034       0x36 c:/program files/microchip/xc32/v4.00/bin/bin/../../lib/gcc/pic32c/8.3.1/../../../../pic32c/lib/thumb/v7e-m+fp/hard\libc-musl.a(memset.o)
 .ARM.attributes
                0x0000106a       0x36 c:/program files/microchip/xc32/v4.00/bin/bin/../../lib/gcc/pic32c/8.3.1/../../../../pic32c/lib/thumb/v7e-m+fp/hard\libc-musl.a(strlen.o)
 .ARM.attributes
                0x000010a0       0x36 c:/program files/microchip/xc32/v4.00/bin/bin/../../lib/gcc/pic32c/8.3.1/../../../../pic32c/lib/thumb/v7e-m+fp/hard\libc-musl.a(strstr.o)
 .ARM.attributes
                0x000010d6       0x36 c:/program files/microchip/xc32/v4.00/bin/bin/../../lib/gcc/pic32c/8.3.1/../../../../pic32c/lib/thumb/v7e-m+fp/hard\libc-musl.a(strchr.o)
 .ARM.attributes
                0x0000110c       0x36 c:/program files/microchip/xc32/v4.00/bin/bin/../../lib/gcc/pic32c/8.3.1/../../../../pic32c/lib/thumb/v7e-m+fp/hard\libc-musl.a(strchrnul.o)
 .ARM.attributes
                0x00001142       0x36 c:/program files/microchip/xc32/v4.00/bin/bin/../../lib/gcc/pic32c/8.3.1/../../../../pic32c/lib/thumb/v7e-m+fp/hard\libc-musl.a(strcmp.o)
 .ARM.attributes
                0x00001178       0x36 c:/program files/microchip/xc32/v4.00/bin/bin/../../lib/gcc/pic32c/8.3.1/../../../../pic32c/lib/thumb/v7e-m+fp/hard\libc-musl.a(strcpy.o)
 .ARM.attributes
                0x000011ae       0x36 c:/program files/microchip/xc32/v4.00/bin/bin/../../lib/gcc/pic32c/8.3.1/../../../../pic32c/lib/thumb/v7e-m+fp/hard\libc-musl.a(strncmp.o)
 .ARM.attributes
                0x000011e4       0x36 c:/program files/microchip/xc32/v4.00/bin/bin/../../lib/gcc/pic32c/8.3.1/../../../../pic32c/lib/thumb/v7e-m+fp/hard\libc-musl.a(strncpy.o)
 .ARM.attributes
                0x0000121a       0x36 c:/program files/microchip/xc32/v4.00/bin/bin/../../lib/gcc/pic32c/8.3.1/../../../../pic32c/lib/thumb/v7e-m+fp/hard\libc-musl.a(strtok.o)
 .ARM.attributes
                0x00001250       0x34 c:/program files/microchip/xc32/v4.00/bin/bin/../../lib/gcc/pic32c/8.3.1/../../../../pic32c/lib/thumb/v7e-m+fp/hard\libc-musl.a(__environ.o)
 .ARM.attributes
                0x00001284       0x36 c:/program files/microchip/xc32/v4.00/bin/bin/../../lib/gcc/pic32c/8.3.1/../../../../pic32c/lib/thumb/v7e-m+fp/hard\libc-musl.a(vfprintf.o)
 .ARM.attributes
                0x000012ba       0x36 c:/program files/microchip/xc32/v4.00/bin/bin/../../lib/gcc/pic32c/8.3.1/../../../../pic32c/lib/thumb/v7e-m+fp/hard\libc-musl.a(stpcpy.o)
 .ARM.attributes
                0x000012f0       0x36 c:/program files/microchip/xc32/v4.00/bin/bin/../../lib/gcc/pic32c/8.3.1/../../../../pic32c/lib/thumb/v7e-m+fp/hard\libc-musl.a(stpncpy.o)
 .ARM.attributes
                0x00001326       0x36 c:/program files/microchip/xc32/v4.00/bin/bin/../../lib/gcc/pic32c/8.3.1/../../../../pic32c/lib/thumb/v7e-m+fp/hard\libc-musl.a(strcspn.o)
 .ARM.attributes
                0x0000135c       0x36 c:/program files/microchip/xc32/v4.00/bin/bin/../../lib/gcc/pic32c/8.3.1/../../../../pic32c/lib/thumb/v7e-m+fp/hard\libc-musl.a(strspn.o)
 .ARM.attributes
                0x00001392       0x36 c:/program files/microchip/xc32/v4.00/bin/bin/../../lib/gcc/pic32c/8.3.1/../../../../pic32c/lib/thumb/v7e-m+fp/hard\libc-musl.a(__printf_core.o)
 .ARM.attributes
                0x000013c8       0x36 c:/program files/microchip/xc32/v4.00/bin/bin/../../lib/gcc/pic32c/8.3.1/../../../../pic32c/lib/thumb/v7e-m+fp/hard\libc-musl.a(__fmt_a.o)
 .ARM.attributes
                0x000013fe       0x36 c:/program files/microchip/xc32/v4.00/bin/bin/../../lib/gcc/pic32c/8.3.1/../../../../pic32c/lib/thumb/v7e-m+fp/hard\libc-musl.a(__fmt_d.o)
 .ARM.attributes
                0x00001434       0x36 c:/program files/microchip/xc32/v4.00/bin/bin/../../lib/gcc/pic32c/8.3.1/../../../../pic32c/lib/thumb/v7e-m+fp/hard\libc-musl.a(__fmt_fp.o)
 .ARM.attributes
                0x0000146a       0x36 c:/program files/microchip/xc32/v4.00/bin/bin/../../lib/gcc/pic32c/8.3.1/../../../../pic32c/lib/thumb/v7e-m+fp/hard\libc-musl.a(__fmt_o.o)
 .ARM.attributes
                0x000014a0       0x36 c:/program files/microchip/xc32/v4.00/bin/bin/../../lib/gcc/pic32c/8.3.1/../../../../pic32c/lib/thumb/v7e-m+fp/hard\libc-musl.a(__fmt_s.o)
 .ARM.attributes
                0x000014d6       0x36 c:/program files/microchip/xc32/v4.00/bin/bin/../../lib/gcc/pic32c/8.3.1/../../../../pic32c/lib/thumb/v7e-m+fp/hard\libc-musl.a(__fmt_u.o)
 .ARM.attributes
                0x0000150c       0x36 c:/program files/microchip/xc32/v4.00/bin/bin/../../lib/gcc/pic32c/8.3.1/../../../../pic32c/lib/thumb/v7e-m+fp/hard\libc-musl.a(__fmt_x.o)
 .ARM.attributes
                0x00001542       0x36 c:/program files/microchip/xc32/v4.00/bin/bin/../../lib/gcc/pic32c/8.3.1/../../../../pic32c/lib/thumb/v7e-m+fp/hard\libc-musl.a(__pop_float.o)
 .ARM.attributes
                0x00001578       0x36 c:/program files/microchip/xc32/v4.00/bin/bin/../../lib/gcc/pic32c/8.3.1/../../../../pic32c/lib/thumb/v7e-m+fp/hard\libc-musl.a(__pop_int.o)
 .ARM.attributes
                0x000015ae       0x36 c:/program files/microchip/xc32/v4.00/bin/bin/../../lib/gcc/pic32c/8.3.1/../../../../pic32c/lib/thumb/v7e-m+fp/hard\libc-musl.a(__pop_ptr.o)
 .ARM.attributes
                0x000015e4       0x34 c:/program files/microchip/xc32/v4.00/bin/bin/../../lib/gcc/pic32c/8.3.1/../../../../pic32c/lib/thumb/v7e-m+fp/hard\libm-emfloat.a(lib_a-_FLOOR.o)
 .ARM.attributes
                0x00001618       0x34 c:/program files/microchip/xc32/v4.00/bin/bin/../../lib/gcc/pic32c/8.3.1/../../../../pic32c/lib/thumb/v7e-m+fp/hard\libm-emfloat.a(lib_a-_FMA.o)
 .ARM.attributes
                0x0000164c       0x1e c:/program files/microchip/xc32/v4.00/bin/bin/../../lib/gcc/pic32c/8.3.1/thumb/v7e-m+fp/hard\libgcc.a(_aeabi_uldivmod.o)
 .ARM.attributes
                0x0000166a       0x34 c:/program files/microchip/xc32/v4.00/bin/bin/../../lib/gcc/pic32c/8.3.1/thumb/v7e-m+fp/hard\libgcc.a(_udivmoddi4.o)
 .ARM.attributes
                0x0000169e       0x1e c:/program files/microchip/xc32/v4.00/bin/bin/../../lib/gcc/pic32c/8.3.1/thumb/v7e-m+fp/hard\libgcc.a(_dvmd_tls.o)
 .ARM.attributes
                0x000016bc       0x34 c:/program files/microchip/xc32/v4.00/bin/bin/../../lib/gcc/pic32c/8.3.1/../../../../pic32c/lib/thumb/v7e-m+fp/hard\libpic32c.a(sbrk.o)
 .ARM.attributes
                0x000016f0       0x1e c:/program files/microchip/xc32/v4.00/bin/bin/../../lib/gcc/pic32c/8.3.1/thumb/v7e-m+fp/hard/crtn.o

.comment        0x00000000       0x53
 .comment       0x00000000       0x53 c:/program files/microchip/xc32/v4.00/bin/bin/../../lib/gcc/pic32c/8.3.1/thumb/v7e-m+fp/hard/crtbegin.o
                                 0x54 (size before relaxing)
 .comment       0x00000053       0x54 build/default/production/_ext/444070925/drv_ethphy.o
 .comment       0x00000053       0x54 build/default/production/_ext/444070925/drv_extphy_ksz8061.o
 .comment       0x00000053       0x54 build/default/production/_ext/1546807373/drv_gmac.o
 .comment       0x00000053       0x54 build/default/production/_ext/1546807373/drv_gmac_lib_samE5x.o
 .comment       0x00000053       0x54 build/default/production/_ext/438849557/drv_miim.o
 .comment       0x00000053       0x54 build/default/production/_ext/20954303/drv_sdmmc_file_system.o
 .comment       0x00000053       0x54 build/default/production/_ext/20954303/drv_sdmmc.o
 .comment       0x00000053       0x54 build/default/production/_ext/1751889202/sys_fs_shell.o
 .comment       0x00000053       0x54 build/default/production/_ext/1033058136/helpers.o
 .comment       0x00000053       0x54 build/default/production/_ext/1033058136/tcp.o
 .comment       0x00000053       0x54 build/default/production/_ext/1033058136/arp.o
 .comment       0x00000053       0x54 build/default/production/_ext/1033058136/ipv4.o
 .comment       0x00000053       0x54 build/default/production/_ext/1033058136/tcpip_heap_alloc.o
 .comment       0x00000053       0x54 build/default/production/_ext/1033058136/tcpip_heap_internal.o
 .comment       0x00000053       0x54 build/default/production/_ext/1033058136/dns.o
 .comment       0x00000053       0x54 build/default/production/_ext/1033058136/hash_fnv.o
 .comment       0x00000053       0x54 build/default/production/_ext/1033058136/oahash.o
 .comment       0x00000053       0x54 build/default/production/_ext/1033058136/tcpip_helpers.o
 .comment       0x00000053       0x54 build/default/production/_ext/1033058136/tcpip_manager.o
 .comment       0x00000053       0x54 build/default/production/_ext/1033058136/tcpip_notify.o
 .comment       0x00000053       0x54 build/default/production/_ext/1033058136/tcpip_packet.o
 .comment       0x00000053       0x54 build/default/production/_ext/1033058136/ftp.o
 .comment       0x00000053       0x54 build/default/production/_ext/1033058136/icmp.o
 .comment       0x00000053       0x54 build/default/production/_ext/1033058136/berkeley_api.o
 .comment       0x00000053       0x54 build/default/production/_ext/1033058136/tcpip_announce.o
 .comment       0x00000053       0x54 build/default/production/_ext/1033058136/udp.o
 .comment       0x00000053       0x54 build/default/production/_ext/1033058136/iperf.o
 .comment       0x00000053       0x54 build/default/production/_ext/1508031553/net_pres.o
 .comment       0x00000053       0x54 build/default/production/_ext/1984496892/plib_clock.o
 .comment       0x00000053       0x54 build/default/production/_ext/1986646378/plib_evsys.o
 .comment       0x00000053       0x54 build/default/production/_ext/1865468468/plib_nvic.o
 .comment       0x00000053       0x54 build/default/production/_ext/1593096446/plib_nvmctrl.o
 .comment       0x00000053       0x54 build/default/production/_ext/1865521619/plib_port.o
 .comment       0x00000053       0x54 build/default/production/_ext/1865600094/plib_sdhc1.o
 .comment       0x00000053       0x54 build/default/production/_ext/504274921/plib_sercom1_usart.o
 .comment       0x00000053       0x54 build/default/production/_ext/829342655/plib_tc0.o
 .comment       0x00000053       0x54 build/default/production/_ext/1376093119/sys_command.o
 .comment       0x00000053       0x54 build/default/production/_ext/1832805299/sys_console.o
 .comment       0x00000053       0x54 build/default/production/_ext/1832805299/sys_console_uart.o
 .comment       0x00000053       0x54 build/default/production/_ext/944882569/sys_debug.o
 .comment       0x00000053       0x54 build/default/production/_ext/411819097/ff.o
 .comment       0x00000053       0x54 build/default/production/_ext/411819097/ffunicode.o
 .comment       0x00000053       0x54 build/default/production/_ext/565198302/diskio.o
 .comment       0x00000053       0x54 build/default/production/_ext/1269487135/sys_fs.o
 .comment       0x00000053       0x54 build/default/production/_ext/1269487135/sys_fs_media_manager.o
 .comment       0x00000053       0x54 build/default/production/_ext/1269487135/sys_fs_fat_interface.o
 .comment       0x00000053       0x54 build/default/production/_ext/1881668453/sys_int.o
 .comment       0x00000053       0x54 build/default/production/_ext/1000052432/sys_reset.o
 .comment       0x00000053       0x54 build/default/production/_ext/101884895/sys_time.o
 .comment       0x00000053       0x54 build/default/production/_ext/753841488/sys_time_h2_adapter.o
 .comment       0x00000053       0x54 build/default/production/_ext/1171490990/initialization.o
 .comment       0x00000053       0x54 build/default/production/_ext/1171490990/interrupts.o
 .comment       0x00000053       0x54 build/default/production/_ext/1171490990/exceptions.o
 .comment       0x00000053       0x54 build/default/production/_ext/1171490990/startup_xc32.o
 .comment       0x00000053       0x54 build/default/production/_ext/1171490990/tasks.o
 .comment       0x00000053       0x54 build/default/production/_ext/172253694/crypt_wolfcryptcb.o
 .comment       0x00000053       0x54 build/default/production/_ext/1664057780/cryptocb.o
 .comment       0x00000053       0x54 build/default/production/_ext/1360937237/main.o
 .comment       0x00000053       0x54 build/default/production/_ext/1360937237/app.o
 .comment       0x00000053       0x54 c:/program files/microchip/xc32/v4.00/bin/bin/../../lib/gcc/pic32c/8.3.1/../../../../pic32c/lib/thumb/v7e-m+fp/hard\libpic32c.a(data_init.o)
 .comment       0x00000053       0x54 c:/program files/microchip/xc32/v4.00/bin/bin/../../lib/gcc/pic32c/8.3.1/../../../../pic32c/lib/thumb/v7e-m+fp/hard\libc-musl.a(isxdigit.o)
 .comment       0x00000053       0x54 c:/program files/microchip/xc32/v4.00/bin/bin/../../lib/gcc/pic32c/8.3.1/../../../../pic32c/lib/thumb/v7e-m+fp/hard\libc-musl.a(tolower.o)
 .comment       0x00000053       0x54 c:/program files/microchip/xc32/v4.00/bin/bin/../../lib/gcc/pic32c/8.3.1/../../../../pic32c/lib/thumb/v7e-m+fp/hard\libc-musl.a(toupper.o)
 .comment       0x00000053       0x54 c:/program files/microchip/xc32/v4.00/bin/bin/../../lib/gcc/pic32c/8.3.1/../../../../pic32c/lib/thumb/v7e-m+fp/hard\libc-musl.a(__libc_start_main.o)
 .comment       0x00000053       0x54 c:/program files/microchip/xc32/v4.00/bin/bin/../../lib/gcc/pic32c/8.3.1/../../../../pic32c/lib/thumb/v7e-m+fp/hard\libc-musl.a(__errno_location.o)
 .comment       0x00000053       0x54 c:/program files/microchip/xc32/v4.00/bin/bin/../../lib/gcc/pic32c/8.3.1/../../../../pic32c/lib/thumb/v7e-m+fp/hard\libc-musl.a(libc.o)
 .comment       0x00000053       0x54 c:/program files/microchip/xc32/v4.00/bin/bin/../../lib/gcc/pic32c/8.3.1/../../../../pic32c/lib/thumb/v7e-m+fp/hard\libc-musl.a(calloc.o)
 .comment       0x00000053       0x54 c:/program files/microchip/xc32/v4.00/bin/bin/../../lib/gcc/pic32c/8.3.1/../../../../pic32c/lib/thumb/v7e-m+fp/hard\libc-musl.a(malloc.o)
 .comment       0x00000053       0x54 c:/program files/microchip/xc32/v4.00/bin/bin/../../lib/gcc/pic32c/8.3.1/../../../../pic32c/lib/thumb/v7e-m+fp/hard\libc-musl.a(expand_heap.o)
 .comment       0x00000053       0x54 c:/program files/microchip/xc32/v4.00/bin/bin/../../lib/gcc/pic32c/8.3.1/../../../../pic32c/lib/thumb/v7e-m+fp/hard\libc-musl.a(rand.o)
 .comment       0x00000053       0x54 c:/program files/microchip/xc32/v4.00/bin/bin/../../lib/gcc/pic32c/8.3.1/../../../../pic32c/lib/thumb/v7e-m+fp/hard\libc-musl.a(vsnprintf.o)
 .comment       0x00000053       0x54 c:/program files/microchip/xc32/v4.00/bin/bin/../../lib/gcc/pic32c/8.3.1/../../../../pic32c/lib/thumb/v7e-m+fp/hard\libc-musl.a(snprintf.o)
 .comment       0x00000053       0x54 c:/program files/microchip/xc32/v4.00/bin/bin/../../lib/gcc/pic32c/8.3.1/../../../../pic32c/lib/thumb/v7e-m+fp/hard\libc-musl.a(sprintf.o)
 .comment       0x00000053       0x54 c:/program files/microchip/xc32/v4.00/bin/bin/../../lib/gcc/pic32c/8.3.1/../../../../pic32c/lib/thumb/v7e-m+fp/hard\libc-musl.a(vsprintf.o)
 .comment       0x00000053       0x54 c:/program files/microchip/xc32/v4.00/bin/bin/../../lib/gcc/pic32c/8.3.1/../../../../pic32c/lib/thumb/v7e-m+fp/hard\libc-musl.a(atoi.o)
 .comment       0x00000053       0x54 c:/program files/microchip/xc32/v4.00/bin/bin/../../lib/gcc/pic32c/8.3.1/../../../../pic32c/lib/thumb/v7e-m+fp/hard\libc-musl.a(memcmp.o)
 .comment       0x00000053       0x54 c:/program files/microchip/xc32/v4.00/bin/bin/../../lib/gcc/pic32c/8.3.1/../../../../pic32c/lib/thumb/v7e-m+fp/hard\libc-musl.a(memcpy.o)
 .comment       0x00000053       0x54 c:/program files/microchip/xc32/v4.00/bin/bin/../../lib/gcc/pic32c/8.3.1/../../../../pic32c/lib/thumb/v7e-m+fp/hard\libc-musl.a(memset.o)
 .comment       0x00000053       0x54 c:/program files/microchip/xc32/v4.00/bin/bin/../../lib/gcc/pic32c/8.3.1/../../../../pic32c/lib/thumb/v7e-m+fp/hard\libc-musl.a(strlen.o)
 .comment       0x00000053       0x54 c:/program files/microchip/xc32/v4.00/bin/bin/../../lib/gcc/pic32c/8.3.1/../../../../pic32c/lib/thumb/v7e-m+fp/hard\libc-musl.a(strstr.o)
 .comment       0x00000053       0x54 c:/program files/microchip/xc32/v4.00/bin/bin/../../lib/gcc/pic32c/8.3.1/../../../../pic32c/lib/thumb/v7e-m+fp/hard\libc-musl.a(strchr.o)
 .comment       0x00000053       0x54 c:/program files/microchip/xc32/v4.00/bin/bin/../../lib/gcc/pic32c/8.3.1/../../../../pic32c/lib/thumb/v7e-m+fp/hard\libc-musl.a(strchrnul.o)
 .comment       0x00000053       0x54 c:/program files/microchip/xc32/v4.00/bin/bin/../../lib/gcc/pic32c/8.3.1/../../../../pic32c/lib/thumb/v7e-m+fp/hard\libc-musl.a(strcmp.o)
 .comment       0x00000053       0x54 c:/program files/microchip/xc32/v4.00/bin/bin/../../lib/gcc/pic32c/8.3.1/../../../../pic32c/lib/thumb/v7e-m+fp/hard\libc-musl.a(strcpy.o)
 .comment       0x00000053       0x54 c:/program files/microchip/xc32/v4.00/bin/bin/../../lib/gcc/pic32c/8.3.1/../../../../pic32c/lib/thumb/v7e-m+fp/hard\libc-musl.a(strncmp.o)
 .comment       0x00000053       0x54 c:/program files/microchip/xc32/v4.00/bin/bin/../../lib/gcc/pic32c/8.3.1/../../../../pic32c/lib/thumb/v7e-m+fp/hard\libc-musl.a(strncpy.o)
 .comment       0x00000053       0x54 c:/program files/microchip/xc32/v4.00/bin/bin/../../lib/gcc/pic32c/8.3.1/../../../../pic32c/lib/thumb/v7e-m+fp/hard\libc-musl.a(strtok.o)
 .comment       0x00000053       0x54 c:/program files/microchip/xc32/v4.00/bin/bin/../../lib/gcc/pic32c/8.3.1/../../../../pic32c/lib/thumb/v7e-m+fp/hard\libc-musl.a(__environ.o)
 .comment       0x00000053       0x54 c:/program files/microchip/xc32/v4.00/bin/bin/../../lib/gcc/pic32c/8.3.1/../../../../pic32c/lib/thumb/v7e-m+fp/hard\libc-musl.a(vfprintf.o)
 .comment       0x00000053       0x54 c:/program files/microchip/xc32/v4.00/bin/bin/../../lib/gcc/pic32c/8.3.1/../../../../pic32c/lib/thumb/v7e-m+fp/hard\libc-musl.a(stpcpy.o)
 .comment       0x00000053       0x54 c:/program files/microchip/xc32/v4.00/bin/bin/../../lib/gcc/pic32c/8.3.1/../../../../pic32c/lib/thumb/v7e-m+fp/hard\libc-musl.a(stpncpy.o)
 .comment       0x00000053       0x54 c:/program files/microchip/xc32/v4.00/bin/bin/../../lib/gcc/pic32c/8.3.1/../../../../pic32c/lib/thumb/v7e-m+fp/hard\libc-musl.a(strcspn.o)
 .comment       0x00000053       0x54 c:/program files/microchip/xc32/v4.00/bin/bin/../../lib/gcc/pic32c/8.3.1/../../../../pic32c/lib/thumb/v7e-m+fp/hard\libc-musl.a(strspn.o)
 .comment       0x00000053       0x54 c:/program files/microchip/xc32/v4.00/bin/bin/../../lib/gcc/pic32c/8.3.1/../../../../pic32c/lib/thumb/v7e-m+fp/hard\libc-musl.a(__printf_core.o)
 .comment       0x00000053       0x54 c:/program files/microchip/xc32/v4.00/bin/bin/../../lib/gcc/pic32c/8.3.1/../../../../pic32c/lib/thumb/v7e-m+fp/hard\libc-musl.a(__fmt_a.o)
 .comment       0x00000053       0x54 c:/program files/microchip/xc32/v4.00/bin/bin/../../lib/gcc/pic32c/8.3.1/../../../../pic32c/lib/thumb/v7e-m+fp/hard\libc-musl.a(__fmt_d.o)
 .comment       0x00000053       0x54 c:/program files/microchip/xc32/v4.00/bin/bin/../../lib/gcc/pic32c/8.3.1/../../../../pic32c/lib/thumb/v7e-m+fp/hard\libc-musl.a(__fmt_fp.o)
 .comment       0x00000053       0x54 c:/program files/microchip/xc32/v4.00/bin/bin/../../lib/gcc/pic32c/8.3.1/../../../../pic32c/lib/thumb/v7e-m+fp/hard\libc-musl.a(__fmt_o.o)
 .comment       0x00000053       0x54 c:/program files/microchip/xc32/v4.00/bin/bin/../../lib/gcc/pic32c/8.3.1/../../../../pic32c/lib/thumb/v7e-m+fp/hard\libc-musl.a(__fmt_s.o)
 .comment       0x00000053       0x54 c:/program files/microchip/xc32/v4.00/bin/bin/../../lib/gcc/pic32c/8.3.1/../../../../pic32c/lib/thumb/v7e-m+fp/hard\libc-musl.a(__fmt_u.o)
 .comment       0x00000053       0x54 c:/program files/microchip/xc32/v4.00/bin/bin/../../lib/gcc/pic32c/8.3.1/../../../../pic32c/lib/thumb/v7e-m+fp/hard\libc-musl.a(__fmt_x.o)
 .comment       0x00000053       0x54 c:/program files/microchip/xc32/v4.00/bin/bin/../../lib/gcc/pic32c/8.3.1/../../../../pic32c/lib/thumb/v7e-m+fp/hard\libc-musl.a(__pop_float.o)
 .comment       0x00000053       0x54 c:/program files/microchip/xc32/v4.00/bin/bin/../../lib/gcc/pic32c/8.3.1/../../../../pic32c/lib/thumb/v7e-m+fp/hard\libc-musl.a(__pop_int.o)
 .comment       0x00000053       0x54 c:/program files/microchip/xc32/v4.00/bin/bin/../../lib/gcc/pic32c/8.3.1/../../../../pic32c/lib/thumb/v7e-m+fp/hard\libc-musl.a(__pop_ptr.o)
 .comment       0x00000053       0x54 c:/program files/microchip/xc32/v4.00/bin/bin/../../lib/gcc/pic32c/8.3.1/../../../../pic32c/lib/thumb/v7e-m+fp/hard\libm-emfloat.a(lib_a-_FLOOR.o)
 .comment       0x00000053       0x54 c:/program files/microchip/xc32/v4.00/bin/bin/../../lib/gcc/pic32c/8.3.1/../../../../pic32c/lib/thumb/v7e-m+fp/hard\libm-emfloat.a(lib_a-_FMA.o)
 .comment       0x00000053       0x54 c:/program files/microchip/xc32/v4.00/bin/bin/../../lib/gcc/pic32c/8.3.1/thumb/v7e-m+fp/hard\libgcc.a(_udivmoddi4.o)
 .comment       0x00000053       0x54 c:/program files/microchip/xc32/v4.00/bin/bin/../../lib/gcc/pic32c/8.3.1/../../../../pic32c/lib/thumb/v7e-m+fp/hard\libpic32c.a(sbrk.o)

.debug_info     0x00000000   0x1002d1
 .debug_info    0x00000000     0x7fd5 build/default/production/_ext/444070925/drv_ethphy.o
 .debug_info    0x00007fd5     0x234c build/default/production/_ext/444070925/drv_extphy_ksz8061.o
 .debug_info    0x0000a321     0xa335 build/default/production/_ext/1546807373/drv_gmac.o
 .debug_info    0x00014656     0x8d88 build/default/production/_ext/1546807373/drv_gmac_lib_samE5x.o
 .debug_info    0x0001d3de     0x4dd2 build/default/production/_ext/438849557/drv_miim.o
 .debug_info    0x000221b0      0xc7d build/default/production/_ext/20954303/drv_sdmmc_file_system.o
 .debug_info    0x00022e2d     0x4dec build/default/production/_ext/20954303/drv_sdmmc.o
 .debug_info    0x00027c19     0x21ad build/default/production/_ext/1751889202/sys_fs_shell.o
 .debug_info    0x00029dc6      0x6fb build/default/production/_ext/1033058136/helpers.o
 .debug_info    0x0002a4c1     0xc1eb build/default/production/_ext/1033058136/tcp.o
 .debug_info    0x000366ac     0x72e2 build/default/production/_ext/1033058136/arp.o
 .debug_info    0x0003d98e     0x7f36 build/default/production/_ext/1033058136/ipv4.o
 .debug_info    0x000458c4     0x2ab7 build/default/production/_ext/1033058136/tcpip_heap_alloc.o
 .debug_info    0x0004837b     0x3c50 build/default/production/_ext/1033058136/tcpip_heap_internal.o
 .debug_info    0x0004bfcb     0x8278 build/default/production/_ext/1033058136/dns.o
 .debug_info    0x00054243      0x459 build/default/production/_ext/1033058136/hash_fnv.o
 .debug_info    0x0005469c      0xc83 build/default/production/_ext/1033058136/oahash.o
 .debug_info    0x0005531f     0x753e build/default/production/_ext/1033058136/tcpip_helpers.o
 .debug_info    0x0005c85d     0xcbd9 build/default/production/_ext/1033058136/tcpip_manager.o
 .debug_info    0x00069436     0x2b0e build/default/production/_ext/1033058136/tcpip_notify.o
 .debug_info    0x0006bf44     0x3bbe build/default/production/_ext/1033058136/tcpip_packet.o
 .debug_info    0x0006fb02     0x91d7 build/default/production/_ext/1033058136/ftp.o
 .debug_info    0x00078cd9     0x3c3a build/default/production/_ext/1033058136/icmp.o
 .debug_info    0x0007c913     0x7c97 build/default/production/_ext/1033058136/berkeley_api.o
 .debug_info    0x000845aa     0x53dd build/default/production/_ext/1033058136/tcpip_announce.o
 .debug_info    0x00089987     0x9b6e build/default/production/_ext/1033058136/udp.o
 .debug_info    0x000934f5     0x7fed build/default/production/_ext/1033058136/iperf.o
 .debug_info    0x0009b4e2     0x38e9 build/default/production/_ext/1508031553/net_pres.o
 .debug_info    0x0009edcb      0xbb3 build/default/production/_ext/1984496892/plib_clock.o
 .debug_info    0x0009f97e      0x370 build/default/production/_ext/1986646378/plib_evsys.o
 .debug_info    0x0009fcee     0x1653 build/default/production/_ext/1865468468/plib_nvic.o
 .debug_info    0x000a1341      0xeae build/default/production/_ext/1593096446/plib_nvmctrl.o
 .debug_info    0x000a21ef     0x111a build/default/production/_ext/1865521619/plib_port.o
 .debug_info    0x000a3309     0x143a build/default/production/_ext/1865600094/plib_sdhc1.o
 .debug_info    0x000a4743     0x214b build/default/production/_ext/504274921/plib_sercom1_usart.o
 .debug_info    0x000a688e      0xcd5 build/default/production/_ext/829342655/plib_tc0.o
 .debug_info    0x000a7563     0x28bc build/default/production/_ext/1376093119/sys_command.o
 .debug_info    0x000a9e1f     0x1538 build/default/production/_ext/1832805299/sys_console.o
 .debug_info    0x000ab357     0x5045 build/default/production/_ext/1832805299/sys_console_uart.o
 .debug_info    0x000b039c      0x843 build/default/production/_ext/944882569/sys_debug.o
 .debug_info    0x000b0bdf     0x6755 build/default/production/_ext/411819097/ff.o
 .debug_info    0x000b7334      0x60d build/default/production/_ext/411819097/ffunicode.o
 .debug_info    0x000b7941      0xfdc build/default/production/_ext/565198302/diskio.o
 .debug_info    0x000b891d     0x4a6d build/default/production/_ext/1269487135/sys_fs.o
 .debug_info    0x000bd38a     0x251c build/default/production/_ext/1269487135/sys_fs_media_manager.o
 .debug_info    0x000bf8a6     0x24da build/default/production/_ext/1269487135/sys_fs_fat_interface.o
 .debug_info    0x000c1d80     0x11f2 build/default/production/_ext/1881668453/sys_int.o
 .debug_info    0x000c2f72      0x5fe build/default/production/_ext/1000052432/sys_reset.o
 .debug_info    0x000c3570     0x30f7 build/default/production/_ext/101884895/sys_time.o
 .debug_info    0x000c6667      0x6ad build/default/production/_ext/753841488/sys_time_h2_adapter.o
 .debug_info    0x000c6d14     0x9c64 build/default/production/_ext/1171490990/initialization.o
 .debug_info    0x000d0978     0x52d7 build/default/production/_ext/1171490990/interrupts.o
 .debug_info    0x000d5c4f     0x3d65 build/default/production/_ext/1171490990/exceptions.o
 .debug_info    0x000d99b4      0x8eb build/default/production/_ext/1171490990/startup_xc32.o
 .debug_info    0x000da29f     0x3d3c build/default/production/_ext/1171490990/tasks.o
 .debug_info    0x000ddfdb     0x22f7 build/default/production/_ext/172253694/crypt_wolfcryptcb.o
 .debug_info    0x000e02d2     0x4567 build/default/production/_ext/1664057780/cryptocb.o
 .debug_info    0x000e4839     0x3cbc build/default/production/_ext/1360937237/main.o
 .debug_info    0x000e84f5     0x476e build/default/production/_ext/1360937237/app.o
 .debug_info    0x000ecc63      0x2db c:/program files/microchip/xc32/v4.00/bin/bin/../../lib/gcc/pic32c/8.3.1/../../../../pic32c/lib/thumb/v7e-m+fp/hard\libpic32c.a(data_init.o)
 .debug_info    0x000ecf3e      0x600 c:/program files/microchip/xc32/v4.00/bin/bin/../../lib/gcc/pic32c/8.3.1/../../../../pic32c/lib/thumb/v7e-m+fp/hard\libc-musl.a(isxdigit.o)
 .debug_info    0x000ed53e      0x5fd c:/program files/microchip/xc32/v4.00/bin/bin/../../lib/gcc/pic32c/8.3.1/../../../../pic32c/lib/thumb/v7e-m+fp/hard\libc-musl.a(tolower.o)
 .debug_info    0x000edb3b      0x5fd c:/program files/microchip/xc32/v4.00/bin/bin/../../lib/gcc/pic32c/8.3.1/../../../../pic32c/lib/thumb/v7e-m+fp/hard\libc-musl.a(toupper.o)
 .debug_info    0x000ee138      0x6b3 c:/program files/microchip/xc32/v4.00/bin/bin/../../lib/gcc/pic32c/8.3.1/../../../../pic32c/lib/thumb/v7e-m+fp/hard\libc-musl.a(__libc_start_main.o)
 .debug_info    0x000ee7eb      0x57a c:/program files/microchip/xc32/v4.00/bin/bin/../../lib/gcc/pic32c/8.3.1/../../../../pic32c/lib/thumb/v7e-m+fp/hard\libc-musl.a(__errno_location.o)
 .debug_info    0x000eed65      0x5df c:/program files/microchip/xc32/v4.00/bin/bin/../../lib/gcc/pic32c/8.3.1/../../../../pic32c/lib/thumb/v7e-m+fp/hard\libc-musl.a(libc.o)
 .debug_info    0x000ef344      0x306 c:/program files/microchip/xc32/v4.00/bin/bin/../../lib/gcc/pic32c/8.3.1/../../../../pic32c/lib/thumb/v7e-m+fp/hard\libc-musl.a(calloc.o)
 .debug_info    0x000ef64a     0x14aa c:/program files/microchip/xc32/v4.00/bin/bin/../../lib/gcc/pic32c/8.3.1/../../../../pic32c/lib/thumb/v7e-m+fp/hard\libc-musl.a(malloc.o)
 .debug_info    0x000f0af4      0x682 c:/program files/microchip/xc32/v4.00/bin/bin/../../lib/gcc/pic32c/8.3.1/../../../../pic32c/lib/thumb/v7e-m+fp/hard\libc-musl.a(expand_heap.o)
 .debug_info    0x000f1176      0x353 c:/program files/microchip/xc32/v4.00/bin/bin/../../lib/gcc/pic32c/8.3.1/../../../../pic32c/lib/thumb/v7e-m+fp/hard\libc-musl.a(rand.o)
 .debug_info    0x000f14c9      0x986 c:/program files/microchip/xc32/v4.00/bin/bin/../../lib/gcc/pic32c/8.3.1/../../../../pic32c/lib/thumb/v7e-m+fp/hard\libc-musl.a(vsnprintf.o)
 .debug_info    0x000f1e4f      0x3dc c:/program files/microchip/xc32/v4.00/bin/bin/../../lib/gcc/pic32c/8.3.1/../../../../pic32c/lib/thumb/v7e-m+fp/hard\libc-musl.a(snprintf.o)
 .debug_info    0x000f222b      0x3b2 c:/program files/microchip/xc32/v4.00/bin/bin/../../lib/gcc/pic32c/8.3.1/../../../../pic32c/lib/thumb/v7e-m+fp/hard\libc-musl.a(sprintf.o)
 .debug_info    0x000f25dd      0x3ac c:/program files/microchip/xc32/v4.00/bin/bin/../../lib/gcc/pic32c/8.3.1/../../../../pic32c/lib/thumb/v7e-m+fp/hard\libc-musl.a(vsprintf.o)
 .debug_info    0x000f2989      0x322 c:/program files/microchip/xc32/v4.00/bin/bin/../../lib/gcc/pic32c/8.3.1/../../../../pic32c/lib/thumb/v7e-m+fp/hard\libc-musl.a(atoi.o)
 .debug_info    0x000f2cab      0x309 c:/program files/microchip/xc32/v4.00/bin/bin/../../lib/gcc/pic32c/8.3.1/../../../../pic32c/lib/thumb/v7e-m+fp/hard\libc-musl.a(memcmp.o)
 .debug_info    0x000f2fb4      0x31e c:/program files/microchip/xc32/v4.00/bin/bin/../../lib/gcc/pic32c/8.3.1/../../../../pic32c/lib/thumb/v7e-m+fp/hard\libc-musl.a(memcpy.o)
 .debug_info    0x000f32d2      0x2dc c:/program files/microchip/xc32/v4.00/bin/bin/../../lib/gcc/pic32c/8.3.1/../../../../pic32c/lib/thumb/v7e-m+fp/hard\libc-musl.a(memset.o)
 .debug_info    0x000f35ae      0x2cd c:/program files/microchip/xc32/v4.00/bin/bin/../../lib/gcc/pic32c/8.3.1/../../../../pic32c/lib/thumb/v7e-m+fp/hard\libc-musl.a(strlen.o)
 .debug_info    0x000f387b      0x2e6 c:/program files/microchip/xc32/v4.00/bin/bin/../../lib/gcc/pic32c/8.3.1/../../../../pic32c/lib/thumb/v7e-m+fp/hard\libc-musl.a(strstr.o)
 .debug_info    0x000f3b61      0x2ef c:/program files/microchip/xc32/v4.00/bin/bin/../../lib/gcc/pic32c/8.3.1/../../../../pic32c/lib/thumb/v7e-m+fp/hard\libc-musl.a(strchr.o)
 .debug_info    0x000f3e50      0x6d7 c:/program files/microchip/xc32/v4.00/bin/bin/../../lib/gcc/pic32c/8.3.1/../../../../pic32c/lib/thumb/v7e-m+fp/hard\libc-musl.a(strchrnul.o)
 .debug_info    0x000f4527      0x2b1 c:/program files/microchip/xc32/v4.00/bin/bin/../../lib/gcc/pic32c/8.3.1/../../../../pic32c/lib/thumb/v7e-m+fp/hard\libc-musl.a(strcmp.o)
 .debug_info    0x000f47d8      0x2db c:/program files/microchip/xc32/v4.00/bin/bin/../../lib/gcc/pic32c/8.3.1/../../../../pic32c/lib/thumb/v7e-m+fp/hard\libc-musl.a(strcpy.o)
 .debug_info    0x000f4ab3      0x317 c:/program files/microchip/xc32/v4.00/bin/bin/../../lib/gcc/pic32c/8.3.1/../../../../pic32c/lib/thumb/v7e-m+fp/hard\libc-musl.a(strncmp.o)
 .debug_info    0x000f4dca      0x300 c:/program files/microchip/xc32/v4.00/bin/bin/../../lib/gcc/pic32c/8.3.1/../../../../pic32c/lib/thumb/v7e-m+fp/hard\libc-musl.a(strncpy.o)
 .debug_info    0x000f50ca      0x31d c:/program files/microchip/xc32/v4.00/bin/bin/../../lib/gcc/pic32c/8.3.1/../../../../pic32c/lib/thumb/v7e-m+fp/hard\libc-musl.a(strtok.o)
 .debug_info    0x000f53e7      0x596 c:/program files/microchip/xc32/v4.00/bin/bin/../../lib/gcc/pic32c/8.3.1/../../../../pic32c/lib/thumb/v7e-m+fp/hard\libc-musl.a(__environ.o)
 .debug_info    0x000f597d      0x94d c:/program files/microchip/xc32/v4.00/bin/bin/../../lib/gcc/pic32c/8.3.1/../../../../pic32c/lib/thumb/v7e-m+fp/hard\libc-musl.a(vfprintf.o)
 .debug_info    0x000f62ca      0x5b9 c:/program files/microchip/xc32/v4.00/bin/bin/../../lib/gcc/pic32c/8.3.1/../../../../pic32c/lib/thumb/v7e-m+fp/hard\libc-musl.a(stpcpy.o)
 .debug_info    0x000f6883      0x5e6 c:/program files/microchip/xc32/v4.00/bin/bin/../../lib/gcc/pic32c/8.3.1/../../../../pic32c/lib/thumb/v7e-m+fp/hard\libc-musl.a(stpncpy.o)
 .debug_info    0x000f6e69      0x342 c:/program files/microchip/xc32/v4.00/bin/bin/../../lib/gcc/pic32c/8.3.1/../../../../pic32c/lib/thumb/v7e-m+fp/hard\libc-musl.a(strcspn.o)
 .debug_info    0x000f71ab      0x327 c:/program files/microchip/xc32/v4.00/bin/bin/../../lib/gcc/pic32c/8.3.1/../../../../pic32c/lib/thumb/v7e-m+fp/hard\libc-musl.a(strspn.o)
 .debug_info    0x000f74d2     0x1017 c:/program files/microchip/xc32/v4.00/bin/bin/../../lib/gcc/pic32c/8.3.1/../../../../pic32c/lib/thumb/v7e-m+fp/hard\libc-musl.a(__printf_core.o)
 .debug_info    0x000f84e9      0xbf2 c:/program files/microchip/xc32/v4.00/bin/bin/../../lib/gcc/pic32c/8.3.1/../../../../pic32c/lib/thumb/v7e-m+fp/hard\libc-musl.a(__fmt_a.o)
 .debug_info    0x000f90db      0x8bc c:/program files/microchip/xc32/v4.00/bin/bin/../../lib/gcc/pic32c/8.3.1/../../../../pic32c/lib/thumb/v7e-m+fp/hard\libc-musl.a(__fmt_d.o)
 .debug_info    0x000f9997      0xcda c:/program files/microchip/xc32/v4.00/bin/bin/../../lib/gcc/pic32c/8.3.1/../../../../pic32c/lib/thumb/v7e-m+fp/hard\libc-musl.a(__fmt_fp.o)
 .debug_info    0x000fa671      0x88d c:/program files/microchip/xc32/v4.00/bin/bin/../../lib/gcc/pic32c/8.3.1/../../../../pic32c/lib/thumb/v7e-m+fp/hard\libc-musl.a(__fmt_o.o)
 .debug_info    0x000faefe      0x833 c:/program files/microchip/xc32/v4.00/bin/bin/../../lib/gcc/pic32c/8.3.1/../../../../pic32c/lib/thumb/v7e-m+fp/hard\libc-musl.a(__fmt_s.o)
 .debug_info    0x000fb731      0x95a c:/program files/microchip/xc32/v4.00/bin/bin/../../lib/gcc/pic32c/8.3.1/../../../../pic32c/lib/thumb/v7e-m+fp/hard\libc-musl.a(__fmt_u.o)
 .debug_info    0x000fc08b      0x8f3 c:/program files/microchip/xc32/v4.00/bin/bin/../../lib/gcc/pic32c/8.3.1/../../../../pic32c/lib/thumb/v7e-m+fp/hard\libc-musl.a(__fmt_x.o)
 .debug_info    0x000fc97e      0x760 c:/program files/microchip/xc32/v4.00/bin/bin/../../lib/gcc/pic32c/8.3.1/../../../../pic32c/lib/thumb/v7e-m+fp/hard\libc-musl.a(__pop_float.o)
 .debug_info    0x000fd0de      0x784 c:/program files/microchip/xc32/v4.00/bin/bin/../../lib/gcc/pic32c/8.3.1/../../../../pic32c/lib/thumb/v7e-m+fp/hard\libc-musl.a(__pop_int.o)
 .debug_info    0x000fd862      0x77b c:/program files/microchip/xc32/v4.00/bin/bin/../../lib/gcc/pic32c/8.3.1/../../../../pic32c/lib/thumb/v7e-m+fp/hard\libc-musl.a(__pop_ptr.o)
 .debug_info    0x000fdfdd       0x26 c:/program files/microchip/xc32/v4.00/bin/bin/../../lib/gcc/pic32c/8.3.1/thumb/v7e-m+fp/hard\libgcc.a(_aeabi_uldivmod.o)
 .debug_info    0x000fe003     0x1fea c:/program files/microchip/xc32/v4.00/bin/bin/../../lib/gcc/pic32c/8.3.1/thumb/v7e-m+fp/hard\libgcc.a(_udivmoddi4.o)
 .debug_info    0x000fffed       0x26 c:/program files/microchip/xc32/v4.00/bin/bin/../../lib/gcc/pic32c/8.3.1/thumb/v7e-m+fp/hard\libgcc.a(_dvmd_tls.o)
 .debug_info    0x00100013      0x2be c:/program files/microchip/xc32/v4.00/bin/bin/../../lib/gcc/pic32c/8.3.1/../../../../pic32c/lib/thumb/v7e-m+fp/hard\libpic32c.a(sbrk.o)

.debug_abbrev   0x00000000    0x11862
 .debug_abbrev  0x00000000      0x551 build/default/production/_ext/444070925/drv_ethphy.o
 .debug_abbrev  0x00000551      0x1ee build/default/production/_ext/444070925/drv_extphy_ksz8061.o
 .debug_abbrev  0x0000073f      0x669 build/default/production/_ext/1546807373/drv_gmac.o
 .debug_abbrev  0x00000da8      0x60c build/default/production/_ext/1546807373/drv_gmac_lib_samE5x.o
 .debug_abbrev  0x000013b4      0x694 build/default/production/_ext/438849557/drv_miim.o
 .debug_abbrev  0x00001a48      0x176 build/default/production/_ext/20954303/drv_sdmmc_file_system.o
 .debug_abbrev  0x00001bbe      0x63b build/default/production/_ext/20954303/drv_sdmmc.o
 .debug_abbrev  0x000021f9      0x38d build/default/production/_ext/1751889202/sys_fs_shell.o
 .debug_abbrev  0x00002586      0x1b2 build/default/production/_ext/1033058136/helpers.o
 .debug_abbrev  0x00002738      0x721 build/default/production/_ext/1033058136/tcp.o
 .debug_abbrev  0x00002e59      0x61d build/default/production/_ext/1033058136/arp.o
 .debug_abbrev  0x00003476      0x603 build/default/production/_ext/1033058136/ipv4.o
 .debug_abbrev  0x00003a79      0x2c7 build/default/production/_ext/1033058136/tcpip_heap_alloc.o
 .debug_abbrev  0x00003d40      0x535 build/default/production/_ext/1033058136/tcpip_heap_internal.o
 .debug_abbrev  0x00004275      0x5cf build/default/production/_ext/1033058136/dns.o
 .debug_abbrev  0x00004844       0xc7 build/default/production/_ext/1033058136/hash_fnv.o
 .debug_abbrev  0x0000490b      0x2ea build/default/production/_ext/1033058136/oahash.o
 .debug_abbrev  0x00004bf5      0x646 build/default/production/_ext/1033058136/tcpip_helpers.o
 .debug_abbrev  0x0000523b      0x7e0 build/default/production/_ext/1033058136/tcpip_manager.o
 .debug_abbrev  0x00005a1b      0x35b build/default/production/_ext/1033058136/tcpip_notify.o
 .debug_abbrev  0x00005d76      0x53e build/default/production/_ext/1033058136/tcpip_packet.o
 .debug_abbrev  0x000062b4      0x6db build/default/production/_ext/1033058136/ftp.o
 .debug_abbrev  0x0000698f      0x462 build/default/production/_ext/1033058136/icmp.o
 .debug_abbrev  0x00006df1      0x68d build/default/production/_ext/1033058136/berkeley_api.o
 .debug_abbrev  0x0000747e      0x520 build/default/production/_ext/1033058136/tcpip_announce.o
 .debug_abbrev  0x0000799e      0x6ad build/default/production/_ext/1033058136/udp.o
 .debug_abbrev  0x0000804b      0x5a1 build/default/production/_ext/1033058136/iperf.o
 .debug_abbrev  0x000085ec      0x4de build/default/production/_ext/1508031553/net_pres.o
 .debug_abbrev  0x00008aca      0x135 build/default/production/_ext/1984496892/plib_clock.o
 .debug_abbrev  0x00008bff       0x64 build/default/production/_ext/1986646378/plib_evsys.o
 .debug_abbrev  0x00008c63      0x222 build/default/production/_ext/1865468468/plib_nvic.o
 .debug_abbrev  0x00008e85      0x258 build/default/production/_ext/1593096446/plib_nvmctrl.o
 .debug_abbrev  0x000090dd      0x1e9 build/default/production/_ext/1865521619/plib_port.o
 .debug_abbrev  0x000092c6      0x332 build/default/production/_ext/1865600094/plib_sdhc1.o
 .debug_abbrev  0x000095f8      0x489 build/default/production/_ext/504274921/plib_sercom1_usart.o
 .debug_abbrev  0x00009a81      0x1f9 build/default/production/_ext/829342655/plib_tc0.o
 .debug_abbrev  0x00009c7a      0x4c7 build/default/production/_ext/1376093119/sys_command.o
 .debug_abbrev  0x0000a141      0x437 build/default/production/_ext/1832805299/sys_console.o
 .debug_abbrev  0x0000a578      0x4e1 build/default/production/_ext/1832805299/sys_console_uart.o
 .debug_abbrev  0x0000aa59      0x1ae build/default/production/_ext/944882569/sys_debug.o
 .debug_abbrev  0x0000ac07      0x412 build/default/production/_ext/411819097/ff.o
 .debug_abbrev  0x0000b019      0x155 build/default/production/_ext/411819097/ffunicode.o
 .debug_abbrev  0x0000b16e      0x315 build/default/production/_ext/565198302/diskio.o
 .debug_abbrev  0x0000b483      0x51f build/default/production/_ext/1269487135/sys_fs.o
 .debug_abbrev  0x0000b9a2      0x500 build/default/production/_ext/1269487135/sys_fs_media_manager.o
 .debug_abbrev  0x0000bea2      0x337 build/default/production/_ext/1269487135/sys_fs_fat_interface.o
 .debug_abbrev  0x0000c1d9      0x253 build/default/production/_ext/1881668453/sys_int.o
 .debug_abbrev  0x0000c42c      0x102 build/default/production/_ext/1000052432/sys_reset.o
 .debug_abbrev  0x0000c52e      0x5c0 build/default/production/_ext/101884895/sys_time.o
 .debug_abbrev  0x0000caee      0x17e build/default/production/_ext/753841488/sys_time_h2_adapter.o
 .debug_abbrev  0x0000cc6c      0x394 build/default/production/_ext/1171490990/initialization.o
 .debug_abbrev  0x0000d000      0x288 build/default/production/_ext/1171490990/interrupts.o
 .debug_abbrev  0x0000d288      0x263 build/default/production/_ext/1171490990/exceptions.o
 .debug_abbrev  0x0000d4eb      0x1ee build/default/production/_ext/1171490990/startup_xc32.o
 .debug_abbrev  0x0000d6d9      0x295 build/default/production/_ext/1171490990/tasks.o
 .debug_abbrev  0x0000d96e      0x243 build/default/production/_ext/172253694/crypt_wolfcryptcb.o
 .debug_abbrev  0x0000dbb1      0x3fd build/default/production/_ext/1664057780/cryptocb.o
 .debug_abbrev  0x0000dfae      0x29c build/default/production/_ext/1360937237/main.o
 .debug_abbrev  0x0000e24a      0x342 build/default/production/_ext/1360937237/app.o
 .debug_abbrev  0x0000e58c       0x2e c:/program files/microchip/xc32/v4.00/bin/bin/../../lib/gcc/pic32c/8.3.1/../../../../pic32c/lib/thumb/v7e-m+fp/hard\libpic32c.a(data_init.o)
 .debug_abbrev  0x0000e5ba      0x126 c:/program files/microchip/xc32/v4.00/bin/bin/../../lib/gcc/pic32c/8.3.1/../../../../pic32c/lib/thumb/v7e-m+fp/hard\libc-musl.a(isxdigit.o)
 .debug_abbrev  0x0000e6e0      0x126 c:/program files/microchip/xc32/v4.00/bin/bin/../../lib/gcc/pic32c/8.3.1/../../../../pic32c/lib/thumb/v7e-m+fp/hard\libc-musl.a(tolower.o)
 .debug_abbrev  0x0000e806      0x126 c:/program files/microchip/xc32/v4.00/bin/bin/../../lib/gcc/pic32c/8.3.1/../../../../pic32c/lib/thumb/v7e-m+fp/hard\libc-musl.a(toupper.o)
 .debug_abbrev  0x0000e92c      0x126 c:/program files/microchip/xc32/v4.00/bin/bin/../../lib/gcc/pic32c/8.3.1/../../../../pic32c/lib/thumb/v7e-m+fp/hard\libc-musl.a(__libc_start_main.o)
 .debug_abbrev  0x0000ea52       0xba c:/program files/microchip/xc32/v4.00/bin/bin/../../lib/gcc/pic32c/8.3.1/../../../../pic32c/lib/thumb/v7e-m+fp/hard\libc-musl.a(__errno_location.o)
 .debug_abbrev  0x0000eb0c       0xc7 c:/program files/microchip/xc32/v4.00/bin/bin/../../lib/gcc/pic32c/8.3.1/../../../../pic32c/lib/thumb/v7e-m+fp/hard\libc-musl.a(libc.o)
 .debug_abbrev  0x0000ebd3       0xaa c:/program files/microchip/xc32/v4.00/bin/bin/../../lib/gcc/pic32c/8.3.1/../../../../pic32c/lib/thumb/v7e-m+fp/hard\libc-musl.a(calloc.o)
 .debug_abbrev  0x0000ec7d      0x413 c:/program files/microchip/xc32/v4.00/bin/bin/../../lib/gcc/pic32c/8.3.1/../../../../pic32c/lib/thumb/v7e-m+fp/hard\libc-musl.a(malloc.o)
 .debug_abbrev  0x0000f090      0x112 c:/program files/microchip/xc32/v4.00/bin/bin/../../lib/gcc/pic32c/8.3.1/../../../../pic32c/lib/thumb/v7e-m+fp/hard\libc-musl.a(expand_heap.o)
 .debug_abbrev  0x0000f1a2       0x8b c:/program files/microchip/xc32/v4.00/bin/bin/../../lib/gcc/pic32c/8.3.1/../../../../pic32c/lib/thumb/v7e-m+fp/hard\libc-musl.a(rand.o)
 .debug_abbrev  0x0000f22d      0x168 c:/program files/microchip/xc32/v4.00/bin/bin/../../lib/gcc/pic32c/8.3.1/../../../../pic32c/lib/thumb/v7e-m+fp/hard\libc-musl.a(vsnprintf.o)
 .debug_abbrev  0x0000f395      0x126 c:/program files/microchip/xc32/v4.00/bin/bin/../../lib/gcc/pic32c/8.3.1/../../../../pic32c/lib/thumb/v7e-m+fp/hard\libc-musl.a(snprintf.o)
 .debug_abbrev  0x0000f4bb      0x126 c:/program files/microchip/xc32/v4.00/bin/bin/../../lib/gcc/pic32c/8.3.1/../../../../pic32c/lib/thumb/v7e-m+fp/hard\libc-musl.a(sprintf.o)
 .debug_abbrev  0x0000f5e1       0xee c:/program files/microchip/xc32/v4.00/bin/bin/../../lib/gcc/pic32c/8.3.1/../../../../pic32c/lib/thumb/v7e-m+fp/hard\libc-musl.a(vsprintf.o)
 .debug_abbrev  0x0000f6cf       0xbb c:/program files/microchip/xc32/v4.00/bin/bin/../../lib/gcc/pic32c/8.3.1/../../../../pic32c/lib/thumb/v7e-m+fp/hard\libc-musl.a(atoi.o)
 .debug_abbrev  0x0000f78a       0x8b c:/program files/microchip/xc32/v4.00/bin/bin/../../lib/gcc/pic32c/8.3.1/../../../../pic32c/lib/thumb/v7e-m+fp/hard\libc-musl.a(memcmp.o)
 .debug_abbrev  0x0000f815       0x9c c:/program files/microchip/xc32/v4.00/bin/bin/../../lib/gcc/pic32c/8.3.1/../../../../pic32c/lib/thumb/v7e-m+fp/hard\libc-musl.a(memcpy.o)
 .debug_abbrev  0x0000f8b1       0x97 c:/program files/microchip/xc32/v4.00/bin/bin/../../lib/gcc/pic32c/8.3.1/../../../../pic32c/lib/thumb/v7e-m+fp/hard\libc-musl.a(memset.o)
 .debug_abbrev  0x0000f948       0x86 c:/program files/microchip/xc32/v4.00/bin/bin/../../lib/gcc/pic32c/8.3.1/../../../../pic32c/lib/thumb/v7e-m+fp/hard\libc-musl.a(strlen.o)
 .debug_abbrev  0x0000f9ce       0xa6 c:/program files/microchip/xc32/v4.00/bin/bin/../../lib/gcc/pic32c/8.3.1/../../../../pic32c/lib/thumb/v7e-m+fp/hard\libc-musl.a(strstr.o)
 .debug_abbrev  0x0000fa74       0xa2 c:/program files/microchip/xc32/v4.00/bin/bin/../../lib/gcc/pic32c/8.3.1/../../../../pic32c/lib/thumb/v7e-m+fp/hard\libc-musl.a(strchr.o)
 .debug_abbrev  0x0000fb16      0x158 c:/program files/microchip/xc32/v4.00/bin/bin/../../lib/gcc/pic32c/8.3.1/../../../../pic32c/lib/thumb/v7e-m+fp/hard\libc-musl.a(strchrnul.o)
 .debug_abbrev  0x0000fc6e       0x63 c:/program files/microchip/xc32/v4.00/bin/bin/../../lib/gcc/pic32c/8.3.1/../../../../pic32c/lib/thumb/v7e-m+fp/hard\libc-musl.a(strcmp.o)
 .debug_abbrev  0x0000fcd1       0x8e c:/program files/microchip/xc32/v4.00/bin/bin/../../lib/gcc/pic32c/8.3.1/../../../../pic32c/lib/thumb/v7e-m+fp/hard\libc-musl.a(strcpy.o)
 .debug_abbrev  0x0000fd5f       0x86 c:/program files/microchip/xc32/v4.00/bin/bin/../../lib/gcc/pic32c/8.3.1/../../../../pic32c/lib/thumb/v7e-m+fp/hard\libc-musl.a(strncmp.o)
 .debug_abbrev  0x0000fde5       0x9d c:/program files/microchip/xc32/v4.00/bin/bin/../../lib/gcc/pic32c/8.3.1/../../../../pic32c/lib/thumb/v7e-m+fp/hard\libc-musl.a(strncpy.o)
 .debug_abbrev  0x0000fe82       0xac c:/program files/microchip/xc32/v4.00/bin/bin/../../lib/gcc/pic32c/8.3.1/../../../../pic32c/lib/thumb/v7e-m+fp/hard\libc-musl.a(strtok.o)
 .debug_abbrev  0x0000ff2e       0xc7 c:/program files/microchip/xc32/v4.00/bin/bin/../../lib/gcc/pic32c/8.3.1/../../../../pic32c/lib/thumb/v7e-m+fp/hard\libc-musl.a(__environ.o)
 .debug_abbrev  0x0000fff5      0x180 c:/program files/microchip/xc32/v4.00/bin/bin/../../lib/gcc/pic32c/8.3.1/../../../../pic32c/lib/thumb/v7e-m+fp/hard\libc-musl.a(vfprintf.o)
 .debug_abbrev  0x00010175       0xdf c:/program files/microchip/xc32/v4.00/bin/bin/../../lib/gcc/pic32c/8.3.1/../../../../pic32c/lib/thumb/v7e-m+fp/hard\libc-musl.a(stpcpy.o)
 .debug_abbrev  0x00010254       0xf3 c:/program files/microchip/xc32/v4.00/bin/bin/../../lib/gcc/pic32c/8.3.1/../../../../pic32c/lib/thumb/v7e-m+fp/hard\libc-musl.a(stpncpy.o)
 .debug_abbrev  0x00010347       0xf5 c:/program files/microchip/xc32/v4.00/bin/bin/../../lib/gcc/pic32c/8.3.1/../../../../pic32c/lib/thumb/v7e-m+fp/hard\libc-musl.a(strcspn.o)
 .debug_abbrev  0x0001043c       0xd2 c:/program files/microchip/xc32/v4.00/bin/bin/../../lib/gcc/pic32c/8.3.1/../../../../pic32c/lib/thumb/v7e-m+fp/hard\libc-musl.a(strspn.o)
 .debug_abbrev  0x0001050e      0x2e8 c:/program files/microchip/xc32/v4.00/bin/bin/../../lib/gcc/pic32c/8.3.1/../../../../pic32c/lib/thumb/v7e-m+fp/hard\libc-musl.a(__printf_core.o)
 .debug_abbrev  0x000107f6      0x1e3 c:/program files/microchip/xc32/v4.00/bin/bin/../../lib/gcc/pic32c/8.3.1/../../../../pic32c/lib/thumb/v7e-m+fp/hard\libc-musl.a(__fmt_a.o)
 .debug_abbrev  0x000109d9      0x16f c:/program files/microchip/xc32/v4.00/bin/bin/../../lib/gcc/pic32c/8.3.1/../../../../pic32c/lib/thumb/v7e-m+fp/hard\libc-musl.a(__fmt_d.o)
 .debug_abbrev  0x00010b48      0x202 c:/program files/microchip/xc32/v4.00/bin/bin/../../lib/gcc/pic32c/8.3.1/../../../../pic32c/lib/thumb/v7e-m+fp/hard\libc-musl.a(__fmt_fp.o)
 .debug_abbrev  0x00010d4a      0x16f c:/program files/microchip/xc32/v4.00/bin/bin/../../lib/gcc/pic32c/8.3.1/../../../../pic32c/lib/thumb/v7e-m+fp/hard\libc-musl.a(__fmt_o.o)
 .debug_abbrev  0x00010eb9      0x14f c:/program files/microchip/xc32/v4.00/bin/bin/../../lib/gcc/pic32c/8.3.1/../../../../pic32c/lib/thumb/v7e-m+fp/hard\libc-musl.a(__fmt_s.o)
 .debug_abbrev  0x00011008      0x1b2 c:/program files/microchip/xc32/v4.00/bin/bin/../../lib/gcc/pic32c/8.3.1/../../../../pic32c/lib/thumb/v7e-m+fp/hard\libc-musl.a(__fmt_u.o)
 .debug_abbrev  0x000111ba      0x15e c:/program files/microchip/xc32/v4.00/bin/bin/../../lib/gcc/pic32c/8.3.1/../../../../pic32c/lib/thumb/v7e-m+fp/hard\libc-musl.a(__fmt_x.o)
 .debug_abbrev  0x00011318      0x11b c:/program files/microchip/xc32/v4.00/bin/bin/../../lib/gcc/pic32c/8.3.1/../../../../pic32c/lib/thumb/v7e-m+fp/hard\libc-musl.a(__pop_float.o)
 .debug_abbrev  0x00011433      0x11b c:/program files/microchip/xc32/v4.00/bin/bin/../../lib/gcc/pic32c/8.3.1/../../../../pic32c/lib/thumb/v7e-m+fp/hard\libc-musl.a(__pop_int.o)
 .debug_abbrev  0x0001154e      0x12c c:/program files/microchip/xc32/v4.00/bin/bin/../../lib/gcc/pic32c/8.3.1/../../../../pic32c/lib/thumb/v7e-m+fp/hard\libc-musl.a(__pop_ptr.o)
 .debug_abbrev  0x0001167a       0x14 c:/program files/microchip/xc32/v4.00/bin/bin/../../lib/gcc/pic32c/8.3.1/thumb/v7e-m+fp/hard\libgcc.a(_aeabi_uldivmod.o)
 .debug_abbrev  0x0001168e      0x192 c:/program files/microchip/xc32/v4.00/bin/bin/../../lib/gcc/pic32c/8.3.1/thumb/v7e-m+fp/hard\libgcc.a(_udivmoddi4.o)
 .debug_abbrev  0x00011820       0x14 c:/program files/microchip/xc32/v4.00/bin/bin/../../lib/gcc/pic32c/8.3.1/thumb/v7e-m+fp/hard\libgcc.a(_dvmd_tls.o)
 .debug_abbrev  0x00011834       0x2e c:/program files/microchip/xc32/v4.00/bin/bin/../../lib/gcc/pic32c/8.3.1/../../../../pic32c/lib/thumb/v7e-m+fp/hard\libpic32c.a(sbrk.o)

.debug_loc      0x00000000    0x6917c
 .debug_loc     0x00000000     0x4a04 build/default/production/_ext/444070925/drv_ethphy.o
 .debug_loc     0x00004a04       0x94 build/default/production/_ext/444070925/drv_extphy_ksz8061.o
 .debug_loc     0x00004a98     0x3014 build/default/production/_ext/1546807373/drv_gmac.o
 .debug_loc     0x00007aac     0x2a14 build/default/production/_ext/1546807373/drv_gmac_lib_samE5x.o
 .debug_loc     0x0000a4c0     0x2baa build/default/production/_ext/438849557/drv_miim.o
 .debug_loc     0x0000d06a       0x45 build/default/production/_ext/20954303/drv_sdmmc_file_system.o
 .debug_loc     0x0000d0af     0x30ed build/default/production/_ext/20954303/drv_sdmmc.o
 .debug_loc     0x0001019c     0x1b0d build/default/production/_ext/1751889202/sys_fs_shell.o
 .debug_loc     0x00011ca9      0x568 build/default/production/_ext/1033058136/helpers.o
 .debug_loc     0x00012211     0x80a5 build/default/production/_ext/1033058136/tcp.o
 .debug_loc     0x0001a2b6     0x3b6e build/default/production/_ext/1033058136/arp.o
 .debug_loc     0x0001de24     0x2e6d build/default/production/_ext/1033058136/ipv4.o
 .debug_loc     0x00020c91      0x207 build/default/production/_ext/1033058136/tcpip_heap_alloc.o
 .debug_loc     0x00020e98     0x1568 build/default/production/_ext/1033058136/tcpip_heap_internal.o
 .debug_loc     0x00022400     0x40ae build/default/production/_ext/1033058136/dns.o
 .debug_loc     0x000264ae      0x21b build/default/production/_ext/1033058136/hash_fnv.o
 .debug_loc     0x000266c9      0x5f3 build/default/production/_ext/1033058136/oahash.o
 .debug_loc     0x00026cbc     0x53a5 build/default/production/_ext/1033058136/tcpip_helpers.o
 .debug_loc     0x0002c061     0x7ca9 build/default/production/_ext/1033058136/tcpip_manager.o
 .debug_loc     0x00033d0a      0x458 build/default/production/_ext/1033058136/tcpip_notify.o
 .debug_loc     0x00034162      0xbe0 build/default/production/_ext/1033058136/tcpip_packet.o
 .debug_loc     0x00034d42     0x23c5 build/default/production/_ext/1033058136/ftp.o
 .debug_loc     0x00037107      0x3ec build/default/production/_ext/1033058136/icmp.o
 .debug_loc     0x000374f3     0x3628 build/default/production/_ext/1033058136/berkeley_api.o
 .debug_loc     0x0003ab1b      0xc61 build/default/production/_ext/1033058136/tcpip_announce.o
 .debug_loc     0x0003b77c     0x5233 build/default/production/_ext/1033058136/udp.o
 .debug_loc     0x000409af     0x22ef build/default/production/_ext/1033058136/iperf.o
 .debug_loc     0x00042c9e     0x301a build/default/production/_ext/1508031553/net_pres.o
 .debug_loc     0x00045cb8      0x27b build/default/production/_ext/1865468468/plib_nvic.o
 .debug_loc     0x00045f33      0x868 build/default/production/_ext/1593096446/plib_nvmctrl.o
 .debug_loc     0x0004679b      0x1bc build/default/production/_ext/1865521619/plib_port.o
 .debug_loc     0x00046957      0x5af build/default/production/_ext/1865600094/plib_sdhc1.o
 .debug_loc     0x00046f06      0xd41 build/default/production/_ext/504274921/plib_sercom1_usart.o
 .debug_loc     0x00047c47       0x5f build/default/production/_ext/829342655/plib_tc0.o
 .debug_loc     0x00047ca6     0x19f6 build/default/production/_ext/1376093119/sys_command.o
 .debug_loc     0x0004969c      0xd24 build/default/production/_ext/1832805299/sys_console.o
 .debug_loc     0x0004a3c0      0x9f9 build/default/production/_ext/1832805299/sys_console_uart.o
 .debug_loc     0x0004adb9       0xa1 build/default/production/_ext/944882569/sys_debug.o
 .debug_loc     0x0004ae5a     0x9fe9 build/default/production/_ext/411819097/ff.o
 .debug_loc     0x00054e43      0x575 build/default/production/_ext/411819097/ffunicode.o
 .debug_loc     0x000553b8      0x58b build/default/production/_ext/565198302/diskio.o
 .debug_loc     0x00055943     0x5a22 build/default/production/_ext/1269487135/sys_fs.o
 .debug_loc     0x0005b365     0x1696 build/default/production/_ext/1269487135/sys_fs_media_manager.o
 .debug_loc     0x0005c9fb     0x1c60 build/default/production/_ext/1269487135/sys_fs_fat_interface.o
 .debug_loc     0x0005e65b      0x182 build/default/production/_ext/1881668453/sys_int.o
 .debug_loc     0x0005e7dd     0x2341 build/default/production/_ext/101884895/sys_time.o
 .debug_loc     0x00060b1e      0x152 build/default/production/_ext/753841488/sys_time_h2_adapter.o
 .debug_loc     0x00060c70       0x7d build/default/production/_ext/1171490990/initialization.o
 .debug_loc     0x00060ced       0x4a build/default/production/_ext/1171490990/startup_xc32.o
 .debug_loc     0x00060d37       0x20 build/default/production/_ext/1171490990/tasks.o
 .debug_loc     0x00060d57       0x45 build/default/production/_ext/172253694/crypt_wolfcryptcb.o
 .debug_loc     0x00060d9c     0x27ea build/default/production/_ext/1664057780/cryptocb.o
 .debug_loc     0x00063586       0x20 build/default/production/_ext/1360937237/main.o
 .debug_loc     0x000635a6      0x1e9 build/default/production/_ext/1360937237/app.o
 .debug_loc     0x0006378f       0x14 c:/program files/microchip/xc32/v4.00/bin/bin/../../lib/gcc/pic32c/8.3.1/../../../../pic32c/lib/thumb/v7e-m+fp/hard\libpic32c.a(data_init.o)
 .debug_loc     0x000637a3       0x65 c:/program files/microchip/xc32/v4.00/bin/bin/../../lib/gcc/pic32c/8.3.1/../../../../pic32c/lib/thumb/v7e-m+fp/hard\libc-musl.a(isxdigit.o)
 .debug_loc     0x00063808       0x4a c:/program files/microchip/xc32/v4.00/bin/bin/../../lib/gcc/pic32c/8.3.1/../../../../pic32c/lib/thumb/v7e-m+fp/hard\libc-musl.a(tolower.o)
 .debug_loc     0x00063852       0x4a c:/program files/microchip/xc32/v4.00/bin/bin/../../lib/gcc/pic32c/8.3.1/../../../../pic32c/lib/thumb/v7e-m+fp/hard\libc-musl.a(toupper.o)
 .debug_loc     0x0006389c       0x51 c:/program files/microchip/xc32/v4.00/bin/bin/../../lib/gcc/pic32c/8.3.1/../../../../pic32c/lib/thumb/v7e-m+fp/hard\libc-musl.a(__libc_start_main.o)
 .debug_loc     0x000638ed       0x74 c:/program files/microchip/xc32/v4.00/bin/bin/../../lib/gcc/pic32c/8.3.1/../../../../pic32c/lib/thumb/v7e-m+fp/hard\libc-musl.a(calloc.o)
 .debug_loc     0x00063961      0xccc c:/program files/microchip/xc32/v4.00/bin/bin/../../lib/gcc/pic32c/8.3.1/../../../../pic32c/lib/thumb/v7e-m+fp/hard\libc-musl.a(malloc.o)
 .debug_loc     0x0006462d       0x7c c:/program files/microchip/xc32/v4.00/bin/bin/../../lib/gcc/pic32c/8.3.1/../../../../pic32c/lib/thumb/v7e-m+fp/hard\libc-musl.a(expand_heap.o)
 .debug_loc     0x000646a9       0x24 c:/program files/microchip/xc32/v4.00/bin/bin/../../lib/gcc/pic32c/8.3.1/../../../../pic32c/lib/thumb/v7e-m+fp/hard\libc-musl.a(rand.o)
 .debug_loc     0x000646cd       0xeb c:/program files/microchip/xc32/v4.00/bin/bin/../../lib/gcc/pic32c/8.3.1/../../../../pic32c/lib/thumb/v7e-m+fp/hard\libc-musl.a(vsnprintf.o)
 .debug_loc     0x000647b8       0xaf c:/program files/microchip/xc32/v4.00/bin/bin/../../lib/gcc/pic32c/8.3.1/../../../../pic32c/lib/thumb/v7e-m+fp/hard\libc-musl.a(snprintf.o)
 .debug_loc     0x00064867       0x8a c:/program files/microchip/xc32/v4.00/bin/bin/../../lib/gcc/pic32c/8.3.1/../../../../pic32c/lib/thumb/v7e-m+fp/hard\libc-musl.a(sprintf.o)
 .debug_loc     0x000648f1       0x6c c:/program files/microchip/xc32/v4.00/bin/bin/../../lib/gcc/pic32c/8.3.1/../../../../pic32c/lib/thumb/v7e-m+fp/hard\libc-musl.a(vsprintf.o)
 .debug_loc     0x0006495d       0xd8 c:/program files/microchip/xc32/v4.00/bin/bin/../../lib/gcc/pic32c/8.3.1/../../../../pic32c/lib/thumb/v7e-m+fp/hard\libc-musl.a(atoi.o)
 .debug_loc     0x00064a35      0x10c c:/program files/microchip/xc32/v4.00/bin/bin/../../lib/gcc/pic32c/8.3.1/../../../../pic32c/lib/thumb/v7e-m+fp/hard\libc-musl.a(memcmp.o)
 .debug_loc     0x00064b41       0xba c:/program files/microchip/xc32/v4.00/bin/bin/../../lib/gcc/pic32c/8.3.1/../../../../pic32c/lib/thumb/v7e-m+fp/hard\libc-musl.a(memcpy.o)
 .debug_loc     0x00064bfb       0x56 c:/program files/microchip/xc32/v4.00/bin/bin/../../lib/gcc/pic32c/8.3.1/../../../../pic32c/lib/thumb/v7e-m+fp/hard\libc-musl.a(memset.o)
 .debug_loc     0x00064c51       0x47 c:/program files/microchip/xc32/v4.00/bin/bin/../../lib/gcc/pic32c/8.3.1/../../../../pic32c/lib/thumb/v7e-m+fp/hard\libc-musl.a(strlen.o)
 .debug_loc     0x00064c98       0x83 c:/program files/microchip/xc32/v4.00/bin/bin/../../lib/gcc/pic32c/8.3.1/../../../../pic32c/lib/thumb/v7e-m+fp/hard\libc-musl.a(strstr.o)
 .debug_loc     0x00064d1b       0x8c c:/program files/microchip/xc32/v4.00/bin/bin/../../lib/gcc/pic32c/8.3.1/../../../../pic32c/lib/thumb/v7e-m+fp/hard\libc-musl.a(strchr.o)
 .debug_loc     0x00064da7      0x14c c:/program files/microchip/xc32/v4.00/bin/bin/../../lib/gcc/pic32c/8.3.1/../../../../pic32c/lib/thumb/v7e-m+fp/hard\libc-musl.a(strchrnul.o)
 .debug_loc     0x00064ef3       0x76 c:/program files/microchip/xc32/v4.00/bin/bin/../../lib/gcc/pic32c/8.3.1/../../../../pic32c/lib/thumb/v7e-m+fp/hard\libc-musl.a(strcmp.o)
 .debug_loc     0x00064f69       0x67 c:/program files/microchip/xc32/v4.00/bin/bin/../../lib/gcc/pic32c/8.3.1/../../../../pic32c/lib/thumb/v7e-m+fp/hard\libc-musl.a(strcpy.o)
 .debug_loc     0x00064fd0      0x1a6 c:/program files/microchip/xc32/v4.00/bin/bin/../../lib/gcc/pic32c/8.3.1/../../../../pic32c/lib/thumb/v7e-m+fp/hard\libc-musl.a(strncmp.o)
 .debug_loc     0x00065176       0x8c c:/program files/microchip/xc32/v4.00/bin/bin/../../lib/gcc/pic32c/8.3.1/../../../../pic32c/lib/thumb/v7e-m+fp/hard\libc-musl.a(strncpy.o)
 .debug_loc     0x00065202       0x71 c:/program files/microchip/xc32/v4.00/bin/bin/../../lib/gcc/pic32c/8.3.1/../../../../pic32c/lib/thumb/v7e-m+fp/hard\libc-musl.a(strtok.o)
 .debug_loc     0x00065273       0x88 c:/program files/microchip/xc32/v4.00/bin/bin/../../lib/gcc/pic32c/8.3.1/../../../../pic32c/lib/thumb/v7e-m+fp/hard\libc-musl.a(vfprintf.o)
 .debug_loc     0x000652fb       0x60 c:/program files/microchip/xc32/v4.00/bin/bin/../../lib/gcc/pic32c/8.3.1/../../../../pic32c/lib/thumb/v7e-m+fp/hard\libc-musl.a(stpcpy.o)
 .debug_loc     0x0006535b      0x15b c:/program files/microchip/xc32/v4.00/bin/bin/../../lib/gcc/pic32c/8.3.1/../../../../pic32c/lib/thumb/v7e-m+fp/hard\libc-musl.a(stpncpy.o)
 .debug_loc     0x000654b6      0x13d c:/program files/microchip/xc32/v4.00/bin/bin/../../lib/gcc/pic32c/8.3.1/../../../../pic32c/lib/thumb/v7e-m+fp/hard\libc-musl.a(strcspn.o)
 .debug_loc     0x000655f3      0x13f c:/program files/microchip/xc32/v4.00/bin/bin/../../lib/gcc/pic32c/8.3.1/../../../../pic32c/lib/thumb/v7e-m+fp/hard\libc-musl.a(strspn.o)
 .debug_loc     0x00065732      0x638 c:/program files/microchip/xc32/v4.00/bin/bin/../../lib/gcc/pic32c/8.3.1/../../../../pic32c/lib/thumb/v7e-m+fp/hard\libc-musl.a(__printf_core.o)
 .debug_loc     0x00065d6a      0xac1 c:/program files/microchip/xc32/v4.00/bin/bin/../../lib/gcc/pic32c/8.3.1/../../../../pic32c/lib/thumb/v7e-m+fp/hard\libc-musl.a(__fmt_a.o)
 .debug_loc     0x0006682b      0x1ef c:/program files/microchip/xc32/v4.00/bin/bin/../../lib/gcc/pic32c/8.3.1/../../../../pic32c/lib/thumb/v7e-m+fp/hard\libc-musl.a(__fmt_d.o)
 .debug_loc     0x00066a1a      0x9e3 c:/program files/microchip/xc32/v4.00/bin/bin/../../lib/gcc/pic32c/8.3.1/../../../../pic32c/lib/thumb/v7e-m+fp/hard\libc-musl.a(__fmt_fp.o)
 .debug_loc     0x000673fd      0x10a c:/program files/microchip/xc32/v4.00/bin/bin/../../lib/gcc/pic32c/8.3.1/../../../../pic32c/lib/thumb/v7e-m+fp/hard\libc-musl.a(__fmt_o.o)
 .debug_loc     0x00067507      0x157 c:/program files/microchip/xc32/v4.00/bin/bin/../../lib/gcc/pic32c/8.3.1/../../../../pic32c/lib/thumb/v7e-m+fp/hard\libc-musl.a(__fmt_s.o)
 .debug_loc     0x0006765e      0x2a2 c:/program files/microchip/xc32/v4.00/bin/bin/../../lib/gcc/pic32c/8.3.1/../../../../pic32c/lib/thumb/v7e-m+fp/hard\libc-musl.a(__fmt_u.o)
 .debug_loc     0x00067900      0x2a8 c:/program files/microchip/xc32/v4.00/bin/bin/../../lib/gcc/pic32c/8.3.1/../../../../pic32c/lib/thumb/v7e-m+fp/hard\libc-musl.a(__fmt_x.o)
 .debug_loc     0x00067ba8       0xa6 c:/program files/microchip/xc32/v4.00/bin/bin/../../lib/gcc/pic32c/8.3.1/../../../../pic32c/lib/thumb/v7e-m+fp/hard\libc-musl.a(__pop_float.o)
 .debug_loc     0x00067c4e      0x312 c:/program files/microchip/xc32/v4.00/bin/bin/../../lib/gcc/pic32c/8.3.1/../../../../pic32c/lib/thumb/v7e-m+fp/hard\libc-musl.a(__pop_int.o)
 .debug_loc     0x00067f60      0x1db c:/program files/microchip/xc32/v4.00/bin/bin/../../lib/gcc/pic32c/8.3.1/../../../../pic32c/lib/thumb/v7e-m+fp/hard\libc-musl.a(__pop_ptr.o)
 .debug_loc     0x0006813b     0x1041 c:/program files/microchip/xc32/v4.00/bin/bin/../../lib/gcc/pic32c/8.3.1/thumb/v7e-m+fp/hard\libgcc.a(_udivmoddi4.o)

.debug_aranges  0x00000000     0x3238
 .debug_aranges
                0x00000000      0x248 build/default/production/_ext/444070925/drv_ethphy.o
 .debug_aranges
                0x00000248       0x30 build/default/production/_ext/444070925/drv_extphy_ksz8061.o
 .debug_aranges
                0x00000278      0x280 build/default/production/_ext/1546807373/drv_gmac.o
 .debug_aranges
                0x000004f8      0x140 build/default/production/_ext/1546807373/drv_gmac_lib_samE5x.o
 .debug_aranges
                0x00000638       0xe0 build/default/production/_ext/438849557/drv_miim.o
 .debug_aranges
                0x00000718       0x20 build/default/production/_ext/20954303/drv_sdmmc_file_system.o
 .debug_aranges
                0x00000738       0xb0 build/default/production/_ext/20954303/drv_sdmmc.o
 .debug_aranges
                0x000007e8       0xc0 build/default/production/_ext/1751889202/sys_fs_shell.o
 .debug_aranges
                0x000008a8       0x48 build/default/production/_ext/1033058136/helpers.o
 .debug_aranges
                0x000008f0      0x228 build/default/production/_ext/1033058136/tcp.o
 .debug_aranges
                0x00000b18      0x110 build/default/production/_ext/1033058136/arp.o
 .debug_aranges
                0x00000c28       0xf0 build/default/production/_ext/1033058136/ipv4.o
 .debug_aranges
                0x00000d18       0x48 build/default/production/_ext/1033058136/tcpip_heap_alloc.o
 .debug_aranges
                0x00000d60       0x68 build/default/production/_ext/1033058136/tcpip_heap_internal.o
 .debug_aranges
                0x00000dc8      0x130 build/default/production/_ext/1033058136/dns.o
 .debug_aranges
                0x00000ef8       0x28 build/default/production/_ext/1033058136/hash_fnv.o
 .debug_aranges
                0x00000f20       0x58 build/default/production/_ext/1033058136/oahash.o
 .debug_aranges
                0x00000f78      0x218 build/default/production/_ext/1033058136/tcpip_helpers.o
 .debug_aranges
                0x00001190      0x398 build/default/production/_ext/1033058136/tcpip_manager.o
 .debug_aranges
                0x00001528       0x48 build/default/production/_ext/1033058136/tcpip_notify.o
 .debug_aranges
                0x00001570       0x88 build/default/production/_ext/1033058136/tcpip_packet.o
 .debug_aranges
                0x000015f8       0x70 build/default/production/_ext/1033058136/ftp.o
 .debug_aranges
                0x00001668       0x38 build/default/production/_ext/1033058136/icmp.o
 .debug_aranges
                0x000016a0      0x160 build/default/production/_ext/1033058136/berkeley_api.o
 .debug_aranges
                0x00001800       0x88 build/default/production/_ext/1033058136/tcpip_announce.o
 .debug_aranges
                0x00001888      0x1b8 build/default/production/_ext/1033058136/udp.o
 .debug_aranges
                0x00001a40       0x98 build/default/production/_ext/1033058136/iperf.o
 .debug_aranges
                0x00001ad8      0x120 build/default/production/_ext/1508031553/net_pres.o
 .debug_aranges
                0x00001bf8       0x20 build/default/production/_ext/1984496892/plib_clock.o
 .debug_aranges
                0x00001c18       0x20 build/default/production/_ext/1986646378/plib_evsys.o
 .debug_aranges
                0x00001c38       0x38 build/default/production/_ext/1865468468/plib_nvic.o
 .debug_aranges
                0x00001c70       0xd8 build/default/production/_ext/1593096446/plib_nvmctrl.o
 .debug_aranges
                0x00001d48       0x70 build/default/production/_ext/1865521619/plib_port.o
 .debug_aranges
                0x00001db8       0xc0 build/default/production/_ext/1865600094/plib_sdhc1.o
 .debug_aranges
                0x00001e78       0xc0 build/default/production/_ext/504274921/plib_sercom1_usart.o
 .debug_aranges
                0x00001f38       0x78 build/default/production/_ext/829342655/plib_tc0.o
 .debug_aranges
                0x00001fb0       0xd8 build/default/production/_ext/1376093119/sys_command.o
 .debug_aranges
                0x00002088       0x88 build/default/production/_ext/1832805299/sys_console.o
 .debug_aranges
                0x00002110       0x68 build/default/production/_ext/1832805299/sys_console_uart.o
 .debug_aranges
                0x00002178       0x48 build/default/production/_ext/944882569/sys_debug.o
 .debug_aranges
                0x000021c0      0x210 build/default/production/_ext/411819097/ff.o
 .debug_aranges
                0x000023d0       0x30 build/default/production/_ext/411819097/ffunicode.o
 .debug_aranges
                0x00002400       0x58 build/default/production/_ext/565198302/diskio.o
 .debug_aranges
                0x00002458      0x170 build/default/production/_ext/1269487135/sys_fs.o
 .debug_aranges
                0x000025c8       0x98 build/default/production/_ext/1269487135/sys_fs_media_manager.o
 .debug_aranges
                0x00002660      0x130 build/default/production/_ext/1269487135/sys_fs_fat_interface.o
 .debug_aranges
                0x00002790       0x40 build/default/production/_ext/1881668453/sys_int.o
 .debug_aranges
                0x000027d0       0x20 build/default/production/_ext/1000052432/sys_reset.o
 .debug_aranges
                0x000027f0      0x128 build/default/production/_ext/101884895/sys_time.o
 .debug_aranges
                0x00002918       0x40 build/default/production/_ext/753841488/sys_time_h2_adapter.o
 .debug_aranges
                0x00002958       0x28 build/default/production/_ext/1171490990/initialization.o
 .debug_aranges
                0x00002980       0x20 build/default/production/_ext/1171490990/interrupts.o
 .debug_aranges
                0x000029a0       0x48 build/default/production/_ext/1171490990/exceptions.o
 .debug_aranges
                0x000029e8       0x28 build/default/production/_ext/1171490990/startup_xc32.o
 .debug_aranges
                0x00002a10       0x20 build/default/production/_ext/1171490990/tasks.o
 .debug_aranges
                0x00002a30       0x28 build/default/production/_ext/172253694/crypt_wolfcryptcb.o
 .debug_aranges
                0x00002a58       0xd8 build/default/production/_ext/1664057780/cryptocb.o
 .debug_aranges
                0x00002b30       0x20 build/default/production/_ext/1360937237/main.o
 .debug_aranges
                0x00002b50       0x28 build/default/production/_ext/1360937237/app.o
 .debug_aranges
                0x00002b78       0x20 c:/program files/microchip/xc32/v4.00/bin/bin/../../lib/gcc/pic32c/8.3.1/../../../../pic32c/lib/thumb/v7e-m+fp/hard\libpic32c.a(data_init.o)
 .debug_aranges
                0x00002b98       0x28 c:/program files/microchip/xc32/v4.00/bin/bin/../../lib/gcc/pic32c/8.3.1/../../../../pic32c/lib/thumb/v7e-m+fp/hard\libc-musl.a(isxdigit.o)
 .debug_aranges
                0x00002bc0       0x28 c:/program files/microchip/xc32/v4.00/bin/bin/../../lib/gcc/pic32c/8.3.1/../../../../pic32c/lib/thumb/v7e-m+fp/hard\libc-musl.a(tolower.o)
 .debug_aranges
                0x00002be8       0x28 c:/program files/microchip/xc32/v4.00/bin/bin/../../lib/gcc/pic32c/8.3.1/../../../../pic32c/lib/thumb/v7e-m+fp/hard\libc-musl.a(toupper.o)
 .debug_aranges
                0x00002c10       0x28 c:/program files/microchip/xc32/v4.00/bin/bin/../../lib/gcc/pic32c/8.3.1/../../../../pic32c/lib/thumb/v7e-m+fp/hard\libc-musl.a(__libc_start_main.o)
 .debug_aranges
                0x00002c38       0x18 c:/program files/microchip/xc32/v4.00/bin/bin/../../lib/gcc/pic32c/8.3.1/../../../../pic32c/lib/thumb/v7e-m+fp/hard\libc-musl.a(__errno_location.o)
 .debug_aranges
                0x00002c50       0x18 c:/program files/microchip/xc32/v4.00/bin/bin/../../lib/gcc/pic32c/8.3.1/../../../../pic32c/lib/thumb/v7e-m+fp/hard\libc-musl.a(libc.o)
 .debug_aranges
                0x00002c68       0x20 c:/program files/microchip/xc32/v4.00/bin/bin/../../lib/gcc/pic32c/8.3.1/../../../../pic32c/lib/thumb/v7e-m+fp/hard\libc-musl.a(calloc.o)
 .debug_aranges
                0x00002c88       0x70 c:/program files/microchip/xc32/v4.00/bin/bin/../../lib/gcc/pic32c/8.3.1/../../../../pic32c/lib/thumb/v7e-m+fp/hard\libc-musl.a(malloc.o)
 .debug_aranges
                0x00002cf8       0x20 c:/program files/microchip/xc32/v4.00/bin/bin/../../lib/gcc/pic32c/8.3.1/../../../../pic32c/lib/thumb/v7e-m+fp/hard\libc-musl.a(expand_heap.o)
 .debug_aranges
                0x00002d18       0x28 c:/program files/microchip/xc32/v4.00/bin/bin/../../lib/gcc/pic32c/8.3.1/../../../../pic32c/lib/thumb/v7e-m+fp/hard\libc-musl.a(rand.o)
 .debug_aranges
                0x00002d40       0x20 c:/program files/microchip/xc32/v4.00/bin/bin/../../lib/gcc/pic32c/8.3.1/../../../../pic32c/lib/thumb/v7e-m+fp/hard\libc-musl.a(vsnprintf.o)
 .debug_aranges
                0x00002d60       0x20 c:/program files/microchip/xc32/v4.00/bin/bin/../../lib/gcc/pic32c/8.3.1/../../../../pic32c/lib/thumb/v7e-m+fp/hard\libc-musl.a(snprintf.o)
 .debug_aranges
                0x00002d80       0x20 c:/program files/microchip/xc32/v4.00/bin/bin/../../lib/gcc/pic32c/8.3.1/../../../../pic32c/lib/thumb/v7e-m+fp/hard\libc-musl.a(sprintf.o)
 .debug_aranges
                0x00002da0       0x20 c:/program files/microchip/xc32/v4.00/bin/bin/../../lib/gcc/pic32c/8.3.1/../../../../pic32c/lib/thumb/v7e-m+fp/hard\libc-musl.a(vsprintf.o)
 .debug_aranges
                0x00002dc0       0x20 c:/program files/microchip/xc32/v4.00/bin/bin/../../lib/gcc/pic32c/8.3.1/../../../../pic32c/lib/thumb/v7e-m+fp/hard\libc-musl.a(atoi.o)
 .debug_aranges
                0x00002de0       0x20 c:/program files/microchip/xc32/v4.00/bin/bin/../../lib/gcc/pic32c/8.3.1/../../../../pic32c/lib/thumb/v7e-m+fp/hard\libc-musl.a(memcmp.o)
 .debug_aranges
                0x00002e00       0x20 c:/program files/microchip/xc32/v4.00/bin/bin/../../lib/gcc/pic32c/8.3.1/../../../../pic32c/lib/thumb/v7e-m+fp/hard\libc-musl.a(memcpy.o)
 .debug_aranges
                0x00002e20       0x20 c:/program files/microchip/xc32/v4.00/bin/bin/../../lib/gcc/pic32c/8.3.1/../../../../pic32c/lib/thumb/v7e-m+fp/hard\libc-musl.a(memset.o)
 .debug_aranges
                0x00002e40       0x20 c:/program files/microchip/xc32/v4.00/bin/bin/../../lib/gcc/pic32c/8.3.1/../../../../pic32c/lib/thumb/v7e-m+fp/hard\libc-musl.a(strlen.o)
 .debug_aranges
                0x00002e60       0x20 c:/program files/microchip/xc32/v4.00/bin/bin/../../lib/gcc/pic32c/8.3.1/../../../../pic32c/lib/thumb/v7e-m+fp/hard\libc-musl.a(strstr.o)
 .debug_aranges
                0x00002e80       0x20 c:/program files/microchip/xc32/v4.00/bin/bin/../../lib/gcc/pic32c/8.3.1/../../../../pic32c/lib/thumb/v7e-m+fp/hard\libc-musl.a(strchr.o)
 .debug_aranges
                0x00002ea0       0x20 c:/program files/microchip/xc32/v4.00/bin/bin/../../lib/gcc/pic32c/8.3.1/../../../../pic32c/lib/thumb/v7e-m+fp/hard\libc-musl.a(strchrnul.o)
 .debug_aranges
                0x00002ec0       0x20 c:/program files/microchip/xc32/v4.00/bin/bin/../../lib/gcc/pic32c/8.3.1/../../../../pic32c/lib/thumb/v7e-m+fp/hard\libc-musl.a(strcmp.o)
 .debug_aranges
                0x00002ee0       0x20 c:/program files/microchip/xc32/v4.00/bin/bin/../../lib/gcc/pic32c/8.3.1/../../../../pic32c/lib/thumb/v7e-m+fp/hard\libc-musl.a(strcpy.o)
 .debug_aranges
                0x00002f00       0x20 c:/program files/microchip/xc32/v4.00/bin/bin/../../lib/gcc/pic32c/8.3.1/../../../../pic32c/lib/thumb/v7e-m+fp/hard\libc-musl.a(strncmp.o)
 .debug_aranges
                0x00002f20       0x20 c:/program files/microchip/xc32/v4.00/bin/bin/../../lib/gcc/pic32c/8.3.1/../../../../pic32c/lib/thumb/v7e-m+fp/hard\libc-musl.a(strncpy.o)
 .debug_aranges
                0x00002f40       0x20 c:/program files/microchip/xc32/v4.00/bin/bin/../../lib/gcc/pic32c/8.3.1/../../../../pic32c/lib/thumb/v7e-m+fp/hard\libc-musl.a(strtok.o)
 .debug_aranges
                0x00002f60       0x18 c:/program files/microchip/xc32/v4.00/bin/bin/../../lib/gcc/pic32c/8.3.1/../../../../pic32c/lib/thumb/v7e-m+fp/hard\libc-musl.a(__environ.o)
 .debug_aranges
                0x00002f78       0x28 c:/program files/microchip/xc32/v4.00/bin/bin/../../lib/gcc/pic32c/8.3.1/../../../../pic32c/lib/thumb/v7e-m+fp/hard\libc-musl.a(vfprintf.o)
 .debug_aranges
                0x00002fa0       0x20 c:/program files/microchip/xc32/v4.00/bin/bin/../../lib/gcc/pic32c/8.3.1/../../../../pic32c/lib/thumb/v7e-m+fp/hard\libc-musl.a(stpcpy.o)
 .debug_aranges
                0x00002fc0       0x20 c:/program files/microchip/xc32/v4.00/bin/bin/../../lib/gcc/pic32c/8.3.1/../../../../pic32c/lib/thumb/v7e-m+fp/hard\libc-musl.a(stpncpy.o)
 .debug_aranges
                0x00002fe0       0x20 c:/program files/microchip/xc32/v4.00/bin/bin/../../lib/gcc/pic32c/8.3.1/../../../../pic32c/lib/thumb/v7e-m+fp/hard\libc-musl.a(strcspn.o)
 .debug_aranges
                0x00003000       0x20 c:/program files/microchip/xc32/v4.00/bin/bin/../../lib/gcc/pic32c/8.3.1/../../../../pic32c/lib/thumb/v7e-m+fp/hard\libc-musl.a(strspn.o)
 .debug_aranges
                0x00003020       0x50 c:/program files/microchip/xc32/v4.00/bin/bin/../../lib/gcc/pic32c/8.3.1/../../../../pic32c/lib/thumb/v7e-m+fp/hard\libc-musl.a(__printf_core.o)
 .debug_aranges
                0x00003070       0x20 c:/program files/microchip/xc32/v4.00/bin/bin/../../lib/gcc/pic32c/8.3.1/../../../../pic32c/lib/thumb/v7e-m+fp/hard\libc-musl.a(__fmt_a.o)
 .debug_aranges
                0x00003090       0x20 c:/program files/microchip/xc32/v4.00/bin/bin/../../lib/gcc/pic32c/8.3.1/../../../../pic32c/lib/thumb/v7e-m+fp/hard\libc-musl.a(__fmt_d.o)
 .debug_aranges
                0x000030b0       0x20 c:/program files/microchip/xc32/v4.00/bin/bin/../../lib/gcc/pic32c/8.3.1/../../../../pic32c/lib/thumb/v7e-m+fp/hard\libc-musl.a(__fmt_fp.o)
 .debug_aranges
                0x000030d0       0x20 c:/program files/microchip/xc32/v4.00/bin/bin/../../lib/gcc/pic32c/8.3.1/../../../../pic32c/lib/thumb/v7e-m+fp/hard\libc-musl.a(__fmt_o.o)
 .debug_aranges
                0x000030f0       0x20 c:/program files/microchip/xc32/v4.00/bin/bin/../../lib/gcc/pic32c/8.3.1/../../../../pic32c/lib/thumb/v7e-m+fp/hard\libc-musl.a(__fmt_s.o)
 .debug_aranges
                0x00003110       0x28 c:/program files/microchip/xc32/v4.00/bin/bin/../../lib/gcc/pic32c/8.3.1/../../../../pic32c/lib/thumb/v7e-m+fp/hard\libc-musl.a(__fmt_u.o)
 .debug_aranges
                0x00003138       0x20 c:/program files/microchip/xc32/v4.00/bin/bin/../../lib/gcc/pic32c/8.3.1/../../../../pic32c/lib/thumb/v7e-m+fp/hard\libc-musl.a(__fmt_x.o)
 .debug_aranges
                0x00003158       0x20 c:/program files/microchip/xc32/v4.00/bin/bin/../../lib/gcc/pic32c/8.3.1/../../../../pic32c/lib/thumb/v7e-m+fp/hard\libc-musl.a(__pop_float.o)
 .debug_aranges
                0x00003178       0x20 c:/program files/microchip/xc32/v4.00/bin/bin/../../lib/gcc/pic32c/8.3.1/../../../../pic32c/lib/thumb/v7e-m+fp/hard\libc-musl.a(__pop_int.o)
 .debug_aranges
                0x00003198       0x20 c:/program files/microchip/xc32/v4.00/bin/bin/../../lib/gcc/pic32c/8.3.1/../../../../pic32c/lib/thumb/v7e-m+fp/hard\libc-musl.a(__pop_ptr.o)
 .debug_aranges
                0x000031b8       0x20 c:/program files/microchip/xc32/v4.00/bin/bin/../../lib/gcc/pic32c/8.3.1/thumb/v7e-m+fp/hard\libgcc.a(_aeabi_uldivmod.o)
 .debug_aranges
                0x000031d8       0x20 c:/program files/microchip/xc32/v4.00/bin/bin/../../lib/gcc/pic32c/8.3.1/thumb/v7e-m+fp/hard\libgcc.a(_udivmoddi4.o)
 .debug_aranges
                0x000031f8       0x20 c:/program files/microchip/xc32/v4.00/bin/bin/../../lib/gcc/pic32c/8.3.1/thumb/v7e-m+fp/hard\libgcc.a(_dvmd_tls.o)
 .debug_aranges
                0x00003218       0x20 c:/program files/microchip/xc32/v4.00/bin/bin/../../lib/gcc/pic32c/8.3.1/../../../../pic32c/lib/thumb/v7e-m+fp/hard\libpic32c.a(sbrk.o)

.debug_ranges   0x00000000     0x68b0
 .debug_ranges  0x00000000      0x310 build/default/production/_ext/444070925/drv_ethphy.o
 .debug_ranges  0x00000310       0x20 build/default/production/_ext/444070925/drv_extphy_ksz8061.o
 .debug_ranges  0x00000330      0x360 build/default/production/_ext/1546807373/drv_gmac.o
 .debug_ranges  0x00000690      0x278 build/default/production/_ext/1546807373/drv_gmac_lib_samE5x.o
 .debug_ranges  0x00000908      0x420 build/default/production/_ext/438849557/drv_miim.o
 .debug_ranges  0x00000d28       0x10 build/default/production/_ext/20954303/drv_sdmmc_file_system.o
 .debug_ranges  0x00000d38      0x190 build/default/production/_ext/20954303/drv_sdmmc.o
 .debug_ranges  0x00000ec8      0x1e8 build/default/production/_ext/1751889202/sys_fs_shell.o
 .debug_ranges  0x000010b0       0x38 build/default/production/_ext/1033058136/helpers.o
 .debug_ranges  0x000010e8      0x770 build/default/production/_ext/1033058136/tcp.o
 .debug_ranges  0x00001858      0x498 build/default/production/_ext/1033058136/arp.o
 .debug_ranges  0x00001cf0      0x2b8 build/default/production/_ext/1033058136/ipv4.o
 .debug_ranges  0x00001fa8       0x38 build/default/production/_ext/1033058136/tcpip_heap_alloc.o
 .debug_ranges  0x00001fe0      0x148 build/default/production/_ext/1033058136/tcpip_heap_internal.o
 .debug_ranges  0x00002128      0x318 build/default/production/_ext/1033058136/dns.o
 .debug_ranges  0x00002440       0x18 build/default/production/_ext/1033058136/hash_fnv.o
 .debug_ranges  0x00002458       0x48 build/default/production/_ext/1033058136/oahash.o
 .debug_ranges  0x000024a0      0x460 build/default/production/_ext/1033058136/tcpip_helpers.o
 .debug_ranges  0x00002900      0xd30 build/default/production/_ext/1033058136/tcpip_manager.o
 .debug_ranges  0x00003630       0x38 build/default/production/_ext/1033058136/tcpip_notify.o
 .debug_ranges  0x00003668       0xd8 build/default/production/_ext/1033058136/tcpip_packet.o
 .debug_ranges  0x00003740      0x168 build/default/production/_ext/1033058136/ftp.o
 .debug_ranges  0x000038a8       0x28 build/default/production/_ext/1033058136/icmp.o
 .debug_ranges  0x000038d0      0x208 build/default/production/_ext/1033058136/berkeley_api.o
 .debug_ranges  0x00003ad8      0x168 build/default/production/_ext/1033058136/tcpip_announce.o
 .debug_ranges  0x00003c40      0x7b8 build/default/production/_ext/1033058136/udp.o
 .debug_ranges  0x000043f8      0x2c8 build/default/production/_ext/1033058136/iperf.o
 .debug_ranges  0x000046c0      0x2e8 build/default/production/_ext/1508031553/net_pres.o
 .debug_ranges  0x000049a8       0x10 build/default/production/_ext/1984496892/plib_clock.o
 .debug_ranges  0x000049b8       0x10 build/default/production/_ext/1986646378/plib_evsys.o
 .debug_ranges  0x000049c8       0x28 build/default/production/_ext/1865468468/plib_nvic.o
 .debug_ranges  0x000049f0       0xc8 build/default/production/_ext/1593096446/plib_nvmctrl.o
 .debug_ranges  0x00004ab8       0x60 build/default/production/_ext/1865521619/plib_port.o
 .debug_ranges  0x00004b18       0xc8 build/default/production/_ext/1865600094/plib_sdhc1.o
 .debug_ranges  0x00004be0      0x1f0 build/default/production/_ext/504274921/plib_sercom1_usart.o
 .debug_ranges  0x00004dd0       0x68 build/default/production/_ext/829342655/plib_tc0.o
 .debug_ranges  0x00004e38      0x188 build/default/production/_ext/1376093119/sys_command.o
 .debug_ranges  0x00004fc0       0x90 build/default/production/_ext/1832805299/sys_console.o
 .debug_ranges  0x00005050      0x1a8 build/default/production/_ext/1832805299/sys_console_uart.o
 .debug_ranges  0x000051f8       0x38 build/default/production/_ext/944882569/sys_debug.o
 .debug_ranges  0x00005230      0x3d0 build/default/production/_ext/411819097/ff.o
 .debug_ranges  0x00005600       0x20 build/default/production/_ext/411819097/ffunicode.o
 .debug_ranges  0x00005620       0x60 build/default/production/_ext/565198302/diskio.o
 .debug_ranges  0x00005680      0x5c8 build/default/production/_ext/1269487135/sys_fs.o
 .debug_ranges  0x00005c48      0x110 build/default/production/_ext/1269487135/sys_fs_media_manager.o
 .debug_ranges  0x00005d58      0x120 build/default/production/_ext/1269487135/sys_fs_fat_interface.o
 .debug_ranges  0x00005e78       0x30 build/default/production/_ext/1881668453/sys_int.o
 .debug_ranges  0x00005ea8       0x10 build/default/production/_ext/1000052432/sys_reset.o
 .debug_ranges  0x00005eb8      0x178 build/default/production/_ext/101884895/sys_time.o
 .debug_ranges  0x00006030       0x30 build/default/production/_ext/753841488/sys_time_h2_adapter.o
 .debug_ranges  0x00006060       0x18 build/default/production/_ext/1171490990/initialization.o
 .debug_ranges  0x00006078       0x10 build/default/production/_ext/1171490990/interrupts.o
 .debug_ranges  0x00006088       0x38 build/default/production/_ext/1171490990/exceptions.o
 .debug_ranges  0x000060c0       0x18 build/default/production/_ext/1171490990/startup_xc32.o
 .debug_ranges  0x000060d8       0x10 build/default/production/_ext/1171490990/tasks.o
 .debug_ranges  0x000060e8       0x18 build/default/production/_ext/172253694/crypt_wolfcryptcb.o
 .debug_ranges  0x00006100      0x1b8 build/default/production/_ext/1664057780/cryptocb.o
 .debug_ranges  0x000062b8       0x10 build/default/production/_ext/1360937237/main.o
 .debug_ranges  0x000062c8       0x18 build/default/production/_ext/1360937237/app.o
 .debug_ranges  0x000062e0       0x10 c:/program files/microchip/xc32/v4.00/bin/bin/../../lib/gcc/pic32c/8.3.1/../../../../pic32c/lib/thumb/v7e-m+fp/hard\libpic32c.a(data_init.o)
 .debug_ranges  0x000062f0       0x18 c:/program files/microchip/xc32/v4.00/bin/bin/../../lib/gcc/pic32c/8.3.1/../../../../pic32c/lib/thumb/v7e-m+fp/hard\libc-musl.a(isxdigit.o)
 .debug_ranges  0x00006308       0x18 c:/program files/microchip/xc32/v4.00/bin/bin/../../lib/gcc/pic32c/8.3.1/../../../../pic32c/lib/thumb/v7e-m+fp/hard\libc-musl.a(tolower.o)
 .debug_ranges  0x00006320       0x18 c:/program files/microchip/xc32/v4.00/bin/bin/../../lib/gcc/pic32c/8.3.1/../../../../pic32c/lib/thumb/v7e-m+fp/hard\libc-musl.a(toupper.o)
 .debug_ranges  0x00006338       0x40 c:/program files/microchip/xc32/v4.00/bin/bin/../../lib/gcc/pic32c/8.3.1/../../../../pic32c/lib/thumb/v7e-m+fp/hard\libc-musl.a(__libc_start_main.o)
 .debug_ranges  0x00006378       0x10 c:/program files/microchip/xc32/v4.00/bin/bin/../../lib/gcc/pic32c/8.3.1/../../../../pic32c/lib/thumb/v7e-m+fp/hard\libc-musl.a(calloc.o)
 .debug_ranges  0x00006388      0x1a0 c:/program files/microchip/xc32/v4.00/bin/bin/../../lib/gcc/pic32c/8.3.1/../../../../pic32c/lib/thumb/v7e-m+fp/hard\libc-musl.a(malloc.o)
 .debug_ranges  0x00006528       0x10 c:/program files/microchip/xc32/v4.00/bin/bin/../../lib/gcc/pic32c/8.3.1/../../../../pic32c/lib/thumb/v7e-m+fp/hard\libc-musl.a(expand_heap.o)
 .debug_ranges  0x00006538       0x18 c:/program files/microchip/xc32/v4.00/bin/bin/../../lib/gcc/pic32c/8.3.1/../../../../pic32c/lib/thumb/v7e-m+fp/hard\libc-musl.a(rand.o)
 .debug_ranges  0x00006550       0x10 c:/program files/microchip/xc32/v4.00/bin/bin/../../lib/gcc/pic32c/8.3.1/../../../../pic32c/lib/thumb/v7e-m+fp/hard\libc-musl.a(vsnprintf.o)
 .debug_ranges  0x00006560       0x10 c:/program files/microchip/xc32/v4.00/bin/bin/../../lib/gcc/pic32c/8.3.1/../../../../pic32c/lib/thumb/v7e-m+fp/hard\libc-musl.a(snprintf.o)
 .debug_ranges  0x00006570       0x10 c:/program files/microchip/xc32/v4.00/bin/bin/../../lib/gcc/pic32c/8.3.1/../../../../pic32c/lib/thumb/v7e-m+fp/hard\libc-musl.a(sprintf.o)
 .debug_ranges  0x00006580       0x10 c:/program files/microchip/xc32/v4.00/bin/bin/../../lib/gcc/pic32c/8.3.1/../../../../pic32c/lib/thumb/v7e-m+fp/hard\libc-musl.a(vsprintf.o)
 .debug_ranges  0x00006590       0x10 c:/program files/microchip/xc32/v4.00/bin/bin/../../lib/gcc/pic32c/8.3.1/../../../../pic32c/lib/thumb/v7e-m+fp/hard\libc-musl.a(atoi.o)
 .debug_ranges  0x000065a0       0x10 c:/program files/microchip/xc32/v4.00/bin/bin/../../lib/gcc/pic32c/8.3.1/../../../../pic32c/lib/thumb/v7e-m+fp/hard\libc-musl.a(memcmp.o)
 .debug_ranges  0x000065b0       0x10 c:/program files/microchip/xc32/v4.00/bin/bin/../../lib/gcc/pic32c/8.3.1/../../../../pic32c/lib/thumb/v7e-m+fp/hard\libc-musl.a(memcpy.o)
 .debug_ranges  0x000065c0       0x10 c:/program files/microchip/xc32/v4.00/bin/bin/../../lib/gcc/pic32c/8.3.1/../../../../pic32c/lib/thumb/v7e-m+fp/hard\libc-musl.a(memset.o)
 .debug_ranges  0x000065d0       0x10 c:/program files/microchip/xc32/v4.00/bin/bin/../../lib/gcc/pic32c/8.3.1/../../../../pic32c/lib/thumb/v7e-m+fp/hard\libc-musl.a(strlen.o)
 .debug_ranges  0x000065e0       0x10 c:/program files/microchip/xc32/v4.00/bin/bin/../../lib/gcc/pic32c/8.3.1/../../../../pic32c/lib/thumb/v7e-m+fp/hard\libc-musl.a(strstr.o)
 .debug_ranges  0x000065f0       0x10 c:/program files/microchip/xc32/v4.00/bin/bin/../../lib/gcc/pic32c/8.3.1/../../../../pic32c/lib/thumb/v7e-m+fp/hard\libc-musl.a(strchr.o)
 .debug_ranges  0x00006600       0x10 c:/program files/microchip/xc32/v4.00/bin/bin/../../lib/gcc/pic32c/8.3.1/../../../../pic32c/lib/thumb/v7e-m+fp/hard\libc-musl.a(strchrnul.o)
 .debug_ranges  0x00006610       0x10 c:/program files/microchip/xc32/v4.00/bin/bin/../../lib/gcc/pic32c/8.3.1/../../../../pic32c/lib/thumb/v7e-m+fp/hard\libc-musl.a(strcmp.o)
 .debug_ranges  0x00006620       0x10 c:/program files/microchip/xc32/v4.00/bin/bin/../../lib/gcc/pic32c/8.3.1/../../../../pic32c/lib/thumb/v7e-m+fp/hard\libc-musl.a(strcpy.o)
 .debug_ranges  0x00006630       0x10 c:/program files/microchip/xc32/v4.00/bin/bin/../../lib/gcc/pic32c/8.3.1/../../../../pic32c/lib/thumb/v7e-m+fp/hard\libc-musl.a(strncmp.o)
 .debug_ranges  0x00006640       0x10 c:/program files/microchip/xc32/v4.00/bin/bin/../../lib/gcc/pic32c/8.3.1/../../../../pic32c/lib/thumb/v7e-m+fp/hard\libc-musl.a(strncpy.o)
 .debug_ranges  0x00006650       0x10 c:/program files/microchip/xc32/v4.00/bin/bin/../../lib/gcc/pic32c/8.3.1/../../../../pic32c/lib/thumb/v7e-m+fp/hard\libc-musl.a(strtok.o)
 .debug_ranges  0x00006660       0x18 c:/program files/microchip/xc32/v4.00/bin/bin/../../lib/gcc/pic32c/8.3.1/../../../../pic32c/lib/thumb/v7e-m+fp/hard\libc-musl.a(vfprintf.o)
 .debug_ranges  0x00006678       0x10 c:/program files/microchip/xc32/v4.00/bin/bin/../../lib/gcc/pic32c/8.3.1/../../../../pic32c/lib/thumb/v7e-m+fp/hard\libc-musl.a(stpcpy.o)
 .debug_ranges  0x00006688       0x10 c:/program files/microchip/xc32/v4.00/bin/bin/../../lib/gcc/pic32c/8.3.1/../../../../pic32c/lib/thumb/v7e-m+fp/hard\libc-musl.a(stpncpy.o)
 .debug_ranges  0x00006698       0x10 c:/program files/microchip/xc32/v4.00/bin/bin/../../lib/gcc/pic32c/8.3.1/../../../../pic32c/lib/thumb/v7e-m+fp/hard\libc-musl.a(strcspn.o)
 .debug_ranges  0x000066a8       0x10 c:/program files/microchip/xc32/v4.00/bin/bin/../../lib/gcc/pic32c/8.3.1/../../../../pic32c/lib/thumb/v7e-m+fp/hard\libc-musl.a(strspn.o)
 .debug_ranges  0x000066b8       0x68 c:/program files/microchip/xc32/v4.00/bin/bin/../../lib/gcc/pic32c/8.3.1/../../../../pic32c/lib/thumb/v7e-m+fp/hard\libc-musl.a(__printf_core.o)
 .debug_ranges  0x00006720       0x10 c:/program files/microchip/xc32/v4.00/bin/bin/../../lib/gcc/pic32c/8.3.1/../../../../pic32c/lib/thumb/v7e-m+fp/hard\libc-musl.a(__fmt_a.o)
 .debug_ranges  0x00006730       0x10 c:/program files/microchip/xc32/v4.00/bin/bin/../../lib/gcc/pic32c/8.3.1/../../../../pic32c/lib/thumb/v7e-m+fp/hard\libc-musl.a(__fmt_d.o)
 .debug_ranges  0x00006740       0x10 c:/program files/microchip/xc32/v4.00/bin/bin/../../lib/gcc/pic32c/8.3.1/../../../../pic32c/lib/thumb/v7e-m+fp/hard\libc-musl.a(__fmt_fp.o)
 .debug_ranges  0x00006750       0x10 c:/program files/microchip/xc32/v4.00/bin/bin/../../lib/gcc/pic32c/8.3.1/../../../../pic32c/lib/thumb/v7e-m+fp/hard\libc-musl.a(__fmt_o.o)
 .debug_ranges  0x00006760       0x10 c:/program files/microchip/xc32/v4.00/bin/bin/../../lib/gcc/pic32c/8.3.1/../../../../pic32c/lib/thumb/v7e-m+fp/hard\libc-musl.a(__fmt_s.o)
 .debug_ranges  0x00006770       0x18 c:/program files/microchip/xc32/v4.00/bin/bin/../../lib/gcc/pic32c/8.3.1/../../../../pic32c/lib/thumb/v7e-m+fp/hard\libc-musl.a(__fmt_u.o)
 .debug_ranges  0x00006788       0x10 c:/program files/microchip/xc32/v4.00/bin/bin/../../lib/gcc/pic32c/8.3.1/../../../../pic32c/lib/thumb/v7e-m+fp/hard\libc-musl.a(__fmt_x.o)
 .debug_ranges  0x00006798       0x10 c:/program files/microchip/xc32/v4.00/bin/bin/../../lib/gcc/pic32c/8.3.1/../../../../pic32c/lib/thumb/v7e-m+fp/hard\libc-musl.a(__pop_float.o)
 .debug_ranges  0x000067a8       0x10 c:/program files/microchip/xc32/v4.00/bin/bin/../../lib/gcc/pic32c/8.3.1/../../../../pic32c/lib/thumb/v7e-m+fp/hard\libc-musl.a(__pop_int.o)
 .debug_ranges  0x000067b8       0x10 c:/program files/microchip/xc32/v4.00/bin/bin/../../lib/gcc/pic32c/8.3.1/../../../../pic32c/lib/thumb/v7e-m+fp/hard\libc-musl.a(__pop_ptr.o)
 .debug_ranges  0x000067c8       0xd8 c:/program files/microchip/xc32/v4.00/bin/bin/../../lib/gcc/pic32c/8.3.1/thumb/v7e-m+fp/hard\libgcc.a(_udivmoddi4.o)
 .debug_ranges  0x000068a0       0x10 c:/program files/microchip/xc32/v4.00/bin/bin/../../lib/gcc/pic32c/8.3.1/../../../../pic32c/lib/thumb/v7e-m+fp/hard\libpic32c.a(sbrk.o)

.debug_line     0x00000000    0x4244f
 .debug_line    0x00000000     0x23f3 build/default/production/_ext/444070925/drv_ethphy.o
 .debug_line    0x000023f3      0x233 build/default/production/_ext/444070925/drv_extphy_ksz8061.o
 .debug_line    0x00002626     0x1f51 build/default/production/_ext/1546807373/drv_gmac.o
 .debug_line    0x00004577     0x18ff build/default/production/_ext/1546807373/drv_gmac_lib_samE5x.o
 .debug_line    0x00005e76     0x155a build/default/production/_ext/438849557/drv_miim.o
 .debug_line    0x000073d0      0x1a8 build/default/production/_ext/20954303/drv_sdmmc_file_system.o
 .debug_line    0x00007578     0x1f38 build/default/production/_ext/20954303/drv_sdmmc.o
 .debug_line    0x000094b0      0xb61 build/default/production/_ext/1751889202/sys_fs_shell.o
 .debug_line    0x0000a011      0x33a build/default/production/_ext/1033058136/helpers.o
 .debug_line    0x0000a34b     0x48d5 build/default/production/_ext/1033058136/tcp.o
 .debug_line    0x0000ec20     0x1a77 build/default/production/_ext/1033058136/arp.o
 .debug_line    0x00010697     0x190d build/default/production/_ext/1033058136/ipv4.o
 .debug_line    0x00011fa4      0x30c build/default/production/_ext/1033058136/tcpip_heap_alloc.o
 .debug_line    0x000122b0      0xbb8 build/default/production/_ext/1033058136/tcpip_heap_internal.o
 .debug_line    0x00012e68     0x1eb7 build/default/production/_ext/1033058136/dns.o
 .debug_line    0x00014d1f      0x13d build/default/production/_ext/1033058136/hash_fnv.o
 .debug_line    0x00014e5c      0x43f build/default/production/_ext/1033058136/oahash.o
 .debug_line    0x0001529b     0x2ae8 build/default/production/_ext/1033058136/tcpip_helpers.o
 .debug_line    0x00017d83     0x3c59 build/default/production/_ext/1033058136/tcpip_manager.o
 .debug_line    0x0001b9dc      0x414 build/default/production/_ext/1033058136/tcpip_notify.o
 .debug_line    0x0001bdf0      0x828 build/default/production/_ext/1033058136/tcpip_packet.o
 .debug_line    0x0001c618     0x26e7 build/default/production/_ext/1033058136/ftp.o
 .debug_line    0x0001ecff      0x4ef build/default/production/_ext/1033058136/icmp.o
 .debug_line    0x0001f1ee     0x2509 build/default/production/_ext/1033058136/berkeley_api.o
 .debug_line    0x000216f7      0xadb build/default/production/_ext/1033058136/tcpip_announce.o
 .debug_line    0x000221d2     0x2e79 build/default/production/_ext/1033058136/udp.o
 .debug_line    0x0002504b     0x22a4 build/default/production/_ext/1033058136/iperf.o
 .debug_line    0x000272ef     0x187d build/default/production/_ext/1508031553/net_pres.o
 .debug_line    0x00028b6c      0x2b9 build/default/production/_ext/1984496892/plib_clock.o
 .debug_line    0x00028e25       0xe7 build/default/production/_ext/1986646378/plib_evsys.o
 .debug_line    0x00028f0c      0x438 build/default/production/_ext/1865468468/plib_nvic.o
 .debug_line    0x00029344      0x5f6 build/default/production/_ext/1593096446/plib_nvmctrl.o
 .debug_line    0x0002993a      0x3b5 build/default/production/_ext/1865521619/plib_port.o
 .debug_line    0x00029cef      0x7e8 build/default/production/_ext/1865600094/plib_sdhc1.o
 .debug_line    0x0002a4d7      0xbbb build/default/production/_ext/504274921/plib_sercom1_usart.o
 .debug_line    0x0002b092      0x372 build/default/production/_ext/829342655/plib_tc0.o
 .debug_line    0x0002b404      0xfee build/default/production/_ext/1376093119/sys_command.o
 .debug_line    0x0002c3f2      0x685 build/default/production/_ext/1832805299/sys_console.o
 .debug_line    0x0002ca77      0x825 build/default/production/_ext/1832805299/sys_console_uart.o
 .debug_line    0x0002d29c      0x259 build/default/production/_ext/944882569/sys_debug.o
 .debug_line    0x0002d4f5     0x4d75 build/default/production/_ext/411819097/ff.o
 .debug_line    0x0003226a      0x2f0 build/default/production/_ext/411819097/ffunicode.o
 .debug_line    0x0003255a      0x3b9 build/default/production/_ext/565198302/diskio.o
 .debug_line    0x00032913     0x31b9 build/default/production/_ext/1269487135/sys_fs.o
 .debug_line    0x00035acc      0xdfa build/default/production/_ext/1269487135/sys_fs_media_manager.o
 .debug_line    0x000368c6      0x99d build/default/production/_ext/1269487135/sys_fs_fat_interface.o
 .debug_line    0x00037263      0x2bf build/default/production/_ext/1881668453/sys_int.o
 .debug_line    0x00037522      0x134 build/default/production/_ext/1000052432/sys_reset.o
 .debug_line    0x00037656     0x11b1 build/default/production/_ext/101884895/sys_time.o
 .debug_line    0x00038807      0x202 build/default/production/_ext/753841488/sys_time_h2_adapter.o
 .debug_line    0x00038a09      0x930 build/default/production/_ext/1171490990/initialization.o
 .debug_line    0x00039339      0x31b build/default/production/_ext/1171490990/interrupts.o
 .debug_line    0x00039654      0x362 build/default/production/_ext/1171490990/exceptions.o
 .debug_line    0x000399b6      0x246 build/default/production/_ext/1171490990/startup_xc32.o
 .debug_line    0x00039bfc      0x3d6 build/default/production/_ext/1171490990/tasks.o
 .debug_line    0x00039fd2      0x232 build/default/production/_ext/172253694/crypt_wolfcryptcb.o
 .debug_line    0x0003a204      0xf81 build/default/production/_ext/1664057780/cryptocb.o
 .debug_line    0x0003b185      0x2f1 build/default/production/_ext/1360937237/main.o
 .debug_line    0x0003b476      0x539 build/default/production/_ext/1360937237/app.o
 .debug_line    0x0003b9af      0x110 c:/program files/microchip/xc32/v4.00/bin/bin/../../lib/gcc/pic32c/8.3.1/../../../../pic32c/lib/thumb/v7e-m+fp/hard\libpic32c.a(data_init.o)
 .debug_line    0x0003babf      0x1df c:/program files/microchip/xc32/v4.00/bin/bin/../../lib/gcc/pic32c/8.3.1/../../../../pic32c/lib/thumb/v7e-m+fp/hard\libc-musl.a(isxdigit.o)
 .debug_line    0x0003bc9e      0x1dc c:/program files/microchip/xc32/v4.00/bin/bin/../../lib/gcc/pic32c/8.3.1/../../../../pic32c/lib/thumb/v7e-m+fp/hard\libc-musl.a(tolower.o)
 .debug_line    0x0003be7a      0x1dc c:/program files/microchip/xc32/v4.00/bin/bin/../../lib/gcc/pic32c/8.3.1/../../../../pic32c/lib/thumb/v7e-m+fp/hard\libc-musl.a(toupper.o)
 .debug_line    0x0003c056      0x24c c:/program files/microchip/xc32/v4.00/bin/bin/../../lib/gcc/pic32c/8.3.1/../../../../pic32c/lib/thumb/v7e-m+fp/hard\libc-musl.a(__libc_start_main.o)
 .debug_line    0x0003c2a2      0x1ad c:/program files/microchip/xc32/v4.00/bin/bin/../../lib/gcc/pic32c/8.3.1/../../../../pic32c/lib/thumb/v7e-m+fp/hard\libc-musl.a(__errno_location.o)
 .debug_line    0x0003c44f      0x132 c:/program files/microchip/xc32/v4.00/bin/bin/../../lib/gcc/pic32c/8.3.1/../../../../pic32c/lib/thumb/v7e-m+fp/hard\libc-musl.a(libc.o)
 .debug_line    0x0003c581      0x158 c:/program files/microchip/xc32/v4.00/bin/bin/../../lib/gcc/pic32c/8.3.1/../../../../pic32c/lib/thumb/v7e-m+fp/hard\libc-musl.a(calloc.o)
 .debug_line    0x0003c6d9      0xad3 c:/program files/microchip/xc32/v4.00/bin/bin/../../lib/gcc/pic32c/8.3.1/../../../../pic32c/lib/thumb/v7e-m+fp/hard\libc-musl.a(malloc.o)
 .debug_line    0x0003d1ac      0x1ee c:/program files/microchip/xc32/v4.00/bin/bin/../../lib/gcc/pic32c/8.3.1/../../../../pic32c/lib/thumb/v7e-m+fp/hard\libc-musl.a(expand_heap.o)
 .debug_line    0x0003d39a       0xf9 c:/program files/microchip/xc32/v4.00/bin/bin/../../lib/gcc/pic32c/8.3.1/../../../../pic32c/lib/thumb/v7e-m+fp/hard\libc-musl.a(rand.o)
 .debug_line    0x0003d493      0x23e c:/program files/microchip/xc32/v4.00/bin/bin/../../lib/gcc/pic32c/8.3.1/../../../../pic32c/lib/thumb/v7e-m+fp/hard\libc-musl.a(vsnprintf.o)
 .debug_line    0x0003d6d1      0x162 c:/program files/microchip/xc32/v4.00/bin/bin/../../lib/gcc/pic32c/8.3.1/../../../../pic32c/lib/thumb/v7e-m+fp/hard\libc-musl.a(snprintf.o)
 .debug_line    0x0003d833      0x161 c:/program files/microchip/xc32/v4.00/bin/bin/../../lib/gcc/pic32c/8.3.1/../../../../pic32c/lib/thumb/v7e-m+fp/hard\libc-musl.a(sprintf.o)
 .debug_line    0x0003d994      0x150 c:/program files/microchip/xc32/v4.00/bin/bin/../../lib/gcc/pic32c/8.3.1/../../../../pic32c/lib/thumb/v7e-m+fp/hard\libc-musl.a(vsprintf.o)
 .debug_line    0x0003dae4      0x177 c:/program files/microchip/xc32/v4.00/bin/bin/../../lib/gcc/pic32c/8.3.1/../../../../pic32c/lib/thumb/v7e-m+fp/hard\libc-musl.a(atoi.o)
 .debug_line    0x0003dc5b       0xe7 c:/program files/microchip/xc32/v4.00/bin/bin/../../lib/gcc/pic32c/8.3.1/../../../../pic32c/lib/thumb/v7e-m+fp/hard\libc-musl.a(memcmp.o)
 .debug_line    0x0003dd42       0xf2 c:/program files/microchip/xc32/v4.00/bin/bin/../../lib/gcc/pic32c/8.3.1/../../../../pic32c/lib/thumb/v7e-m+fp/hard\libc-musl.a(memcpy.o)
 .debug_line    0x0003de34       0xea c:/program files/microchip/xc32/v4.00/bin/bin/../../lib/gcc/pic32c/8.3.1/../../../../pic32c/lib/thumb/v7e-m+fp/hard\libc-musl.a(memset.o)
 .debug_line    0x0003df1e       0xe6 c:/program files/microchip/xc32/v4.00/bin/bin/../../lib/gcc/pic32c/8.3.1/../../../../pic32c/lib/thumb/v7e-m+fp/hard\libc-musl.a(strlen.o)
 .debug_line    0x0003e004      0x116 c:/program files/microchip/xc32/v4.00/bin/bin/../../lib/gcc/pic32c/8.3.1/../../../../pic32c/lib/thumb/v7e-m+fp/hard\libc-musl.a(strstr.o)
 .debug_line    0x0003e11a       0xba c:/program files/microchip/xc32/v4.00/bin/bin/../../lib/gcc/pic32c/8.3.1/../../../../pic32c/lib/thumb/v7e-m+fp/hard\libc-musl.a(strchr.o)
 .debug_line    0x0003e1d4      0x287 c:/program files/microchip/xc32/v4.00/bin/bin/../../lib/gcc/pic32c/8.3.1/../../../../pic32c/lib/thumb/v7e-m+fp/hard\libc-musl.a(strchrnul.o)
 .debug_line    0x0003e45b       0xbd c:/program files/microchip/xc32/v4.00/bin/bin/../../lib/gcc/pic32c/8.3.1/../../../../pic32c/lib/thumb/v7e-m+fp/hard\libc-musl.a(strcmp.o)
 .debug_line    0x0003e518       0xb5 c:/program files/microchip/xc32/v4.00/bin/bin/../../lib/gcc/pic32c/8.3.1/../../../../pic32c/lib/thumb/v7e-m+fp/hard\libc-musl.a(strcpy.o)
 .debug_line    0x0003e5cd       0xee c:/program files/microchip/xc32/v4.00/bin/bin/../../lib/gcc/pic32c/8.3.1/../../../../pic32c/lib/thumb/v7e-m+fp/hard\libc-musl.a(strncmp.o)
 .debug_line    0x0003e6bb       0xd5 c:/program files/microchip/xc32/v4.00/bin/bin/../../lib/gcc/pic32c/8.3.1/../../../../pic32c/lib/thumb/v7e-m+fp/hard\libc-musl.a(strncpy.o)
 .debug_line    0x0003e790      0x174 c:/program files/microchip/xc32/v4.00/bin/bin/../../lib/gcc/pic32c/8.3.1/../../../../pic32c/lib/thumb/v7e-m+fp/hard\libc-musl.a(strtok.o)
 .debug_line    0x0003e904      0x19f c:/program files/microchip/xc32/v4.00/bin/bin/../../lib/gcc/pic32c/8.3.1/../../../../pic32c/lib/thumb/v7e-m+fp/hard\libc-musl.a(__environ.o)
 .debug_line    0x0003eaa3      0x209 c:/program files/microchip/xc32/v4.00/bin/bin/../../lib/gcc/pic32c/8.3.1/../../../../pic32c/lib/thumb/v7e-m+fp/hard\libc-musl.a(vfprintf.o)
 .debug_line    0x0003ecac      0x1d4 c:/program files/microchip/xc32/v4.00/bin/bin/../../lib/gcc/pic32c/8.3.1/../../../../pic32c/lib/thumb/v7e-m+fp/hard\libc-musl.a(stpcpy.o)
 .debug_line    0x0003ee80      0x200 c:/program files/microchip/xc32/v4.00/bin/bin/../../lib/gcc/pic32c/8.3.1/../../../../pic32c/lib/thumb/v7e-m+fp/hard\libc-musl.a(stpncpy.o)
 .debug_line    0x0003f080      0x190 c:/program files/microchip/xc32/v4.00/bin/bin/../../lib/gcc/pic32c/8.3.1/../../../../pic32c/lib/thumb/v7e-m+fp/hard\libc-musl.a(strcspn.o)
 .debug_line    0x0003f210      0x12f c:/program files/microchip/xc32/v4.00/bin/bin/../../lib/gcc/pic32c/8.3.1/../../../../pic32c/lib/thumb/v7e-m+fp/hard\libc-musl.a(strspn.o)
 .debug_line    0x0003f33f      0x71f c:/program files/microchip/xc32/v4.00/bin/bin/../../lib/gcc/pic32c/8.3.1/../../../../pic32c/lib/thumb/v7e-m+fp/hard\libc-musl.a(__printf_core.o)
 .debug_line    0x0003fa5e      0x6ad c:/program files/microchip/xc32/v4.00/bin/bin/../../lib/gcc/pic32c/8.3.1/../../../../pic32c/lib/thumb/v7e-m+fp/hard\libc-musl.a(__fmt_a.o)
 .debug_line    0x0004010b      0x2af c:/program files/microchip/xc32/v4.00/bin/bin/../../lib/gcc/pic32c/8.3.1/../../../../pic32c/lib/thumb/v7e-m+fp/hard\libc-musl.a(__fmt_d.o)
 .debug_line    0x000403ba      0x6d0 c:/program files/microchip/xc32/v4.00/bin/bin/../../lib/gcc/pic32c/8.3.1/../../../../pic32c/lib/thumb/v7e-m+fp/hard\libc-musl.a(__fmt_fp.o)
 .debug_line    0x00040a8a      0x259 c:/program files/microchip/xc32/v4.00/bin/bin/../../lib/gcc/pic32c/8.3.1/../../../../pic32c/lib/thumb/v7e-m+fp/hard\libc-musl.a(__fmt_o.o)
 .debug_line    0x00040ce3      0x29a c:/program files/microchip/xc32/v4.00/bin/bin/../../lib/gcc/pic32c/8.3.1/../../../../pic32c/lib/thumb/v7e-m+fp/hard\libc-musl.a(__fmt_s.o)
 .debug_line    0x00040f7d      0x2e3 c:/program files/microchip/xc32/v4.00/bin/bin/../../lib/gcc/pic32c/8.3.1/../../../../pic32c/lib/thumb/v7e-m+fp/hard\libc-musl.a(__fmt_u.o)
 .debug_line    0x00041260      0x38e c:/program files/microchip/xc32/v4.00/bin/bin/../../lib/gcc/pic32c/8.3.1/../../../../pic32c/lib/thumb/v7e-m+fp/hard\libc-musl.a(__fmt_x.o)
 .debug_line    0x000415ee      0x1f7 c:/program files/microchip/xc32/v4.00/bin/bin/../../lib/gcc/pic32c/8.3.1/../../../../pic32c/lib/thumb/v7e-m+fp/hard\libc-musl.a(__pop_float.o)
 .debug_line    0x000417e5      0x28d c:/program files/microchip/xc32/v4.00/bin/bin/../../lib/gcc/pic32c/8.3.1/../../../../pic32c/lib/thumb/v7e-m+fp/hard\libc-musl.a(__pop_int.o)
 .debug_line    0x00041a72      0x272 c:/program files/microchip/xc32/v4.00/bin/bin/../../lib/gcc/pic32c/8.3.1/../../../../pic32c/lib/thumb/v7e-m+fp/hard\libc-musl.a(__pop_ptr.o)
 .debug_line    0x00041ce4       0x9c c:/program files/microchip/xc32/v4.00/bin/bin/../../lib/gcc/pic32c/8.3.1/thumb/v7e-m+fp/hard\libgcc.a(_aeabi_uldivmod.o)
 .debug_line    0x00041d80      0x57e c:/program files/microchip/xc32/v4.00/bin/bin/../../lib/gcc/pic32c/8.3.1/thumb/v7e-m+fp/hard\libgcc.a(_udivmoddi4.o)
 .debug_line    0x000422fe       0x9c c:/program files/microchip/xc32/v4.00/bin/bin/../../lib/gcc/pic32c/8.3.1/thumb/v7e-m+fp/hard\libgcc.a(_dvmd_tls.o)
 .debug_line    0x0004239a       0xb5 c:/program files/microchip/xc32/v4.00/bin/bin/../../lib/gcc/pic32c/8.3.1/../../../../pic32c/lib/thumb/v7e-m+fp/hard\libpic32c.a(sbrk.o)

.debug_str      0x00000000     0x5b44
 .debug_str     0x00000000      0x478 build/default/production/_ext/444070925/drv_ethphy.o
 .debug_str     0x00000478       0x29 build/default/production/_ext/444070925/drv_extphy_ksz8061.o
 .debug_str     0x000004a1      0x5c3 build/default/production/_ext/1546807373/drv_gmac.o
 .debug_str     0x00000a64      0x1bd build/default/production/_ext/1546807373/drv_gmac_lib_samE5x.o
 .debug_str     0x00000c21      0x268 build/default/production/_ext/438849557/drv_miim.o
 .debug_str     0x00000e89       0x1e build/default/production/_ext/20954303/drv_sdmmc_file_system.o
 .debug_str     0x00000ea7      0x219 build/default/production/_ext/20954303/drv_sdmmc.o
 .debug_str     0x000010c0      0x127 build/default/production/_ext/1751889202/sys_fs_shell.o
 .debug_str     0x000011e7        0x0 build/default/production/_ext/1033058136/helpers.o
 .debug_str     0x000011e7      0x475 build/default/production/_ext/1033058136/tcp.o
 .debug_str     0x0000165c      0x4b8 build/default/production/_ext/1033058136/arp.o
 .debug_str     0x00001b14      0x582 build/default/production/_ext/1033058136/ipv4.o
 .debug_str     0x00002096       0x5f build/default/production/_ext/1033058136/tcpip_heap_alloc.o
 .debug_str     0x000020f5       0xa1 build/default/production/_ext/1033058136/tcpip_heap_internal.o
 .debug_str     0x00002196      0x4d4 build/default/production/_ext/1033058136/dns.o
 .debug_str     0x0000266a        0x0 build/default/production/_ext/1033058136/hash_fnv.o
 .debug_str     0x0000266a        0xa build/default/production/_ext/1033058136/oahash.o
 .debug_str     0x00002674      0x12e build/default/production/_ext/1033058136/tcpip_helpers.o
 .debug_str     0x000027a2      0x56d build/default/production/_ext/1033058136/tcpip_manager.o
 .debug_str     0x00002d0f      0x15e build/default/production/_ext/1033058136/tcpip_notify.o
 .debug_str     0x00002e6d       0x7d build/default/production/_ext/1033058136/tcpip_packet.o
 .debug_str     0x00002eea      0x548 build/default/production/_ext/1033058136/ftp.o
 .debug_str     0x00003432      0x13c build/default/production/_ext/1033058136/icmp.o
 .debug_str     0x0000356e      0x59f build/default/production/_ext/1033058136/berkeley_api.o
 .debug_str     0x00003b0d      0x2d9 build/default/production/_ext/1033058136/tcpip_announce.o
 .debug_str     0x00003de6      0x3ef build/default/production/_ext/1033058136/udp.o
 .debug_str     0x000041d5      0x514 build/default/production/_ext/1033058136/iperf.o
 .debug_str     0x000046e9       0xaf build/default/production/_ext/1508031553/net_pres.o
 .debug_str     0x00004798       0x1e build/default/production/_ext/1984496892/plib_clock.o
 .debug_str     0x000047b6        0x0 build/default/production/_ext/1986646378/plib_evsys.o
 .debug_str     0x000047b6        0xa build/default/production/_ext/1865468468/plib_nvic.o
 .debug_str     0x000047c0       0x20 build/default/production/_ext/1593096446/plib_nvmctrl.o
 .debug_str     0x000047e0        0xb build/default/production/_ext/1865521619/plib_port.o
 .debug_str     0x000047eb        0x9 build/default/production/_ext/1865600094/plib_sdhc1.o
 .debug_str     0x000047f4      0x1c8 build/default/production/_ext/504274921/plib_sercom1_usart.o
 .debug_str     0x000049bc       0xbb build/default/production/_ext/829342655/plib_tc0.o
 .debug_str     0x00004a77      0x106 build/default/production/_ext/1376093119/sys_command.o
 .debug_str     0x00004b7d       0x38 build/default/production/_ext/1832805299/sys_console.o
 .debug_str     0x00004bb5       0xb1 build/default/production/_ext/1832805299/sys_console_uart.o
 .debug_str     0x00004c66        0x0 build/default/production/_ext/944882569/sys_debug.o
 .debug_str     0x00004c66       0x80 build/default/production/_ext/411819097/ff.o
 .debug_str     0x00004ce6        0x0 build/default/production/_ext/411819097/ffunicode.o
 .debug_str     0x00004ce6       0xed build/default/production/_ext/565198302/diskio.o
 .debug_str     0x00004dd3      0x127 build/default/production/_ext/1269487135/sys_fs.o
 .debug_str     0x00004efa       0xd2 build/default/production/_ext/1269487135/sys_fs_media_manager.o
 .debug_str     0x00004fcc       0x96 build/default/production/_ext/1269487135/sys_fs_fat_interface.o
 .debug_str     0x00005062       0x32 build/default/production/_ext/1881668453/sys_int.o
 .debug_str     0x00005094        0x0 build/default/production/_ext/1000052432/sys_reset.o
 .debug_str     0x00005094      0x136 build/default/production/_ext/101884895/sys_time.o
 .debug_str     0x000051ca       0x64 build/default/production/_ext/753841488/sys_time_h2_adapter.o
 .debug_str     0x0000522e      0x2f4 build/default/production/_ext/1171490990/initialization.o
 .debug_str     0x00005522       0x1e build/default/production/_ext/1171490990/interrupts.o
 .debug_str     0x00005540       0x1e build/default/production/_ext/1171490990/exceptions.o
 .debug_str     0x0000555e       0x2f build/default/production/_ext/1171490990/startup_xc32.o
 .debug_str     0x0000558d       0x82 build/default/production/_ext/1171490990/tasks.o
 .debug_str     0x0000560f       0x98 build/default/production/_ext/172253694/crypt_wolfcryptcb.o
 .debug_str     0x000056a7       0xdd build/default/production/_ext/1664057780/cryptocb.o
 .debug_str     0x00005784       0x37 build/default/production/_ext/1360937237/main.o
 .debug_str     0x000057bb       0xf7 build/default/production/_ext/1360937237/app.o
 .debug_str     0x000058b2        0x0 c:/program files/microchip/xc32/v4.00/bin/bin/../../lib/gcc/pic32c/8.3.1/../../../../pic32c/lib/thumb/v7e-m+fp/hard\libpic32c.a(data_init.o)
 .debug_str     0x000058b2        0x0 c:/program files/microchip/xc32/v4.00/bin/bin/../../lib/gcc/pic32c/8.3.1/../../../../pic32c/lib/thumb/v7e-m+fp/hard\libc-musl.a(isxdigit.o)
 .debug_str     0x000058b2        0x0 c:/program files/microchip/xc32/v4.00/bin/bin/../../lib/gcc/pic32c/8.3.1/../../../../pic32c/lib/thumb/v7e-m+fp/hard\libc-musl.a(tolower.o)
 .debug_str     0x000058b2        0x0 c:/program files/microchip/xc32/v4.00/bin/bin/../../lib/gcc/pic32c/8.3.1/../../../../pic32c/lib/thumb/v7e-m+fp/hard\libc-musl.a(toupper.o)
 .debug_str     0x000058b2        0x0 c:/program files/microchip/xc32/v4.00/bin/bin/../../lib/gcc/pic32c/8.3.1/../../../../pic32c/lib/thumb/v7e-m+fp/hard\libc-musl.a(__libc_start_main.o)
 .debug_str     0x000058b2        0x0 c:/program files/microchip/xc32/v4.00/bin/bin/../../lib/gcc/pic32c/8.3.1/../../../../pic32c/lib/thumb/v7e-m+fp/hard\libc-musl.a(__errno_location.o)
 .debug_str     0x000058b2        0x0 c:/program files/microchip/xc32/v4.00/bin/bin/../../lib/gcc/pic32c/8.3.1/../../../../pic32c/lib/thumb/v7e-m+fp/hard\libc-musl.a(libc.o)
 .debug_str     0x000058b2        0xa c:/program files/microchip/xc32/v4.00/bin/bin/../../lib/gcc/pic32c/8.3.1/../../../../pic32c/lib/thumb/v7e-m+fp/hard\libc-musl.a(calloc.o)
 .debug_str     0x000058bc       0x13 c:/program files/microchip/xc32/v4.00/bin/bin/../../lib/gcc/pic32c/8.3.1/../../../../pic32c/lib/thumb/v7e-m+fp/hard\libc-musl.a(malloc.o)
 .debug_str     0x000058cf        0x0 c:/program files/microchip/xc32/v4.00/bin/bin/../../lib/gcc/pic32c/8.3.1/../../../../pic32c/lib/thumb/v7e-m+fp/hard\libc-musl.a(expand_heap.o)
 .debug_str     0x000058cf        0x0 c:/program files/microchip/xc32/v4.00/bin/bin/../../lib/gcc/pic32c/8.3.1/../../../../pic32c/lib/thumb/v7e-m+fp/hard\libc-musl.a(rand.o)
 .debug_str     0x000058cf        0x9 c:/program files/microchip/xc32/v4.00/bin/bin/../../lib/gcc/pic32c/8.3.1/../../../../pic32c/lib/thumb/v7e-m+fp/hard\libc-musl.a(vsnprintf.o)
 .debug_str     0x000058d8        0xa c:/program files/microchip/xc32/v4.00/bin/bin/../../lib/gcc/pic32c/8.3.1/../../../../pic32c/lib/thumb/v7e-m+fp/hard\libc-musl.a(snprintf.o)
 .debug_str     0x000058e2        0x9 c:/program files/microchip/xc32/v4.00/bin/bin/../../lib/gcc/pic32c/8.3.1/../../../../pic32c/lib/thumb/v7e-m+fp/hard\libc-musl.a(sprintf.o)
 .debug_str     0x000058eb        0xa c:/program files/microchip/xc32/v4.00/bin/bin/../../lib/gcc/pic32c/8.3.1/../../../../pic32c/lib/thumb/v7e-m+fp/hard\libc-musl.a(vsprintf.o)
 .debug_str     0x000058f5        0x0 c:/program files/microchip/xc32/v4.00/bin/bin/../../lib/gcc/pic32c/8.3.1/../../../../pic32c/lib/thumb/v7e-m+fp/hard\libc-musl.a(atoi.o)
 .debug_str     0x000058f5        0x0 c:/program files/microchip/xc32/v4.00/bin/bin/../../lib/gcc/pic32c/8.3.1/../../../../pic32c/lib/thumb/v7e-m+fp/hard\libc-musl.a(memcmp.o)
 .debug_str     0x000058f5        0x0 c:/program files/microchip/xc32/v4.00/bin/bin/../../lib/gcc/pic32c/8.3.1/../../../../pic32c/lib/thumb/v7e-m+fp/hard\libc-musl.a(memcpy.o)
 .debug_str     0x000058f5        0x0 c:/program files/microchip/xc32/v4.00/bin/bin/../../lib/gcc/pic32c/8.3.1/../../../../pic32c/lib/thumb/v7e-m+fp/hard\libc-musl.a(memset.o)
 .debug_str     0x000058f5        0x0 c:/program files/microchip/xc32/v4.00/bin/bin/../../lib/gcc/pic32c/8.3.1/../../../../pic32c/lib/thumb/v7e-m+fp/hard\libc-musl.a(strlen.o)
 .debug_str     0x000058f5        0x0 c:/program files/microchip/xc32/v4.00/bin/bin/../../lib/gcc/pic32c/8.3.1/../../../../pic32c/lib/thumb/v7e-m+fp/hard\libc-musl.a(strstr.o)
 .debug_str     0x000058f5        0xc c:/program files/microchip/xc32/v4.00/bin/bin/../../lib/gcc/pic32c/8.3.1/../../../../pic32c/lib/thumb/v7e-m+fp/hard\libc-musl.a(strchr.o)
 .debug_str     0x00005901        0x0 c:/program files/microchip/xc32/v4.00/bin/bin/../../lib/gcc/pic32c/8.3.1/../../../../pic32c/lib/thumb/v7e-m+fp/hard\libc-musl.a(strchrnul.o)
 .debug_str     0x00005901        0x0 c:/program files/microchip/xc32/v4.00/bin/bin/../../lib/gcc/pic32c/8.3.1/../../../../pic32c/lib/thumb/v7e-m+fp/hard\libc-musl.a(strcmp.o)
 .debug_str     0x00005901        0x9 c:/program files/microchip/xc32/v4.00/bin/bin/../../lib/gcc/pic32c/8.3.1/../../../../pic32c/lib/thumb/v7e-m+fp/hard\libc-musl.a(strcpy.o)
 .debug_str     0x0000590a        0x0 c:/program files/microchip/xc32/v4.00/bin/bin/../../lib/gcc/pic32c/8.3.1/../../../../pic32c/lib/thumb/v7e-m+fp/hard\libc-musl.a(strncmp.o)
 .debug_str     0x0000590a        0xa c:/program files/microchip/xc32/v4.00/bin/bin/../../lib/gcc/pic32c/8.3.1/../../../../pic32c/lib/thumb/v7e-m+fp/hard\libc-musl.a(strncpy.o)
 .debug_str     0x00005914        0x0 c:/program files/microchip/xc32/v4.00/bin/bin/../../lib/gcc/pic32c/8.3.1/../../../../pic32c/lib/thumb/v7e-m+fp/hard\libc-musl.a(strtok.o)
 .debug_str     0x00005914        0x0 c:/program files/microchip/xc32/v4.00/bin/bin/../../lib/gcc/pic32c/8.3.1/../../../../pic32c/lib/thumb/v7e-m+fp/hard\libc-musl.a(__environ.o)
 .debug_str     0x00005914       0x1e c:/program files/microchip/xc32/v4.00/bin/bin/../../lib/gcc/pic32c/8.3.1/../../../../pic32c/lib/thumb/v7e-m+fp/hard\libc-musl.a(vfprintf.o)
 .debug_str     0x00005932        0x0 c:/program files/microchip/xc32/v4.00/bin/bin/../../lib/gcc/pic32c/8.3.1/../../../../pic32c/lib/thumb/v7e-m+fp/hard\libc-musl.a(stpcpy.o)
 .debug_str     0x00005932        0x0 c:/program files/microchip/xc32/v4.00/bin/bin/../../lib/gcc/pic32c/8.3.1/../../../../pic32c/lib/thumb/v7e-m+fp/hard\libc-musl.a(stpncpy.o)
 .debug_str     0x00005932        0xc c:/program files/microchip/xc32/v4.00/bin/bin/../../lib/gcc/pic32c/8.3.1/../../../../pic32c/lib/thumb/v7e-m+fp/hard\libc-musl.a(strcspn.o)
 .debug_str     0x0000593e        0x0 c:/program files/microchip/xc32/v4.00/bin/bin/../../lib/gcc/pic32c/8.3.1/../../../../pic32c/lib/thumb/v7e-m+fp/hard\libc-musl.a(strspn.o)
 .debug_str     0x0000593e       0x20 c:/program files/microchip/xc32/v4.00/bin/bin/../../lib/gcc/pic32c/8.3.1/../../../../pic32c/lib/thumb/v7e-m+fp/hard\libc-musl.a(__printf_core.o)
 .debug_str     0x0000595e        0x0 c:/program files/microchip/xc32/v4.00/bin/bin/../../lib/gcc/pic32c/8.3.1/../../../../pic32c/lib/thumb/v7e-m+fp/hard\libc-musl.a(__fmt_a.o)
 .debug_str     0x0000595e        0x0 c:/program files/microchip/xc32/v4.00/bin/bin/../../lib/gcc/pic32c/8.3.1/../../../../pic32c/lib/thumb/v7e-m+fp/hard\libc-musl.a(__fmt_d.o)
 .debug_str     0x0000595e        0x0 c:/program files/microchip/xc32/v4.00/bin/bin/../../lib/gcc/pic32c/8.3.1/../../../../pic32c/lib/thumb/v7e-m+fp/hard\libc-musl.a(__fmt_fp.o)
 .debug_str     0x0000595e        0x0 c:/program files/microchip/xc32/v4.00/bin/bin/../../lib/gcc/pic32c/8.3.1/../../../../pic32c/lib/thumb/v7e-m+fp/hard\libc-musl.a(__fmt_o.o)
 .debug_str     0x0000595e        0x0 c:/program files/microchip/xc32/v4.00/bin/bin/../../lib/gcc/pic32c/8.3.1/../../../../pic32c/lib/thumb/v7e-m+fp/hard\libc-musl.a(__fmt_s.o)
 .debug_str     0x0000595e        0x6 c:/program files/microchip/xc32/v4.00/bin/bin/../../lib/gcc/pic32c/8.3.1/../../../../pic32c/lib/thumb/v7e-m+fp/hard\libc-musl.a(__fmt_u.o)
 .debug_str     0x00005964        0x0 c:/program files/microchip/xc32/v4.00/bin/bin/../../lib/gcc/pic32c/8.3.1/../../../../pic32c/lib/thumb/v7e-m+fp/hard\libc-musl.a(__fmt_x.o)
 .debug_str     0x00005964        0x0 c:/program files/microchip/xc32/v4.00/bin/bin/../../lib/gcc/pic32c/8.3.1/../../../../pic32c/lib/thumb/v7e-m+fp/hard\libc-musl.a(__pop_float.o)
 .debug_str     0x00005964        0x0 c:/program files/microchip/xc32/v4.00/bin/bin/../../lib/gcc/pic32c/8.3.1/../../../../pic32c/lib/thumb/v7e-m+fp/hard\libc-musl.a(__pop_int.o)
 .debug_str     0x00005964        0x0 c:/program files/microchip/xc32/v4.00/bin/bin/../../lib/gcc/pic32c/8.3.1/../../../../pic32c/lib/thumb/v7e-m+fp/hard\libc-musl.a(__pop_ptr.o)
 .debug_str     0x00005964       0xee c:/program files/microchip/xc32/v4.00/bin/bin/../../lib/gcc/pic32c/8.3.1/thumb/v7e-m+fp/hard\libgcc.a(_aeabi_uldivmod.o)
 .debug_str     0x00005a52        0x0 c:/program files/microchip/xc32/v4.00/bin/bin/../../lib/gcc/pic32c/8.3.1/thumb/v7e-m+fp/hard\libgcc.a(_udivmoddi4.o)
 .debug_str     0x00005a52       0xf2 c:/program files/microchip/xc32/v4.00/bin/bin/../../lib/gcc/pic32c/8.3.1/thumb/v7e-m+fp/hard\libgcc.a(_dvmd_tls.o)
 .debug_str     0x00005b44        0x0 c:/program files/microchip/xc32/v4.00/bin/bin/../../lib/gcc/pic32c/8.3.1/../../../../pic32c/lib/thumb/v7e-m+fp/hard\libpic32c.a(sbrk.o)

.debug_frame    0x00000000     0x9148
 .debug_frame   0x00000000      0x6e0 build/default/production/_ext/444070925/drv_ethphy.o
 .debug_frame   0x000006e0       0x40 build/default/production/_ext/444070925/drv_extphy_ksz8061.o
 .debug_frame   0x00000720      0x6ac build/default/production/_ext/1546807373/drv_gmac.o
 .debug_frame   0x00000dcc      0x3d0 build/default/production/_ext/1546807373/drv_gmac_lib_samE5x.o
 .debug_frame   0x0000119c      0x2c8 build/default/production/_ext/438849557/drv_miim.o
 .debug_frame   0x00001464       0x28 build/default/production/_ext/20954303/drv_sdmmc_file_system.o
 .debug_frame   0x0000148c      0x248 build/default/production/_ext/20954303/drv_sdmmc.o
 .debug_frame   0x000016d4      0x2a8 build/default/production/_ext/1751889202/sys_fs_shell.o
 .debug_frame   0x0000197c       0xe8 build/default/production/_ext/1033058136/helpers.o
 .debug_frame   0x00001a64      0x788 build/default/production/_ext/1033058136/tcp.o
 .debug_frame   0x000021ec      0x488 build/default/production/_ext/1033058136/arp.o
 .debug_frame   0x00002674      0x338 build/default/production/_ext/1033058136/ipv4.o
 .debug_frame   0x000029ac       0x90 build/default/production/_ext/1033058136/tcpip_heap_alloc.o
 .debug_frame   0x00002a3c      0x124 build/default/production/_ext/1033058136/tcpip_heap_internal.o
 .debug_frame   0x00002b60      0x450 build/default/production/_ext/1033058136/dns.o
 .debug_frame   0x00002fb0       0x30 build/default/production/_ext/1033058136/hash_fnv.o
 .debug_frame   0x00002fe0       0xd0 build/default/production/_ext/1033058136/oahash.o
 .debug_frame   0x000030b0      0x724 build/default/production/_ext/1033058136/tcpip_helpers.o
 .debug_frame   0x000037d4      0xa5c build/default/production/_ext/1033058136/tcpip_manager.o
 .debug_frame   0x00004230       0xb8 build/default/production/_ext/1033058136/tcpip_notify.o
 .debug_frame   0x000042e8      0x168 build/default/production/_ext/1033058136/tcpip_packet.o
 .debug_frame   0x00004450      0x184 build/default/production/_ext/1033058136/ftp.o
 .debug_frame   0x000045d4       0x84 build/default/production/_ext/1033058136/icmp.o
 .debug_frame   0x00004658      0x4f4 build/default/production/_ext/1033058136/berkeley_api.o
 .debug_frame   0x00004b4c      0x178 build/default/production/_ext/1033058136/tcpip_announce.o
 .debug_frame   0x00004cc4      0x600 build/default/production/_ext/1033058136/udp.o
 .debug_frame   0x000052c4      0x280 build/default/production/_ext/1033058136/iperf.o
 .debug_frame   0x00005544      0x440 build/default/production/_ext/1508031553/net_pres.o
 .debug_frame   0x00005984       0x20 build/default/production/_ext/1984496892/plib_clock.o
 .debug_frame   0x000059a4       0x20 build/default/production/_ext/1986646378/plib_evsys.o
 .debug_frame   0x000059c4       0x5c build/default/production/_ext/1865468468/plib_nvic.o
 .debug_frame   0x00005a20      0x1dc build/default/production/_ext/1593096446/plib_nvmctrl.o
 .debug_frame   0x00005bfc       0xcc build/default/production/_ext/1865521619/plib_port.o
 .debug_frame   0x00005cc8      0x198 build/default/production/_ext/1865600094/plib_sdhc1.o
 .debug_frame   0x00005e60      0x1d8 build/default/production/_ext/504274921/plib_sercom1_usart.o
 .debug_frame   0x00006038       0xd8 build/default/production/_ext/829342655/plib_tc0.o
 .debug_frame   0x00006110      0x2ec build/default/production/_ext/1376093119/sys_command.o
 .debug_frame   0x000063fc      0x1d0 build/default/production/_ext/1832805299/sys_console.o
 .debug_frame   0x000065cc       0xf8 build/default/production/_ext/1832805299/sys_console_uart.o
 .debug_frame   0x000066c4       0x70 build/default/production/_ext/944882569/sys_debug.o
 .debug_frame   0x00006734      0x8d4 build/default/production/_ext/411819097/ff.o
 .debug_frame   0x00007008       0x5c build/default/production/_ext/411819097/ffunicode.o
 .debug_frame   0x00007064       0xd0 build/default/production/_ext/565198302/diskio.o
 .debug_frame   0x00007134      0x5a8 build/default/production/_ext/1269487135/sys_fs.o
 .debug_frame   0x000076dc      0x1e0 build/default/production/_ext/1269487135/sys_fs_media_manager.o
 .debug_frame   0x000078bc      0x36c build/default/production/_ext/1269487135/sys_fs_fat_interface.o
 .debug_frame   0x00007c28       0x84 build/default/production/_ext/1881668453/sys_int.o
 .debug_frame   0x00007cac       0x20 build/default/production/_ext/1000052432/sys_reset.o
 .debug_frame   0x00007ccc      0x3f0 build/default/production/_ext/101884895/sys_time.o
 .debug_frame   0x000080bc       0x88 build/default/production/_ext/753841488/sys_time_h2_adapter.o
 .debug_frame   0x00008144       0x44 build/default/production/_ext/1171490990/initialization.o
 .debug_frame   0x00008188       0x20 build/default/production/_ext/1171490990/interrupts.o
 .debug_frame   0x000081a8       0x70 build/default/production/_ext/1171490990/exceptions.o
 .debug_frame   0x00008218       0x38 build/default/production/_ext/1171490990/startup_xc32.o
 .debug_frame   0x00008250       0x28 build/default/production/_ext/1171490990/tasks.o
 .debug_frame   0x00008278       0x38 build/default/production/_ext/172253694/crypt_wolfcryptcb.o
 .debug_frame   0x000082b0      0x3f8 build/default/production/_ext/1664057780/cryptocb.o
 .debug_frame   0x000086a8       0x28 build/default/production/_ext/1360937237/main.o
 .debug_frame   0x000086d0       0x50 build/default/production/_ext/1360937237/app.o
 .debug_frame   0x00008720       0x38 c:/program files/microchip/xc32/v4.00/bin/bin/../../lib/gcc/pic32c/8.3.1/../../../../pic32c/lib/thumb/v7e-m+fp/hard\libpic32c.a(data_init.o)
 .debug_frame   0x00008758       0x30 c:/program files/microchip/xc32/v4.00/bin/bin/../../lib/gcc/pic32c/8.3.1/../../../../pic32c/lib/thumb/v7e-m+fp/hard\libc-musl.a(isxdigit.o)
 .debug_frame   0x00008788       0x30 c:/program files/microchip/xc32/v4.00/bin/bin/../../lib/gcc/pic32c/8.3.1/../../../../pic32c/lib/thumb/v7e-m+fp/hard\libc-musl.a(tolower.o)
 .debug_frame   0x000087b8       0x30 c:/program files/microchip/xc32/v4.00/bin/bin/../../lib/gcc/pic32c/8.3.1/../../../../pic32c/lib/thumb/v7e-m+fp/hard\libc-musl.a(toupper.o)
 .debug_frame   0x000087e8       0x3c c:/program files/microchip/xc32/v4.00/bin/bin/../../lib/gcc/pic32c/8.3.1/../../../../pic32c/lib/thumb/v7e-m+fp/hard\libc-musl.a(__libc_start_main.o)
 .debug_frame   0x00008824       0x20 c:/program files/microchip/xc32/v4.00/bin/bin/../../lib/gcc/pic32c/8.3.1/../../../../pic32c/lib/thumb/v7e-m+fp/hard\libc-musl.a(calloc.o)
 .debug_frame   0x00008844      0x150 c:/program files/microchip/xc32/v4.00/bin/bin/../../lib/gcc/pic32c/8.3.1/../../../../pic32c/lib/thumb/v7e-m+fp/hard\libc-musl.a(malloc.o)
 .debug_frame   0x00008994       0x28 c:/program files/microchip/xc32/v4.00/bin/bin/../../lib/gcc/pic32c/8.3.1/../../../../pic32c/lib/thumb/v7e-m+fp/hard\libc-musl.a(expand_heap.o)
 .debug_frame   0x000089bc       0x30 c:/program files/microchip/xc32/v4.00/bin/bin/../../lib/gcc/pic32c/8.3.1/../../../../pic32c/lib/thumb/v7e-m+fp/hard\libc-musl.a(rand.o)
 .debug_frame   0x000089ec       0x38 c:/program files/microchip/xc32/v4.00/bin/bin/../../lib/gcc/pic32c/8.3.1/../../../../pic32c/lib/thumb/v7e-m+fp/hard\libc-musl.a(vsnprintf.o)
 .debug_frame   0x00008a24       0x38 c:/program files/microchip/xc32/v4.00/bin/bin/../../lib/gcc/pic32c/8.3.1/../../../../pic32c/lib/thumb/v7e-m+fp/hard\libc-musl.a(snprintf.o)
 .debug_frame   0x00008a5c       0x3c c:/program files/microchip/xc32/v4.00/bin/bin/../../lib/gcc/pic32c/8.3.1/../../../../pic32c/lib/thumb/v7e-m+fp/hard\libc-musl.a(sprintf.o)
 .debug_frame   0x00008a98       0x20 c:/program files/microchip/xc32/v4.00/bin/bin/../../lib/gcc/pic32c/8.3.1/../../../../pic32c/lib/thumb/v7e-m+fp/hard\libc-musl.a(vsprintf.o)
 .debug_frame   0x00008ab8       0x28 c:/program files/microchip/xc32/v4.00/bin/bin/../../lib/gcc/pic32c/8.3.1/../../../../pic32c/lib/thumb/v7e-m+fp/hard\libc-musl.a(atoi.o)
 .debug_frame   0x00008ae0       0x2c c:/program files/microchip/xc32/v4.00/bin/bin/../../lib/gcc/pic32c/8.3.1/../../../../pic32c/lib/thumb/v7e-m+fp/hard\libc-musl.a(memcmp.o)
 .debug_frame   0x00008b0c       0x28 c:/program files/microchip/xc32/v4.00/bin/bin/../../lib/gcc/pic32c/8.3.1/../../../../pic32c/lib/thumb/v7e-m+fp/hard\libc-musl.a(memcpy.o)
 .debug_frame   0x00008b34       0x20 c:/program files/microchip/xc32/v4.00/bin/bin/../../lib/gcc/pic32c/8.3.1/../../../../pic32c/lib/thumb/v7e-m+fp/hard\libc-musl.a(memset.o)
 .debug_frame   0x00008b54       0x20 c:/program files/microchip/xc32/v4.00/bin/bin/../../lib/gcc/pic32c/8.3.1/../../../../pic32c/lib/thumb/v7e-m+fp/hard\libc-musl.a(strlen.o)
 .debug_frame   0x00008b74       0x30 c:/program files/microchip/xc32/v4.00/bin/bin/../../lib/gcc/pic32c/8.3.1/../../../../pic32c/lib/thumb/v7e-m+fp/hard\libc-musl.a(strstr.o)
 .debug_frame   0x00008ba4       0x28 c:/program files/microchip/xc32/v4.00/bin/bin/../../lib/gcc/pic32c/8.3.1/../../../../pic32c/lib/thumb/v7e-m+fp/hard\libc-musl.a(strchr.o)
 .debug_frame   0x00008bcc       0x30 c:/program files/microchip/xc32/v4.00/bin/bin/../../lib/gcc/pic32c/8.3.1/../../../../pic32c/lib/thumb/v7e-m+fp/hard\libc-musl.a(strchrnul.o)
 .debug_frame   0x00008bfc       0x20 c:/program files/microchip/xc32/v4.00/bin/bin/../../lib/gcc/pic32c/8.3.1/../../../../pic32c/lib/thumb/v7e-m+fp/hard\libc-musl.a(strcmp.o)
 .debug_frame   0x00008c1c       0x28 c:/program files/microchip/xc32/v4.00/bin/bin/../../lib/gcc/pic32c/8.3.1/../../../../pic32c/lib/thumb/v7e-m+fp/hard\libc-musl.a(strcpy.o)
 .debug_frame   0x00008c44       0x28 c:/program files/microchip/xc32/v4.00/bin/bin/../../lib/gcc/pic32c/8.3.1/../../../../pic32c/lib/thumb/v7e-m+fp/hard\libc-musl.a(strncmp.o)
 .debug_frame   0x00008c6c       0x28 c:/program files/microchip/xc32/v4.00/bin/bin/../../lib/gcc/pic32c/8.3.1/../../../../pic32c/lib/thumb/v7e-m+fp/hard\libc-musl.a(strncpy.o)
 .debug_frame   0x00008c94       0x2c c:/program files/microchip/xc32/v4.00/bin/bin/../../lib/gcc/pic32c/8.3.1/../../../../pic32c/lib/thumb/v7e-m+fp/hard\libc-musl.a(strtok.o)
 .debug_frame   0x00008cc0       0x3c c:/program files/microchip/xc32/v4.00/bin/bin/../../lib/gcc/pic32c/8.3.1/../../../../pic32c/lib/thumb/v7e-m+fp/hard\libc-musl.a(vfprintf.o)
 .debug_frame   0x00008cfc       0x20 c:/program files/microchip/xc32/v4.00/bin/bin/../../lib/gcc/pic32c/8.3.1/../../../../pic32c/lib/thumb/v7e-m+fp/hard\libc-musl.a(stpcpy.o)
 .debug_frame   0x00008d1c       0x28 c:/program files/microchip/xc32/v4.00/bin/bin/../../lib/gcc/pic32c/8.3.1/../../../../pic32c/lib/thumb/v7e-m+fp/hard\libc-musl.a(stpncpy.o)
 .debug_frame   0x00008d44       0x34 c:/program files/microchip/xc32/v4.00/bin/bin/../../lib/gcc/pic32c/8.3.1/../../../../pic32c/lib/thumb/v7e-m+fp/hard\libc-musl.a(strcspn.o)
 .debug_frame   0x00008d78       0x34 c:/program files/microchip/xc32/v4.00/bin/bin/../../lib/gcc/pic32c/8.3.1/../../../../pic32c/lib/thumb/v7e-m+fp/hard\libc-musl.a(strspn.o)
 .debug_frame   0x00008dac       0xd8 c:/program files/microchip/xc32/v4.00/bin/bin/../../lib/gcc/pic32c/8.3.1/../../../../pic32c/lib/thumb/v7e-m+fp/hard\libc-musl.a(__printf_core.o)
 .debug_frame   0x00008e84       0x40 c:/program files/microchip/xc32/v4.00/bin/bin/../../lib/gcc/pic32c/8.3.1/../../../../pic32c/lib/thumb/v7e-m+fp/hard\libc-musl.a(__fmt_a.o)
 .debug_frame   0x00008ec4       0x3c c:/program files/microchip/xc32/v4.00/bin/bin/../../lib/gcc/pic32c/8.3.1/../../../../pic32c/lib/thumb/v7e-m+fp/hard\libc-musl.a(__fmt_d.o)
 .debug_frame   0x00008f00       0x50 c:/program files/microchip/xc32/v4.00/bin/bin/../../lib/gcc/pic32c/8.3.1/../../../../pic32c/lib/thumb/v7e-m+fp/hard\libc-musl.a(__fmt_fp.o)
 .debug_frame   0x00008f50       0x34 c:/program files/microchip/xc32/v4.00/bin/bin/../../lib/gcc/pic32c/8.3.1/../../../../pic32c/lib/thumb/v7e-m+fp/hard\libc-musl.a(__fmt_o.o)
 .debug_frame   0x00008f84       0x34 c:/program files/microchip/xc32/v4.00/bin/bin/../../lib/gcc/pic32c/8.3.1/../../../../pic32c/lib/thumb/v7e-m+fp/hard\libc-musl.a(__fmt_s.o)
 .debug_frame   0x00008fb8       0x5c c:/program files/microchip/xc32/v4.00/bin/bin/../../lib/gcc/pic32c/8.3.1/../../../../pic32c/lib/thumb/v7e-m+fp/hard\libc-musl.a(__fmt_u.o)
 .debug_frame   0x00009014       0x40 c:/program files/microchip/xc32/v4.00/bin/bin/../../lib/gcc/pic32c/8.3.1/../../../../pic32c/lib/thumb/v7e-m+fp/hard\libc-musl.a(__fmt_x.o)
 .debug_frame   0x00009054       0x20 c:/program files/microchip/xc32/v4.00/bin/bin/../../lib/gcc/pic32c/8.3.1/../../../../pic32c/lib/thumb/v7e-m+fp/hard\libc-musl.a(__pop_float.o)
 .debug_frame   0x00009074       0x2c c:/program files/microchip/xc32/v4.00/bin/bin/../../lib/gcc/pic32c/8.3.1/../../../../pic32c/lib/thumb/v7e-m+fp/hard\libc-musl.a(__pop_int.o)
 .debug_frame   0x000090a0       0x28 c:/program files/microchip/xc32/v4.00/bin/bin/../../lib/gcc/pic32c/8.3.1/../../../../pic32c/lib/thumb/v7e-m+fp/hard\libc-musl.a(__pop_ptr.o)
 .debug_frame   0x000090c8       0x2c c:/program files/microchip/xc32/v4.00/bin/bin/../../lib/gcc/pic32c/8.3.1/thumb/v7e-m+fp/hard\libgcc.a(_aeabi_uldivmod.o)
 .debug_frame   0x000090f4       0x34 c:/program files/microchip/xc32/v4.00/bin/bin/../../lib/gcc/pic32c/8.3.1/thumb/v7e-m+fp/hard\libgcc.a(_udivmoddi4.o)
 .debug_frame   0x00009128       0x20 c:/program files/microchip/xc32/v4.00/bin/bin/../../lib/gcc/pic32c/8.3.1/../../../../pic32c/lib/thumb/v7e-m+fp/hard\libpic32c.a(sbrk.o)

.note.GNU-stack
                0x00000000        0x0
 .note.GNU-stack
                0x00000000        0x0 c:/program files/microchip/xc32/v4.00/bin/bin/../../lib/gcc/pic32c/8.3.1/../../../../pic32c/lib/thumb/v7e-m+fp/hard\libc-musl.a(isxdigit.o)
 .note.GNU-stack
                0x00000000        0x0 c:/program files/microchip/xc32/v4.00/bin/bin/../../lib/gcc/pic32c/8.3.1/../../../../pic32c/lib/thumb/v7e-m+fp/hard\libc-musl.a(tolower.o)
 .note.GNU-stack
                0x00000000        0x0 c:/program files/microchip/xc32/v4.00/bin/bin/../../lib/gcc/pic32c/8.3.1/../../../../pic32c/lib/thumb/v7e-m+fp/hard\libc-musl.a(toupper.o)
 .note.GNU-stack
                0x00000000        0x0 c:/program files/microchip/xc32/v4.00/bin/bin/../../lib/gcc/pic32c/8.3.1/../../../../pic32c/lib/thumb/v7e-m+fp/hard\libc-musl.a(__libc_start_main.o)
 .note.GNU-stack
                0x00000000        0x0 c:/program files/microchip/xc32/v4.00/bin/bin/../../lib/gcc/pic32c/8.3.1/../../../../pic32c/lib/thumb/v7e-m+fp/hard\libc-musl.a(__errno_location.o)
 .note.GNU-stack
                0x00000000        0x0 c:/program files/microchip/xc32/v4.00/bin/bin/../../lib/gcc/pic32c/8.3.1/../../../../pic32c/lib/thumb/v7e-m+fp/hard\libc-musl.a(libc.o)
 .note.GNU-stack
                0x00000000        0x0 c:/program files/microchip/xc32/v4.00/bin/bin/../../lib/gcc/pic32c/8.3.1/../../../../pic32c/lib/thumb/v7e-m+fp/hard\libc-musl.a(calloc.o)
 .note.GNU-stack
                0x00000000        0x0 c:/program files/microchip/xc32/v4.00/bin/bin/../../lib/gcc/pic32c/8.3.1/../../../../pic32c/lib/thumb/v7e-m+fp/hard\libc-musl.a(malloc.o)
 .note.GNU-stack
                0x00000000        0x0 c:/program files/microchip/xc32/v4.00/bin/bin/../../lib/gcc/pic32c/8.3.1/../../../../pic32c/lib/thumb/v7e-m+fp/hard\libc-musl.a(expand_heap.o)
 .note.GNU-stack
                0x00000000        0x0 c:/program files/microchip/xc32/v4.00/bin/bin/../../lib/gcc/pic32c/8.3.1/../../../../pic32c/lib/thumb/v7e-m+fp/hard\libc-musl.a(rand.o)
 .note.GNU-stack
                0x00000000        0x0 c:/program files/microchip/xc32/v4.00/bin/bin/../../lib/gcc/pic32c/8.3.1/../../../../pic32c/lib/thumb/v7e-m+fp/hard\libc-musl.a(vsnprintf.o)
 .note.GNU-stack
                0x00000000        0x0 c:/program files/microchip/xc32/v4.00/bin/bin/../../lib/gcc/pic32c/8.3.1/../../../../pic32c/lib/thumb/v7e-m+fp/hard\libc-musl.a(snprintf.o)
 .note.GNU-stack
                0x00000000        0x0 c:/program files/microchip/xc32/v4.00/bin/bin/../../lib/gcc/pic32c/8.3.1/../../../../pic32c/lib/thumb/v7e-m+fp/hard\libc-musl.a(sprintf.o)
 .note.GNU-stack
                0x00000000        0x0 c:/program files/microchip/xc32/v4.00/bin/bin/../../lib/gcc/pic32c/8.3.1/../../../../pic32c/lib/thumb/v7e-m+fp/hard\libc-musl.a(vsprintf.o)
 .note.GNU-stack
                0x00000000        0x0 c:/program files/microchip/xc32/v4.00/bin/bin/../../lib/gcc/pic32c/8.3.1/../../../../pic32c/lib/thumb/v7e-m+fp/hard\libc-musl.a(atoi.o)
 .note.GNU-stack
                0x00000000        0x0 c:/program files/microchip/xc32/v4.00/bin/bin/../../lib/gcc/pic32c/8.3.1/../../../../pic32c/lib/thumb/v7e-m+fp/hard\libc-musl.a(memcmp.o)
 .note.GNU-stack
                0x00000000        0x0 c:/program files/microchip/xc32/v4.00/bin/bin/../../lib/gcc/pic32c/8.3.1/../../../../pic32c/lib/thumb/v7e-m+fp/hard\libc-musl.a(memcpy.o)
 .note.GNU-stack
                0x00000000        0x0 c:/program files/microchip/xc32/v4.00/bin/bin/../../lib/gcc/pic32c/8.3.1/../../../../pic32c/lib/thumb/v7e-m+fp/hard\libc-musl.a(memset.o)
 .note.GNU-stack
                0x00000000        0x0 c:/program files/microchip/xc32/v4.00/bin/bin/../../lib/gcc/pic32c/8.3.1/../../../../pic32c/lib/thumb/v7e-m+fp/hard\libc-musl.a(strlen.o)
 .note.GNU-stack
                0x00000000        0x0 c:/program files/microchip/xc32/v4.00/bin/bin/../../lib/gcc/pic32c/8.3.1/../../../../pic32c/lib/thumb/v7e-m+fp/hard\libc-musl.a(strstr.o)
 .note.GNU-stack
                0x00000000        0x0 c:/program files/microchip/xc32/v4.00/bin/bin/../../lib/gcc/pic32c/8.3.1/../../../../pic32c/lib/thumb/v7e-m+fp/hard\libc-musl.a(strchr.o)
 .note.GNU-stack
                0x00000000        0x0 c:/program files/microchip/xc32/v4.00/bin/bin/../../lib/gcc/pic32c/8.3.1/../../../../pic32c/lib/thumb/v7e-m+fp/hard\libc-musl.a(strchrnul.o)
 .note.GNU-stack
                0x00000000        0x0 c:/program files/microchip/xc32/v4.00/bin/bin/../../lib/gcc/pic32c/8.3.1/../../../../pic32c/lib/thumb/v7e-m+fp/hard\libc-musl.a(strcmp.o)
 .note.GNU-stack
                0x00000000        0x0 c:/program files/microchip/xc32/v4.00/bin/bin/../../lib/gcc/pic32c/8.3.1/../../../../pic32c/lib/thumb/v7e-m+fp/hard\libc-musl.a(strcpy.o)
 .note.GNU-stack
                0x00000000        0x0 c:/program files/microchip/xc32/v4.00/bin/bin/../../lib/gcc/pic32c/8.3.1/../../../../pic32c/lib/thumb/v7e-m+fp/hard\libc-musl.a(strncmp.o)
 .note.GNU-stack
                0x00000000        0x0 c:/program files/microchip/xc32/v4.00/bin/bin/../../lib/gcc/pic32c/8.3.1/../../../../pic32c/lib/thumb/v7e-m+fp/hard\libc-musl.a(strncpy.o)
 .note.GNU-stack
                0x00000000        0x0 c:/program files/microchip/xc32/v4.00/bin/bin/../../lib/gcc/pic32c/8.3.1/../../../../pic32c/lib/thumb/v7e-m+fp/hard\libc-musl.a(strtok.o)
 .note.GNU-stack
                0x00000000        0x0 c:/program files/microchip/xc32/v4.00/bin/bin/../../lib/gcc/pic32c/8.3.1/../../../../pic32c/lib/thumb/v7e-m+fp/hard\libc-musl.a(__environ.o)
 .note.GNU-stack
                0x00000000        0x0 c:/program files/microchip/xc32/v4.00/bin/bin/../../lib/gcc/pic32c/8.3.1/../../../../pic32c/lib/thumb/v7e-m+fp/hard\libc-musl.a(vfprintf.o)
 .note.GNU-stack
                0x00000000        0x0 c:/program files/microchip/xc32/v4.00/bin/bin/../../lib/gcc/pic32c/8.3.1/../../../../pic32c/lib/thumb/v7e-m+fp/hard\libc-musl.a(stpcpy.o)
 .note.GNU-stack
                0x00000000        0x0 c:/program files/microchip/xc32/v4.00/bin/bin/../../lib/gcc/pic32c/8.3.1/../../../../pic32c/lib/thumb/v7e-m+fp/hard\libc-musl.a(stpncpy.o)
 .note.GNU-stack
                0x00000000        0x0 c:/program files/microchip/xc32/v4.00/bin/bin/../../lib/gcc/pic32c/8.3.1/../../../../pic32c/lib/thumb/v7e-m+fp/hard\libc-musl.a(strcspn.o)
 .note.GNU-stack
                0x00000000        0x0 c:/program files/microchip/xc32/v4.00/bin/bin/../../lib/gcc/pic32c/8.3.1/../../../../pic32c/lib/thumb/v7e-m+fp/hard\libc-musl.a(strspn.o)
 .note.GNU-stack
                0x00000000        0x0 c:/program files/microchip/xc32/v4.00/bin/bin/../../lib/gcc/pic32c/8.3.1/../../../../pic32c/lib/thumb/v7e-m+fp/hard\libc-musl.a(__printf_core.o)
 .note.GNU-stack
                0x00000000        0x0 c:/program files/microchip/xc32/v4.00/bin/bin/../../lib/gcc/pic32c/8.3.1/../../../../pic32c/lib/thumb/v7e-m+fp/hard\libc-musl.a(__fmt_a.o)
 .note.GNU-stack
                0x00000000        0x0 c:/program files/microchip/xc32/v4.00/bin/bin/../../lib/gcc/pic32c/8.3.1/../../../../pic32c/lib/thumb/v7e-m+fp/hard\libc-musl.a(__fmt_d.o)
 .note.GNU-stack
                0x00000000        0x0 c:/program files/microchip/xc32/v4.00/bin/bin/../../lib/gcc/pic32c/8.3.1/../../../../pic32c/lib/thumb/v7e-m+fp/hard\libc-musl.a(__fmt_fp.o)
 .note.GNU-stack
                0x00000000        0x0 c:/program files/microchip/xc32/v4.00/bin/bin/../../lib/gcc/pic32c/8.3.1/../../../../pic32c/lib/thumb/v7e-m+fp/hard\libc-musl.a(__fmt_o.o)
 .note.GNU-stack
                0x00000000        0x0 c:/program files/microchip/xc32/v4.00/bin/bin/../../lib/gcc/pic32c/8.3.1/../../../../pic32c/lib/thumb/v7e-m+fp/hard\libc-musl.a(__fmt_s.o)
 .note.GNU-stack
                0x00000000        0x0 c:/program files/microchip/xc32/v4.00/bin/bin/../../lib/gcc/pic32c/8.3.1/../../../../pic32c/lib/thumb/v7e-m+fp/hard\libc-musl.a(__fmt_u.o)
 .note.GNU-stack
                0x00000000        0x0 c:/program files/microchip/xc32/v4.00/bin/bin/../../lib/gcc/pic32c/8.3.1/../../../../pic32c/lib/thumb/v7e-m+fp/hard\libc-musl.a(__fmt_x.o)
 .note.GNU-stack
                0x00000000        0x0 c:/program files/microchip/xc32/v4.00/bin/bin/../../lib/gcc/pic32c/8.3.1/../../../../pic32c/lib/thumb/v7e-m+fp/hard\libc-musl.a(__pop_float.o)
 .note.GNU-stack
                0x00000000        0x0 c:/program files/microchip/xc32/v4.00/bin/bin/../../lib/gcc/pic32c/8.3.1/../../../../pic32c/lib/thumb/v7e-m+fp/hard\libc-musl.a(__pop_int.o)
 .note.GNU-stack
                0x00000000        0x0 c:/program files/microchip/xc32/v4.00/bin/bin/../../lib/gcc/pic32c/8.3.1/../../../../pic32c/lib/thumb/v7e-m+fp/hard\libc-musl.a(__pop_ptr.o)

__xc_reference_data
                0x00000000       0x44
 __xc_reference_data
                0x00000000        0x4 c:/program files/microchip/xc32/v4.00/bin/bin/../../lib/gcc/pic32c/8.3.1/../../../../pic32c/lib/thumb/v7e-m+fp/hard\libc-musl.a(vfprintf.o)
                0x00000000                __vfprintf_needs_fmt
 __xc_reference_data
                0x00000004       0x40 c:/program files/microchip/xc32/v4.00/bin/bin/../../lib/gcc/pic32c/8.3.1/../../../../pic32c/lib/thumb/v7e-m+fp/hard\libc-musl.a(__io_fmt_needed.o)
                0x00000004                __io_fmt_needed

.stack          0x2001b680      0x100
 .stack         0x2001b680      0x100 stack

.bss.gSYSFSMediaBlockBuffer%1
                0x20000000      0x800
 .bss.gSYSFSMediaBlockBuffer
                0x20000000      0x800 build/default/production/_ext/1269487135/sys_fs_media_manager.o
                0x20000000                gSYSFSMediaBlockBuffer

.bss.printBuff%2
                0x20000800      0x400
 .bss.printBuff
                0x20000800      0x400 build/default/production/_ext/1376093119/sys_command.o

.bss.gDrvSDMMCObj%3
                0x20000c00      0x310
 .bss.gDrvSDMMCObj
                0x20000c00      0x310 build/default/production/_ext/20954303/drv_sdmmc.o

.bss.TCPIP_STACK_MODULE_SIGNAL_TBL%4
                0x20000f10      0x270
 .bss.TCPIP_STACK_MODULE_SIGNAL_TBL
                0x20000f10      0x270 build/default/production/_ext/1033058136/tcpip_manager.o

.bss.FATFSVolume%5
                0x20001180      0x250
 .bss.FATFSVolume
                0x20001180      0x250 build/default/production/_ext/1269487135/sys_fs_fat_interface.o

.bss.FATFSFileObject%6
                0x200013d0      0x240
 .bss.FATFSFileObject
                0x200013d0      0x240 build/default/production/_ext/1269487135/sys_fs_fat_interface.o

.bss.sNetPresData%7
                0x20001610      0x234
 .bss.sNetPresData
                0x20001610      0x234 build/default/production/_ext/1508031553/net_pres.o
                0x20001610                sNetPresData

.bss%8          0x20001848      0x20c
 .bss           0x20001848      0x20c c:/program files/microchip/xc32/v4.00/bin/bin/../../lib/gcc/pic32c/8.3.1/../../../../pic32c/lib/thumb/v7e-m+fp/hard\libc-musl.a(malloc.o)

.bss.LfnBuf%9   0x20001a54      0x200
 .bss.LfnBuf    0x20001a54      0x200 build/default/production/_ext/411819097/ff.o

.bss.gSYSFSMediaBuffer%10
                0x20001c60      0x200
 .bss.gSYSFSMediaBuffer
                0x20001c60      0x200 build/default/production/_ext/1269487135/sys_fs_media_manager.o
                0x20001c60                gSYSFSMediaBuffer

.bss.sNetPresSockets%11
                0x20001e60      0x168
 .bss.sNetPresSockets
                0x20001e60      0x168 build/default/production/_ext/1508031553/net_pres.o
                0x20001e60                sNetPresSockets

.bss.fileNameList.14325%12
                0x20001fc8      0x14c
 .bss.fileNameList.14325
                0x20001fc8      0x14c build/default/production/_ext/1033058136/ftp.o

.bss.fileNameList.14420%13
                0x20002114      0x12e
 .bss.fileNameList.14420
                0x20002114      0x12e build/default/production/_ext/1033058136/ftp.o

.bss.gSYSFSFileObj%14
                0x20002250      0x110
 .bss.gSYSFSFileObj
                0x20002250      0x110 build/default/production/_ext/1269487135/sys_fs.o
                0x20002250                gSYSFSFileObj

.data._gmac_drv_dcpt%15
                0x20002360       0xf8
 .data._gmac_drv_dcpt
                0x20002360       0xf8 build/default/production/_ext/1546807373/drv_gmac.o

.bss.gIperfState%16
                0x20002458       0xd8
 .bss.gIperfState
                0x20002458       0xd8 build/default/production/_ext/1033058136/iperf.o

.bss.consolePrintBuffer%17
                0x20002530       0xc8
 .bss.consolePrintBuffer
                0x20002530       0xc8 build/default/production/_ext/1832805299/sys_console.o

.bss.timers%18  0x200025f8       0xa0
 .bss.timers    0x200025f8       0xa0 build/default/production/_ext/101884895/sys_time.o

.bss.gDrvMIIMObj%19
                0x20002698       0x94
 .bss.gDrvMIIMObj
                0x20002698       0x94 build/default/production/_ext/438849557/drv_miim.o

.bss.TCPIP_MODULES_QUEUE_TBL%20
                0x2000272c       0x90
 .bss.TCPIP_MODULES_QUEUE_TBL
                0x2000272c       0x90 build/default/production/_ext/1033058136/tcpip_manager.o

.bss.gmac_dcpt_array%21
                0x200027c0       0x80
 .bss.gmac_dcpt_array
                0x200027c0       0x80 build/default/production/_ext/1546807373/drv_gmac_lib_samE5x.o

.bss.SERCOM1_USART_ReadBuffer%22
                0x20002840       0x80
 .bss.SERCOM1_USART_ReadBuffer
                0x20002840       0x80 build/default/production/_ext/504274921/plib_sercom1_usart.o

.bss.SERCOM1_USART_WriteBuffer%23
                0x200028c0       0x80
 .bss.SERCOM1_USART_WriteBuffer
                0x200028c0       0x80 build/default/production/_ext/504274921/plib_sercom1_usart.o

.bss._usrCmdTbl%24
                0x20002940       0x80
 .bss._usrCmdTbl
                0x20002940       0x80 build/default/production/_ext/1376093119/sys_command.o

.bss.gPhyDrvInst%25
                0x200029c0       0x68
 .bss.gPhyDrvInst
                0x200029c0       0x68 build/default/production/_ext/444070925/drv_ethphy.o

.bss.gCryptoDev%26
                0x20002a28       0x60
 .bss.gCryptoDev
                0x20002a28       0x60 build/default/production/_ext/1664057780/cryptocb.o

.bss%27         0x20002a88       0x50
 .bss           0x20002a88       0x50 c:/program files/microchip/xc32/v4.00/bin/bin/../../lib/gcc/pic32c/8.3.1/../../../../pic32c/lib/thumb/v7e-m+fp/hard\libc-musl.a(libc.o)
                0x20002a88                __progname_full
                0x20002a88                program_invocation_name
                0x20002a8c                program_invocation_short_name
                0x20002a8c                __progname
                0x20002a90                __sysinfo
                0x20002a94                __hwcap
                0x20002a98                __libc

.bss.arpMod%28  0x20002ad8       0x48
 .bss.arpMod    0x20002ad8       0x48 build/default/production/_ext/1033058136/arp.o

.bss.drvSDMMC0BufferObjPool%29
                0x20002b20       0x48
 .bss.drvSDMMC0BufferObjPool
                0x20002b20       0x48 build/default/production/_ext/1171490990/initialization.o

.bss.sercom1USARTObj%30
                0x20002b68       0x40
 .bss.sercom1USARTObj
                0x20002b68       0x40 build/default/production/_ext/504274921/plib_sercom1_usart.o

.bss.gSystemCounterObj%31
                0x20002ba8       0x40
 .bss.gSystemCounterObj
                0x20002ba8       0x40 build/default/production/_ext/101884895/sys_time.o

.bss.FATFSDirObject%32
                0x20002bf0       0x38
 .bss.FATFSDirObject
                0x20002bf0       0x38 build/default/production/_ext/1269487135/sys_fs_fat_interface.o

.bss.g_bfr%33   0x20002c28       0x34
 .bss.g_bfr     0x20002c28       0x34 build/default/production/_ext/1033058136/iperf.o
                0x20002c28                g_bfr

.bss.gDnsDcpt%34
                0x20002c5c       0x28
 .bss.gDnsDcpt  0x20002c5c       0x28 build/default/production/_ext/1033058136/dns.o

.data.tcpSecurePortTbl%35
                0x20002c84       0x28
 .data.tcpSecurePortTbl
                0x20002c84       0x28 build/default/production/_ext/1033058136/tcpip_helpers.o

.bss.gSYSFSMediaObject%36
                0x20002cac       0x28
 .bss.gSYSFSMediaObject
                0x20002cac       0x28 build/default/production/_ext/1269487135/sys_fs_media_manager.o
                0x20002cac                gSYSFSMediaObject

.bss.announceDcpt%37
                0x20002cd4       0x20
 .bss.announceDcpt
                0x20002cd4       0x20 build/default/production/_ext/1033058136/tcpip_announce.o

.bss%38         0x20002cf4       0x1c
 .bss           0x20002cf4       0x1c c:/program files/microchip/xc32/v4.00/bin/bin/../../lib/gcc/pic32c/8.3.1/thumb/v7e-m+fp/hard/crtbegin.o

.bss.tcpip_stack_ctrl_data%39
                0x20002d10       0x1c
 .bss.tcpip_stack_ctrl_data
                0x20002d10       0x1c build/default/production/_ext/1033058136/tcpip_manager.o

.bss.gSYSFSVolumeObject%40
                0x20002d2c       0x1c
 .bss.gSYSFSVolumeObject
                0x20002d2c       0x1c build/default/production/_ext/1269487135/sys_fs_media_manager.o
                0x20002d2c                gSYSFSVolumeObject

.bss.sysObj%41  0x20002d48       0x1c
 .bss.sysObj    0x20002d48       0x1c build/default/production/_ext/1171490990/initialization.o
                0x20002d48                sysObj

.bss.tcpip_init_data%42
                0x20002d64       0x18
 .bss.tcpip_init_data
                0x20002d64       0x18 build/default/production/_ext/1033058136/tcpip_manager.o

.data.gSYSFSMediaManagerObj%43
                0x20002d7c       0x18
 .data.gSYSFSMediaManagerObj
                0x20002d7c       0x18 build/default/production/_ext/1269487135/sys_fs_media_manager.o
                0x20002d7c                gSYSFSMediaManagerObj

.data.gSYSFSVolumeName%44
                0x20002d94       0x14
 .data.gSYSFSVolumeName
                0x20002d94       0x14 build/default/production/_ext/1269487135/sys_fs_media_manager.o
                0x20002d94                gSYSFSVolumeName

.data.tcpipHeapConfig%45
                0x20002da8       0x14
 .data.tcpipHeapConfig
                0x20002da8       0x14 build/default/production/_ext/1171490990/initialization.o
                0x20002da8                tcpipHeapConfig

.bss.ipv4ArpQueue%46
                0x20002dbc       0x10
 .bss.ipv4ArpQueue
                0x20002dbc       0x10 build/default/production/_ext/1033058136/ipv4.o

.bss.ipv4PacketFilters%47
                0x20002dcc       0x10
 .bss.ipv4PacketFilters
                0x20002dcc       0x10 build/default/production/_ext/1033058136/ipv4.o

.bss.tcpip_heap_config%48
                0x20002ddc       0x10
 .bss.tcpip_heap_config
                0x20002ddc       0x10 build/default/production/_ext/1033058136/tcpip_manager.o

.bss.DirectoryFileList%49
                0x20002dec       0x10
 .bss.DirectoryFileList
                0x20002dec       0x10 build/default/production/_ext/1033058136/ftp.o

.bss.sdhc1DmaDescrTable%50
                0x20002e00       0x10
 .bss.sdhc1DmaDescrTable
                0x20002e00       0x10 build/default/production/_ext/1865600094/plib_sdhc1.o

.bss.Files%51   0x20002e10       0x10
 .bss.Files     0x20002e10       0x10 build/default/production/_ext/411819097/ff.o

.bss.gSYSFSDirObj%52
                0x20002e20       0x10
 .bss.gSYSFSDirObj
                0x20002e20       0x10 build/default/production/_ext/1269487135/sys_fs.o
                0x20002e20                gSYSFSDirObj

.bss.gSYSFSMountPoint%53
                0x20002e30       0x10
 .bss.gSYSFSMountPoint
                0x20002e30       0x10 build/default/production/_ext/1269487135/sys_fs.o
                0x20002e30                gSYSFSMountPoint

.bss.drvSDMMC0ClientObjPool%54
                0x20002e40       0x10
 .bss.drvSDMMC0ClientObjPool
                0x20002e40       0x10 build/default/production/_ext/1171490990/initialization.o

.bss.sysfsMountTable%55
                0x20001c54        0xc
 .bss.sysfsMountTable
                0x20001c54        0xc build/default/production/_ext/1171490990/initialization.o
                0x20001c54                sysfsMountTable

.bss.appData%56
                0x20002244        0xa
 .bss.appData   0x20002244        0xa build/default/production/_ext/1360937237/app.o
                0x20002244                appData

.bss.gSysFsDiskData%57
                0x20002e50        0x8
 .bss.gSysFsDiskData
                0x20002e50        0x8 build/default/production/_ext/565198302/diskio.o

.data.TCPIP_FTP_CMD_NLSTArgs%58
                0x20002e58        0xf
 .data.TCPIP_FTP_CMD_NLSTArgs
                0x20002e58        0xf build/default/production/_ext/1033058136/ftp.o

.bss.ipv4ArpPool%59
                0x20002e68        0xc
 .bss.ipv4ArpPool
                0x20002e68        0xc build/default/production/_ext/1033058136/ipv4.o

.bss.sdhc1Obj%60
                0x20002e74        0xc
 .bss.sdhc1Obj  0x20002e74        0xc build/default/production/_ext/1865600094/plib_sdhc1.o

.bss.consoleDeviceInstance%61
                0x20002e80        0xc
 .bss.consoleDeviceInstance
                0x20002e80        0xc build/default/production/_ext/1832805299/sys_console.o

.bss.ftpConfigData%62
                0x20002e8c        0xa
 .bss.ftpConfigData
                0x20002e8c        0xa build/default/production/_ext/1033058136/ftp.o

.bss.TC0_CallbackObject%63
                0x20002be8        0x8
 .bss.TC0_CallbackObject
                0x20002be8        0x8 build/default/production/_ext/829342655/plib_tc0.o

.bss.cmdIODevList%64
                0x20002e98        0x8
 .bss.cmdIODevList
                0x20002e98        0x8 build/default/production/_ext/1376093119/sys_command.o

.bss.gConsoleUartData%65
                0x20002ea0        0x8
 .bss.gConsoleUartData
                0x20002ea0        0x8 build/default/production/_ext/1832805299/sys_console_uart.o

.bss.gSYSFSCurrentMountPoint%66
                0x20002ea8        0x8
 .bss.gSYSFSCurrentMountPoint
                0x20002ea8        0x8 build/default/production/_ext/1269487135/sys_fs.o
                0x20002ea8                gSYSFSCurrentMountPoint

.bss.gSYSFSObj%67
                0x20002eb0        0x8
 .bss.gSYSFSObj
                0x20002eb0        0x8 build/default/production/_ext/1269487135/sys_fs.o
                0x20002eb0                gSYSFSObj

.data.arpBcastAdd%68
                0x20002eb8        0x6
 .data.arpBcastAdd
                0x20002eb8        0x6 build/default/production/_ext/1033058136/arp.o

.bss._hEventMac%69
                0x20001844        0x4
 .bss._hEventMac
                0x20001844        0x4 build/default/production/_ext/1546807373/drv_gmac.o

.bss.drvGmacQueEvents%70
                0x200027bc        0x4
 .bss.drvGmacQueEvents
                0x200027bc        0x4 build/default/production/_ext/1546807373/drv_gmac_lib_samE5x.o
                0x200027bc                drvGmacQueEvents

.bss.TCBStubs%71
                0x20002dfc        0x4
 .bss.TCBStubs  0x20002dfc        0x4 build/default/production/_ext/1033058136/tcp.o

.bss.TcpSockets%72
                0x20002ec0        0x4
 .bss.TcpSockets
                0x20002ec0        0x4 build/default/production/_ext/1033058136/tcp.o

.bss.tcpHeapH%73
                0x20002ec4        0x4
 .bss.tcpHeapH  0x20002ec4        0x4 build/default/production/_ext/1033058136/tcp.o

.bss.tcpInitCount%74
                0x20002ec8        0x4
 .bss.tcpInitCount
                0x20002ec8        0x4 build/default/production/_ext/1033058136/tcp.o

.bss.tcpLockCount%75
                0x20002ecc        0x4
 .bss.tcpLockCount
                0x20002ecc        0x4 build/default/production/_ext/1033058136/tcp.o

.bss.tcpSignalHandle%76
                0x20002ed0        0x4
 .bss.tcpSignalHandle
                0x20002ed0        0x4 build/default/production/_ext/1033058136/tcp.o

.bss.ipv4ActFilterCount%77
                0x20002ed4        0x4
 .bss.ipv4ActFilterCount
                0x20002ed4        0x4 build/default/production/_ext/1033058136/ipv4.o

.bss.ipv4ArpEntries%78
                0x20002ed8        0x4
 .bss.ipv4ArpEntries
                0x20002ed8        0x4 build/default/production/_ext/1033058136/ipv4.o

.bss.ipv4ArpHandle%79
                0x20002edc        0x4
 .bss.ipv4ArpHandle
                0x20002edc        0x4 build/default/production/_ext/1033058136/ipv4.o

.bss.ipv4MemH%80
                0x20002ee0        0x4
 .bss.ipv4MemH  0x20002ee0        0x4 build/default/production/_ext/1033058136/ipv4.o

.bss.signalHandle%81
                0x20002ee4        0x4
 .bss.signalHandle
                0x20002ee4        0x4 build/default/production/_ext/1033058136/ipv4.o

.bss.dnsInitCount%82
                0x20002ee8        0x4
 .bss.dnsInitCount
                0x20002ee8        0x4 build/default/production/_ext/1033058136/dns.o

.bss.pgDnsDcpt%83
                0x20002eec        0x4
 .bss.pgDnsDcpt
                0x20002eec        0x4 build/default/production/_ext/1033058136/dns.o

.bss.newTcpipErrorEventCnt%84
                0x20002ef0        0x4
 .bss.newTcpipErrorEventCnt
                0x20002ef0        0x4 build/default/production/_ext/1033058136/tcpip_manager.o

.bss.newTcpipStackEventCnt%85
                0x20002ef4        0x4
 .bss.newTcpipStackEventCnt
                0x20002ef4        0x4 build/default/production/_ext/1033058136/tcpip_manager.o

.bss.newTcpipTickAvlbl%86
                0x20002ef8        0x4
 .bss.newTcpipTickAvlbl
                0x20002ef8        0x4 build/default/production/_ext/1033058136/tcpip_manager.o

.bss.stackAsyncSignalCount%87
                0x20002efc        0x4
 .bss.stackAsyncSignalCount
                0x20002efc        0x4 build/default/production/_ext/1033058136/tcpip_manager.o

.bss.stackTaskRate%88
                0x20002f00        0x4
 .bss.stackTaskRate
                0x20002f00        0x4 build/default/production/_ext/1033058136/tcpip_manager.o

.bss.tcpipDefIf%89
                0x20002f04        0x4
 .bss.tcpipDefIf
                0x20002f04        0x4 build/default/production/_ext/1033058136/tcpip_manager.o

.bss.tcpipNetIf%90
                0x20002f08        0x4
 .bss.tcpipNetIf
                0x20002f08        0x4 build/default/production/_ext/1033058136/tcpip_manager.o

.bss.tcpip_stack_init_cb%91
                0x20002f0c        0x4
 .bss.tcpip_stack_init_cb
                0x20002f0c        0x4 build/default/production/_ext/1033058136/tcpip_manager.o

.bss.totTcpipEventsCnt%92
                0x20002f10        0x4
 .bss.totTcpipEventsCnt
                0x20002f10        0x4 build/default/production/_ext/1033058136/tcpip_manager.o

.data.tcpip_stack_tickH%93
                0x20002f14        0x4
 .data.tcpip_stack_tickH
                0x20002f14        0x4 build/default/production/_ext/1033058136/tcpip_manager.o

.bss.pktMemH%94
                0x20002f18        0x4
 .bss.pktMemH   0x20002f18        0x4 build/default/production/_ext/1033058136/tcpip_packet.o

.bss.FTPAuthHParam%95
                0x20002f1c        0x4
 .bss.FTPAuthHParam
                0x20002f1c        0x4 build/default/production/_ext/1033058136/ftp.o

.bss.FTPAuthHandler%96
                0x20002f20        0x4
 .bss.FTPAuthHandler
                0x20002f20        0x4 build/default/production/_ext/1033058136/ftp.o

.bss.ftpsSignalHandle%97
                0x20002f24        0x4
 .bss.ftpsSignalHandle
                0x20002f24        0x4 build/default/production/_ext/1033058136/ftp.o

.bss.sTCPIPFTPDcpt%98
                0x20002f28        0x4
 .bss.sTCPIPFTPDcpt
                0x20002f28        0x4 build/default/production/_ext/1033058136/ftp.o

.bss.sTCPIPFTPServerCount%99
                0x20002f2c        0x4
 .bss.sTCPIPFTPServerCount
                0x20002f2c        0x4 build/default/production/_ext/1033058136/ftp.o

.bss.sTCPIPFtpMemH%100
                0x20002f30        0x4
 .bss.sTCPIPFtpMemH
                0x20002f30        0x4 build/default/production/_ext/1033058136/ftp.o

.bss.icmpInitCount%101
                0x20002f34        0x4
 .bss.icmpInitCount
                0x20002f34        0x4 build/default/production/_ext/1033058136/icmp.o

.bss.signalHandle%102
                0x20002f38        0x4
 .bss.signalHandle
                0x20002f38        0x4 build/default/production/_ext/1033058136/icmp.o

.bss.BSDSocketArray%103
                0x20002f3c        0x4
 .bss.BSDSocketArray
                0x20002f3c        0x4 build/default/production/_ext/1033058136/berkeley_api.o

.bss.InitCount%104
                0x20002f40        0x4
 .bss.InitCount
                0x20002f40        0x4 build/default/production/_ext/1033058136/berkeley_api.o

.bss.bsdApiHeapH%105
                0x20002f44        0x4
 .bss.bsdApiHeapH
                0x20002f44        0x4 build/default/production/_ext/1033058136/berkeley_api.o

.bss.bsdSignalHandle%106
                0x20002f48        0x4
 .bss.bsdSignalHandle
                0x20002f48        0x4 build/default/production/_ext/1033058136/berkeley_api.o

.bss.announceInitCount%107
                0x20002f4c        0x4
 .bss.announceInitCount
                0x20002f4c        0x4 build/default/production/_ext/1033058136/tcpip_announce.o

.bss.UDPSocketDcpt%108
                0x20002f50        0x4
 .bss.UDPSocketDcpt
                0x20002f50        0x4 build/default/production/_ext/1033058136/udp.o

.bss.nUdpSockets%109
                0x20002f54        0x4
 .bss.nUdpSockets
                0x20002f54        0x4 build/default/production/_ext/1033058136/udp.o

.bss.signalHandle%110
                0x20002f58        0x4
 .bss.signalHandle
                0x20002f58        0x4 build/default/production/_ext/1033058136/udp.o

.bss.udpInitCount%111
                0x20002f5c        0x4
 .bss.udpInitCount
                0x20002f5c        0x4 build/default/production/_ext/1033058136/udp.o

.bss.udpMemH%112
                0x20002f60        0x4
 .bss.udpMemH   0x20002f60        0x4 build/default/production/_ext/1033058136/udp.o

.bss.iperfInitCount%113
                0x20002f64        0x4
 .bss.iperfInitCount
                0x20002f64        0x4 build/default/production/_ext/1033058136/iperf.o

.bss.nIperfSessions%114
                0x20002f68        0x4
 .bss.nIperfSessions
                0x20002f68        0x4 build/default/production/_ext/1033058136/iperf.o

.bss._cmdInitData%115
                0x20002f6c        0x4
 .bss._cmdInitData
                0x20002f6c        0x4 build/default/production/_ext/1376093119/sys_command.o

.bss.printBuffPtr%116
                0x20002f70        0x4
 .bss.printBuffPtr
                0x20002f70        0x4 build/default/production/_ext/1376093119/sys_command.o

.bss.sysDebugInstance%117
                0x20002f74        0x4
 .bss.sysDebugInstance
                0x20002f74        0x4 build/default/production/_ext/944882569/sys_debug.o

.bss.FatFs%118  0x20002f78        0x4
 .bss.FatFs     0x20002f78        0x4 build/default/production/_ext/411819097/ff.o

.bss.gTickConv%119
                0x20002f7c        0x4
 .bss.gTickConv
                0x20002f7c        0x4 build/default/production/_ext/753841488/sys_time_h2_adapter.o

.bss.systemAdaptObj%120
                0x20002f80        0x4
 .bss.systemAdaptObj
                0x20002f80        0x4 build/default/production/_ext/753841488/sys_time_h2_adapter.o

.bss.sysCmdInit%121
                0x20002f84        0x4
 .bss.sysCmdInit
                0x20002f84        0x4 build/default/production/_ext/1171490990/initialization.o
                0x20002f84                sysCmdInit

.bss.tcpipAnnounceInitData%122
                0x20002f88        0x4
 .bss.tcpipAnnounceInitData
                0x20002f88        0x4 build/default/production/_ext/1171490990/initialization.o
                0x20002f88                tcpipAnnounceInitData

.bss%123        0x20002f8c       0x18
 .bss           0x20002f8c        0x4 c:/program files/microchip/xc32/v4.00/bin/bin/../../lib/gcc/pic32c/8.3.1/../../../../pic32c/lib/thumb/v7e-m+fp/hard\libpic32c.a(data_init.o)
 .bss           0x20002f90        0x4 c:/program files/microchip/xc32/v4.00/bin/bin/../../lib/gcc/pic32c/8.3.1/../../../../pic32c/lib/thumb/v7e-m+fp/hard\libc-musl.a(__errno_location.o)
                0x20002f90                __errno_val
 .bss           0x20002f94        0x4 c:/program files/microchip/xc32/v4.00/bin/bin/../../lib/gcc/pic32c/8.3.1/../../../../pic32c/lib/thumb/v7e-m+fp/hard\libc-musl.a(rand.o)
 .bss           0x20002f98        0x4 c:/program files/microchip/xc32/v4.00/bin/bin/../../lib/gcc/pic32c/8.3.1/../../../../pic32c/lib/thumb/v7e-m+fp/hard\libc-musl.a(strtok.o)
 .bss           0x20002f9c        0x4 c:/program files/microchip/xc32/v4.00/bin/bin/../../lib/gcc/pic32c/8.3.1/../../../../pic32c/lib/thumb/v7e-m+fp/hard\libc-musl.a(__environ.o)
                0x20002f9c                __environ
                0x20002f9c                environ
                0x20002f9c                ___environ
                0x20002f9c                _environ
 .bss           0x20002fa0        0x4 c:/program files/microchip/xc32/v4.00/bin/bin/../../lib/gcc/pic32c/8.3.1/../../../../pic32c/lib/thumb/v7e-m+fp/hard\libpic32c.a(sbrk.o)

.bss.VolToPart%129
                0x20002fa4        0x2
 .bss.VolToPart
                0x20002fa4        0x2 build/default/production/_ext/1269487135/sys_fs_media_manager.o
                0x20002fa4                VolToPart

.data.drvGmacIRQ%130
                0x20002fa8        0x2
 .data.drvGmacIRQ
                0x20002fa8        0x2 build/default/production/_ext/1546807373/drv_gmac_lib_samE5x.o
                0x20002fa8                drvGmacIRQ

.bss.tcpDefRxSize%131
                0x20002242        0x2
 .bss.tcpDefRxSize
                0x20002242        0x2 build/default/production/_ext/1033058136/tcp.o

.bss.tcpDefTxSize%132
                0x2000224e        0x2
 .bss.tcpDefTxSize
                0x2000224e        0x2 build/default/production/_ext/1033058136/tcp.o

.bss.ipv4Identifier%133
                0x20002e96        0x2
 .bss.ipv4Identifier
                0x20002e96        0x2 build/default/production/_ext/1033058136/ipv4.o

.bss.ipv4InitCount%134
                0x20002ebe        0x2
 .bss.ipv4InitCount
                0x20002ebe        0x2 build/default/production/_ext/1033058136/ipv4.o

.bss.remainingBytes.14334%135
                0x20002fa6        0x2
 .bss.remainingBytes.14334
                0x20002fa6        0x2 build/default/production/_ext/1033058136/ftp.o

.bss.remainingBytes.14423%136
                0x20002faa        0x2
 .bss.remainingBytes.14423
                0x20002faa        0x2 build/default/production/_ext/1033058136/ftp.o

.bss.udpDefTxSize%137
                0x20002fac        0x2
 .bss.udpDefTxSize
                0x20002fac        0x2 build/default/production/_ext/1033058136/udp.o

.bss.Fsid%138   0x20002fae        0x2
 .bss.Fsid      0x20002fae        0x2 build/default/production/_ext/411819097/ff.o

.data.gSysTimeTokenCount%139
                0x20002fb0        0x2
 .data.gSysTimeTokenCount
                0x20002fb0        0x2 build/default/production/_ext/101884895/sys_time.o

.data.queueIndex.10328%140
                0x20002e67        0x1
 .data.queueIndex.10328
                0x20002e67        0x1 build/default/production/_ext/1546807373/drv_gmac.o

.data.cardAttached.9384%141
                0x20002fb2        0x1
 .data.cardAttached.9384
                0x20002fb2        0x1 build/default/production/_ext/20954303/drv_sdmmc.o

.bss.tcpSemaphore%142
                0x20002fb3        0x1
 .bss.tcpSemaphore
                0x20002fb3        0x1 build/default/production/_ext/1033058136/tcp.o

.bss.ipv4FilterType%143
                0x20002fb4        0x1
 .bss.ipv4FilterType
                0x20002fb4        0x1 build/default/production/_ext/1033058136/ipv4.o

.bss.tcpip_stack_status%144
                0x20002fb5        0x1
 .bss.tcpip_stack_status
                0x20002fb5        0x1 build/default/production/_ext/1033058136/tcpip_manager.o

.bss.cmdWithArg.14429%145
                0x20002fb6        0x1
 .bss.cmdWithArg.14429
                0x20002fb6        0x1 build/default/production/_ext/1033058136/ftp.o

.data.gFTPNLSTArgIndex%146
                0x20002fb7        0x1
 .data.gFTPNLSTArgIndex
                0x20002fb7        0x1 build/default/production/_ext/1033058136/ftp.o

.bss.bsdSemaphore%147
                0x20002fb8        0x1
 .bss.bsdSemaphore
                0x20002fb8        0x1 build/default/production/_ext/1033058136/berkeley_api.o

.data.BSD_SOCKET_COUNT%148
                0x20002fb9        0x1
 .data.BSD_SOCKET_COUNT
                0x20002fb9        0x1 build/default/production/_ext/1033058136/berkeley_api.o

.bss.userSem%149
                0x20002fba        0x1
 .bss.userSem   0x20002fba        0x1 build/default/production/_ext/1033058136/udp.o

.bss.iperf_async_request.13863%150
                0x20002fbb        0x1
 .bss.iperf_async_request.13863
                0x20002fbb        0x1 build/default/production/_ext/1033058136/iperf.o

.bss.error_reported.9150%151
                0x20002fbc        0x1
 .bss.error_reported.9150
                0x20002fbc        0x1 build/default/production/_ext/1376093119/sys_command.o

.bss.consolePrintBufferMutex%152
                0x20002fbd        0x1
 .bss.consolePrintBufferMutex
                0x20002fbd        0x1 build/default/production/_ext/1832805299/sys_console.o

.bss.isConsoleMutexCreated%153
                0x20002fbe        0x1
 .bss.isConsoleMutexCreated
                0x20002fbe        0x1 build/default/production/_ext/1832805299/sys_console.o

.bss.gblErrLvl%154
                0x20002fbf        0x1
 .bss.gblErrLvl
                0x20002fbf        0x1 build/default/production/_ext/944882569/sys_debug.o
                0x20002fbf                gblErrLvl

.bss.CurrVol%155
                0x20002fc0        0x1
 .bss.CurrVol   0x20002fc0        0x1 build/default/production/_ext/411819097/ff.o

.bss.errorValue%156
                0x20002fc1        0x1
 .bss.errorValue
                0x20002fc1        0x1 build/default/production/_ext/1269487135/sys_fs.o
                0x20002fc1                errorValue

.bss.gSysFsMutex%157
                0x20002fc2        0x1
 .bss.gSysFsMutex
                0x20002fc2        0x1 build/default/production/_ext/1269487135/sys_fs.o
                0x20002fc2                gSysFsMutex

.bss.startupflag%158
                0x20002fc3        0x1
 .bss.startupflag
                0x20002fc3        0x1 build/default/production/_ext/1269487135/sys_fs_fat_interface.o

.eh_frame%z1    0x00000000        0x0
 .eh_frame      0x00000000        0x0 c:/program files/microchip/xc32/v4.00/bin/bin/../../lib/gcc/pic32c/8.3.1/thumb/v7e-m+fp/hard/crtbegin.o

.config_00804000.__config_00804000%159
                0x00804000        0x4
 .config_00804000.__config_00804000
                0x00804000        0x4 build/default/production/_ext/1171490990/initialization.o
                0x00804000                __config_00804000

.config_00804004.__config_00804004%160
                0x00804004        0x4
 .config_00804004.__config_00804004
                0x00804004        0x4 build/default/production/_ext/1171490990/initialization.o
                0x00804004                __config_00804004

.config_00804008.__config_00804008%161
                0x00804008        0x4
 .config_00804008.__config_00804008
                0x00804008        0x4 build/default/production/_ext/1171490990/initialization.o
                0x00804008                __config_00804008

.text.TCPIP_FTP_CmdsExecute%162
                0x0000028c     0x19ac
 .text.TCPIP_FTP_CmdsExecute
                0x0000028c     0x19ac build/default/production/_ext/1033058136/ftp.o

.text.DRV_SDMMC_Tasks%163
                0x00001c38     0x197c
 .text.DRV_SDMMC_Tasks
                0x00001c38     0x197c build/default/production/_ext/20954303/drv_sdmmc.o
                0x00001c38                DRV_SDMMC_Tasks

.text.TCPIP_TCP_Task%164
                0x000035b4      0xe2c
 .text.TCPIP_TCP_Task
                0x000035b4      0xe2c build/default/production/_ext/1033058136/tcp.o
                0x000035b4                TCPIP_TCP_Task

.text.TCPIP_IPERF_Task%165
                0x000043e0      0xd34
 .text.TCPIP_IPERF_Task
                0x000043e0      0xd34 build/default/production/_ext/1033058136/iperf.o
                0x000043e0                TCPIP_IPERF_Task

.rodata%166     0x00005114      0xaa4
 .rodata        0x00005114      0xaa4 build/default/production/_ext/1033058136/iperf.o

.dinit%167      0x00005bb8      0x910
 .dinit         0x00005bb8      0x910 data_init

.text.f_mkfs%168
                0x000064c8      0x7f4
 .text.f_mkfs   0x000064c8      0x7f4 build/default/production/_ext/411819097/ff.o
                0x000064c8                f_mkfs

.rodata.macPIC32CHwRegDcpt%169
                0x00006cbc      0x708
 .rodata.macPIC32CHwRegDcpt
                0x00006cbc      0x708 build/default/production/_ext/1546807373/drv_gmac.o

.rodata%170     0x000073c4      0x6cc
 .rodata        0x000073c4      0x6cc build/default/production/_ext/1033058136/ftp.o

.text.TCPIP_STACK_Task%171
                0x00007a90      0x5fc
 .text.TCPIP_STACK_Task
                0x00007a90      0x5fc build/default/production/_ext/1033058136/tcpip_manager.o
                0x00007a90                TCPIP_STACK_Task

.text._TcpSend%172
                0x0000808c      0x5e0
 .text._TcpSend
                0x0000808c      0x5e0 build/default/production/_ext/1033058136/tcp.o

.text.CommandIperfStart%173
                0x0000866c      0x5c0
 .text.CommandIperfStart
                0x0000866c      0x5c0 build/default/production/_ext/1033058136/iperf.o

.rodata%174     0x00008c2c      0x498
 .rodata        0x00008c2c      0x498 build/default/production/_ext/1033058136/tcpip_manager.o

.text.__fmt_a%175
                0x000090c8      0x498
 .text.__fmt_a  0x000090c8      0x498 c:/program files/microchip/xc32/v4.00/bin/bin/../../lib/gcc/pic32c/8.3.1/../../../../pic32c/lib/thumb/v7e-m+fp/hard\libc-musl.a(__fmt_a.o)
                0x000090c8                __fmt_a_needed
                0x000090c8                __fmt_a

.text.__fmt_fp%176
                0x00009560      0x488
 .text.__fmt_fp
                0x00009560      0x488 c:/program files/microchip/xc32/v4.00/bin/bin/../../lib/gcc/pic32c/8.3.1/../../../../pic32c/lib/thumb/v7e-m+fp/hard\libc-musl.a(__fmt_fp.o)
                0x00009560                __fmt_f_needed
                0x00009560                __fmt_fp

.text.SYS_CMD_Tasks%177
                0x000099e8      0x470
 .text.SYS_CMD_Tasks
                0x000099e8      0x470 build/default/production/_ext/1376093119/sys_command.o
                0x000099e8                SYS_CMD_Tasks

.text._TCPIP_DoInitialize%178
                0x00009e58      0x428
 .text._TCPIP_DoInitialize
                0x00009e58      0x428 build/default/production/_ext/1033058136/tcpip_manager.o

.text._DNS_ProcessPacket%179
                0x0000a280      0x3f8
 .text._DNS_ProcessPacket
                0x0000a280      0x3f8 build/default/production/_ext/1033058136/dns.o

.text.SYS_FS_MEDIA_MANAGER_Tasks%180
                0x0000a678      0x3f8
 .text.SYS_FS_MEDIA_MANAGER_Tasks
                0x0000a678      0x3f8 build/default/production/_ext/1269487135/sys_fs_media_manager.o
                0x0000a678                SYS_FS_MEDIA_MANAGER_Tasks

.text.GenericTxStart%181
                0x0000aa70      0x3cc
 .text.GenericTxStart
                0x0000aa70      0x3cc build/default/production/_ext/1033058136/iperf.o

.text.follow_path%182
                0x0000ae3c      0x39c
 .text.follow_path
                0x0000ae3c      0x39c build/default/production/_ext/411819097/ff.o

.text.mount_volume%183
                0x0000b1d8      0x398
 .text.mount_volume
                0x0000b1d8      0x398 build/default/production/_ext/411819097/ff.o

.text.DRV_PIC32CGMAC_LibRxGetPacket%184
                0x0000b570      0x378
 .text.DRV_PIC32CGMAC_LibRxGetPacket
                0x0000b570      0x378 build/default/production/_ext/1546807373/drv_gmac_lib_samE5x.o
                0x0000b570                DRV_PIC32CGMAC_LibRxGetPacket

.text.f_printf%185
                0x0000b8e8      0x350
 .text.f_printf
                0x0000b8e8      0x350 build/default/production/_ext/411819097/ff.o
                0x0000b8e8                f_printf

.text.TCPIP_FTP_ServerTask%186
                0x0000bc38      0x338
 .text.TCPIP_FTP_ServerTask
                0x0000bc38      0x338 build/default/production/_ext/1033058136/ftp.o
                0x0000bc38                TCPIP_FTP_ServerTask

.text.DRV_GMAC_Initialize%187
                0x0000bf70      0x308
 .text.DRV_GMAC_Initialize
                0x0000bf70      0x308 build/default/production/_ext/1546807373/drv_gmac.o
                0x0000bf70                DRV_GMAC_Initialize

.text.__printf_core%188
                0x0000c278      0x2f4
 .text.__printf_core
                0x0000c278      0x2f4 c:/program files/microchip/xc32/v4.00/bin/bin/../../lib/gcc/pic32c/8.3.1/../../../../pic32c/lib/thumb/v7e-m+fp/hard\libc-musl.a(__printf_core.o)
                0x0000c278                __printf_core

.text._TCP_Open%189
                0x0000c56c      0x2f0
 .text._TCP_Open
                0x0000c56c      0x2f0 build/default/production/_ext/1033058136/tcp.o

.text.TCPIP_TCP_FifoSizeAdjust%190
                0x0000c85c      0x2f0
 .text.TCPIP_TCP_FifoSizeAdjust
                0x0000c85c      0x2f0 build/default/production/_ext/1033058136/tcp.o
                0x0000c85c                TCPIP_TCP_FifoSizeAdjust

.text%191       0x0000cb4c      0x2d0
 .text          0x0000cb4c      0x2d0 c:/program files/microchip/xc32/v4.00/bin/bin/../../lib/gcc/pic32c/8.3.1/thumb/v7e-m+fp/hard\libgcc.a(_udivmoddi4.o)
                0x0000cb4c                __udivmoddi4

.text.TCPIP_ARP_Task%192
                0x0000ce1c      0x2c0
 .text.TCPIP_ARP_Task
                0x0000ce1c      0x2c0 build/default/production/_ext/1033058136/arp.o
                0x0000ce1c                TCPIP_ARP_Task

.text.dir_register%193
                0x0000d0dc      0x2b0
 .text.dir_register
                0x0000d0dc      0x2b0 build/default/production/_ext/411819097/ff.o

.text._DNS_Send_Query%194
                0x0000d38c      0x290
 .text._DNS_Send_Query
                0x0000d38c      0x290 build/default/production/_ext/1033058136/dns.o

.rodata%195     0x0000d61c      0x290
 .rodata        0x0000d61c      0x290 build/default/production/_ext/1376093119/sys_command.o

.text.f_open%196
                0x0000d8ac      0x268
 .text.f_open   0x0000d8ac      0x268 build/default/production/_ext/411819097/ff.o
                0x0000d8ac                f_open

.text.ReportBW_Jitter_Loss%197
                0x0000db14      0x25c
 .text.ReportBW_Jitter_Loss
                0x0000db14      0x25c build/default/production/_ext/1033058136/iperf.o

.text.TCPIP_ANNOUNCE_Task%198
                0x0000dd70      0x250
 .text.TCPIP_ANNOUNCE_Task
                0x0000dd70      0x250 build/default/production/_ext/1033058136/tcpip_announce.o
                0x0000dd70                TCPIP_ANNOUNCE_Task

.text.__aeabi_dadd%199
                0x0000dfc0      0x240
 .text.__aeabi_dadd
                0x0000dfc0      0x240 c:/program files/microchip/xc32/v4.00/bin/bin/../../lib/gcc/pic32c/8.3.1/../../../../pic32c/lib/thumb/v7e-m+fp/hard\libm-emfloat.a(floatasmops_arm.o)
                0x0000dfc0                __aeabi_dadd

.text.TCPIP_STACK_BringNetUp%200
                0x0000e200      0x23c
 .text.TCPIP_STACK_BringNetUp
                0x0000e200      0x23c build/default/production/_ext/1033058136/tcpip_manager.o

.text.TCPIP_IPV4_Task%201
                0x0000e43c      0x234
 .text.TCPIP_IPV4_Task
                0x0000e43c      0x234 build/default/production/_ext/1033058136/ipv4.o
                0x0000e43c                TCPIP_IPV4_Task

.text.TCPIP_UDP_OptionsSet%202
                0x0000e670      0x228
 .text.TCPIP_UDP_OptionsSet
                0x0000e670      0x228 build/default/production/_ext/1033058136/udp.o
                0x0000e670                TCPIP_UDP_OptionsSet

.text.TCPIP_UDP_Flush%203
                0x0000e898      0x220
 .text.TCPIP_UDP_Flush
                0x0000e898      0x220 build/default/production/_ext/1033058136/udp.o
                0x0000e898                TCPIP_UDP_Flush

.text.TCPIP_DNS_ClientInitialize%204
                0x0000eab8      0x214
 .text.TCPIP_DNS_ClientInitialize
                0x0000eab8      0x214 build/default/production/_ext/1033058136/dns.o
                0x0000eab8                TCPIP_DNS_ClientInitialize

.text.TCPIP_IPV4_PktTx%205
                0x0000eccc      0x210
 .text.TCPIP_IPV4_PktTx
                0x0000eccc      0x210 build/default/production/_ext/1033058136/ipv4.o
                0x0000eccc                TCPIP_IPV4_PktTx

.text.APP_Tasks%206
                0x0000eedc      0x208
 .text.APP_Tasks
                0x0000eedc      0x208 build/default/production/_ext/1360937237/app.o
                0x0000eedc                APP_Tasks

.text.TCPIP_UDP_Task%207
                0x0000f0e4      0x200
 .text.TCPIP_UDP_Task
                0x0000f0e4      0x200 build/default/production/_ext/1033058136/udp.o
                0x0000f0e4                TCPIP_UDP_Task

.text.NET_PRES_SocketOpen%208
                0x0000f2e4      0x200
 .text.NET_PRES_SocketOpen
                0x0000f2e4      0x200 build/default/production/_ext/1508031553/net_pres.o
                0x0000f2e4                NET_PRES_SocketOpen

.rodata.cvt1.8309%209
                0x0000f4e4      0x1f4
 .rodata.cvt1.8309
                0x0000f4e4      0x1f4 build/default/production/_ext/411819097/ffunicode.o

.text.TCPIP_ARP_Initialize%210
                0x0000f6d8      0x1e4
 .text.TCPIP_ARP_Initialize
                0x0000f6d8      0x1e4 build/default/production/_ext/1033058136/arp.o
                0x0000f6d8                TCPIP_ARP_Initialize

.text.SERCOM1_USART_InterruptHandler%211
                0x0000f8bc      0x1d4
 .text.SERCOM1_USART_InterruptHandler
                0x0000f8bc      0x1d4 build/default/production/_ext/504274921/plib_sercom1_usart.o
                0x0000f8bc                SERCOM1_USART_InterruptHandler

.text.GenericTxEnd%212
                0x0000fa90      0x1cc
 .text.GenericTxEnd
                0x0000fa90      0x1cc build/default/production/_ext/1033058136/iperf.o

.text.TCPIP_FTP_ServerInitialize%213
                0x0000fc5c      0x1c8
 .text.TCPIP_FTP_ServerInitialize
                0x0000fc5c      0x1c8 build/default/production/_ext/1033058136/ftp.o
                0x0000fc5c                TCPIP_FTP_ServerInitialize

.text.f_write%214
                0x0000fe24      0x1c6
 .text.f_write  0x0000fe24      0x1c6 build/default/production/_ext/411819097/ff.o
                0x0000fe24                f_write

.text.dir_find%215
                0x0000ffec      0x1c4
 .text.dir_find
                0x0000ffec      0x1c4 build/default/production/_ext/411819097/ff.o

.text.__aeabi_ddiv%216
                0x000101b0      0x1c4
 .text.__aeabi_ddiv
                0x000101b0      0x1c4 c:/program files/microchip/xc32/v4.00/bin/bin/../../lib/gcc/pic32c/8.3.1/../../../../pic32c/lib/thumb/v7e-m+fp/hard\libm-emfloat.a(floatasmops_arm.o)
                0x000101b0                __aeabi_ddiv

.text.NET_PRES_Initialize%217
                0x00010374      0x1bc
 .text.NET_PRES_Initialize
                0x00010374      0x1bc build/default/production/_ext/1508031553/net_pres.o
                0x00010374                NET_PRES_Initialize

.text.DRV_PIC32CGMAC_LibRxFilterHash_Calculate%218
                0x00010530      0x1b0
 .text.DRV_PIC32CGMAC_LibRxFilterHash_Calculate
                0x00010530      0x1b0 build/default/production/_ext/1546807373/drv_gmac_lib_samE5x.o
                0x00010530                DRV_PIC32CGMAC_LibRxFilterHash_Calculate

.text.malloc%219
                0x000106e0      0x1b0
 .text.malloc   0x000106e0      0x1b0 c:/program files/microchip/xc32/v4.00/bin/bin/../../lib/gcc/pic32c/8.3.1/../../../../pic32c/lib/thumb/v7e-m+fp/hard\libc-musl.a(malloc.o)
                0x000106e0                malloc

.text.DRV_GMAC_PacketRx%220
                0x00010890      0x1ac
 .text.DRV_GMAC_PacketRx
                0x00010890      0x1ac build/default/production/_ext/1546807373/drv_gmac.o
                0x00010890                DRV_GMAC_PacketRx

.text._DRV_ETHPHY_DefaultDetect%221
                0x00010a3c      0x1a6
 .text._DRV_ETHPHY_DefaultDetect
                0x00010a3c      0x1a6 build/default/production/_ext/444070925/drv_ethphy.o

.text.f_read%222
                0x00010be2      0x198
 .text.f_read   0x00010be2      0x198 build/default/production/_ext/411819097/ff.o
                0x00010be2                f_read

.text.f_lseek%223
                0x00010d7a      0x192
 .text.f_lseek  0x00010d7a      0x192 build/default/production/_ext/411819097/ff.o
                0x00010d7a                f_lseek

.text.DRV_PIC32CGMAC_LibTxAckPacket%224
                0x00010f0c      0x190
 .text.DRV_PIC32CGMAC_LibTxAckPacket
                0x00010f0c      0x190 build/default/production/_ext/1546807373/drv_gmac_lib_samE5x.o
                0x00010f0c                DRV_PIC32CGMAC_LibTxAckPacket

.text.DRV_SDMMC_SetupXfer%225
                0x0001109c      0x190
 .text.DRV_SDMMC_SetupXfer
                0x0001109c      0x190 build/default/production/_ext/20954303/drv_sdmmc.o
                0x0001109c                DRV_SDMMC_SetupXfer

.text.CommandIperfSize%226
                0x0001122c      0x190
 .text.CommandIperfSize
                0x0001122c      0x190 build/default/production/_ext/1033058136/iperf.o

.text.create_partition%227
                0x000113bc      0x188
 .text.create_partition
                0x000113bc      0x188 build/default/production/_ext/411819097/ff.o

.text.SYS_FS_MEDIA_MANAGER_SectorWrite%228
                0x00011544      0x188
 .text.SYS_FS_MEDIA_MANAGER_SectorWrite
                0x00011544      0x188 build/default/production/_ext/1269487135/sys_fs_media_manager.o
                0x00011544                SYS_FS_MEDIA_MANAGER_SectorWrite

.text.Shell_FileAbsPath%229
                0x000116cc      0x180
 .text.Shell_FileAbsPath
                0x000116cc      0x180 build/default/production/_ext/1751889202/sys_fs_shell.o

.text.f_setlabel%230
                0x0001184c      0x180
 .text.f_setlabel
                0x0001184c      0x180 build/default/production/_ext/411819097/ff.o
                0x0001184c                f_setlabel

.text._UDPOpen%231
                0x000119cc      0x178
 .text._UDPOpen
                0x000119cc      0x178 build/default/production/_ext/1033058136/udp.o

.text.TCPIP_TCP_ArrayPut%232
                0x00011b44      0x170
 .text.TCPIP_TCP_ArrayPut
                0x00011b44      0x170 build/default/production/_ext/1033058136/tcp.o
                0x00011b44                TCPIP_TCP_ArrayPut

.text.get_fileinfo%233
                0x00011cb4      0x168
 .text.get_fileinfo
                0x00011cb4      0x168 build/default/production/_ext/411819097/ff.o

.text.CommandHelp%234
                0x00011e1c      0x164
 .text.CommandHelp
                0x00011e1c      0x164 build/default/production/_ext/1376093119/sys_command.o

.text.f_rename%235
                0x00011f80      0x162
 .text.f_rename
                0x00011f80      0x162 build/default/production/_ext/411819097/ff.o
                0x00011f80                f_rename

.text.DRV_MIIM_Tasks%236
                0x000120e4      0x158
 .text.DRV_MIIM_Tasks
                0x000120e4      0x158 build/default/production/_ext/438849557/drv_miim.o
                0x000120e4                DRV_MIIM_Tasks

.text.TCPIP_UDP_Bind%237
                0x0001223c      0x158
 .text.TCPIP_UDP_Bind
                0x0001223c      0x158 build/default/production/_ext/1033058136/udp.o
                0x0001223c                TCPIP_UDP_Bind

.text.sendto%238
                0x00012394      0x148
 .text.sendto   0x00012394      0x148 build/default/production/_ext/1033058136/berkeley_api.o
                0x00012394                sendto

.text._TcpCloseSocket%239
                0x000124dc      0x140
 .text._TcpCloseSocket
                0x000124dc      0x140 build/default/production/_ext/1033058136/tcp.o

.text.SYS_FS_DirSearch%240
                0x0001261c      0x140
 .text.SYS_FS_DirSearch
                0x0001261c      0x140 build/default/production/_ext/1269487135/sys_fs.o
                0x0001261c                SYS_FS_DirSearch

.text._MACDeinit%241
                0x0001275c      0x13c
 .text._MACDeinit
                0x0001275c      0x13c build/default/production/_ext/1546807373/drv_gmac.o

.text.f_mkdir%242
                0x00012898      0x13a
 .text.f_mkdir  0x00012898      0x13a build/default/production/_ext/411819097/ff.o
                0x00012898                f_mkdir

.text._LoadNetworkConfig%243
                0x000129d2      0x138
 .text._LoadNetworkConfig
                0x000129d2      0x138 build/default/production/_ext/1033058136/tcpip_manager.o

.text.TCPIP_UDP_OptionsGet%244
                0x00012b0a      0x138
 .text.TCPIP_UDP_OptionsGet
                0x00012b0a      0x138 build/default/production/_ext/1033058136/udp.o
                0x00012b0a                TCPIP_UDP_OptionsGet

.text.dir_read%245
                0x00012c44      0x138
 .text.dir_read
                0x00012c44      0x138 build/default/production/_ext/411819097/ff.o

.text.f_getcwd%246
                0x00012d7c      0x138
 .text.f_getcwd
                0x00012d7c      0x138 build/default/production/_ext/411819097/ff.o
                0x00012d7c                f_getcwd

.text.listen%247
                0x00012eb4      0x134
 .text.listen   0x00012eb4      0x134 build/default/production/_ext/1033058136/berkeley_api.o
                0x00012eb4                listen

.text.TCPIP_UDP_Deinitialize%248
                0x00012fe8      0x134
 .text.TCPIP_UDP_Deinitialize
                0x00012fe8      0x134 build/default/production/_ext/1033058136/udp.o
                0x00012fe8                TCPIP_UDP_Deinitialize

.text.closesocket%249
                0x0001311c      0x130
 .text.closesocket
                0x0001311c      0x130 build/default/production/_ext/1033058136/berkeley_api.o
                0x0001311c                closesocket

.text.CommandIperfNetIf%250
                0x0001324c      0x130
 .text.CommandIperfNetIf
                0x0001324c      0x130 build/default/production/_ext/1033058136/iperf.o

.text.__aeabi_dmul%251
                0x0001337c      0x130
 .text.__aeabi_dmul
                0x0001337c      0x130 c:/program files/microchip/xc32/v4.00/bin/bin/../../lib/gcc/pic32c/8.3.1/../../../../pic32c/lib/thumb/v7e-m+fp/hard\libm-emfloat.a(floatasmops_arm.o)
                0x0001337c                __aeabi_dmul

.text._TCPIP_HEAP_Free%252
                0x000134ac      0x12e
 .text._TCPIP_HEAP_Free
                0x000134ac      0x12e build/default/production/_ext/1033058136/tcpip_heap_internal.o

.text._DRV_SDMMC_CommandSend%253
                0x000135dc      0x12c
 .text._DRV_SDMMC_CommandSend
                0x000135dc      0x12c build/default/production/_ext/20954303/drv_sdmmc.o

.text.put_fat%254
                0x00013708      0x12c
 .text.put_fat  0x00013708      0x12c build/default/production/_ext/411819097/ff.o

.text.TCPIP_TCP_Initialize%255
                0x00013834      0x124
 .text.TCPIP_TCP_Initialize
                0x00013834      0x124 build/default/production/_ext/1033058136/tcp.o
                0x00013834                TCPIP_TCP_Initialize

.text.TCPIP_IPV4_Initialize%256
                0x00013958      0x124
 .text.TCPIP_IPV4_Initialize
                0x00013958      0x124 build/default/production/_ext/1033058136/ipv4.o
                0x00013958                TCPIP_IPV4_Initialize

.text.NET_PRES_SocketWriteIsReady%257
                0x00013a7c      0x124
 .text.NET_PRES_SocketWriteIsReady
                0x00013a7c      0x124 build/default/production/_ext/1508031553/net_pres.o
                0x00013a7c                NET_PRES_SocketWriteIsReady

.text.__fmt_x%258
                0x00013ba0      0x124
 .text.__fmt_x  0x00013ba0      0x124 c:/program files/microchip/xc32/v4.00/bin/bin/../../lib/gcc/pic32c/8.3.1/../../../../pic32c/lib/thumb/v7e-m+fp/hard\libc-musl.a(__fmt_x.o)
                0x00013ba0                __fmt_x_needed
                0x00013ba0                __fmt_x

.text.DRV_GMAC_Tasks%259
                0x00013cc4      0x120
 .text.DRV_GMAC_Tasks
                0x00013cc4      0x120 build/default/production/_ext/1546807373/drv_gmac.o
                0x00013cc4                DRV_GMAC_Tasks

.text.DRV_PIC32CGMAC_LibRxBuffersAppend%260
                0x00013de4      0x120
 .text.DRV_PIC32CGMAC_LibRxBuffersAppend
                0x00013de4      0x120 build/default/production/_ext/1546807373/drv_gmac_lib_samE5x.o
                0x00013de4                DRV_PIC32CGMAC_LibRxBuffersAppend

.text.TCPIP_IPV4_PacketFormatTx%261
                0x00013f04      0x120
 .text.TCPIP_IPV4_PacketFormatTx
                0x00013f04      0x120 build/default/production/_ext/1033058136/ipv4.o
                0x00013f04                TCPIP_IPV4_PacketFormatTx

.text.TCPIP_Helper_StringToIPAddress%262
                0x00014024      0x120
 .text.TCPIP_Helper_StringToIPAddress
                0x00014024      0x120 build/default/production/_ext/1033058136/tcpip_helpers.o
                0x00014024                TCPIP_Helper_StringToIPAddress

.text.create_chain%263
                0x00014144      0x11e
 .text.create_chain
                0x00014144      0x11e build/default/production/_ext/411819097/ff.o

.text.DRV_GMAC_EventMaskSet%264
                0x00014264      0x11c
 .text.DRV_GMAC_EventMaskSet
                0x00014264      0x11c build/default/production/_ext/1546807373/drv_gmac.o
                0x00014264                DRV_GMAC_EventMaskSet

.text.NET_PRES_SocketRead%265
                0x00014380      0x114
 .text.NET_PRES_SocketRead
                0x00014380      0x114 build/default/production/_ext/1508031553/net_pres.o
                0x00014380                NET_PRES_SocketRead

.text.SYS_FS_FileOpen%266
                0x00014494      0x110
 .text.SYS_FS_FileOpen
                0x00014494      0x110 build/default/production/_ext/1269487135/sys_fs.o
                0x00014494                SYS_FS_FileOpen

.text.check_fs%267
                0x000145a4      0x10c
 .text.check_fs
                0x000145a4      0x10c build/default/production/_ext/411819097/ff.o

.text.TCPIP_TCP_OptionsSet%268
                0x000146b0      0x106
 .text.TCPIP_TCP_OptionsSet
                0x000146b0      0x106 build/default/production/_ext/1033058136/tcp.o
                0x000146b0                TCPIP_TCP_OptionsSet

.text.DRV_PIC32CGMAC_LibTxSendPacket%269
                0x000147b8      0x100
 .text.DRV_PIC32CGMAC_LibTxSendPacket
                0x000147b8      0x100 build/default/production/_ext/1546807373/drv_gmac_lib_samE5x.o
                0x000147b8                DRV_PIC32CGMAC_LibTxSendPacket

.text.accept%270
                0x000148b8      0x100
 .text.accept   0x000148b8      0x100 build/default/production/_ext/1033058136/berkeley_api.o
                0x000148b8                accept

.rodata.uc437%271
                0x000149b8      0x100
 .rodata.uc437  0x000149b8      0x100 build/default/production/_ext/411819097/ffunicode.o

.text.DRV_SDMMC_Open%272
                0x00014ab8       0xfc
 .text.DRV_SDMMC_Open
                0x00014ab8       0xfc build/default/production/_ext/20954303/drv_sdmmc.o
                0x00014ab8                DRV_SDMMC_Open

.text.socket%273
                0x00014bb4       0xfc
 .text.socket   0x00014bb4       0xfc build/default/production/_ext/1033058136/berkeley_api.o
                0x00014bb4                socket

.text.CLOCK_Initialize%274
                0x00014cb0       0xf8
 .text.CLOCK_Initialize
                0x00014cb0       0xf8 build/default/production/_ext/1984496892/plib_clock.o
                0x00014cb0                CLOCK_Initialize

.text.free%275  0x00014da8       0xf8
 .text.free     0x00014da8       0xf8 c:/program files/microchip/xc32/v4.00/bin/bin/../../lib/gcc/pic32c/8.3.1/../../../../pic32c/lib/thumb/v7e-m+fp/hard\libc-musl.a(malloc.o)
                0x00014da8                free

.text.TCPIP_ANNOUNCE_Initialize%276
                0x00014ea0       0xf4
 .text.TCPIP_ANNOUNCE_Initialize
                0x00014ea0       0xf4 build/default/production/_ext/1033058136/tcpip_announce.o
                0x00014ea0                TCPIP_ANNOUNCE_Initialize

.text.SDHC1_ClockSet%277
                0x00014f94       0xf4
 .text.SDHC1_ClockSet
                0x00014f94       0xf4 build/default/production/_ext/1865600094/plib_sdhc1.o
                0x00014f94                SDHC1_ClockSet

.text.TCPIP_DNS_ClientTask%278
                0x00015088       0xf0
 .text.TCPIP_DNS_ClientTask
                0x00015088       0xf0 build/default/production/_ext/1033058136/dns.o
                0x00015088                TCPIP_DNS_ClientTask

.text.TCPIP_UDP_Initialize%279
                0x00015178       0xf0
 .text.TCPIP_UDP_Initialize
                0x00015178       0xf0 build/default/production/_ext/1033058136/udp.o
                0x00015178                TCPIP_UDP_Initialize

.text.DRV_SDMMC_Initialize%280
                0x00015268       0xec
 .text.DRV_SDMMC_Initialize
                0x00015268       0xec build/default/production/_ext/20954303/drv_sdmmc.o
                0x00015268                DRV_SDMMC_Initialize

.text.Shell_Cwd%281
                0x00015354       0xec
 .text.Shell_Cwd
                0x00015354       0xec build/default/production/_ext/1751889202/sys_fs_shell.o

.text._ARPProbeAddress%282
                0x00015440       0xec
 .text._ARPProbeAddress
                0x00015440       0xec build/default/production/_ext/1033058136/arp.o

.text.SYS_FS_Shell_Create%283
                0x0001552c       0xe8
 .text.SYS_FS_Shell_Create
                0x0001552c       0xe8 build/default/production/_ext/1751889202/sys_fs_shell.o
                0x0001552c                SYS_FS_Shell_Create

.text.SDHC1_CommandSend%284
                0x00015614       0xe8
 .text.SDHC1_CommandSend
                0x00015614       0xe8 build/default/production/_ext/1865600094/plib_sdhc1.o
                0x00015614                SDHC1_CommandSend

.text._DRV_MIIM_StartOp%285
                0x000156fc       0xe0
 .text._DRV_MIIM_StartOp
                0x000156fc       0xe0 build/default/production/_ext/438849557/drv_miim.o

.text.TCPIP_ICMP_Task%286
                0x000157dc       0xde
 .text.TCPIP_ICMP_Task
                0x000157dc       0xde build/default/production/_ext/1033058136/icmp.o
                0x000157dc                TCPIP_ICMP_Task

.text.TCPIP_UDP_ArrayGet%287
                0x000158ba       0xde
 .text.TCPIP_UDP_ArrayGet
                0x000158ba       0xde build/default/production/_ext/1033058136/udp.o
                0x000158ba                TCPIP_UDP_ArrayGet

.text.DRV_ETHPHY_Setup%288
                0x00015998       0xdc
 .text.DRV_ETHPHY_Setup
                0x00015998       0xdc build/default/production/_ext/444070925/drv_ethphy.o
                0x00015998                DRV_ETHPHY_Setup

.text.SYS_TIME_PLIBCallback%289
                0x00015a74       0xdc
 .text.SYS_TIME_PLIBCallback
                0x00015a74       0xdc build/default/production/_ext/101884895/sys_time.o

.text.f_getfree%290
                0x00015b50       0xda
 .text.f_getfree
                0x00015b50       0xda build/default/production/_ext/411819097/ff.o
                0x00015b50                f_getfree

.text._Tcpv4TxAckFnc%291
                0x00015c2c       0xd8
 .text._Tcpv4TxAckFnc
                0x00015c2c       0xd8 build/default/production/_ext/1033058136/tcp.o

.text.SERCOM1_USART_Write%292
                0x00015d04       0xd8
 .text.SERCOM1_USART_Write
                0x00015d04       0xd8 build/default/production/_ext/504274921/plib_sercom1_usart.o
                0x00015d04                SERCOM1_USART_Write

.text._cfgBsdSocket%293
                0x00015ddc       0xd4
 .text._cfgBsdSocket
                0x00015ddc       0xd4 build/default/production/_ext/1033058136/berkeley_api.o
                0x00015ddc                _cfgBsdSocket

.text._DRV_ETHPHY_NegResultPhase_ANAD%294
                0x00015eb0       0xd2
 .text._DRV_ETHPHY_NegResultPhase_ANAD
                0x00015eb0       0xd2 build/default/production/_ext/444070925/drv_ethphy.o

.text._TCPIP_HEAP_Malloc%295
                0x00015f82       0xd0
 .text._TCPIP_HEAP_Malloc
                0x00015f82       0xd0 build/default/production/_ext/1033058136/tcpip_heap_internal.o

.text.get_fat%296
                0x00016052       0xd0
 .text.get_fat  0x00016052       0xd0 build/default/production/_ext/411819097/ff.o

.text.TCPIP_TCP_ArrayGet%297
                0x00016124       0xcc
 .text.TCPIP_TCP_ArrayGet
                0x00016124       0xcc build/default/production/_ext/1033058136/tcp.o
                0x00016124                TCPIP_TCP_ArrayGet

.text.TCPIP_FTP_CreateDataSocket%298
                0x000161f0       0xcc
 .text.TCPIP_FTP_CreateDataSocket
                0x000161f0       0xcc build/default/production/_ext/1033058136/ftp.o

.text.bind%299  0x000162bc       0xcc
 .text.bind     0x000162bc       0xcc build/default/production/_ext/1033058136/berkeley_api.o
                0x000162bc                bind

.text.TCPIP_UDP_OpenServerSkt%300
                0x00016388       0xcc
 .text.TCPIP_UDP_OpenServerSkt
                0x00016388       0xcc build/default/production/_ext/1033058136/udp.o
                0x00016388                TCPIP_UDP_OpenServerSkt

.text.SDHC1_InterruptHandler%301
                0x00016454       0xcc
 .text.SDHC1_InterruptHandler
                0x00016454       0xcc build/default/production/_ext/1865600094/plib_sdhc1.o
                0x00016454                SDHC1_InterruptHandler

.text.f_unlink%302
                0x00016520       0xcc
 .text.f_unlink
                0x00016520       0xcc build/default/production/_ext/411819097/ff.o
                0x00016520                f_unlink

.text.floor%303
                0x000165f0       0xcc
 .text.floor    0x000165f0       0xcc c:/program files/microchip/xc32/v4.00/bin/bin/../../lib/gcc/pic32c/8.3.1/../../../../pic32c/lib/thumb/v7e-m+fp/hard\libm-emfloat.a(lib_a-_FLOOR.o)
                0x000165f0                floor

.text.DRV_GMAC_PacketTx%304
                0x000166bc       0xc8
 .text.DRV_GMAC_PacketTx
                0x000166bc       0xc8 build/default/production/_ext/1546807373/drv_gmac.o
                0x000166bc                DRV_GMAC_PacketTx

.text.DRV_PIC32CGMAC_LibRxInit%305
                0x00016784       0xc8
 .text.DRV_PIC32CGMAC_LibRxInit
                0x00016784       0xc8 build/default/production/_ext/1546807373/drv_gmac_lib_samE5x.o
                0x00016784                DRV_PIC32CGMAC_LibRxInit

.text.dir_next%306
                0x0001684c       0xc8
 .text.dir_next
                0x0001684c       0xc8 build/default/production/_ext/411819097/ff.o

.text.SYS_FS_FileSeek%307
                0x00016914       0xc8
 .text.SYS_FS_FileSeek
                0x00016914       0xc8 build/default/production/_ext/1269487135/sys_fs.o
                0x00016914                SYS_FS_FileSeek

.text.SYS_FS_DirOpen%308
                0x000169dc       0xc8
 .text.SYS_FS_DirOpen
                0x000169dc       0xc8 build/default/production/_ext/1269487135/sys_fs.o
                0x000169dc                SYS_FS_DirOpen

.text.TCPIP_TCP_Deinitialize%309
                0x00016aa4       0xc4
 .text.TCPIP_TCP_Deinitialize
                0x00016aa4       0xc4 build/default/production/_ext/1033058136/tcp.o
                0x00016aa4                TCPIP_TCP_Deinitialize

.text.TCPIP_TCP_OptionsGet%310
                0x00016b68       0xc4
 .text.TCPIP_TCP_OptionsGet
                0x00016b68       0xc4 build/default/production/_ext/1033058136/tcp.o
                0x00016b68                TCPIP_TCP_OptionsGet

.text.BerkeleySocketInit%311
                0x00016c2c       0xc4
 .text.BerkeleySocketInit
                0x00016c2c       0xc4 build/default/production/_ext/1033058136/berkeley_api.o
                0x00016c2c                BerkeleySocketInit

.text.NET_PRES_SocketDisconnect%312
                0x00016cf0       0xc4
 .text.NET_PRES_SocketDisconnect
                0x00016cf0       0xc4 build/default/production/_ext/1508031553/net_pres.o
                0x00016cf0                NET_PRES_SocketDisconnect

.text.SYS_FS_GetDisk%313
                0x00016db4       0xc4
 .text.SYS_FS_GetDisk
                0x00016db4       0xc4 build/default/production/_ext/1269487135/sys_fs.o

.text.f_truncate%314
                0x00016e78       0xc2
 .text.f_truncate
                0x00016e78       0xc2 build/default/production/_ext/411819097/ff.o
                0x00016e78                f_truncate

.text.TCPIP_TCP_Bind%315
                0x00016f3a       0xc0
 .text.TCPIP_TCP_Bind
                0x00016f3a       0xc0 build/default/production/_ext/1033058136/tcp.o
                0x00016f3a                TCPIP_TCP_Bind

.text.NET_PRES_Tasks%316
                0x00016ffc       0xc0
 .text.NET_PRES_Tasks
                0x00016ffc       0xc0 build/default/production/_ext/1508031553/net_pres.o
                0x00016ffc                NET_PRES_Tasks

.text._DRV_MIIM_ClientDeallocate%317
                0x000170bc       0xbc
 .text._DRV_MIIM_ClientDeallocate
                0x000170bc       0xbc build/default/production/_ext/438849557/drv_miim.o

.text.TCPIP_IPV4_DeInitialize%318
                0x00017178       0xbc
 .text.TCPIP_IPV4_DeInitialize
                0x00017178       0xbc build/default/production/_ext/1033058136/ipv4.o
                0x00017178                TCPIP_IPV4_DeInitialize

.text.TCPIP_HEAP_CreateInternal%319
                0x00017234       0xbc
 .text.TCPIP_HEAP_CreateInternal
                0x00017234       0xbc build/default/production/_ext/1033058136/tcpip_heap_internal.o
                0x00017234                TCPIP_HEAP_CreateInternal

.text.TCPIP_STACK_KillStack%320
                0x000172f0       0xbc
 .text.TCPIP_STACK_KillStack
                0x000172f0       0xbc build/default/production/_ext/1033058136/tcpip_manager.o

.rodata.cvt2.8310%321
                0x000173ac       0xbc
 .rodata.cvt2.8310
                0x000173ac       0xbc build/default/production/_ext/411819097/ffunicode.o

.text._GetMaxSegSizeOption%322
                0x00017468       0xba
 .text._GetMaxSegSizeOption
                0x00017468       0xba build/default/production/_ext/1033058136/tcp.o

.text.TCPIP_IPV4_ArpHandler%323
                0x00017524       0xb8
 .text.TCPIP_IPV4_ArpHandler
                0x00017524       0xb8 build/default/production/_ext/1033058136/ipv4.o

.text._UDPv4TxAckFnc%324
                0x000175dc       0xb8
 .text._UDPv4TxAckFnc
                0x000175dc       0xb8 build/default/production/_ext/1033058136/udp.o

.text.CommandIperfStop%325
                0x00017694       0xb8
 .text.CommandIperfStop
                0x00017694       0xb8 build/default/production/_ext/1033058136/iperf.o

.text.TCPIP_IPERF_Initialize%326
                0x0001774c       0xb8
 .text.TCPIP_IPERF_Initialize
                0x0001774c       0xb8 build/default/production/_ext/1033058136/iperf.o
                0x0001774c                TCPIP_IPERF_Initialize

.rodata%327     0x00017804       0xb8
 .rodata        0x00017804       0xb8 build/default/production/_ext/1360937237/app.o

.text._ARPSendIfPkt%328
                0x000178bc       0xb4
 .text._ARPSendIfPkt
                0x000178bc       0xb4 build/default/production/_ext/1033058136/arp.o

.text.ff_wtoupper%329
                0x00017970       0xb4
 .text.ff_wtoupper
                0x00017970       0xb4 build/default/production/_ext/411819097/ffunicode.o
                0x00017970                ff_wtoupper

.text.SYS_TIME_HwTimerCompareUpdate%330
                0x00017a24       0xb4
 .text.SYS_TIME_HwTimerCompareUpdate
                0x00017a24       0xb4 build/default/production/_ext/101884895/sys_time.o

.text.dir_sdi%331
                0x00017ad8       0xb0
 .text.dir_sdi  0x00017ad8       0xb0 build/default/production/_ext/411819097/ff.o

.text.SYS_TIME_TimerObjectCreate%332
                0x00017b88       0xb0
 .text.SYS_TIME_TimerObjectCreate
                0x00017b88       0xb0 build/default/production/_ext/101884895/sys_time.o

.text.NET_PRES_SocketClose%333
                0x00017c38       0xac
 .text.NET_PRES_SocketClose
                0x00017c38       0xac build/default/production/_ext/1508031553/net_pres.o
                0x00017c38                NET_PRES_SocketClose

.text.NET_PRES_SocketReadIsReady%334
                0x00017ce4       0xac
 .text.NET_PRES_SocketReadIsReady
                0x00017ce4       0xac build/default/production/_ext/1508031553/net_pres.o
                0x00017ce4                NET_PRES_SocketReadIsReady

.text.PORT_Initialize%335
                0x00017d90       0xac
 .text.PORT_Initialize
                0x00017d90       0xac build/default/production/_ext/1865521619/plib_port.o
                0x00017d90                PORT_Initialize

.text._TcpDisconnect%336
                0x00017e3c       0xaa
 .text._TcpDisconnect
                0x00017e3c       0xaa build/default/production/_ext/1033058136/tcp.o

.text._DRV_ETHPHY_SetupPhaseReset%337
                0x00017ee8       0xa8
 .text._DRV_ETHPHY_SetupPhaseReset
                0x00017ee8       0xa8 build/default/production/_ext/444070925/drv_ethphy.o

.text.TCPIP_TCP_ServerOpen%338
                0x00017f90       0xa8
 .text.TCPIP_TCP_ServerOpen
                0x00017f90       0xa8 build/default/production/_ext/1033058136/tcp.o
                0x00017f90                TCPIP_TCP_ServerOpen

.text.__fmt_d%339
                0x00018038       0xa8
 .text.__fmt_d  0x00018038       0xa8 c:/program files/microchip/xc32/v4.00/bin/bin/../../lib/gcc/pic32c/8.3.1/../../../../pic32c/lib/thumb/v7e-m+fp/hard\libc-musl.a(__fmt_d.o)
                0x00018038                __fmt_d
                0x00018038                __fmt_d_needed

.text.TCPIP_UDP_RemoteBind%340
                0x000180e0       0xa6
 .text.TCPIP_UDP_RemoteBind
                0x000180e0       0xa6 build/default/production/_ext/1033058136/udp.o
                0x000180e0                TCPIP_UDP_RemoteBind

.text.DRV_MIIM_Setup%341
                0x00018188       0xa4
 .text.DRV_MIIM_Setup
                0x00018188       0xa4 build/default/production/_ext/438849557/drv_miim.o
                0x00018188                DRV_MIIM_Setup

.text.SYS_TIME_Initialize%342
                0x0001822c       0xa4
 .text.SYS_TIME_Initialize
                0x0001822c       0xa4 build/default/production/_ext/101884895/sys_time.o
                0x0001822c                SYS_TIME_Initialize

.text._DRV_ETHPHY_SetupPhaseNegotiate_SubPhase0%343
                0x000182d0       0xa2
 .text._DRV_ETHPHY_SetupPhaseNegotiate_SubPhase0
                0x000182d0       0xa2 build/default/production/_ext/444070925/drv_ethphy.o

.text.f_getlabel%344
                0x00018372       0xa2
 .text.f_getlabel
                0x00018372       0xa2 build/default/production/_ext/411819097/ff.o
                0x00018372                f_getlabel

.text._ARPDeleteResources%345
                0x00018414       0xa0
 .text._ARPDeleteResources
                0x00018414       0xa0 build/default/production/_ext/1033058136/arp.o

.text._UDPv4AllocateSktTxBuffer%346
                0x000184b4       0xa0
 .text._UDPv4AllocateSktTxBuffer
                0x000184b4       0xa0 build/default/production/_ext/1033058136/udp.o

.text.TCPIP_UDP_Disconnect%347
                0x00018554       0xa0
 .text.TCPIP_UDP_Disconnect
                0x00018554       0xa0 build/default/production/_ext/1033058136/udp.o
                0x00018554                TCPIP_UDP_Disconnect

.text.NET_PRES_SocketSignalHandlerDeregister%348
                0x000185f4       0xa0
 .text.NET_PRES_SocketSignalHandlerDeregister
                0x000185f4       0xa0 build/default/production/_ext/1508031553/net_pres.o
                0x000185f4                NET_PRES_SocketSignalHandlerDeregister

.text.SYS_Initialize%349
                0x00018694       0xa0
 .text.SYS_Initialize
                0x00018694       0xa0 build/default/production/_ext/1171490990/initialization.o
                0x00018694                SYS_Initialize

.text.__pop_int%350
                0x00018734       0xa0
 .text.__pop_int
                0x00018734       0xa0 c:/program files/microchip/xc32/v4.00/bin/bin/../../lib/gcc/pic32c/8.3.1/../../../../pic32c/lib/thumb/v7e-m+fp/hard\libc-musl.a(__pop_int.o)
                0x00018734                __pop_int_needed
                0x00018734                __pop_int

.text._DRV_PHY_SMITransferStart%351
                0x000187d4       0x9e
 .text._DRV_PHY_SMITransferStart
                0x000187d4       0x9e build/default/production/_ext/444070925/drv_ethphy.o

.text.DRV_SDMMC_Close%352
                0x00018874       0x9c
 .text.DRV_SDMMC_Close
                0x00018874       0x9c build/default/production/_ext/20954303/drv_sdmmc.o
                0x00018874                DRV_SDMMC_Close

.text.NET_PRES_SocketSignalHandlerRegister%353
                0x00018910       0x9c
 .text.NET_PRES_SocketSignalHandlerRegister
                0x00018910       0x9c build/default/production/_ext/1508031553/net_pres.o
                0x00018910                NET_PRES_SocketSignalHandlerRegister

.text.f_sync%354
                0x000189ac       0x9c
 .text.f_sync   0x000189ac       0x9c build/default/production/_ext/411819097/ff.o
                0x000189ac                f_sync

.text.FATFS_unmount%355
                0x00018a48       0x9c
 .text.FATFS_unmount
                0x00018a48       0x9c build/default/production/_ext/1269487135/sys_fs_fat_interface.o
                0x00018a48                FATFS_unmount

.text._DRV_ETHPHY_SetupPhaseDetect%356
                0x00018ae4       0x98
 .text._DRV_ETHPHY_SetupPhaseDetect
                0x00018ae4       0x98 build/default/production/_ext/444070925/drv_ethphy.o

.text.DRV_GMAC_StatisticsGet%357
                0x00018b7c       0x98
 .text.DRV_GMAC_StatisticsGet
                0x00018b7c       0x98 build/default/production/_ext/1546807373/drv_gmac.o
                0x00018b7c                DRV_GMAC_StatisticsGet

.text.DRV_MIIM_OperationResult%358
                0x00018c14       0x98
 .text.DRV_MIIM_OperationResult
                0x00018c14       0x98 build/default/production/_ext/438849557/drv_miim.o
                0x00018c14                DRV_MIIM_OperationResult

.text.TCPIP_Helper_StringToMACAddress%359
                0x00018cac       0x98
 .text.TCPIP_Helper_StringToMACAddress
                0x00018cac       0x98 build/default/production/_ext/1033058136/tcpip_helpers.o
                0x00018cac                TCPIP_Helper_StringToMACAddress

.text.NET_PRES_SocketWrite%360
                0x00018d44       0x98
 .text.NET_PRES_SocketWrite
                0x00018d44       0x98 build/default/production/_ext/1508031553/net_pres.o
                0x00018d44                NET_PRES_SocketWrite

.text.DisplayNodeMsg%361
                0x00018ddc       0x98
 .text.DisplayNodeMsg
                0x00018ddc       0x98 build/default/production/_ext/1376093119/sys_command.o

.text.DRV_PIC32CGMAC_LibInitTransfer%362
                0x00018e74       0x94
 .text.DRV_PIC32CGMAC_LibInitTransfer
                0x00018e74       0x94 build/default/production/_ext/1546807373/drv_gmac_lib_samE5x.o
                0x00018e74                DRV_PIC32CGMAC_LibInitTransfer

.text.TCPIP_ARP_IsResolved%363
                0x00018f08       0x94
 .text.TCPIP_ARP_IsResolved
                0x00018f08       0x94 build/default/production/_ext/1033058136/arp.o
                0x00018f08                TCPIP_ARP_IsResolved

.text.ascii_to_u32s%364
                0x00018f9c       0x94
 .text.ascii_to_u32s
                0x00018f9c       0x94 build/default/production/_ext/1033058136/iperf.o

.text.remove_chain%365
                0x00019030       0x94
 .text.remove_chain
                0x00019030       0x94 build/default/production/_ext/411819097/ff.o

.text.f_opendir%366
                0x000190c4       0x92
 .text.f_opendir
                0x000190c4       0x92 build/default/production/_ext/411819097/ff.o
                0x000190c4                f_opendir

.text.TCPIP_STACK_Initialize%367
                0x00019158       0x90
 .text.TCPIP_STACK_Initialize
                0x00019158       0x90 build/default/production/_ext/1033058136/tcpip_manager.o
                0x00019158                TCPIP_STACK_Initialize

.text.TCPIP_FTP_Cleanup%368
                0x000191e8       0x90
 .text.TCPIP_FTP_Cleanup
                0x000191e8       0x90 build/default/production/_ext/1033058136/ftp.o

.text.SYS_TIME_AddToList%369
                0x00019278       0x90
 .text.SYS_TIME_AddToList
                0x00019278       0x90 build/default/production/_ext/101884895/sys_time.o

.text._UDPsetPacketInfo%370
                0x00019308       0x8c
 .text._UDPsetPacketInfo
                0x00019308       0x8c build/default/production/_ext/1033058136/udp.o

.text.NVIC_Initialize%371
                0x00019394       0x8c
 .text.NVIC_Initialize
                0x00019394       0x8c build/default/production/_ext/1865468468/plib_nvic.o
                0x00019394                NVIC_Initialize

.text.sync_fs%372
                0x00019420       0x8c
 .text.sync_fs  0x00019420       0x8c build/default/production/_ext/411819097/ff.o

.text.SYS_FS_FileStat%373
                0x000194ac       0x8c
 .text.SYS_FS_FileStat
                0x000194ac       0x8c build/default/production/_ext/1269487135/sys_fs.o
                0x000194ac                SYS_FS_FileStat

.text._OAHashFindBkt%374
                0x00019538       0x88
 .text._OAHashFindBkt
                0x00019538       0x88 build/default/production/_ext/1033058136/oahash.o

.text.SYS_CMDIO_ADD%375
                0x000195c0       0x88
 .text.SYS_CMDIO_ADD
                0x000195c0       0x88 build/default/production/_ext/1376093119/sys_command.o
                0x000195c0                SYS_CMDIO_ADD

.text.SYS_FS_DirectoryMake%376
                0x00019648       0x88
 .text.SYS_FS_DirectoryMake
                0x00019648       0x88 build/default/production/_ext/1269487135/sys_fs.o
                0x00019648                SYS_FS_DirectoryMake

.text.SYS_FS_FileDirectoryRemove%377
                0x000196d0       0x88
 .text.SYS_FS_FileDirectoryRemove
                0x000196d0       0x88 build/default/production/_ext/1269487135/sys_fs.o
                0x000196d0                SYS_FS_FileDirectoryRemove

.rodata.FatFsFunctions%378
                0x00019758       0x88
 .rodata.FatFsFunctions
                0x00019758       0x88 build/default/production/_ext/1171490990/initialization.o
                0x00019758                FatFsFunctions

.text.Reset_Handler%379
                0x000197e0       0x88
 .text.Reset_Handler
                0x000197e0       0x88 build/default/production/_ext/1171490990/startup_xc32.o
                0x000197e0                Reset_Handler

.text.__pic32c_data_initialization%380
                0x00019868       0x88
 .text.__pic32c_data_initialization
                0x00019868       0x88 c:/program files/microchip/xc32/v4.00/bin/bin/../../lib/gcc/pic32c/8.3.1/../../../../pic32c/lib/thumb/v7e-m+fp/hard\libpic32c.a(data_init.o)
                0x00019868                __pic32c_data_initialization

.text.TCPIP_IPV4_MacPacketSwitchTxToRx%381
                0x000198f0       0x84
 .text.TCPIP_IPV4_MacPacketSwitchTxToRx
                0x000198f0       0x84 build/default/production/_ext/1033058136/ipv4.o
                0x000198f0                TCPIP_IPV4_MacPacketSwitchTxToRx

.text._TCPIP_PKT_PacketAlloc%382
                0x00019974       0x84
 .text._TCPIP_PKT_PacketAlloc
                0x00019974       0x84 build/default/production/_ext/1033058136/tcpip_packet.o
                0x00019974                _TCPIP_PKT_PacketAlloc

.text.DRV_PIC32CGMAC_LibTxAckErrPacket%383
                0x000199f8       0x82
 .text.DRV_PIC32CGMAC_LibTxAckErrPacket
                0x000199f8       0x82 build/default/production/_ext/1546807373/drv_gmac_lib_samE5x.o
                0x000199f8                DRV_PIC32CGMAC_LibTxAckErrPacket

.text._DNS_ValidateIf%384
                0x00019a7a       0x82
 .text._DNS_ValidateIf
                0x00019a7a       0x82 build/default/production/_ext/1033058136/dns.o

.text.TCPIP_Helper_PacketChecksum%385
                0x00019afc       0x82
 .text.TCPIP_Helper_PacketChecksum
                0x00019afc       0x82 build/default/production/_ext/1033058136/tcpip_helpers.o
                0x00019afc                TCPIP_Helper_PacketChecksum

.text.DRV_ETHPHY_VendorSMIReadStart%386
                0x00019b80       0x80
 .text.DRV_ETHPHY_VendorSMIReadStart
                0x00019b80       0x80 build/default/production/_ext/444070925/drv_ethphy.o
                0x00019b80                DRV_ETHPHY_VendorSMIReadStart

.text.DRV_ETHPHY_VendorSMIWriteStart%387
                0x00019c00       0x80
 .text.DRV_ETHPHY_VendorSMIWriteStart
                0x00019c00       0x80 build/default/production/_ext/444070925/drv_ethphy.o
                0x00019c00                DRV_ETHPHY_VendorSMIWriteStart

.text.DRV_MIIM_Open%388
                0x00019c80       0x80
 .text.DRV_MIIM_Open
                0x00019c80       0x80 build/default/production/_ext/438849557/drv_miim.o
                0x00019c80                DRV_MIIM_Open

.text.TCP_SocketWasReset%389
                0x00019d00       0x80
 .text.TCP_SocketWasReset
                0x00019d00       0x80 build/default/production/_ext/1033058136/berkeley_api.o

.text.BerkeleySocketDeInit%390
                0x00019d80       0x80
 .text.BerkeleySocketDeInit
                0x00019d80       0x80 build/default/production/_ext/1033058136/berkeley_api.o
                0x00019d80                BerkeleySocketDeInit

.text.SendCommandPrint%391
                0x00019e00       0x80
 .text.SendCommandPrint
                0x00019e00       0x80 build/default/production/_ext/1376093119/sys_command.o

.rodata.ExCvt%392
                0x00019e80       0x80
 .rodata.ExCvt  0x00019e80       0x80 build/default/production/_ext/411819097/ff.o

.text.strspn%393
                0x00019f00       0x7e
 .text.strspn   0x00019f00       0x7e c:/program files/microchip/xc32/v4.00/bin/bin/../../lib/gcc/pic32c/8.3.1/../../../../pic32c/lib/thumb/v7e-m+fp/hard\libc-musl.a(strspn.o)
                0x00019f00                strspn

.text.__pad%394
                0x00019f7e       0x7e
 .text.__pad    0x00019f7e       0x7e c:/program files/microchip/xc32/v4.00/bin/bin/../../lib/gcc/pic32c/8.3.1/../../../../pic32c/lib/thumb/v7e-m+fp/hard\libc-musl.a(__printf_core.o)
                0x00019f7e                __pad

.text.DRV_ETHPHY_VendorSMIReadResultGet%395
                0x00019ffc       0x7c
 .text.DRV_ETHPHY_VendorSMIReadResultGet
                0x00019ffc       0x7c build/default/production/_ext/444070925/drv_ethphy.o
                0x00019ffc                DRV_ETHPHY_VendorSMIReadResultGet

.text.DRV_PIC32CGMAC_LibInit%396
                0x0001a078       0x7c
 .text.DRV_PIC32CGMAC_LibInit
                0x0001a078       0x7c build/default/production/_ext/1546807373/drv_gmac_lib_samE5x.o
                0x0001a078                DRV_PIC32CGMAC_LibInit

.text.SERCOM1_USART_Initialize%397
                0x0001a0f4       0x7c
 .text.SERCOM1_USART_Initialize
                0x0001a0f4       0x7c build/default/production/_ext/504274921/plib_sercom1_usart.o
                0x0001a0f4                SERCOM1_USART_Initialize

.text.SERCOM1_USART_Read%398
                0x0001a170       0x7c
 .text.SERCOM1_USART_Read
                0x0001a170       0x7c build/default/production/_ext/504274921/plib_sercom1_usart.o
                0x0001a170                SERCOM1_USART_Read

.text.FATFS_mount%399
                0x0001a1ec       0x7c
 .text.FATFS_mount
                0x0001a1ec       0x7c build/default/production/_ext/1269487135/sys_fs_fat_interface.o
                0x0001a1ec                FATFS_mount

.text.__pop_ptr%400
                0x0001a268       0x7c
 .text.__pop_ptr
                0x0001a268       0x7c c:/program files/microchip/xc32/v4.00/bin/bin/../../lib/gcc/pic32c/8.3.1/../../../../pic32c/lib/thumb/v7e-m+fp/hard\libc-musl.a(__pop_ptr.o)
                0x0001a268                __pop_ptr
                0x0001a268                __pop_ptr_needed

.text.TCPIP_TCP_SocketInfoGet%401
                0x0001a2e4       0x7a
 .text.TCPIP_TCP_SocketInfoGet
                0x0001a2e4       0x7a build/default/production/_ext/1033058136/tcp.o
                0x0001a2e4                TCPIP_TCP_SocketInfoGet

.text._DRV_ETHPHY_SetupPhaseNegotiate_SubPhase4%402
                0x0001a35e       0x78
 .text._DRV_ETHPHY_SetupPhaseNegotiate_SubPhase4
                0x0001a35e       0x78 build/default/production/_ext/444070925/drv_ethphy.o

.text.DRV_PIC32CGMAC_LibTxInit%403
                0x0001a3d8       0x78
 .text.DRV_PIC32CGMAC_LibTxInit
                0x0001a3d8       0x78 build/default/production/_ext/1546807373/drv_gmac_lib_samE5x.o
                0x0001a3d8                DRV_PIC32CGMAC_LibTxInit

.rodata%404     0x0001a450       0x78
 .rodata        0x0001a450       0x78 build/default/production/_ext/1033058136/ipv4.o

.text.TCPIP_Helper_PacketCopy%405
                0x0001a4c8       0x78
 .text.TCPIP_Helper_PacketCopy
                0x0001a4c8       0x78 build/default/production/_ext/1033058136/tcpip_helpers.o
                0x0001a4c8                TCPIP_Helper_PacketCopy

.rodata.TCPIP_STACK_MODULE_ENTRY_TBL%406
                0x0001a540       0x78
 .rodata.TCPIP_STACK_MODULE_ENTRY_TBL
                0x0001a540       0x78 build/default/production/_ext/1033058136/tcpip_manager.o

.text.SYS_FS_FileWrite%407
                0x0001a5b8       0x78
 .text.SYS_FS_FileWrite
                0x0001a5b8       0x78 build/default/production/_ext/1269487135/sys_fs.o
                0x0001a5b8                SYS_FS_FileWrite

.text.__cvt_u%408
                0x0001a630       0x78
 .text.__cvt_u  0x0001a630       0x78 c:/program files/microchip/xc32/v4.00/bin/bin/../../lib/gcc/pic32c/8.3.1/../../../../pic32c/lib/thumb/v7e-m+fp/hard\libc-musl.a(__fmt_u.o)
                0x0001a630                __cvt_u

.text._DRV_GMAC_LinkStateNegResult%409
                0x0001a6a8       0x76
 .text._DRV_GMAC_LinkStateNegResult
                0x0001a6a8       0x76 build/default/production/_ext/1546807373/drv_gmac.o

.text.strcspn%410
                0x0001a71e       0x76
 .text.strcspn  0x0001a71e       0x76 c:/program files/microchip/xc32/v4.00/bin/bin/../../lib/gcc/pic32c/8.3.1/../../../../pic32c/lib/thumb/v7e-m+fp/hard\libc-musl.a(strcspn.o)
                0x0001a71e                strcspn

.text._ARPUpdateEntry%411
                0x0001a794       0x74
 .text._ARPUpdateEntry
                0x0001a794       0x74 build/default/production/_ext/1033058136/arp.o

.text.TCPIP_ARP_EntryRemove%412
                0x0001a808       0x74
 .text.TCPIP_ARP_EntryRemove
                0x0001a808       0x74 build/default/production/_ext/1033058136/arp.o
                0x0001a808                TCPIP_ARP_EntryRemove

.text.GenericTxDone%413
                0x0001a87c       0x74
 .text.GenericTxDone
                0x0001a87c       0x74 build/default/production/_ext/1033058136/iperf.o

.text.inc_lock%414
                0x0001a8f0       0x74
 .text.inc_lock
                0x0001a8f0       0x74 build/default/production/_ext/411819097/ff.o

.text.SYS_FS_FileRead%415
                0x0001a964       0x74
 .text.SYS_FS_FileRead
                0x0001a964       0x74 build/default/production/_ext/1269487135/sys_fs.o
                0x0001a964                SYS_FS_FileRead

.rodata%416     0x0001a9d8       0x74
 .rodata        0x0001a9d8       0x74 build/default/production/_ext/1171490990/initialization.o

.text.TCPIP_PKT_DataSegmentGet%417
                0x0001aa4c       0x72
 .text.TCPIP_PKT_DataSegmentGet
                0x0001aa4c       0x72 build/default/production/_ext/1033058136/tcpip_packet.o
                0x0001aa4c                TCPIP_PKT_DataSegmentGet

.text.__fmt_o%418
                0x0001aabe       0x72
 .text.__fmt_o  0x0001aabe       0x72 c:/program files/microchip/xc32/v4.00/bin/bin/../../lib/gcc/pic32c/8.3.1/../../../../pic32c/lib/thumb/v7e-m+fp/hard\libc-musl.a(__fmt_o.o)
                0x0001aabe                __fmt_o
                0x0001aabe                __fmt_o_needed

.text._DRV_ETHPHY_NegCompletePhaseAN_Restart%419
                0x0001ab30       0x70
 .text._DRV_ETHPHY_NegCompletePhaseAN_Restart
                0x0001ab30       0x70 build/default/production/_ext/444070925/drv_ethphy.o

.text.DRV_GMAC_EventAcknowledge%420
                0x0001aba0       0x70
 .text.DRV_GMAC_EventAcknowledge
                0x0001aba0       0x70 build/default/production/_ext/1546807373/drv_gmac.o
                0x0001aba0                DRV_GMAC_EventAcknowledge

.text.DRV_GMAC_Tasks_ISR%421
                0x0001ac10       0x70
 .text.DRV_GMAC_Tasks_ISR
                0x0001ac10       0x70 build/default/production/_ext/1546807373/drv_gmac.o
                0x0001ac10                DRV_GMAC_Tasks_ISR

.text.TCPIP_IPV4_Cleanup%422
                0x0001ac80       0x70
 .text.TCPIP_IPV4_Cleanup
                0x0001ac80       0x70 build/default/production/_ext/1033058136/ipv4.o

.text.TCPIP_Helper_CalcIPChecksum%423
                0x0001acf0       0x70
 .text.TCPIP_Helper_CalcIPChecksum
                0x0001acf0       0x70 build/default/production/_ext/1033058136/tcpip_helpers.o
                0x0001acf0                TCPIP_Helper_CalcIPChecksum

.rodata.sTCPIPFTPCmdString%424
                0x0001ad60       0x70
 .rodata.sTCPIPFTPCmdString
                0x0001ad60       0x70 build/default/production/_ext/1033058136/ftp.o

.text.TCPIP_BSD_Task%425
                0x0001add0       0x70
 .text.TCPIP_BSD_Task
                0x0001add0       0x70 build/default/production/_ext/1033058136/berkeley_api.o
                0x0001add0                TCPIP_BSD_Task

.text.SYS_FS_FileClose%426
                0x0001ae40       0x70
 .text.SYS_FS_FileClose
                0x0001ae40       0x70 build/default/production/_ext/1269487135/sys_fs.o
                0x0001ae40                SYS_FS_FileClose

.text.SYS_FS_DirClose%427
                0x0001aeb0       0x70
 .text.SYS_FS_DirClose
                0x0001aeb0       0x70 build/default/production/_ext/1269487135/sys_fs.o
                0x0001aeb0                SYS_FS_DirClose

.text.DRV_PIC32CGMAC_LibMACOpen%428
                0x0001af20       0x6c
 .text.DRV_PIC32CGMAC_LibMACOpen
                0x0001af20       0x6c build/default/production/_ext/1546807373/drv_gmac_lib_samE5x.o
                0x0001af20                DRV_PIC32CGMAC_LibMACOpen

.text._AllocateRxPacket%429
                0x0001af8c       0x6c
 .text._AllocateRxPacket
                0x0001af8c       0x6c build/default/production/_ext/1546807373/drv_gmac_lib_samE5x.o

.text.DRV_MIIM_Initialize%430
                0x0001aff8       0x6c
 .text.DRV_MIIM_Initialize
                0x0001aff8       0x6c build/default/production/_ext/438849557/drv_miim.o
                0x0001aff8                DRV_MIIM_Initialize

.text._TcpCleanup%431
                0x0001b064       0x6c
 .text._TcpCleanup
                0x0001b064       0x6c build/default/production/_ext/1033058136/tcp.o

.text._TCPIPStackModuleRxPurge%432
                0x0001b0d0       0x6c
 .text._TCPIPStackModuleRxPurge
                0x0001b0d0       0x6c build/default/production/_ext/1033058136/tcpip_manager.o
                0x0001b0d0                _TCPIPStackModuleRxPurge

.text.SYS_CMD_ADDGRP%433
                0x0001b13c       0x6c
 .text.SYS_CMD_ADDGRP
                0x0001b13c       0x6c build/default/production/_ext/1376093119/sys_command.o
                0x0001b13c                SYS_CMD_ADDGRP

.text.SYS_CONSOLE_Print%434
                0x0001b1a8       0x6c
 .text.SYS_CONSOLE_Print
                0x0001b1a8       0x6c build/default/production/_ext/1832805299/sys_console.o
                0x0001b1a8                SYS_CONSOLE_Print

.text.DRV_ETHPHY_Open%435
                0x0001b214       0x68
 .text.DRV_ETHPHY_Open
                0x0001b214       0x68 build/default/production/_ext/444070925/drv_ethphy.o
                0x0001b214                DRV_ETHPHY_Open

.text.DRV_GMAC_Process%436
                0x0001b27c       0x68
 .text.DRV_GMAC_Process
                0x0001b27c       0x68 build/default/production/_ext/1546807373/drv_gmac.o
                0x0001b27c                DRV_GMAC_Process

.text._TcpSwapHeader%437
                0x0001b2e4       0x68
 .text._TcpSwapHeader
                0x0001b2e4       0x68 build/default/production/_ext/1033058136/tcp.o

.text._DNS_AddSelectionIf%438
                0x0001b34c       0x68
 .text._DNS_AddSelectionIf
                0x0001b34c       0x68 build/default/production/_ext/1033058136/dns.o

.text.TCPIP_OAHASH_EntryLookup%439
                0x0001b3b4       0x68
 .text.TCPIP_OAHASH_EntryLookup
                0x0001b3b4       0x68 build/default/production/_ext/1033058136/oahash.o
                0x0001b3b4                TCPIP_OAHASH_EntryLookup

.text.SDHC1_ModuleInit%440
                0x0001b41c       0x68
 .text.SDHC1_ModuleInit
                0x0001b41c       0x68 build/default/production/_ext/1865600094/plib_sdhc1.o
                0x0001b41c                SDHC1_ModuleInit

.text.SYS_FS_FileTell%441
                0x0001b484       0x68
 .text.SYS_FS_FileTell
                0x0001b484       0x68 build/default/production/_ext/1269487135/sys_fs.o
                0x0001b484                SYS_FS_FileTell

.text.SYS_FS_FileSize%442
                0x0001b4ec       0x68
 .text.SYS_FS_FileSize
                0x0001b4ec       0x68 build/default/production/_ext/1269487135/sys_fs.o
                0x0001b4ec                SYS_FS_FileSize

.text.TCPIP_TCP_ArrayPeek%443
                0x0001b554       0x66
 .text.TCPIP_TCP_ArrayPeek
                0x0001b554       0x66 build/default/production/_ext/1033058136/tcp.o
                0x0001b554                TCPIP_TCP_ArrayPeek

.text._DRV_ETHPHY_NegResultPhase_BMSTAT%444
                0x0001b5ba       0x64
 .text._DRV_ETHPHY_NegResultPhase_BMSTAT
                0x0001b5ba       0x64 build/default/production/_ext/444070925/drv_ethphy.o

.text._DRV_ETHPHY_ResetPhaseRead%445
                0x0001b61e       0x64
 .text._DRV_ETHPHY_ResetPhaseRead
                0x0001b61e       0x64 build/default/production/_ext/444070925/drv_ethphy.o

.text._DRV_ETHPHY_NegCompletePhaseRead2%446
                0x0001b684       0x64
 .text._DRV_ETHPHY_NegCompletePhaseRead2
                0x0001b684       0x64 build/default/production/_ext/444070925/drv_ethphy.o

.text.DRV_GMAC_RegisterStatisticsGet%447
                0x0001b6e8       0x64
 .text.DRV_GMAC_RegisterStatisticsGet
                0x0001b6e8       0x64 build/default/production/_ext/1546807373/drv_gmac.o
                0x0001b6e8                DRV_GMAC_RegisterStatisticsGet

.text._MacRxPacketAck%448
                0x0001b74c       0x64
 .text._MacRxPacketAck
                0x0001b74c       0x64 build/default/production/_ext/1546807373/drv_gmac_lib_samE5x.o

.text._DRV_SDMMC_DriverHandleValidate%449
                0x0001b7b0       0x64
 .text._DRV_SDMMC_DriverHandleValidate
                0x0001b7b0       0x64 build/default/production/_ext/20954303/drv_sdmmc.o

.text.TCPIP_OAHASH_EntryLookupOrInsert%450
                0x0001b814       0x64
 .text.TCPIP_OAHASH_EntryLookupOrInsert
                0x0001b814       0x64 build/default/production/_ext/1033058136/oahash.o
                0x0001b814                TCPIP_OAHASH_EntryLookupOrInsert

.text.TCPIP_STACK_BringNetDown%451
                0x0001b878       0x64
 .text.TCPIP_STACK_BringNetDown
                0x0001b878       0x64 build/default/production/_ext/1033058136/tcpip_manager.o

.text._TCPIPStackInsertRxPacket%452
                0x0001b8dc       0x64
 .text._TCPIPStackInsertRxPacket
                0x0001b8dc       0x64 build/default/production/_ext/1033058136/tcpip_manager.o
                0x0001b8dc                _TCPIPStackInsertRxPacket

.text.TCPIP_UDP_SocketInfoGet%453
                0x0001b940       0x64
 .text.TCPIP_UDP_SocketInfoGet
                0x0001b940       0x64 build/default/production/_ext/1033058136/udp.o
                0x0001b940                TCPIP_UDP_SocketInfoGet

.text.f_mount%454
                0x0001b9a4       0x64
 .text.f_mount  0x0001b9a4       0x64 build/default/production/_ext/411819097/ff.o
                0x0001b9a4                f_mount

.text.TCPIP_ARP_EntryGet%455
                0x0001ba08       0x62
 .text.TCPIP_ARP_EntryGet
                0x0001ba08       0x62 build/default/production/_ext/1033058136/arp.o
                0x0001ba08                TCPIP_ARP_EntryGet

.text._TCPIP_StackSyncFunction%456
                0x0001ba6a       0x62
 .text._TCPIP_StackSyncFunction
                0x0001ba6a       0x62 build/default/production/_ext/1033058136/tcpip_manager.o

.text._DRV_SDMMC_PlibCallbackHandler%457
                0x0001bacc       0x60
 .text._DRV_SDMMC_PlibCallbackHandler
                0x0001bacc       0x60 build/default/production/_ext/20954303/drv_sdmmc.o

.text.TCPIP_DNS_ClientDeinitialize%458
                0x0001bb2c       0x60
 .text.TCPIP_DNS_ClientDeinitialize
                0x0001bb2c       0x60 build/default/production/_ext/1033058136/dns.o
                0x0001bb2c                TCPIP_DNS_ClientDeinitialize

.text.TCP_SignalFunction%459
                0x0001bb8c       0x60
 .text.TCP_SignalFunction
                0x0001bb8c       0x60 build/default/production/_ext/1033058136/berkeley_api.o

.text.f_chdir%460
                0x0001bbec       0x60
 .text.f_chdir  0x0001bbec       0x60 build/default/production/_ext/411819097/ff.o
                0x0001bbec                f_chdir

.text.vsnprintf%461
                0x0001bc4c       0x60
 .text.vsnprintf
                0x0001bc4c       0x60 c:/program files/microchip/xc32/v4.00/bin/bin/../../lib/gcc/pic32c/8.3.1/../../../../pic32c/lib/thumb/v7e-m+fp/hard\libc-musl.a(vsnprintf.o)
                0x0001bc4c                vsnprintf

.text.__strchrnul%462
                0x0001bcac       0x60
 .text.__strchrnul
                0x0001bcac       0x60 c:/program files/microchip/xc32/v4.00/bin/bin/../../lib/gcc/pic32c/8.3.1/../../../../pic32c/lib/thumb/v7e-m+fp/hard\libc-musl.a(strchrnul.o)
                0x0001bcac                strchrnul
                0x0001bcac                __strchrnul

.text.DRV_MIIM_OperationAbort%463
                0x0001bd0c       0x5e
 .text.DRV_MIIM_OperationAbort
                0x0001bd0c       0x5e build/default/production/_ext/438849557/drv_miim.o
                0x0001bd0c                DRV_MIIM_OperationAbort

.text.f_chmod%464
                0x0001bd6a       0x5e
 .text.f_chmod  0x0001bd6a       0x5e build/default/production/_ext/411819097/ff.o
                0x0001bd6a                f_chmod

.rodata.DRV_ETHPHY_OBJECT_BASE_Default%465
                0x0001bdc8       0x5c
 .rodata.DRV_ETHPHY_OBJECT_BASE_Default
                0x0001bdc8       0x5c build/default/production/_ext/444070925/drv_ethphy.o
                0x0001bdc8                DRV_ETHPHY_OBJECT_BASE_Default

.text._DRV_GMAC_LinkStateWaitLinkUp%466
                0x0001be24       0x5c
 .text._DRV_GMAC_LinkStateWaitLinkUp
                0x0001be24       0x5c build/default/production/_ext/1546807373/drv_gmac.o

.text._DRV_SDMMC_InitCardContext%467
                0x0001be80       0x5c
 .text._DRV_SDMMC_InitCardContext
                0x0001be80       0x5c build/default/production/_ext/20954303/drv_sdmmc.o

.text._TcpClientSocketConnect%468
                0x0001bedc       0x5c
 .text._TcpClientSocketConnect
                0x0001bedc       0x5c build/default/production/_ext/1033058136/tcp.o

.text._TCPIP_SelectDefaultNet%469
                0x0001bf38       0x5c
 .text._TCPIP_SelectDefaultNet
                0x0001bf38       0x5c build/default/production/_ext/1033058136/tcpip_manager.o

.rodata.sTCPIPFTPRespStr%470
                0x0001bf94       0x5c
 .rodata.sTCPIPFTPRespStr
                0x0001bf94       0x5c build/default/production/_ext/1033058136/ftp.o

.text.chk_lock%471
                0x0001bff0       0x5c
 .text.chk_lock
                0x0001bff0       0x5c build/default/production/_ext/411819097/ff.o

.text.get_ldnumber%472
                0x0001c04c       0x5c
 .text.get_ldnumber
                0x0001c04c       0x5c build/default/production/_ext/411819097/ff.o

.text.dir_clear%473
                0x0001c0a8       0x5c
 .text.dir_clear
                0x0001c0a8       0x5c build/default/production/_ext/411819097/ff.o

.text.dir_remove%474
                0x0001c104       0x5c
 .text.dir_remove
                0x0001c104       0x5c build/default/production/_ext/411819097/ff.o

.text.f_utime%475
                0x0001c160       0x5c
 .text.f_utime  0x0001c160       0x5c build/default/production/_ext/411819097/ff.o
                0x0001c160                f_utime

.text.SYS_FS_Initialize%476
                0x0001c1bc       0x5c
 .text.SYS_FS_Initialize
                0x0001c1bc       0x5c build/default/production/_ext/1269487135/sys_fs.o
                0x0001c1bc                SYS_FS_Initialize

.text.SYS_FS_FileEOF%477
                0x0001c218       0x5c
 .text.SYS_FS_FileEOF
                0x0001c218       0x5c build/default/production/_ext/1269487135/sys_fs.o
                0x0001c218                SYS_FS_FileEOF

.text.FATFS_open%478
                0x0001c274       0x5c
 .text.FATFS_open
                0x0001c274       0x5c build/default/production/_ext/1269487135/sys_fs_fat_interface.o
                0x0001c274                FATFS_open

.text.SYS_TIME_RemoveFromList%479
                0x0001c2d0       0x5c
 .text.SYS_TIME_RemoveFromList
                0x0001c2d0       0x5c build/default/production/_ext/101884895/sys_time.o

.text.__libc_start_init%480
                0x0001c32c       0x5c
 .text.__libc_start_init
                0x0001c32c       0x5c c:/program files/microchip/xc32/v4.00/bin/bin/../../lib/gcc/pic32c/8.3.1/../../../../pic32c/lib/thumb/v7e-m+fp/hard\libc-musl.a(__libc_start_main.o)
                0x0001c32c                __libc_init_array

.rodata%481     0x0001c388       0x5c
 .rodata        0x0001c388       0x5c c:/program files/microchip/xc32/v4.00/bin/bin/../../lib/gcc/pic32c/8.3.1/../../../../pic32c/lib/thumb/v7e-m+fp/hard\libc-musl.a(malloc.o)

.text.DRV_PIC32CGMAC_LibRxBuffersCountGet%482
                0x0001c3e4       0x5a
 .text.DRV_PIC32CGMAC_LibRxBuffersCountGet
                0x0001c3e4       0x5a build/default/production/_ext/1546807373/drv_gmac_lib_samE5x.o
                0x0001c3e4                DRV_PIC32CGMAC_LibRxBuffersCountGet

.text.TCPIP_UDP_BcastIPV4AddressSet%483
                0x0001c43e       0x5a
 .text.TCPIP_UDP_BcastIPV4AddressSet
                0x0001c43e       0x5a build/default/production/_ext/1033058136/udp.o
                0x0001c43e                TCPIP_UDP_BcastIPV4AddressSet

.text.f_gets%484
                0x0001c498       0x5a
 .text.f_gets   0x0001c498       0x5a build/default/production/_ext/411819097/ff.o
                0x0001c498                f_gets

.text.DRV_ETHPHY_Initialize%485
                0x0001c4f4       0x58
 .text.DRV_ETHPHY_Initialize
                0x0001c4f4       0x58 build/default/production/_ext/444070925/drv_ethphy.o
                0x0001c4f4                DRV_ETHPHY_Initialize

.text.DRV_GMAC_RxFilterHashTableEntrySet%486
                0x0001c54c       0x58
 .text.DRV_GMAC_RxFilterHashTableEntrySet
                0x0001c54c       0x58 build/default/production/_ext/1546807373/drv_gmac.o
                0x0001c54c                DRV_GMAC_RxFilterHashTableEntrySet

.rodata.DRV_GMAC_Object%487
                0x0001c5a4       0x58
 .rodata.DRV_GMAC_Object
                0x0001c5a4       0x58 build/default/production/_ext/1546807373/drv_gmac.o
                0x0001c5a4                DRV_GMAC_Object

.text.DRV_SDMMC_CommandStatus%488
                0x0001c5fc       0x58
 .text.DRV_SDMMC_CommandStatus
                0x0001c5fc       0x58 build/default/production/_ext/20954303/drv_sdmmc.o
                0x0001c5fc                DRV_SDMMC_CommandStatus

.text._DNS_Enable%489
                0x0001c654       0x58
 .text._DNS_Enable
                0x0001c654       0x58 build/default/production/_ext/1033058136/dns.o

.text._TCPIPStackIpAddFromAnyNet%490
                0x0001c6ac       0x58
 .text._TCPIPStackIpAddFromAnyNet
                0x0001c6ac       0x58 build/default/production/_ext/1033058136/tcpip_manager.o
                0x0001c6ac                _TCPIPStackIpAddFromAnyNet

.text._FTPSocketRxSignalHandler%491
                0x0001c704       0x58
 .text._FTPSocketRxSignalHandler
                0x0001c704       0x58 build/default/production/_ext/1033058136/ftp.o

.text.NET_PRES_SocketOptionsSet%492
                0x0001c75c       0x58
 .text.NET_PRES_SocketOptionsSet
                0x0001c75c       0x58 build/default/production/_ext/1508031553/net_pres.o
                0x0001c75c                NET_PRES_SocketOptionsSet

.text.NET_PRES_SocketIsConnected%493
                0x0001c7b4       0x58
 .text.NET_PRES_SocketIsConnected
                0x0001c7b4       0x58 build/default/production/_ext/1508031553/net_pres.o
                0x0001c7b4                NET_PRES_SocketIsConnected

.text.NET_PRES_SocketWasReset%494
                0x0001c80c       0x58
 .text.NET_PRES_SocketWasReset
                0x0001c80c       0x58 build/default/production/_ext/1508031553/net_pres.o
                0x0001c80c                NET_PRES_SocketWasReset

.text.NET_PRES_SocketWasDisconnected%495
                0x0001c864       0x58
 .text.NET_PRES_SocketWasDisconnected
                0x0001c864       0x58 build/default/production/_ext/1508031553/net_pres.o
                0x0001c864                NET_PRES_SocketWasDisconnected

.text.NET_PRES_SocketConnect%496
                0x0001c8bc       0x58
 .text.NET_PRES_SocketConnect
                0x0001c8bc       0x58 build/default/production/_ext/1508031553/net_pres.o
                0x0001c8bc                NET_PRES_SocketConnect

.text.NET_PRES_SocketInfoGet%497
                0x0001c914       0x58
 .text.NET_PRES_SocketInfoGet
                0x0001c914       0x58 build/default/production/_ext/1508031553/net_pres.o
                0x0001c914                NET_PRES_SocketInfoGet

.text.NET_PRES_SocketFlush%498
                0x0001c96c       0x58
 .text.NET_PRES_SocketFlush
                0x0001c96c       0x58 build/default/production/_ext/1508031553/net_pres.o
                0x0001c96c                NET_PRES_SocketFlush

.text.SYS_TIME_TimerAdd%499
                0x0001c9c4       0x58
 .text.SYS_TIME_TimerAdd
                0x0001c9c4       0x58 build/default/production/_ext/101884895/sys_time.o

.text.SYS_TIME_TimerStart%500
                0x0001ca1c       0x58
 .text.SYS_TIME_TimerStart
                0x0001ca1c       0x58 build/default/production/_ext/101884895/sys_time.o
                0x0001ca1c                SYS_TIME_TimerStart

.rodata.TCPIP_STACK_MODULE_CONFIG_TBL%501
                0x0001ca74       0x58
 .rodata.TCPIP_STACK_MODULE_CONFIG_TBL
                0x0001ca74       0x58 build/default/production/_ext/1171490990/initialization.o
                0x0001ca74                TCPIP_STACK_MODULE_CONFIG_TBL

.rodata.netPresTransObject0DC%502
                0x0001cacc       0x58
 .rodata.netPresTransObject0DC
                0x0001cacc       0x58 build/default/production/_ext/1171490990/initialization.o

.rodata.netPresTransObject0DS%503
                0x0001cb24       0x58
 .rodata.netPresTransObject0DS
                0x0001cb24       0x58 build/default/production/_ext/1171490990/initialization.o

.rodata.netPresTransObject0SC%504
                0x0001cb7c       0x58
 .rodata.netPresTransObject0SC
                0x0001cb7c       0x58 build/default/production/_ext/1171490990/initialization.o

.rodata.netPresTransObject0SS%505
                0x0001cbd4       0x58
 .rodata.netPresTransObject0SS
                0x0001cbd4       0x58 build/default/production/_ext/1171490990/initialization.o

.text.unbin%506
                0x0001cc2c       0x58
 .text.unbin    0x0001cc2c       0x58 c:/program files/microchip/xc32/v4.00/bin/bin/../../lib/gcc/pic32c/8.3.1/../../../../pic32c/lib/thumb/v7e-m+fp/hard\libc-musl.a(malloc.o)

.text.__fmt_s%507
                0x0001cc84       0x58
 .text.__fmt_s  0x0001cc84       0x58 c:/program files/microchip/xc32/v4.00/bin/bin/../../lib/gcc/pic32c/8.3.1/../../../../pic32c/lib/thumb/v7e-m+fp/hard\libc-musl.a(__fmt_s.o)
                0x0001cc84                __fmt_s
                0x0001cc84                __fmt_0_needed
                0x0001cc84                __fmt_s_needed

.text.__fmt_u%508
                0x0001ccdc       0x56
 .text.__fmt_u  0x0001ccdc       0x56 c:/program files/microchip/xc32/v4.00/bin/bin/../../lib/gcc/pic32c/8.3.1/../../../../pic32c/lib/thumb/v7e-m+fp/hard\libc-musl.a(__fmt_u.o)
                0x0001ccdc                __fmt_u_needed
                0x0001ccdc                __fmt_u

.text._DRV_PHY_SMITransferWaitComplete%509
                0x0001cd32       0x54
 .text._DRV_PHY_SMITransferWaitComplete
                0x0001cd32       0x54 build/default/production/_ext/444070925/drv_ethphy.o

.text._ARPNotifyClients%510
                0x0001cd88       0x54
 .text._ARPNotifyClients
                0x0001cd88       0x54 build/default/production/_ext/1033058136/arp.o

.text._DNS_DeleteHash%511
                0x0001cddc       0x54
 .text._DNS_DeleteHash
                0x0001cddc       0x54 build/default/production/_ext/1033058136/dns.o

.text._TCPIPStackAnyNetLinked%512
                0x0001ce30       0x54
 .text._TCPIPStackAnyNetLinked
                0x0001ce30       0x54 build/default/production/_ext/1033058136/tcpip_manager.o
                0x0001ce30                _TCPIPStackAnyNetLinked

.text.TCPIP_UDP_PutIsReady%513
                0x0001ce84       0x54
 .text.TCPIP_UDP_PutIsReady
                0x0001ce84       0x54 build/default/production/_ext/1033058136/udp.o
                0x0001ce84                TCPIP_UDP_PutIsReady

.text.TCPIP_UDP_SocketNetSet%514
                0x0001ced8       0x54
 .text.TCPIP_UDP_SocketNetSet
                0x0001ced8       0x54 build/default/production/_ext/1033058136/udp.o
                0x0001ced8                TCPIP_UDP_SocketNetSet

.text.IperfSetState%515
                0x0001cf2c       0x54
 .text.IperfSetState
                0x0001cf2c       0x54 build/default/production/_ext/1033058136/iperf.o

.text.TCPIP_IPERF_Deinitialize%516
                0x0001cf80       0x54
 .text.TCPIP_IPERF_Deinitialize
                0x0001cf80       0x54 build/default/production/_ext/1033058136/iperf.o
                0x0001cf80                TCPIP_IPERF_Deinitialize

.text.NET_PRES_SocketBind%517
                0x0001cfd4       0x54
 .text.NET_PRES_SocketBind
                0x0001cfd4       0x54 build/default/production/_ext/1508031553/net_pres.o
                0x0001cfd4                NET_PRES_SocketBind

.text.NET_PRES_SocketRemoteBind%518
                0x0001d028       0x54
 .text.NET_PRES_SocketRemoteBind
                0x0001d028       0x54 build/default/production/_ext/1508031553/net_pres.o
                0x0001d028                NET_PRES_SocketRemoteBind

.text.SYS_CONSOLE_Initialize%519
                0x0001d07c       0x54
 .text.SYS_CONSOLE_Initialize
                0x0001d07c       0x54 build/default/production/_ext/1832805299/sys_console.o
                0x0001d07c                SYS_CONSOLE_Initialize

.text.dir_alloc%520
                0x0001d0d0       0x54
 .text.dir_alloc
                0x0001d0d0       0x54 build/default/production/_ext/411819097/ff.o

.rodata%521     0x0001d124       0x54
 .rodata        0x0001d124       0x54 build/default/production/_ext/411819097/ff.o

.text.SYS_FS_MEDIA_MANAGER_SectorRead%522
                0x0001d178       0x54
 .text.SYS_FS_MEDIA_MANAGER_SectorRead
                0x0001d178       0x54 build/default/production/_ext/1269487135/sys_fs_media_manager.o
                0x0001d178                SYS_FS_MEDIA_MANAGER_SectorRead

.text.SYS_TIME_CallbackRegisterMS%523
                0x0001d1cc       0x54
 .text.SYS_TIME_CallbackRegisterMS
                0x0001d1cc       0x54 build/default/production/_ext/101884895/sys_time.o
                0x0001d1cc                SYS_TIME_CallbackRegisterMS

.text._TcpAbort%524
                0x0001d220       0x52
 .text._TcpAbort
                0x0001d220       0x52 build/default/production/_ext/1033058136/tcp.o

.text.TCPIP_TCP_RemoteBind%525
                0x0001d272       0x52
 .text.TCPIP_TCP_RemoteBind
                0x0001d272       0x52 build/default/production/_ext/1033058136/tcp.o
                0x0001d272                TCPIP_TCP_RemoteBind

.text._TCPIP_HEAP_MaxSize%526
                0x0001d2c4       0x52
 .text._TCPIP_HEAP_MaxSize
                0x0001d2c4       0x52 build/default/production/_ext/1033058136/tcpip_heap_internal.o

.text.DRV_ETHPHY_LinkStatusGet%527
                0x0001d318       0x50
 .text.DRV_ETHPHY_LinkStatusGet
                0x0001d318       0x50 build/default/production/_ext/444070925/drv_ethphy.o
                0x0001d318                DRV_ETHPHY_LinkStatusGet

.text.DRV_GMAC_ParametersGet%528
                0x0001d368       0x50
 .text.DRV_GMAC_ParametersGet
                0x0001d368       0x50 build/default/production/_ext/1546807373/drv_gmac.o
                0x0001d368                DRV_GMAC_ParametersGet

.rodata%529     0x0001d3b8       0x50
 .rodata        0x0001d3b8       0x50 build/default/production/_ext/1033058136/tcp.o

.text.TCPIP_DNS_OAHASH_DeleteEntry%530
                0x0001d408       0x50
 .text.TCPIP_DNS_OAHASH_DeleteEntry
                0x0001d408       0x50 build/default/production/_ext/1033058136/dns.o

.text._TCPIPStackModuleSignalRequest%531
                0x0001d458       0x50
 .text._TCPIPStackModuleSignalRequest
                0x0001d458       0x50 build/default/production/_ext/1033058136/tcpip_manager.o
                0x0001d458                _TCPIPStackModuleSignalRequest

.text.SYS_CONSOLE_Status%532
                0x0001d4a8       0x50
 .text.SYS_CONSOLE_Status
                0x0001d4a8       0x50 build/default/production/_ext/1832805299/sys_console.o
                0x0001d4a8                SYS_CONSOLE_Status

.text.SYS_TIME_DelayMS%533
                0x0001d4f8       0x50
 .text.SYS_TIME_DelayMS
                0x0001d4f8       0x50 build/default/production/_ext/101884895/sys_time.o
                0x0001d4f8                SYS_TIME_DelayMS

.text._DRV_ETHPHY_SetupPhaseNegotiate_SubPhase7%534
                0x0001d548       0x4e
 .text._DRV_ETHPHY_SetupPhaseNegotiate_SubPhase7
                0x0001d548       0x4e build/default/production/_ext/444070925/drv_ethphy.o

.text._DRV_MIIM_GetClientAndLock%535
                0x0001d596       0x4e
 .text._DRV_MIIM_GetClientAndLock
                0x0001d596       0x4e build/default/production/_ext/438849557/drv_miim.o

.text.TCPIP_IPV4_SelectDestInterface%536
                0x0001d5e4       0x4e
 .text.TCPIP_IPV4_SelectDestInterface
                0x0001d5e4       0x4e build/default/production/_ext/1033058136/ipv4.o
                0x0001d5e4                TCPIP_IPV4_SelectDestInterface

.text.f_readdir%537
                0x0001d632       0x4e
 .text.f_readdir
                0x0001d632       0x4e build/default/production/_ext/411819097/ff.o
                0x0001d632                f_readdir

.text._DRV_ETHPHY_LinkStatPhaseRead%538
                0x0001d680       0x4c
 .text._DRV_ETHPHY_LinkStatPhaseRead
                0x0001d680       0x4c build/default/production/_ext/444070925/drv_ethphy.o

.text._MacTxPendingPackets%539
                0x0001d6cc       0x4c
 .text._MacTxPendingPackets
                0x0001d6cc       0x4c build/default/production/_ext/1546807373/drv_gmac.o

.text._TCPIP_MacEventCB%540
                0x0001d718       0x4c
 .text._TCPIP_MacEventCB
                0x0001d718       0x4c build/default/production/_ext/1033058136/tcpip_manager.o

.text.TCPIP_ANNOUNCE_Deinitialize%541
                0x0001d764       0x4c
 .text.TCPIP_ANNOUNCE_Deinitialize
                0x0001d764       0x4c build/default/production/_ext/1033058136/tcpip_announce.o
                0x0001d764                TCPIP_ANNOUNCE_Deinitialize

.text._UDPClose%542
                0x0001d7b0       0x4c
 .text._UDPClose
                0x0001d7b0       0x4c build/default/production/_ext/1033058136/udp.o

.text.ResetIperfCounters%543
                0x0001d7fc       0x4c
 .text.ResetIperfCounters
                0x0001d7fc       0x4c build/default/production/_ext/1033058136/iperf.o

.text.SDHC1_ResponseRead%544
                0x0001d848       0x4c
 .text.SDHC1_ResponseRead
                0x0001d848       0x4c build/default/production/_ext/1865600094/plib_sdhc1.o
                0x0001d848                SDHC1_ResponseRead

.text.__aeabi_d2iz%545
                0x0001d894       0x4c
 .text.__aeabi_d2iz
                0x0001d894       0x4c c:/program files/microchip/xc32/v4.00/bin/bin/../../lib/gcc/pic32c/8.3.1/../../../../pic32c/lib/thumb/v7e-m+fp/hard\libm-emfloat.a(floatasmops_arm.o)
                0x0001d894                __aeabi_d2iz

.text.TCPIP_IPV4_SelectSourceInterface%546
                0x0001d8e0       0x4a
 .text.TCPIP_IPV4_SelectSourceInterface
                0x0001d8e0       0x4a build/default/production/_ext/1033058136/ipv4.o
                0x0001d8e0                TCPIP_IPV4_SelectSourceInterface

.text.TCPIP_UDP_ArrayPut%547
                0x0001d92a       0x4a
 .text.TCPIP_UDP_ArrayPut
                0x0001d92a       0x4a build/default/production/_ext/1033058136/udp.o
                0x0001d92a                TCPIP_UDP_ArrayPut

.text.TCPIP_UDP_DestinationIPAddressSet%548
                0x0001d974       0x4a
 .text.TCPIP_UDP_DestinationIPAddressSet
                0x0001d974       0x4a build/default/production/_ext/1033058136/udp.o
                0x0001d974                TCPIP_UDP_DestinationIPAddressSet

.text.DRV_ETHPHY_NegotiationResultGet%549
                0x0001d9c0       0x48
 .text.DRV_ETHPHY_NegotiationResultGet
                0x0001d9c0       0x48 build/default/production/_ext/444070925/drv_ethphy.o
                0x0001d9c0                DRV_ETHPHY_NegotiationResultGet

.text.DRV_GMAC_LinkCheck%550
                0x0001da08       0x48
 .text.DRV_GMAC_LinkCheck
                0x0001da08       0x48 build/default/production/_ext/1546807373/drv_gmac.o
                0x0001da08                DRV_GMAC_LinkCheck

.rodata.default_shell_obj%551
                0x0001da50       0x48
 .rodata.default_shell_obj
                0x0001da50       0x48 build/default/production/_ext/1751889202/sys_fs_shell.o

.text._TCPSendWinIncUpdate%552
                0x0001da98       0x48
 .text._TCPSendWinIncUpdate
                0x0001da98       0x48 build/default/production/_ext/1033058136/tcp.o

.text.TCPIP_TCP_DestinationIPAddressSet%553
                0x0001dae0       0x48
 .text.TCPIP_TCP_DestinationIPAddressSet
                0x0001dae0       0x48 build/default/production/_ext/1033058136/tcp.o
                0x0001dae0                TCPIP_TCP_DestinationIPAddressSet

.text.TCPIP_ARP_Deinitialize%554
                0x0001db28       0x48
 .text.TCPIP_ARP_Deinitialize
                0x0001db28       0x48 build/default/production/_ext/1033058136/arp.o
                0x0001db28                TCPIP_ARP_Deinitialize

.text.TCPIP_STACK_MatchNetAddress%555
                0x0001db70       0x48
 .text.TCPIP_STACK_MatchNetAddress
                0x0001db70       0x48 build/default/production/_ext/1033058136/tcpip_manager.o
                0x0001db70                TCPIP_STACK_MatchNetAddress

.text._TCPIPStackSignalHandlerRegister%556
                0x0001dbb8       0x48
 .text._TCPIPStackSignalHandlerRegister
                0x0001dbb8       0x48 build/default/production/_ext/1033058136/tcpip_manager.o
                0x0001dbb8                _TCPIPStackSignalHandlerRegister

.text.TCPIP_UDP_Close%557
                0x0001dc00       0x48
 .text.TCPIP_UDP_Close
                0x0001dc00       0x48 build/default/production/_ext/1033058136/udp.o
                0x0001dc00                TCPIP_UDP_Close

.rodata.keySeqTbl%558
                0x0001dc48       0x48
 .rodata.keySeqTbl
                0x0001dc48       0x48 build/default/production/_ext/1376093119/sys_command.o

.text.sync_window%559
                0x0001dc90       0x48
 .text.sync_window
                0x0001dc90       0x48 build/default/production/_ext/411819097/ff.o

.text.ff_uni2oem%560
                0x0001dcd8       0x48
 .text.ff_uni2oem
                0x0001dcd8       0x48 build/default/production/_ext/411819097/ffunicode.o
                0x0001dcd8                ff_uni2oem

.rodata.drvSDMMC0PlibAPI%561
                0x0001dd20       0x48
 .rodata.drvSDMMC0PlibAPI
                0x0001dd20       0x48 build/default/production/_ext/1171490990/initialization.o
                0x0001dd20                drvSDMMC0PlibAPI

.text.strtok%562
                0x0001dd68       0x48
 .text.strtok   0x0001dd68       0x48 c:/program files/microchip/xc32/v4.00/bin/bin/../../lib/gcc/pic32c/8.3.1/../../../../pic32c/lib/thumb/v7e-m+fp/hard\libc-musl.a(strtok.o)
                0x0001dd68                strtok

.text._DRV_GMAC_LinkStateGetLink%563
                0x0001ddb0       0x46
 .text._DRV_GMAC_LinkStateGetLink
                0x0001ddb0       0x46 build/default/production/_ext/1546807373/drv_gmac.o

.text.DRV_MIIM_RegisterCallback%564
                0x0001ddf6       0x46
 .text.DRV_MIIM_RegisterCallback
                0x0001ddf6       0x46 build/default/production/_ext/438849557/drv_miim.o
                0x0001ddf6                DRV_MIIM_RegisterCallback

.text.Shell_GetCwd%565
                0x0001de3c       0x46
 .text.Shell_GetCwd
                0x0001de3c       0x46 build/default/production/_ext/1751889202/sys_fs_shell.o

.text.Shell_GetRoot%566
                0x0001de82       0x46
 .text.Shell_GetRoot
                0x0001de82       0x46 build/default/production/_ext/1751889202/sys_fs_shell.o

.text.TCPIP_TCP_FifoTxFullGet%567
                0x0001dec8       0x46
 .text.TCPIP_TCP_FifoTxFullGet
                0x0001dec8       0x46 build/default/production/_ext/1033058136/tcp.o
                0x0001dec8                TCPIP_TCP_FifoTxFullGet

.text.TCPIP_ARP_Resolve%568
                0x0001df0e       0x46
 .text.TCPIP_ARP_Resolve
                0x0001df0e       0x46 build/default/production/_ext/1033058136/arp.o
                0x0001df0e                TCPIP_ARP_Resolve

.text.TCPIP_Helper_SingleListNodeRemove%569
                0x0001df54       0x46
 .text.TCPIP_Helper_SingleListNodeRemove
                0x0001df54       0x46 build/default/production/_ext/1033058136/tcpip_helpers.o
                0x0001df54                TCPIP_Helper_SingleListNodeRemove

.text.validate%570
                0x0001df9a       0x46
 .text.validate
                0x0001df9a       0x46 build/default/production/_ext/411819097/ff.o

.text.atoi%571  0x0001dfe0       0x46
 .text.atoi     0x0001dfe0       0x46 c:/program files/microchip/xc32/v4.00/bin/bin/../../lib/gcc/pic32c/8.3.1/../../../../pic32c/lib/thumb/v7e-m+fp/hard\libc-musl.a(atoi.o)
                0x0001dfe0                atoi

.text.DRV_GMAC_ConfigGet%572
                0x0001e028       0x44
 .text.DRV_GMAC_ConfigGet
                0x0001e028       0x44 build/default/production/_ext/1546807373/drv_gmac.o
                0x0001e028                DRV_GMAC_ConfigGet

.text.Helper_SingleListNodeRemove%573
                0x0001e06c       0x44
 .text.Helper_SingleListNodeRemove
                0x0001e06c       0x44 build/default/production/_ext/438849557/drv_miim.o
                0x0001e06c                Helper_SingleListNodeRemove

.text.TCPIP_ICMP_Initialize%574
                0x0001e0b0       0x44
 .text.TCPIP_ICMP_Initialize
                0x0001e0b0       0x44 build/default/production/_ext/1033058136/icmp.o
                0x0001e0b0                TCPIP_ICMP_Initialize

.rodata%575     0x0001e0f4       0x44
 .rodata        0x0001e0f4       0x44 build/default/production/_ext/1033058136/udp.o

.text.f_stat%576
                0x0001e138       0x44
 .text.f_stat   0x0001e138       0x44 build/default/production/_ext/411819097/ff.o
                0x0001e138                f_stat

.text.SYS_INT_SourceDisable%577
                0x0001e17c       0x44
 .text.SYS_INT_SourceDisable
                0x0001e17c       0x44 build/default/production/_ext/1881668453/sys_int.o
                0x0001e17c                SYS_INT_SourceDisable

.text._DRV_GMAC_LinkStateNegComplete%578
                0x0001e1c0       0x42
 .text._DRV_GMAC_LinkStateNegComplete
                0x0001e1c0       0x42 build/default/production/_ext/1546807373/drv_gmac.o

.text._TcpSocketSetSourceInterface%579
                0x0001e202       0x42
 .text._TcpSocketSetSourceInterface
                0x0001e202       0x42 build/default/production/_ext/1033058136/tcp.o

.text.TCPIP_Helper_FormatNetBIOSName%580
                0x0001e244       0x42
 .text.TCPIP_Helper_FormatNetBIOSName
                0x0001e244       0x42 build/default/production/_ext/1033058136/tcpip_helpers.o
                0x0001e244                TCPIP_Helper_FormatNetBIOSName

.text._UDPSetNewRxPacket%581
                0x0001e286       0x42
 .text._UDPSetNewRxPacket
                0x0001e286       0x42 build/default/production/_ext/1033058136/udp.o

.text.TCPIP_UDP_SourceIPAddressSet%582
                0x0001e2c8       0x42
 .text.TCPIP_UDP_SourceIPAddressSet
                0x0001e2c8       0x42 build/default/production/_ext/1033058136/udp.o
                0x0001e2c8                TCPIP_UDP_SourceIPAddressSet

.text%583       0x0001e30c       0x40
 .text          0x0001e30c       0x40 c:/program files/microchip/xc32/v4.00/bin/bin/../../lib/gcc/pic32c/8.3.1/thumb/v7e-m+fp/hard/crtbegin.o

.text.DRV_ETHPHY_Reset%584
                0x0001e34c       0x40
 .text.DRV_ETHPHY_Reset
                0x0001e34c       0x40 build/default/production/_ext/444070925/drv_ethphy.o
                0x0001e34c                DRV_ETHPHY_Reset

.text.DRV_ETHPHY_NegotiationIsComplete%585
                0x0001e38c       0x40
 .text.DRV_ETHPHY_NegotiationIsComplete
                0x0001e38c       0x40 build/default/production/_ext/444070925/drv_ethphy.o
                0x0001e38c                DRV_ETHPHY_NegotiationIsComplete

.text.DRV_ETHPHY_RestartNegotiation%586
                0x0001e3cc       0x40
 .text.DRV_ETHPHY_RestartNegotiation
                0x0001e3cc       0x40 build/default/production/_ext/444070925/drv_ethphy.o
                0x0001e3cc                DRV_ETHPHY_RestartNegotiation

.text._DRV_ETHPHY_ResetPhaseWrite%587
                0x0001e40c       0x40
 .text._DRV_ETHPHY_ResetPhaseWrite
                0x0001e40c       0x40 build/default/production/_ext/444070925/drv_ethphy.o

.text._MacTxDiscardQueues%588
                0x0001e44c       0x40
 .text._MacTxDiscardQueues
                0x0001e44c       0x40 build/default/production/_ext/1546807373/drv_gmac.o

.rodata.DRV_MIIM_OBJECT_BASE_Default%589
                0x0001e48c       0x40
 .rodata.DRV_MIIM_OBJECT_BASE_Default
                0x0001e48c       0x40 build/default/production/_ext/438849557/drv_miim.o
                0x0001e48c                DRV_MIIM_OBJECT_BASE_Default

.rodata.TRAN_SPEED_MULT_TABLE.9230%590
                0x0001e4cc       0x40
 .rodata.TRAN_SPEED_MULT_TABLE.9230
                0x0001e4cc       0x40 build/default/production/_ext/20954303/drv_sdmmc.o

.text._TCP_PortIsAvailable%591
                0x0001e50c       0x40
 .text._TCP_PortIsAvailable
                0x0001e50c       0x40 build/default/production/_ext/1033058136/tcp.o

.text.TCPIP_Helper_ProtectedSingleListNodeRemove%592
                0x0001e54c       0x40
 .text.TCPIP_Helper_ProtectedSingleListNodeRemove
                0x0001e54c       0x40 build/default/production/_ext/1033058136/tcpip_helpers.o
                0x0001e54c                TCPIP_Helper_ProtectedSingleListNodeRemove

.rodata%593     0x0001e58c       0x40
 .rodata        0x0001e58c       0x40 build/default/production/_ext/1033058136/tcpip_helpers.o

.text.TCPIP_STACK_NetByAddress%594
                0x0001e5cc       0x40
 .text.TCPIP_STACK_NetByAddress
                0x0001e5cc       0x40 build/default/production/_ext/1033058136/tcpip_manager.o
                0x0001e5cc                TCPIP_STACK_NetByAddress

.text._TCPIP_PKT_PacketAcknowledge%595
                0x0001e60c       0x40
 .text._TCPIP_PKT_PacketAcknowledge
                0x0001e60c       0x40 build/default/production/_ext/1033058136/tcpip_packet.o
                0x0001e60c                _TCPIP_PKT_PacketAcknowledge

.text._UDPIsAvailablePort%596
                0x0001e64c       0x40
 .text._UDPIsAvailablePort
                0x0001e64c       0x40 build/default/production/_ext/1033058136/udp.o

.text.NET_PRES_SocketGetTransportHandle%597
                0x0001e68c       0x40
 .text.NET_PRES_SocketGetTransportHandle
                0x0001e68c       0x40 build/default/production/_ext/1508031553/net_pres.o
                0x0001e68c                NET_PRES_SocketGetTransportHandle

.text.TC0_TimerInitialize%598
                0x0001e6cc       0x40
 .text.TC0_TimerInitialize
                0x0001e6cc       0x40 build/default/production/_ext/829342655/plib_tc0.o
                0x0001e6cc                TC0_TimerInitialize

.text.disk_checkCommandStatus%599
                0x0001e70c       0x40
 .text.disk_checkCommandStatus
                0x0001e70c       0x40 build/default/production/_ext/565198302/diskio.o

.text.SYS_FS_MEDIA_MANAGER_Register%600
                0x0001e74c       0x40
 .text.SYS_FS_MEDIA_MANAGER_Register
                0x0001e74c       0x40 build/default/production/_ext/1269487135/sys_fs_media_manager.o
                0x0001e74c                SYS_FS_MEDIA_MANAGER_Register

.text.adjust_size%601
                0x0001e78c       0x40
 .text.adjust_size
                0x0001e78c       0x40 c:/program files/microchip/xc32/v4.00/bin/bin/../../lib/gcc/pic32c/8.3.1/../../../../pic32c/lib/thumb/v7e-m+fp/hard\libc-musl.a(malloc.o)

.text._DRV_MIIM_GetObjectAndLock%602
                0x0001e7cc       0x3e
 .text._DRV_MIIM_GetObjectAndLock
                0x0001e7cc       0x3e build/default/production/_ext/438849557/drv_miim.o

.text._TCPSetHalfFlushFlag%603
                0x0001e80a       0x3e
 .text._TCPSetHalfFlushFlag
                0x0001e80a       0x3e build/default/production/_ext/1033058136/tcp.o

.text._TCPIP_HEAP_Delete%604
                0x0001e848       0x3e
 .text._TCPIP_HEAP_Delete
                0x0001e848       0x3e build/default/production/_ext/1033058136/tcpip_heap_internal.o

.text.TCPIP_UDP_TxOffsetSet%605
                0x0001e886       0x3e
 .text.TCPIP_UDP_TxOffsetSet
                0x0001e886       0x3e build/default/production/_ext/1033058136/udp.o
                0x0001e886                TCPIP_UDP_TxOffsetSet

.text.putc_bfd%606
                0x0001e8c4       0x3e
 .text.putc_bfd
                0x0001e8c4       0x3e build/default/production/_ext/411819097/ff.o

.text.FATFS_getclusters%607
                0x0001e902       0x3e
 .text.FATFS_getclusters
                0x0001e902       0x3e build/default/production/_ext/1269487135/sys_fs_fat_interface.o
                0x0001e902                FATFS_getclusters

.text._DRV_ETHPHY_NegCompletePhaseAN_Complete%608
                0x0001e940       0x3c
 .text._DRV_ETHPHY_NegCompletePhaseAN_Complete
                0x0001e940       0x3c build/default/production/_ext/444070925/drv_ethphy.o

.text.DRV_SDMMC_EventHandlerSet%609
                0x0001e97c       0x3c
 .text.DRV_SDMMC_EventHandlerSet
                0x0001e97c       0x3c build/default/production/_ext/20954303/drv_sdmmc.o
                0x0001e97c                DRV_SDMMC_EventHandlerSet

.text.hexatob%610
                0x0001e9b8       0x3c
 .text.hexatob  0x0001e9b8       0x3c build/default/production/_ext/1033058136/helpers.o
                0x0001e9b8                hexatob

.text._TcpSocketKill%611
                0x0001e9f4       0x3c
 .text._TcpSocketKill
                0x0001e9f4       0x3c build/default/production/_ext/1033058136/tcp.o

.text.TCPIP_TCP_Close%612
                0x0001ea30       0x3c
 .text.TCPIP_TCP_Close
                0x0001ea30       0x3c build/default/production/_ext/1033058136/tcp.o
                0x0001ea30                TCPIP_TCP_Close

.text.TCPIP_Helper_ProtectedSingleListHeadRemove%613
                0x0001ea6c       0x3c
 .text.TCPIP_Helper_ProtectedSingleListHeadRemove
                0x0001ea6c       0x3c build/default/production/_ext/1033058136/tcpip_helpers.o
                0x0001ea6c                TCPIP_Helper_ProtectedSingleListHeadRemove

.text.TCPIP_Helper_ProtectedSingleListRemoveAll%614
                0x0001eaa8       0x3c
 .text.TCPIP_Helper_ProtectedSingleListRemoveAll
                0x0001eaa8       0x3c build/default/production/_ext/1033058136/tcpip_helpers.o
                0x0001eaa8                TCPIP_Helper_ProtectedSingleListRemoveAll

.text.TCPIP_STACK_MACIdToString%615
                0x0001eae4       0x3c
 .text.TCPIP_STACK_MACIdToString
                0x0001eae4       0x3c build/default/production/_ext/1033058136/tcpip_manager.o
                0x0001eae4                TCPIP_STACK_MACIdToString

.text._TCPIP_PKT_PacketFree%616
                0x0001eb20       0x3c
 .text._TCPIP_PKT_PacketFree
                0x0001eb20       0x3c build/default/production/_ext/1033058136/tcpip_packet.o
                0x0001eb20                _TCPIP_PKT_PacketFree

.text._TCPIP_AnnounceCleanup%617
                0x0001eb5c       0x3c
 .text._TCPIP_AnnounceCleanup
                0x0001eb5c       0x3c build/default/production/_ext/1033058136/tcpip_announce.o

.text.TCPIP_UDP_OpenClientSkt%618
                0x0001eb98       0x3c
 .text.TCPIP_UDP_OpenClientSkt
                0x0001eb98       0x3c build/default/production/_ext/1033058136/udp.o
                0x0001eb98                TCPIP_UDP_OpenClientSkt

.text.move_window%619
                0x0001ebd4       0x3c
 .text.move_window
                0x0001ebd4       0x3c build/default/production/_ext/411819097/ff.o

.text.SYS_TIME_GetTimerObject%620
                0x0001ec10       0x3c
 .text.SYS_TIME_GetTimerObject
                0x0001ec10       0x3c build/default/production/_ext/101884895/sys_time.o

.text.SYS_TIME_TimerDestroy%621
                0x0001ec4c       0x3c
 .text.SYS_TIME_TimerDestroy
                0x0001ec4c       0x3c build/default/production/_ext/101884895/sys_time.o
                0x0001ec4c                SYS_TIME_TimerDestroy

.text._DRV_ETHPHY_SetupPhaseNegotiate_SubPhase1%622
                0x0001ec88       0x3a
 .text._DRV_ETHPHY_SetupPhaseNegotiate_SubPhase1
                0x0001ec88       0x3a build/default/production/_ext/444070925/drv_ethphy.o

.text._DRV_ETHPHY_NegRestartPhaseRead%623
                0x0001ecc2       0x3a
 .text._DRV_ETHPHY_NegRestartPhaseRead
                0x0001ecc2       0x3a build/default/production/_ext/444070925/drv_ethphy.o

.text._DRV_MIIM_ReleaseOpDcpt%624
                0x0001ecfc       0x3a
 .text._DRV_MIIM_ReleaseOpDcpt
                0x0001ecfc       0x3a build/default/production/_ext/438849557/drv_miim.o

.text.Shell_FileOpen%625
                0x0001ed36       0x3a
 .text.Shell_FileOpen
                0x0001ed36       0x3a build/default/production/_ext/1751889202/sys_fs_shell.o

.text.Shell_FileStat%626
                0x0001ed70       0x3a
 .text.Shell_FileStat
                0x0001ed70       0x3a build/default/production/_ext/1751889202/sys_fs_shell.o

.text.TCPIP_Helper_ProtectedSingleListTailAdd%627
                0x0001edaa       0x3a
 .text.TCPIP_Helper_ProtectedSingleListTailAdd
                0x0001edaa       0x3a build/default/production/_ext/1033058136/tcpip_helpers.o
                0x0001edaa                TCPIP_Helper_ProtectedSingleListTailAdd

.text.putc_flush%628
                0x0001ede4       0x3a
 .text.putc_flush
                0x0001ede4       0x3a build/default/production/_ext/411819097/ff.o

.text.disk_ioctl%629
                0x0001ee1e       0x3a
 .text.disk_ioctl
                0x0001ee1e       0x3a build/default/production/_ext/565198302/diskio.o
                0x0001ee1e                disk_ioctl

.text.DRV_ETHPHY_HWConfigFlagsGet%630
                0x0001ee58       0x38
 .text.DRV_ETHPHY_HWConfigFlagsGet
                0x0001ee58       0x38 build/default/production/_ext/444070925/drv_ethphy.o
                0x0001ee58                DRV_ETHPHY_HWConfigFlagsGet

.text._DRV_ETHPHY_SetupPhaseNegotiate_SubPhase6%631
                0x0001ee90       0x38
 .text._DRV_ETHPHY_SetupPhaseNegotiate_SubPhase6
                0x0001ee90       0x38 build/default/production/_ext/444070925/drv_ethphy.o

.text.DRV_GMAC_Open%632
                0x0001eec8       0x38
 .text.DRV_GMAC_Open
                0x0001eec8       0x38 build/default/production/_ext/1546807373/drv_gmac.o
                0x0001eec8                DRV_GMAC_Open

.text.DRV_PIC32CGMAC_LibGetMacAddr%633
                0x0001ef00       0x38
 .text.DRV_PIC32CGMAC_LibGetMacAddr
                0x0001ef00       0x38 build/default/production/_ext/1546807373/drv_gmac_lib_samE5x.o
                0x0001ef00                DRV_PIC32CGMAC_LibGetMacAddr

.text.DRV_MIIM_DeregisterCallback%634
                0x0001ef38       0x38
 .text.DRV_MIIM_DeregisterCallback
                0x0001ef38       0x38 build/default/production/_ext/438849557/drv_miim.o
                0x0001ef38                DRV_MIIM_DeregisterCallback

.text._TCP_EphemeralPortAllocate%635
                0x0001ef70       0x38
 .text._TCP_EphemeralPortAllocate
                0x0001ef70       0x38 build/default/production/_ext/1033058136/tcp.o

.text._TCPIP_Helper_SecurePortEntry%636
                0x0001efa8       0x38
 .text._TCPIP_Helper_SecurePortEntry
                0x0001efa8       0x38 build/default/production/_ext/1033058136/tcpip_helpers.o

.text._TCPIPStackModuleRxInsert%637
                0x0001efe0       0x38
 .text._TCPIPStackModuleRxInsert
                0x0001efe0       0x38 build/default/production/_ext/1033058136/tcpip_manager.o
                0x0001efe0                _TCPIPStackModuleRxInsert

.text.TCPIP_PKT_PacketMACFormat%638
                0x0001f018       0x38
 .text.TCPIP_PKT_PacketMACFormat
                0x0001f018       0x38 build/default/production/_ext/1033058136/tcpip_packet.o
                0x0001f018                TCPIP_PKT_PacketMACFormat

.text._UDPAllocateEphemeralPort%639
                0x0001f050       0x38
 .text._UDPAllocateEphemeralPort
                0x0001f050       0x38 build/default/production/_ext/1033058136/udp.o

.text.SYS_TIME_ResourceUnlock%640
                0x0001f088       0x38
 .text.SYS_TIME_ResourceUnlock
                0x0001f088       0x38 build/default/production/_ext/101884895/sys_time.o

.rodata.TCPIP_HOSTS_CONFIGURATION%641
                0x0001f0c0       0x38
 .rodata.TCPIP_HOSTS_CONFIGURATION
                0x0001f0c0       0x38 build/default/production/_ext/1171490990/initialization.o
                0x0001f0c0                TCPIP_HOSTS_CONFIGURATION

.text.__aeabi_dcmpgt%642
                0x0001f0f8       0x38
 .text.__aeabi_dcmpgt
                0x0001f0f8       0x38 c:/program files/microchip/xc32/v4.00/bin/bin/../../lib/gcc/pic32c/8.3.1/../../../../pic32c/lib/thumb/v7e-m+fp/hard\libm-emfloat.a(floatasmops_arm.o)
                0x0001f0f8                __aeabi_dcmpgt

.text.__aeabi_dcmplt%643
                0x0001f130       0x38
 .text.__aeabi_dcmplt
                0x0001f130       0x38 c:/program files/microchip/xc32/v4.00/bin/bin/../../lib/gcc/pic32c/8.3.1/../../../../pic32c/lib/thumb/v7e-m+fp/hard\libm-emfloat.a(floatasmops_arm.o)
                0x0001f130                __aeabi_dcmplt

.text.bin_index%644
                0x0001f168       0x38
 .text.bin_index
                0x0001f168       0x38 c:/program files/microchip/xc32/v4.00/bin/bin/../../lib/gcc/pic32c/8.3.1/../../../../pic32c/lib/thumb/v7e-m+fp/hard\libc-musl.a(malloc.o)

.text.__fmt_state%645
                0x0001f1a0       0x38
 .text.__fmt_state
                0x0001f1a0       0x38 c:/program files/microchip/xc32/v4.00/bin/bin/../../lib/gcc/pic32c/8.3.1/../../../../pic32c/lib/thumb/v7e-m+fp/hard\libc-musl.a(__printf_core.o)
                0x0001f1a0                __fmt_state

.text._DRV_ETHPHY_NegCompletePhaseRead1%646
                0x0001f1d8       0x36
 .text._DRV_ETHPHY_NegCompletePhaseRead1
                0x0001f1d8       0x36 build/default/production/_ext/444070925/drv_ethphy.o

.text.Shell_FileDelete%647
                0x0001f20e       0x36
 .text.Shell_FileDelete
                0x0001f20e       0x36 build/default/production/_ext/1751889202/sys_fs_shell.o

.text.Shell_DirMake%648
                0x0001f244       0x36
 .text.Shell_DirMake
                0x0001f244       0x36 build/default/production/_ext/1751889202/sys_fs_shell.o

.text.Shell_DirOpen%649
                0x0001f27a       0x36
 .text.Shell_DirOpen
                0x0001f27a       0x36 build/default/production/_ext/1751889202/sys_fs_shell.o

.text._TCPSetSourceAddress%650
                0x0001f2b0       0x36
 .text._TCPSetSourceAddress
                0x0001f2b0       0x36 build/default/production/_ext/1033058136/tcp.o

.text._DNS_NetIsValid%651
                0x0001f2e6       0x36
 .text._DNS_NetIsValid
                0x0001f2e6       0x36 build/default/production/_ext/1033058136/dns.o

.text._DRV_ETHPHY_SetupPhaseNegotiate_SubPhase2%652
                0x0001f31c       0x34
 .text._DRV_ETHPHY_SetupPhaseNegotiate_SubPhase2
                0x0001f31c       0x34 build/default/production/_ext/444070925/drv_ethphy.o

.text.DRV_MIIM_Deinitialize%653
                0x0001f350       0x34
 .text.DRV_MIIM_Deinitialize
                0x0001f350       0x34 build/default/production/_ext/438849557/drv_miim.o
                0x0001f350                DRV_MIIM_Deinitialize

.text._TCP_SktFlagsGet%654
                0x0001f384       0x34
 .text._TCP_SktFlagsGet
                0x0001f384       0x34 build/default/production/_ext/1033058136/tcp.o

.text._ARPSetEntry%655
                0x0001f3b8       0x34
 .text._ARPSetEntry
                0x0001f3b8       0x34 build/default/production/_ext/1033058136/arp.o

.text.TCPIP_ARP_HandlerRegister%656
                0x0001f3ec       0x34
 .text.TCPIP_ARP_HandlerRegister
                0x0001f3ec       0x34 build/default/production/_ext/1033058136/arp.o
                0x0001f3ec                TCPIP_ARP_HandlerRegister

.text._DNSGetData%657
                0x0001f420       0x34
 .text._DNSGetData
                0x0001f420       0x34 build/default/production/_ext/1033058136/dns.o

.text._FieldSetMacName%658
                0x0001f454       0x34
 .text._FieldSetMacName
                0x0001f454       0x34 build/default/production/_ext/1033058136/tcpip_announce.o
                0x0001f454                _FieldSetMacName

.text.CommandQuit%659
                0x0001f488       0x34
 .text.CommandQuit
                0x0001f488       0x34 build/default/production/_ext/1376093119/sys_command.o

.text.SYS_CONSOLE_Read%660
                0x0001f4bc       0x34
 .text.SYS_CONSOLE_Read
                0x0001f4bc       0x34 build/default/production/_ext/1832805299/sys_console.o
                0x0001f4bc                SYS_CONSOLE_Read

.text.SYS_CONSOLE_ReadCountGet%661
                0x0001f4f0       0x34
 .text.SYS_CONSOLE_ReadCountGet
                0x0001f4f0       0x34 build/default/production/_ext/1832805299/sys_console.o
                0x0001f4f0                SYS_CONSOLE_ReadCountGet

.text.SYS_CONSOLE_Write%662
                0x0001f524       0x34
 .text.SYS_CONSOLE_Write
                0x0001f524       0x34 build/default/production/_ext/1832805299/sys_console.o
                0x0001f524                SYS_CONSOLE_Write

.text.Console_UART_Read%663
                0x0001f558       0x34
 .text.Console_UART_Read
                0x0001f558       0x34 build/default/production/_ext/1832805299/sys_console_uart.o
                0x0001f558                Console_UART_Read

.text.Console_UART_Write%664
                0x0001f58c       0x34
 .text.Console_UART_Write
                0x0001f58c       0x34 build/default/production/_ext/1832805299/sys_console_uart.o
                0x0001f58c                Console_UART_Write

.text.dec_lock%665
                0x0001f5c0       0x34
 .text.dec_lock
                0x0001f5c0       0x34 build/default/production/_ext/411819097/ff.o

.text.f_close%666
                0x0001f5f4       0x34
 .text.f_close  0x0001f5f4       0x34 build/default/production/_ext/411819097/ff.o
                0x0001f5f4                f_close

.text.f_fdisk%667
                0x0001f628       0x34
 .text.f_fdisk  0x0001f628       0x34 build/default/production/_ext/411819097/ff.o
                0x0001f628                f_fdisk

.text.SYS_TIME_ResourceLock%668
                0x0001f65c       0x34
 .text.SYS_TIME_ResourceLock
                0x0001f65c       0x34 build/default/production/_ext/101884895/sys_time.o

.rodata.tcpipMACPIC32CINTInitData%669
                0x0001f690       0x34
 .rodata.tcpipMACPIC32CINTInitData
                0x0001f690       0x34 build/default/production/_ext/1171490990/initialization.o
                0x0001f690                tcpipMACPIC32CINTInitData

.text.__aeabi_dcmpeq%670
                0x0001f6c4       0x34
 .text.__aeabi_dcmpeq
                0x0001f6c4       0x34 c:/program files/microchip/xc32/v4.00/bin/bin/../../lib/gcc/pic32c/8.3.1/../../../../pic32c/lib/thumb/v7e-m+fp/hard\libm-emfloat.a(floatasmops_arm.o)
                0x0001f6c4                __aeabi_dcmpeq

.text.stpncpy%671
                0x0001f6f8       0x34
 .text.stpncpy  0x0001f6f8       0x34 c:/program files/microchip/xc32/v4.00/bin/bin/../../lib/gcc/pic32c/8.3.1/../../../../pic32c/lib/thumb/v7e-m+fp/hard\libc-musl.a(stpncpy.o)
                0x0001f6f8                __stpncpy
                0x0001f6f8                stpncpy

.text._DRV_PHY_SMIReadStart%672
                0x0001f72c       0x32
 .text._DRV_PHY_SMIReadStart
                0x0001f72c       0x32 build/default/production/_ext/444070925/drv_ethphy.o

.text._DRV_PHY_SMIWriteStart%673
                0x0001f75e       0x32
 .text._DRV_PHY_SMIWriteStart
                0x0001f75e       0x32 build/default/production/_ext/444070925/drv_ethphy.o

.text._DRV_ETHPHY_SetupPhaseIdle%674
                0x0001f790       0x32
 .text._DRV_ETHPHY_SetupPhaseIdle
                0x0001f790       0x32 build/default/production/_ext/444070925/drv_ethphy.o

.text.DRV_PIC32CGMAC_LibTxAckPendPacket%675
                0x0001f7c2       0x32
 .text.DRV_PIC32CGMAC_LibTxAckPendPacket
                0x0001f7c2       0x32 build/default/production/_ext/1546807373/drv_gmac_lib_samE5x.o
                0x0001f7c2                DRV_PIC32CGMAC_LibTxAckPendPacket

.text.TCPIP_Helper_ProtectedSingleListDeinitialize%676
                0x0001f7f4       0x32
 .text.TCPIP_Helper_ProtectedSingleListDeinitialize
                0x0001f7f4       0x32 build/default/production/_ext/1033058136/tcpip_helpers.o
                0x0001f7f4                TCPIP_Helper_ProtectedSingleListDeinitialize

.text._FieldSetHostName%677
                0x0001f826       0x32
 .text._FieldSetHostName
                0x0001f826       0x32 build/default/production/_ext/1033058136/tcpip_announce.o
                0x0001f826                _FieldSetHostName

.text._DRV_PHY_NegCompleteSetOperResult%678
                0x0001f858       0x30
 .text._DRV_PHY_NegCompleteSetOperResult
                0x0001f858       0x30 build/default/production/_ext/444070925/drv_ethphy.o

.text._DRV_ETHPHY_SetupPhaseNegotiate_SubPhase3%679
                0x0001f888       0x30
 .text._DRV_ETHPHY_SetupPhaseNegotiate_SubPhase3
                0x0001f888       0x30 build/default/production/_ext/444070925/drv_ethphy.o

.text.DRV_GMAC_Status%680
                0x0001f8b8       0x30
 .text.DRV_GMAC_Status
                0x0001f8b8       0x30 build/default/production/_ext/1546807373/drv_gmac.o
                0x0001f8b8                DRV_GMAC_Status

.text.DRV_PIC32CGMAC_LibSetMacAddr%681
                0x0001f8e8       0x30
 .text.DRV_PIC32CGMAC_LibSetMacAddr
                0x0001f8e8       0x30 build/default/production/_ext/1546807373/drv_gmac_lib_samE5x.o
                0x0001f8e8                DRV_PIC32CGMAC_LibSetMacAddr

.text.DRV_PIC32CGMAC_LibClearPriorityQue%682
                0x0001f918       0x30
 .text.DRV_PIC32CGMAC_LibClearPriorityQue
                0x0001f918       0x30 build/default/production/_ext/1546807373/drv_gmac_lib_samE5x.o
                0x0001f918                DRV_PIC32CGMAC_LibClearPriorityQue

.rodata.sdmmcMediaFunctions%683
                0x0001f948       0x30
 .rodata.sdmmcMediaFunctions
                0x0001f948       0x30 build/default/production/_ext/20954303/drv_sdmmc_file_system.o
                0x0001f948                sdmmcMediaFunctions

.text._TCPSocketTxFreeSize%684
                0x0001f978       0x30
 .text._TCPSocketTxFreeSize
                0x0001f978       0x30 build/default/production/_ext/1033058136/tcp.o

.text.TCPIP_ARP_HashEntryDelete%685
                0x0001f9a8       0x30
 .text.TCPIP_ARP_HashEntryDelete
                0x0001f9a8       0x30 build/default/production/_ext/1033058136/arp.o
                0x0001f9a8                TCPIP_ARP_HashEntryDelete

.text.TCPIP_IPV4_CheckPktTx%686
                0x0001f9d8       0x30
 .text.TCPIP_IPV4_CheckPktTx
                0x0001f9d8       0x30 build/default/production/_ext/1033058136/ipv4.o

.text.fnv_32_hash%687
                0x0001fa08       0x30
 .text.fnv_32_hash
                0x0001fa08       0x30 build/default/production/_ext/1033058136/hash_fnv.o
                0x0001fa08                fnv_32_hash

.text.TCPIP_OAHASH_EntriesRemoveAll%688
                0x0001fa38       0x30
 .text.TCPIP_OAHASH_EntriesRemoveAll
                0x0001fa38       0x30 build/default/production/_ext/1033058136/oahash.o
                0x0001fa38                TCPIP_OAHASH_EntriesRemoveAll

.text.TCPIP_Helper_StringToPowerMode%689
                0x0001fa68       0x30
 .text.TCPIP_Helper_StringToPowerMode
                0x0001fa68       0x30 build/default/production/_ext/1033058136/tcpip_helpers.o
                0x0001fa68                TCPIP_Helper_StringToPowerMode

.text.TCPIP_PKT_Initialize%690
                0x0001fa98       0x30
 .text.TCPIP_PKT_Initialize
                0x0001fa98       0x30 build/default/production/_ext/1033058136/tcpip_packet.o
                0x0001fa98                TCPIP_PKT_Initialize

.rodata.month%691
                0x0001fac8       0x30
 .rodata.month  0x0001fac8       0x30 build/default/production/_ext/1033058136/ftp.o

.rodata.iperfCmdTbl%692
                0x0001faf8       0x30
 .rodata.iperfCmdTbl
                0x0001faf8       0x30 build/default/production/_ext/1033058136/iperf.o

.text.SendCommandCharacter%693
                0x0001fb28       0x30
 .text.SendCommandCharacter
                0x0001fb28       0x30 build/default/production/_ext/1376093119/sys_command.o

.text._keyEndProcess%694
                0x0001fb58       0x30
 .text._keyEndProcess
                0x0001fb58       0x30 build/default/production/_ext/1376093119/sys_command.o

.text._keyHomeProcess%695
                0x0001fb88       0x30
 .text._keyHomeProcess
                0x0001fb88       0x30 build/default/production/_ext/1376093119/sys_command.o

.text.SYS_CONSOLE_Message%696
                0x0001fbb8       0x30
 .text.SYS_CONSOLE_Message
                0x0001fbb8       0x30 build/default/production/_ext/1832805299/sys_console.o
                0x0001fbb8                SYS_CONSOLE_Message

.text.Console_UART_WriteCountGet%697
                0x0001fbe8       0x30
 .text.Console_UART_WriteCountGet
                0x0001fbe8       0x30 build/default/production/_ext/1832805299/sys_console_uart.o
                0x0001fbe8                Console_UART_WriteCountGet

.text.Console_UART_WriteFreeBufferCountGet%698
                0x0001fc18       0x30
 .text.Console_UART_WriteFreeBufferCountGet
                0x0001fc18       0x30 build/default/production/_ext/1832805299/sys_console_uart.o
                0x0001fc18                Console_UART_WriteFreeBufferCountGet

.text.Console_UART_ReadFreeBufferCountGet%699
                0x0001fc48       0x30
 .text.Console_UART_ReadFreeBufferCountGet
                0x0001fc48       0x30 build/default/production/_ext/1832805299/sys_console_uart.o
                0x0001fc48                Console_UART_ReadFreeBufferCountGet

.text.Console_UART_ReadCountGet%700
                0x0001fc78       0x30
 .text.Console_UART_ReadCountGet
                0x0001fc78       0x30 build/default/production/_ext/1832805299/sys_console_uart.o
                0x0001fc78                Console_UART_ReadCountGet

.text.f_puts%701
                0x0001fca8       0x30
 .text.f_puts   0x0001fca8       0x30 build/default/production/_ext/411819097/ff.o
                0x0001fca8                f_puts

.text.disk_write%702
                0x0001fcd8       0x30
 .text.disk_write
                0x0001fcd8       0x30 build/default/production/_ext/565198302/diskio.o
                0x0001fcd8                disk_write

.text.SYS_FS_MEDIA_MANAGER_EventHandler%703
                0x0001fd08       0x30
 .text.SYS_FS_MEDIA_MANAGER_EventHandler
                0x0001fd08       0x30 build/default/production/_ext/1269487135/sys_fs_media_manager.o
                0x0001fd08                SYS_FS_MEDIA_MANAGER_EventHandler

.text.SYS_TIME_UpdateTimerList%704
                0x0001fd38       0x30
 .text.SYS_TIME_UpdateTimerList
                0x0001fd38       0x30 build/default/production/_ext/101884895/sys_time.o

.text.SYS_TIME_Counter64Get%705
                0x0001fd68       0x30
 .text.SYS_TIME_Counter64Get
                0x0001fd68       0x30 build/default/production/_ext/101884895/sys_time.o
                0x0001fd68                SYS_TIME_Counter64Get

.text.SYS_Tasks%706
                0x0001fd98       0x30
 .text.SYS_Tasks
                0x0001fd98       0x30 build/default/production/_ext/1171490990/tasks.o
                0x0001fd98                SYS_Tasks

.text.wc_CryptoCb_FindDevice%707
                0x0001fdc8       0x30
 .text.wc_CryptoCb_FindDevice
                0x0001fdc8       0x30 build/default/production/_ext/1664057780/cryptocb.o

.text.alloc_rev%708
                0x0001fdf8       0x30
 .text.alloc_rev
                0x0001fdf8       0x30 c:/program files/microchip/xc32/v4.00/bin/bin/../../lib/gcc/pic32c/8.3.1/../../../../pic32c/lib/thumb/v7e-m+fp/hard\libc-musl.a(malloc.o)

.text%709       0x0001fe28       0x30
 .text          0x0001fe28       0x30 c:/program files/microchip/xc32/v4.00/bin/bin/../../lib/gcc/pic32c/8.3.1/thumb/v7e-m+fp/hard\libgcc.a(_aeabi_uldivmod.o)
                0x0001fe28                __aeabi_uldivmod

.text._XtlEventsTcp2Eth%710
                0x0001fe58       0x2e
 .text._XtlEventsTcp2Eth
                0x0001fe58       0x2e build/default/production/_ext/1546807373/drv_gmac.o

.text.TCPIP_TCP_Connect%711
                0x0001fe86       0x2e
 .text.TCPIP_TCP_Connect
                0x0001fe86       0x2e build/default/production/_ext/1033058136/tcp.o
                0x0001fe86                TCPIP_TCP_Connect

.text._DNS_CleanCacheEntry%712
                0x0001feb4       0x2e
 .text._DNS_CleanCacheEntry
                0x0001feb4       0x2e build/default/production/_ext/1033058136/dns.o

.text._DNSClientCleanup%713
                0x0001fee2       0x2e
 .text._DNSClientCleanup
                0x0001fee2       0x2e build/default/production/_ext/1033058136/dns.o

.text.TCPIP_STACK_DNSServiceCanStart%714
                0x0001ff10       0x2e
 .text.TCPIP_STACK_DNSServiceCanStart
                0x0001ff10       0x2e build/default/production/_ext/1033058136/tcpip_manager.o
                0x0001ff10                TCPIP_STACK_DNSServiceCanStart

.text._UDPFreeTxResources%715
                0x0001ff3e       0x2e
 .text._UDPFreeTxResources
                0x0001ff3e       0x2e build/default/production/_ext/1033058136/udp.o

.text.wc_CryptoCb_RegisterDevice%716
                0x0001ff6c       0x2e
 .text.wc_CryptoCb_RegisterDevice
                0x0001ff6c       0x2e build/default/production/_ext/1664057780/cryptocb.o
                0x0001ff6c                wc_CryptoCb_RegisterDevice

.text.trim%717  0x0001ff9a       0x2e
 .text.trim     0x0001ff9a       0x2e c:/program files/microchip/xc32/v4.00/bin/bin/../../lib/gcc/pic32c/8.3.1/../../../../pic32c/lib/thumb/v7e-m+fp/hard\libc-musl.a(malloc.o)

.text.strstr%718
                0x0001ffc8       0x2e
 .text.strstr   0x0001ffc8       0x2e c:/program files/microchip/xc32/v4.00/bin/bin/../../lib/gcc/pic32c/8.3.1/../../../../pic32c/lib/thumb/v7e-m+fp/hard\libc-musl.a(strstr.o)
                0x0001ffc8                strstr

.text.DRV_ETHPHY_Close%719
                0x0001fff8       0x2c
 .text.DRV_ETHPHY_Close
                0x0001fff8       0x2c build/default/production/_ext/444070925/drv_ethphy.o
                0x0001fff8                DRV_ETHPHY_Close

.text.DRV_ETHPHY_VendorDataGet%720
                0x00020024       0x2c
 .text.DRV_ETHPHY_VendorDataGet
                0x00020024       0x2c build/default/production/_ext/444070925/drv_ethphy.o
                0x00020024                DRV_ETHPHY_VendorDataGet

.text.DRV_ETHPHY_Reinitialize%721
                0x00020050       0x2c
 .text.DRV_ETHPHY_Reinitialize
                0x00020050       0x2c build/default/production/_ext/444070925/drv_ethphy.o
                0x00020050                DRV_ETHPHY_Reinitialize

.text._DRV_ETHPHY_LinkStatPhaseRefresh%722
                0x0002007c       0x2c
 .text._DRV_ETHPHY_LinkStatPhaseRefresh
                0x0002007c       0x2c build/default/production/_ext/444070925/drv_ethphy.o

.text.GMAC_InterruptHandler%723
                0x000200a8       0x2c
 .text.GMAC_InterruptHandler
                0x000200a8       0x2c build/default/production/_ext/1546807373/drv_gmac_lib_samE5x.o
                0x000200a8                GMAC_InterruptHandler

.text.DRV_SDMMC_IsAttached%724
                0x000200d4       0x2c
 .text.DRV_SDMMC_IsAttached
                0x000200d4       0x2c build/default/production/_ext/20954303/drv_sdmmc.o
                0x000200d4                DRV_SDMMC_IsAttached

.text.TCPIP_TCP_SignalHandlerRegister%725
                0x00020100       0x2c
 .text.TCPIP_TCP_SignalHandlerRegister
                0x00020100       0x2c build/default/production/_ext/1033058136/tcp.o
                0x00020100                TCPIP_TCP_SignalHandlerRegister

.text._ARPRemoveEntry%726
                0x0002012c       0x2c
 .text._ARPRemoveEntry
                0x0002012c       0x2c build/default/production/_ext/1033058136/arp.o

.text.TCPIP_STACK_AddressServiceDefaultSet%727
                0x00020158       0x2c
 .text.TCPIP_STACK_AddressServiceDefaultSet
                0x00020158       0x2c build/default/production/_ext/1033058136/tcpip_manager.o
                0x00020158                TCPIP_STACK_AddressServiceDefaultSet

.text.TCPIP_STACK_IsBcastAddress%728
                0x00020184       0x2c
 .text.TCPIP_STACK_IsBcastAddress
                0x00020184       0x2c build/default/production/_ext/1033058136/tcpip_manager.o
                0x00020184                TCPIP_STACK_IsBcastAddress

.text._TCPIP_PKT_SocketAlloc%729
                0x000201b0       0x2c
 .text._TCPIP_PKT_SocketAlloc
                0x000201b0       0x2c build/default/production/_ext/1033058136/tcpip_packet.o
                0x000201b0                _TCPIP_PKT_SocketAlloc

.text._FTP_ReleaseDataSocket%730
                0x000201dc       0x2c
 .text._FTP_ReleaseDataSocket
                0x000201dc       0x2c build/default/production/_ext/1033058136/ftp.o

.text._getBsdSocket%731
                0x00020208       0x2c
 .text._getBsdSocket
                0x00020208       0x2c build/default/production/_ext/1033058136/berkeley_api.o
                0x00020208                _getBsdSocket

.text.TCPIP_UDP_IsConnected%732
                0x00020234       0x2c
 .text.TCPIP_UDP_IsConnected
                0x00020234       0x2c build/default/production/_ext/1033058136/udp.o
                0x00020234                TCPIP_UDP_IsConnected

.text.TCPIP_UDP_SignalHandlerRegister%733
                0x00020260       0x2c
 .text.TCPIP_UDP_SignalHandlerRegister
                0x00020260       0x2c build/default/production/_ext/1033058136/udp.o
                0x00020260                TCPIP_UDP_SignalHandlerRegister

.text.TC0_TimerInterruptHandler%734
                0x0002028c       0x2c
 .text.TC0_TimerInterruptHandler
                0x0002028c       0x2c build/default/production/_ext/829342655/plib_tc0.o
                0x0002028c                TC0_TimerInterruptHandler

.rodata.sysConsoleUARTDevDesc%735
                0x000202b8       0x2c
 .rodata.sysConsoleUARTDevDesc
                0x000202b8       0x2c build/default/production/_ext/1832805299/sys_console_uart.o
                0x000202b8                sysConsoleUARTDevDesc

.text.ff_oem2uni%736
                0x000202e4       0x2c
 .text.ff_oem2uni
                0x000202e4       0x2c build/default/production/_ext/411819097/ffunicode.o
                0x000202e4                ff_oem2uni

.text.disk_read%737
                0x00020310       0x2c
 .text.disk_read
                0x00020310       0x2c build/default/production/_ext/565198302/diskio.o
                0x00020310                disk_read

.text.FATFS_opendir%738
                0x0002033c       0x2c
 .text.FATFS_opendir
                0x0002033c       0x2c build/default/production/_ext/1269487135/sys_fs_fat_interface.o
                0x0002033c                FATFS_opendir

.text.TCPIP_STACK_Init%739
                0x00020368       0x2c
 .text.TCPIP_STACK_Init
                0x00020368       0x2c build/default/production/_ext/1171490990/initialization.o
                0x00020368                TCPIP_STACK_Init

.text.alloc_fwd%740
                0x00020394       0x2c
 .text.alloc_fwd
                0x00020394       0x2c c:/program files/microchip/xc32/v4.00/bin/bin/../../lib/gcc/pic32c/8.3.1/../../../../pic32c/lib/thumb/v7e-m+fp/hard\libc-musl.a(malloc.o)

.text.fma%741   0x000203c0       0x2c
 .text.fma      0x000203c0       0x2c c:/program files/microchip/xc32/v4.00/bin/bin/../../lib/gcc/pic32c/8.3.1/../../../../pic32c/lib/thumb/v7e-m+fp/hard\libm-emfloat.a(lib_a-_FMA.o)
                0x000203c0                fma

.text._sbrk%742
                0x000203ec       0x2c
 .text._sbrk    0x000203ec       0x2c c:/program files/microchip/xc32/v4.00/bin/bin/../../lib/gcc/pic32c/8.3.1/../../../../pic32c/lib/thumb/v7e-m+fp/hard\libpic32c.a(sbrk.o)
                0x000203ec                _sbrk

.text._DRV_GMAC_LinkStateStartLink%743
                0x00020418       0x2a
 .text._DRV_GMAC_LinkStateStartLink
                0x00020418       0x2a build/default/production/_ext/1546807373/drv_gmac.o

.text.TCPIP_TCP_WasReset%744
                0x00020442       0x2a
 .text.TCPIP_TCP_WasReset
                0x00020442       0x2a build/default/production/_ext/1033058136/tcp.o
                0x00020442                TCPIP_TCP_WasReset

.text.TCPIP_DNS_OAHASH_KeyCopy%745
                0x0002046c       0x2a
 .text.TCPIP_DNS_OAHASH_KeyCopy
                0x0002046c       0x2a build/default/production/_ext/1033058136/dns.o

.text.TCPIP_Notification_Add%746
                0x00020496       0x2a
 .text.TCPIP_Notification_Add
                0x00020496       0x2a build/default/production/_ext/1033058136/tcpip_notify.o
                0x00020496                TCPIP_Notification_Add

.text._FieldSetMacAddr%747
                0x000204c0       0x2a
 .text._FieldSetMacAddr
                0x000204c0       0x2a build/default/production/_ext/1033058136/tcpip_announce.o
                0x000204c0                _FieldSetMacAddr

.text.f_closedir%748
                0x000204ea       0x2a
 .text.f_closedir
                0x000204ea       0x2a build/default/production/_ext/411819097/ff.o
                0x000204ea                f_closedir

.text.__pop_float%749
                0x00020514       0x2a
 .text.__pop_float
                0x00020514       0x2a c:/program files/microchip/xc32/v4.00/bin/bin/../../lib/gcc/pic32c/8.3.1/../../../../pic32c/lib/thumb/v7e-m+fp/hard\libc-musl.a(__pop_float.o)
                0x00020514                __pop_float_needed
                0x00020514                __pop_float

.text.DRV_ETHPHY_Tasks%750
                0x00020540       0x28
 .text.DRV_ETHPHY_Tasks
                0x00020540       0x28 build/default/production/_ext/444070925/drv_ethphy.o
                0x00020540                DRV_ETHPHY_Tasks

.text.DRV_ETHPHY_PhyAddressGet%751
                0x00020568       0x28
 .text.DRV_ETHPHY_PhyAddressGet
                0x00020568       0x28 build/default/production/_ext/444070925/drv_ethphy.o
                0x00020568                DRV_ETHPHY_PhyAddressGet

.text._DRV_PHY_SetOperDoneResult%752
                0x00020590       0x28
 .text._DRV_PHY_SetOperDoneResult
                0x00020590       0x28 build/default/production/_ext/444070925/drv_ethphy.o

.text.DRV_ETHPHY_ClientOperationAbort%753
                0x000205b8       0x28
 .text.DRV_ETHPHY_ClientOperationAbort
                0x000205b8       0x28 build/default/production/_ext/444070925/drv_ethphy.o
                0x000205b8                DRV_ETHPHY_ClientOperationAbort

.text.DRV_PIC32CGMAC_LibSysIntStatus_Clear%754
                0x000205e0       0x28
 .text.DRV_PIC32CGMAC_LibSysIntStatus_Clear
                0x000205e0       0x28 build/default/production/_ext/1546807373/drv_gmac_lib_samE5x.o
                0x000205e0                DRV_PIC32CGMAC_LibSysIntStatus_Clear

.text.DRV_PIC32CGMAC_LibSysInt_Enable%755
                0x00020608       0x28
 .text.DRV_PIC32CGMAC_LibSysInt_Enable
                0x00020608       0x28 build/default/production/_ext/1546807373/drv_gmac_lib_samE5x.o
                0x00020608                DRV_PIC32CGMAC_LibSysInt_Enable

.text.DRV_MIIM_Status%756
                0x00020630       0x28
 .text.DRV_MIIM_Status
                0x00020630       0x28 build/default/production/_ext/438849557/drv_miim.o
                0x00020630                DRV_MIIM_Status

.text._TcpSocketChk%757
                0x00020658       0x28
 .text._TcpSocketChk
                0x00020658       0x28 build/default/production/_ext/1033058136/tcp.o

.text._TcpFlush%758
                0x00020680       0x28
 .text._TcpFlush
                0x00020680       0x28 build/default/production/_ext/1033058136/tcp.o

.text._ARPRemoveCacheEntries%759
                0x000206a8       0x28
 .text._ARPRemoveCacheEntries
                0x000206a8       0x28 build/default/production/_ext/1033058136/arp.o

.text._TCPIP_STACK_TickHandler%760
                0x000206d0       0x28
 .text._TCPIP_STACK_TickHandler
                0x000206d0       0x28 build/default/production/_ext/1033058136/tcpip_manager.o

.text.TCPIP_STACK_NetIsBcastAddress%761
                0x000206f8       0x28
 .text.TCPIP_STACK_NetIsBcastAddress
                0x000206f8       0x28 build/default/production/_ext/1033058136/tcpip_manager.o
                0x000206f8                TCPIP_STACK_NetIsBcastAddress

.text._TCPIPStackSignalHandlerSetParams%762
                0x00020720       0x28
 .text._TCPIPStackSignalHandlerSetParams
                0x00020720       0x28 build/default/production/_ext/1033058136/tcpip_manager.o
                0x00020720                _TCPIPStackSignalHandlerSetParams

.text._TCPIPStackModuleSignalGet%763
                0x00020748       0x28
 .text._TCPIPStackModuleSignalGet
                0x00020748       0x28 build/default/production/_ext/1033058136/tcpip_manager.o
                0x00020748                _TCPIPStackModuleSignalGet

.text.TCPIP_FTP_ServerDeinitialize%764
                0x00020770       0x28
 .text.TCPIP_FTP_ServerDeinitialize
                0x00020770       0x28 build/default/production/_ext/1033058136/ftp.o
                0x00020770                TCPIP_FTP_ServerDeinitialize

.text.TCPIP_ICMP_Deinitialize%765
                0x00020798       0x28
 .text.TCPIP_ICMP_Deinitialize
                0x00020798       0x28 build/default/production/_ext/1033058136/icmp.o
                0x00020798                TCPIP_ICMP_Deinitialize

.text._UDPSocketDcpt%766
                0x000207c0       0x28
 .text._UDPSocketDcpt
                0x000207c0       0x28 build/default/production/_ext/1033058136/udp.o

.text.TCPIP_UDP_GetIsReady%767
                0x000207e8       0x28
 .text.TCPIP_UDP_GetIsReady
                0x000207e8       0x28 build/default/production/_ext/1033058136/udp.o
                0x000207e8                TCPIP_UDP_GetIsReady

.text.TC0_Timer16bitCounterGet%768
                0x00020810       0x28
 .text.TC0_Timer16bitCounterGet
                0x00020810       0x28 build/default/production/_ext/829342655/plib_tc0.o
                0x00020810                TC0_Timer16bitCounterGet

.text.SYS_CMD_Initialize%769
                0x00020838       0x28
 .text.SYS_CMD_Initialize
                0x00020838       0x28 build/default/production/_ext/1376093119/sys_command.o
                0x00020838                SYS_CMD_Initialize

.text.tchar2uni%770
                0x00020860       0x28
 .text.tchar2uni
                0x00020860       0x28 build/default/production/_ext/411819097/ff.o

.text.FATFS_mkfs%771
                0x00020888       0x28
 .text.FATFS_mkfs
                0x00020888       0x28 build/default/production/_ext/1269487135/sys_fs_fat_interface.o
                0x00020888                FATFS_mkfs

.text.SYS_TIME_TimerPeriodHasExpired%772
                0x000208b0       0x28
 .text.SYS_TIME_TimerPeriodHasExpired
                0x000208b0       0x28 build/default/production/_ext/101884895/sys_time.o
                0x000208b0                SYS_TIME_TimerPeriodHasExpired

.text.SYS_TMR_TickCountGet%773
                0x000208d8       0x28
 .text.SYS_TMR_TickCountGet
                0x000208d8       0x28 build/default/production/_ext/753841488/sys_time_h2_adapter.o
                0x000208d8                SYS_TMR_TickCountGet

.text.SYS_TMR_TickCountGetLong%774
                0x00020900       0x28
 .text.SYS_TMR_TickCountGetLong
                0x00020900       0x28 build/default/production/_ext/753841488/sys_time_h2_adapter.o
                0x00020900                SYS_TMR_TickCountGetLong

.text.SYS_TMR_TickCounterFrequencyGet%775
                0x00020928       0x28
 .text.SYS_TMR_TickCounterFrequencyGet
                0x00020928       0x28 build/default/production/_ext/753841488/sys_time_h2_adapter.o
                0x00020928                SYS_TMR_TickCounterFrequencyGet

.rodata.tcpipARPInitData%776
                0x00020950       0x28
 .rodata.tcpipARPInitData
                0x00020950       0x28 build/default/production/_ext/1171490990/initialization.o
                0x00020950                tcpipARPInitData

.text.__aeabi_i2d%777
                0x00020978       0x28
 .text.__aeabi_i2d
                0x00020978       0x28 c:/program files/microchip/xc32/v4.00/bin/bin/../../lib/gcc/pic32c/8.3.1/../../../../pic32c/lib/thumb/v7e-m+fp/hard\libm-emfloat.a(floatasmops_arm.o)
                0x00020978                __aeabi_i2d

.text._DRV_ETHPHY_NegResultPhase_ANEXP%778
                0x000209a0       0x26
 .text._DRV_ETHPHY_NegResultPhase_ANEXP
                0x000209a0       0x26 build/default/production/_ext/444070925/drv_ethphy.o

.text._DRV_ETHPHY_NegResultPhase_ANLPAD%779
                0x000209c6       0x26
 .text._DRV_ETHPHY_NegResultPhase_ANLPAD
                0x000209c6       0x26 build/default/production/_ext/444070925/drv_ethphy.o

.text.TCPIP_TCP_IsConnected%780
                0x000209ec       0x26
 .text.TCPIP_TCP_IsConnected
                0x000209ec       0x26 build/default/production/_ext/1033058136/tcp.o
                0x000209ec                TCPIP_TCP_IsConnected

.text.TCPIP_TCP_Flush%781
                0x00020a12       0x26
 .text.TCPIP_TCP_Flush
                0x00020a12       0x26 build/default/production/_ext/1033058136/tcp.o
                0x00020a12                TCPIP_TCP_Flush

.text.TCPIP_TCP_Discard%782
                0x00020a38       0x26
 .text.TCPIP_TCP_Discard
                0x00020a38       0x26 build/default/production/_ext/1033058136/tcp.o
                0x00020a38                TCPIP_TCP_Discard

.text.TCPIP_OAHASH_Initialize%783
                0x00020a5e       0x26
 .text.TCPIP_OAHASH_Initialize
                0x00020a5e       0x26 build/default/production/_ext/1033058136/oahash.o
                0x00020a5e                TCPIP_OAHASH_Initialize

.text.TCPIP_Helper_ProtectedSingleListLock%784
                0x00020a84       0x26
 .text.TCPIP_Helper_ProtectedSingleListLock
                0x00020a84       0x26 build/default/production/_ext/1033058136/tcpip_helpers.o
                0x00020a84                TCPIP_Helper_ProtectedSingleListLock

.text.TCPIP_STACK_DNSServiceSelect%785
                0x00020aaa       0x26
 .text.TCPIP_STACK_DNSServiceSelect
                0x00020aaa       0x26 build/default/production/_ext/1033058136/tcpip_manager.o
                0x00020aaa                TCPIP_STACK_DNSServiceSelect

.text.f_putc%786
                0x00020ad0       0x26
 .text.f_putc   0x00020ad0       0x26 build/default/production/_ext/411819097/ff.o
                0x00020ad0                f_putc

.text.get_fattime%787
                0x00020af6       0x26
 .text.get_fattime
                0x00020af6       0x26 build/default/production/_ext/565198302/diskio.o
                0x00020af6                get_fattime

.text.__malloc0%788
                0x00020b1c       0x26
 .text.__malloc0
                0x00020b1c       0x26 c:/program files/microchip/xc32/v4.00/bin/bin/../../lib/gcc/pic32c/8.3.1/../../../../pic32c/lib/thumb/v7e-m+fp/hard\libc-musl.a(malloc.o)
                0x00020b1c                __malloc0

.text.__string_out%789
                0x00020b42       0x26
 .text.__string_out
                0x00020b42       0x26 c:/program files/microchip/xc32/v4.00/bin/bin/../../lib/gcc/pic32c/8.3.1/../../../../pic32c/lib/thumb/v7e-m+fp/hard\libc-musl.a(__printf_core.o)
                0x00020b42                __out

.text.DRV_ETHPHY_VendorDataSet%790
                0x00020b68       0x24
 .text.DRV_ETHPHY_VendorDataSet
                0x00020b68       0x24 build/default/production/_ext/444070925/drv_ethphy.o
                0x00020b68                DRV_ETHPHY_VendorDataSet

.rodata%791     0x00020b8c       0x24
 .rodata        0x00020b8c       0x24 build/default/production/_ext/1546807373/drv_gmac.o

.text.DRV_PIC32CGMAC_LibSysInt_Disable%792
                0x00020bb0       0x24
 .text.DRV_PIC32CGMAC_LibSysInt_Disable
                0x00020bb0       0x24 build/default/production/_ext/1546807373/drv_gmac_lib_samE5x.o
                0x00020bb0                DRV_PIC32CGMAC_LibSysInt_Disable

.text.DRV_SDMMC_GeometryGet%793
                0x00020bd4       0x24
 .text.DRV_SDMMC_GeometryGet
                0x00020bd4       0x24 build/default/production/_ext/20954303/drv_sdmmc.o
                0x00020bd4                DRV_SDMMC_GeometryGet

.text.Shell_Delete%794
                0x00020bf8       0x24
 .text.Shell_Delete
                0x00020bf8       0x24 build/default/production/_ext/1751889202/sys_fs_shell.o

.text.TCPIP_TCP_SignalHandlerDeregister%795
                0x00020c1c       0x24
 .text.TCPIP_TCP_SignalHandlerDeregister
                0x00020c1c       0x24 build/default/production/_ext/1033058136/tcp.o
                0x00020c1c                TCPIP_TCP_SignalHandlerDeregister

.text._ARPAllocateTxPacket%796
                0x00020c40       0x24
 .text._ARPAllocateTxPacket
                0x00020c40       0x24 build/default/production/_ext/1033058136/arp.o

.text.TCPIP_ARP_HandlerDeRegister%797
                0x00020c64       0x24
 .text.TCPIP_ARP_HandlerDeRegister
                0x00020c64       0x24 build/default/production/_ext/1033058136/arp.o
                0x00020c64                TCPIP_ARP_HandlerDeRegister

.rodata._tcpip_heap_object%798
                0x00020c88       0x24
 .rodata._tcpip_heap_object
                0x00020c88       0x24 build/default/production/_ext/1033058136/tcpip_heap_internal.o

.text.TCPIP_STACK_IPAddToNet%799
                0x00020cac       0x24
 .text.TCPIP_STACK_IPAddToNet
                0x00020cac       0x24 build/default/production/_ext/1033058136/tcpip_manager.o
                0x00020cac                TCPIP_STACK_IPAddToNet

.text._UDPFreeRxQueue%800
                0x00020cd0       0x24
 .text._UDPFreeRxQueue
                0x00020cd0       0x24 build/default/production/_ext/1033058136/udp.o

.text.TCPIP_UDP_SignalHandlerDeregister%801
                0x00020cf4       0x24
 .text.TCPIP_UDP_SignalHandlerDeregister
                0x00020cf4       0x24 build/default/production/_ext/1033058136/udp.o
                0x00020cf4                TCPIP_UDP_SignalHandlerDeregister

.text.NET_PRES_SignalHandler%802
                0x00020d18       0x24
 .text.NET_PRES_SignalHandler
                0x00020d18       0x24 build/default/production/_ext/1508031553/net_pres.o

.rodata._builtinCmdTbl%803
                0x00020d3c       0x24
 .rodata._builtinCmdTbl
                0x00020d3c       0x24 build/default/production/_ext/1376093119/sys_command.o

.text.f_chdrive%804
                0x00020d60       0x24
 .text.f_chdrive
                0x00020d60       0x24 build/default/production/_ext/411819097/ff.o
                0x00020d60                f_chdrive

.text.SYS_RESET_SoftwareReset%805
                0x00020d84       0x24
 .text.SYS_RESET_SoftwareReset
                0x00020d84       0x24 build/default/production/_ext/1000052432/sys_reset.o
                0x00020d84                SYS_RESET_SoftwareReset

.rodata.drvSDMMC0InitData%806
                0x00020da8       0x24
 .rodata.drvSDMMC0InitData
                0x00020da8       0x24 build/default/production/_ext/1171490990/initialization.o
                0x00020da8                drvSDMMC0InitData

.text.__aeabi_d2uiz%807
                0x00020dcc       0x24
 .text.__aeabi_d2uiz
                0x00020dcc       0x24 c:/program files/microchip/xc32/v4.00/bin/bin/../../lib/gcc/pic32c/8.3.1/../../../../pic32c/lib/thumb/v7e-m+fp/hard\libm-emfloat.a(floatasmops_arm.o)
                0x00020dcc                __aeabi_d2uiz

.text.strncmp%808
                0x00020df0       0x24
 .text.strncmp  0x00020df0       0x24 c:/program files/microchip/xc32/v4.00/bin/bin/../../lib/gcc/pic32c/8.3.1/../../../../pic32c/lib/thumb/v7e-m+fp/hard\libc-musl.a(strncmp.o)
                0x00020df0                strncmp

.text._DRV_PHY_SMITransfer_Wait%809
                0x00020e14       0x22
 .text._DRV_PHY_SMITransfer_Wait
                0x00020e14       0x22 build/default/production/_ext/444070925/drv_ethphy.o

.text.DRV_MIIM_Close%810
                0x00020e36       0x22
 .text.DRV_MIIM_Close
                0x00020e36       0x22 build/default/production/_ext/438849557/drv_miim.o
                0x00020e36                DRV_MIIM_Close

.text._UDPTxPktValid%811
                0x00020e58       0x22
 .text._UDPTxPktValid
                0x00020e58       0x22 build/default/production/_ext/1033058136/udp.o

.text.TCPIP_UDP_Discard%812
                0x00020e7a       0x22
 .text.TCPIP_UDP_Discard
                0x00020e7a       0x22 build/default/production/_ext/1033058136/udp.o
                0x00020e7a                TCPIP_UDP_Discard

.text.SDHC1_ClockEnable%813
                0x00020e9c       0x22
 .text.SDHC1_ClockEnable
                0x00020e9c       0x22 build/default/production/_ext/1865600094/plib_sdhc1.o
                0x00020e9c                SDHC1_ClockEnable

.text.SYS_FS_MEDIA_MANAGER_IsFSFat%814
                0x00020ebe       0x22
 .text.SYS_FS_MEDIA_MANAGER_IsFSFat
                0x00020ebe       0x22 build/default/production/_ext/1269487135/sys_fs_media_manager.o

.text.FATFS_chdrive%815
                0x00020ee0       0x22
 .text.FATFS_chdrive
                0x00020ee0       0x22 build/default/production/_ext/1269487135/sys_fs_fat_interface.o
                0x00020ee0                FATFS_chdrive

.text.DRV_ETHPHY_Status%816
                0x00020f04       0x20
 .text.DRV_ETHPHY_Status
                0x00020f04       0x20 build/default/production/_ext/444070925/drv_ethphy.o
                0x00020f04                DRV_ETHPHY_Status

.text.DRV_ETHPHY_ClientStatus%817
                0x00020f24       0x20
 .text.DRV_ETHPHY_ClientStatus
                0x00020f24       0x20 build/default/production/_ext/444070925/drv_ethphy.o
                0x00020f24                DRV_ETHPHY_ClientStatus

.text.DRV_ETHPHY_ClientOperationResult%818
                0x00020f44       0x20
 .text.DRV_ETHPHY_ClientOperationResult
                0x00020f44       0x20 build/default/production/_ext/444070925/drv_ethphy.o
                0x00020f44                DRV_ETHPHY_ClientOperationResult

.text._DRV_ETHPHY_ClientOpReset%819
                0x00020f64       0x20
 .text._DRV_ETHPHY_ClientOpReset
                0x00020f64       0x20 build/default/production/_ext/444070925/drv_ethphy.o

.text._DRV_ETHPHY_ClientOpNegRestart%820
                0x00020f84       0x20
 .text._DRV_ETHPHY_ClientOpNegRestart
                0x00020f84       0x20 build/default/production/_ext/444070925/drv_ethphy.o

.text._DRV_ETHPHY_ClientOpNegResult%821
                0x00020fa4       0x20
 .text._DRV_ETHPHY_ClientOpNegResult
                0x00020fa4       0x20 build/default/production/_ext/444070925/drv_ethphy.o

.text._DRV_ETHPHY_ClientOpNegComplete%822
                0x00020fc4       0x20
 .text._DRV_ETHPHY_ClientOpNegComplete
                0x00020fc4       0x20 build/default/production/_ext/444070925/drv_ethphy.o

.text._DRV_ETHPHY_ClientOpLinkStat%823
                0x00020fe4       0x20
 .text._DRV_ETHPHY_ClientOpLinkStat
                0x00020fe4       0x20 build/default/production/_ext/444070925/drv_ethphy.o

.text._DRV_ETHPHY_ClientOpSetup%824
                0x00021004       0x20
 .text._DRV_ETHPHY_ClientOpSetup
                0x00021004       0x20 build/default/production/_ext/444070925/drv_ethphy.o

.text._DRV_ETHPHY_SetupPhaseNegotiate%825
                0x00021024       0x20
 .text._DRV_ETHPHY_SetupPhaseNegotiate
                0x00021024       0x20 build/default/production/_ext/444070925/drv_ethphy.o

.rodata%826     0x00021044       0x20
 .rodata        0x00021044       0x20 build/default/production/_ext/444070925/drv_ethphy.o

.rodata._DRV_PHY_SetupPhaseNegotiateSubPhaseTbl%827
                0x00021064       0x20
 .rodata._DRV_PHY_SetupPhaseNegotiateSubPhaseTbl
                0x00021064       0x20 build/default/production/_ext/444070925/drv_ethphy.o

.text.DRV_GMAC_Close%828
                0x00021084       0x20
 .text.DRV_GMAC_Close
                0x00021084       0x20 build/default/production/_ext/1546807373/drv_gmac.o
                0x00021084                DRV_GMAC_Close

.text._MACTxAcknowledgeEth%829
                0x000210a4       0x20
 .text._MACTxAcknowledgeEth
                0x000210a4       0x20 build/default/production/_ext/1546807373/drv_gmac.o

.text.DRV_GMAC_Deinitialize%830
                0x000210c4       0x20
 .text.DRV_GMAC_Deinitialize
                0x000210c4       0x20 build/default/production/_ext/1546807373/drv_gmac.o
                0x000210c4                DRV_GMAC_Deinitialize

.text.DRV_PIC32CGMAC_LibTransferEnable%831
                0x000210e4       0x20
 .text.DRV_PIC32CGMAC_LibTransferEnable
                0x000210e4       0x20 build/default/production/_ext/1546807373/drv_gmac_lib_samE5x.o
                0x000210e4                DRV_PIC32CGMAC_LibTransferEnable

.text.DRV_GMAC_LibDescriptorsPoolAdd%832
                0x00021104       0x20
 .text.DRV_GMAC_LibDescriptorsPoolAdd
                0x00021104       0x20 build/default/production/_ext/1546807373/drv_gmac_lib_samE5x.o
                0x00021104                DRV_GMAC_LibDescriptorsPoolAdd

.rodata.TRAN_SPEED_UNIT_TABLE.9229%833
                0x00021124       0x20
 .rodata.TRAN_SPEED_UNIT_TABLE.9229
                0x00021124       0x20 build/default/production/_ext/20954303/drv_sdmmc.o

.text._SwapARPPacket%834
                0x00021144       0x20
 .text._SwapARPPacket
                0x00021144       0x20 build/default/production/_ext/1033058136/arp.o

.text.TCPIP_DNS_OAHASH_KeyHash%835
                0x00021164       0x20
 .text.TCPIP_DNS_OAHASH_KeyHash
                0x00021164       0x20 build/default/production/_ext/1033058136/dns.o

.rodata.TCPIP_MAC_POWER_TBL%836
                0x00021184       0x20
 .rodata.TCPIP_MAC_POWER_TBL
                0x00021184       0x20 build/default/production/_ext/1033058136/tcpip_helpers.o

.text.TCPIP_STACK_IndexToNet%837
                0x000211a4       0x20
 .text.TCPIP_STACK_IndexToNet
                0x000211a4       0x20 build/default/production/_ext/1033058136/tcpip_manager.o
                0x000211a4                TCPIP_STACK_IndexToNet

.text._TCPIPStackHandleToNetLinked%838
                0x000211c4       0x20
 .text._TCPIPStackHandleToNetLinked
                0x000211c4       0x20 build/default/production/_ext/1033058136/tcpip_manager.o
                0x000211c4                _TCPIPStackHandleToNetLinked

.text.TCPIP_Notification_Remove%839
                0x000211e4       0x20
 .text.TCPIP_Notification_Remove
                0x000211e4       0x20 build/default/production/_ext/1033058136/tcpip_notify.o
                0x000211e4                TCPIP_Notification_Remove

.rodata%840     0x00021204       0x20
 .rodata        0x00021204       0x20 build/default/production/_ext/1033058136/tcpip_packet.o

.text.TCPIP_UDP_DestinationPortSet%841
                0x00021224       0x20
 .text.TCPIP_UDP_DestinationPortSet
                0x00021224       0x20 build/default/production/_ext/1033058136/udp.o
                0x00021224                TCPIP_UDP_DestinationPortSet

.text._keyRightProcess%842
                0x00021244       0x20
 .text._keyRightProcess
                0x00021244       0x20 build/default/production/_ext/1376093119/sys_command.o

.text.GetCommandCharacter%843
                0x00021264       0x20
 .text.GetCommandCharacter
                0x00021264       0x20 build/default/production/_ext/1376093119/sys_command.o

.text.ld_clust%844
                0x00021284       0x20
 .text.ld_clust
                0x00021284       0x20 build/default/production/_ext/411819097/ff.o

.text.diskEventHandler%845
                0x000212a4       0x20
 .text.diskEventHandler
                0x000212a4       0x20 build/default/production/_ext/565198302/diskio.o
                0x000212a4                diskEventHandler

.text.SYS_FS_MEDIA_MANAGER_TransferTask%846
                0x000212c4       0x20
 .text.SYS_FS_MEDIA_MANAGER_TransferTask
                0x000212c4       0x20 build/default/production/_ext/1269487135/sys_fs_media_manager.o
                0x000212c4                SYS_FS_MEDIA_MANAGER_TransferTask

.rodata%847     0x000212e4       0x20
 .rodata        0x000212e4       0x20 build/default/production/_ext/1269487135/sys_fs_media_manager.o

.text.SYS_INT_SourceRestore%848
                0x00021304       0x20
 .text.SYS_INT_SourceRestore
                0x00021304       0x20 build/default/production/_ext/1881668453/sys_int.o
                0x00021304                SYS_INT_SourceRestore

.rodata.netPresCfgs%849
                0x00021324       0x20
 .rodata.netPresCfgs
                0x00021324       0x20 build/default/production/_ext/1171490990/initialization.o

.rodata.tcpipPhyInitData_KSZ8061%850
                0x00021344       0x20
 .rodata.tcpipPhyInitData_KSZ8061
                0x00021344       0x20 build/default/production/_ext/1171490990/initialization.o
                0x00021344                tcpipPhyInitData_KSZ8061

.text.lock_bin%851
                0x00021364       0x20
 .text.lock_bin
                0x00021364       0x20 c:/program files/microchip/xc32/v4.00/bin/bin/../../lib/gcc/pic32c/8.3.1/../../../../pic32c/lib/thumb/v7e-m+fp/hard\libc-musl.a(malloc.o)

.text._DRV_GMAC_LinkStateDown%852
                0x00021384       0x1e
 .text._DRV_GMAC_LinkStateDown
                0x00021384       0x1e build/default/production/_ext/1546807373/drv_gmac.o

.text._TCPIsGetReady%853
                0x000213a2       0x1e
 .text._TCPIsGetReady
                0x000213a2       0x1e build/default/production/_ext/1033058136/tcp.o

.text.TCPIP_Helper_ProtectedSingleListInitialize%854
                0x000213c0       0x1e
 .text.TCPIP_Helper_ProtectedSingleListInitialize
                0x000213c0       0x1e build/default/production/_ext/1033058136/tcpip_helpers.o
                0x000213c0                TCPIP_Helper_ProtectedSingleListInitialize

.text.TCPIP_STACK_NetAddressBcast%855
                0x000213de       0x1e
 .text.TCPIP_STACK_NetAddressBcast
                0x000213de       0x1e build/default/production/_ext/1033058136/tcpip_manager.o
                0x000213de                TCPIP_STACK_NetAddressBcast

.text.TCPIP_STACK_NetAddress%856
                0x000213fc       0x1e
 .text.TCPIP_STACK_NetAddress
                0x000213fc       0x1e build/default/production/_ext/1033058136/tcpip_manager.o
                0x000213fc                TCPIP_STACK_NetAddress

.text.TCPIP_STACK_NetworkIsLinked%857
                0x0002141a       0x1e
 .text.TCPIP_STACK_NetworkIsLinked
                0x0002141a       0x1e build/default/production/_ext/1033058136/tcpip_manager.o
                0x0002141a                TCPIP_STACK_NetworkIsLinked

.text.TCPIP_PKT_PayloadLen%858
                0x00021438       0x1e
 .text.TCPIP_PKT_PayloadLen
                0x00021438       0x1e build/default/production/_ext/1033058136/tcpip_packet.o
                0x00021438                TCPIP_PKT_PayloadLen

.text._FieldSetIpv4Addr%859
                0x00021456       0x1e
 .text._FieldSetIpv4Addr
                0x00021456       0x1e build/default/production/_ext/1033058136/tcpip_announce.o
                0x00021456                _FieldSetIpv4Addr

.text._keyUpProcess%860
                0x00021474       0x1e
 .text._keyUpProcess
                0x00021474       0x1e build/default/production/_ext/1376093119/sys_command.o

.text.sum_sfn%861
                0x00021492       0x1e
 .text.sum_sfn  0x00021492       0x1e build/default/production/_ext/411819097/ff.o

.text.FATFS_close%862
                0x000214b0       0x1e
 .text.FATFS_close
                0x000214b0       0x1e build/default/production/_ext/1269487135/sys_fs_fat_interface.o
                0x000214b0                FATFS_close

.text.FATFS_closedir%863
                0x000214ce       0x1e
 .text.FATFS_closedir
                0x000214ce       0x1e build/default/production/_ext/1269487135/sys_fs_fat_interface.o
                0x000214ce                FATFS_closedir

.text._DRV_ETHPHY_ResetPhaseIdle%864
                0x000214ec       0x1c
 .text._DRV_ETHPHY_ResetPhaseIdle
                0x000214ec       0x1c build/default/production/_ext/444070925/drv_ethphy.o

.rodata._DRV_PHY_ClientOpTbl%865
                0x00021508       0x1c
 .rodata._DRV_PHY_ClientOpTbl
                0x00021508       0x1c build/default/production/_ext/444070925/drv_ethphy.o

.text.DRV_GMAC_EventPendingGet%866
                0x00021524       0x1c
 .text.DRV_GMAC_EventPendingGet
                0x00021524       0x1c build/default/production/_ext/1546807373/drv_gmac.o
                0x00021524                DRV_GMAC_EventPendingGet

.text.DRV_PIC32CGMAC_LibClose%867
                0x00021540       0x1c
 .text.DRV_PIC32CGMAC_LibClose
                0x00021540       0x1c build/default/production/_ext/1546807373/drv_gmac_lib_samE5x.o
                0x00021540                DRV_PIC32CGMAC_LibClose

.text.DRV_PIC32CGMAC_SingleListHeadRemove%868
                0x0002155c       0x1c
 .text.DRV_PIC32CGMAC_SingleListHeadRemove
                0x0002155c       0x1c build/default/production/_ext/1546807373/drv_gmac_lib_samE5x.o
                0x0002155c                DRV_PIC32CGMAC_SingleListHeadRemove

.text.Helper_SingleListHeadRemove%869
                0x00021578       0x1c
 .text.Helper_SingleListHeadRemove
                0x00021578       0x1c build/default/production/_ext/438849557/drv_miim.o
                0x00021578                Helper_SingleListHeadRemove

.text.Shell_LastError%870
                0x00021594       0x1c
 .text.Shell_LastError
                0x00021594       0x1c build/default/production/_ext/1751889202/sys_fs_shell.o

.text._ARPTxAckFnc%871
                0x000215b0       0x1c
 .text._ARPTxAckFnc
                0x000215b0       0x1c build/default/production/_ext/1033058136/arp.o

.text.TCPIP_IPV4_MaxDatagramDataSizeGet%872
                0x000215cc       0x1c
 .text.TCPIP_IPV4_MaxDatagramDataSizeGet
                0x000215cc       0x1c build/default/production/_ext/1033058136/ipv4.o
                0x000215cc                TCPIP_IPV4_MaxDatagramDataSizeGet

.text._TCPIP_HEAP_Calloc%873
                0x000215e8       0x1c
 .text._TCPIP_HEAP_Calloc
                0x000215e8       0x1c build/default/production/_ext/1033058136/tcpip_heap_internal.o

.text.TCPIP_Helper_SingleListHeadRemove%874
                0x00021604       0x1c
 .text.TCPIP_Helper_SingleListHeadRemove
                0x00021604       0x1c build/default/production/_ext/1033058136/tcpip_helpers.o
                0x00021604                TCPIP_Helper_SingleListHeadRemove

.text.TCPIP_Helper_ProtectedSingleListUnlock%875
                0x00021620       0x1c
 .text.TCPIP_Helper_ProtectedSingleListUnlock
                0x00021620       0x1c build/default/production/_ext/1033058136/tcpip_helpers.o
                0x00021620                TCPIP_Helper_ProtectedSingleListUnlock

.text._TCPIPSignalEntryNotify%876
                0x0002163c       0x1c
 .text._TCPIPSignalEntryNotify
                0x0002163c       0x1c build/default/production/_ext/1033058136/tcpip_manager.o

.text.TCPIP_STACK_Status%877
                0x00021658       0x1c
 .text.TCPIP_STACK_Status
                0x00021658       0x1c build/default/production/_ext/1033058136/tcpip_manager.o
                0x00021658                TCPIP_STACK_Status

.text.TCPIP_FTP_LIST_Add%878
                0x00021674       0x1c
 .text.TCPIP_FTP_LIST_Add
                0x00021674       0x1c build/default/production/_ext/1033058136/ftp.o
                0x00021674                TCPIP_FTP_LIST_Add

.rodata._AnnounceSendTbl%879
                0x00021690       0x1c
 .rodata._AnnounceSendTbl
                0x00021690       0x1c build/default/production/_ext/1033058136/tcpip_announce.o

.text.SDHC1_BlockSizeSet%880
                0x000216ac       0x1c
 .text.SDHC1_BlockSizeSet
                0x000216ac       0x1c build/default/production/_ext/1865600094/plib_sdhc1.o
                0x000216ac                SDHC1_BlockSizeSet

.text.SDHC1_DmaSetup%881
                0x000216c8       0x1c
 .text.SDHC1_DmaSetup
                0x000216c8       0x1c build/default/production/_ext/1865600094/plib_sdhc1.o
                0x000216c8                SDHC1_DmaSetup

.text._keyLeftProcess%882
                0x000216e4       0x1c
 .text._keyLeftProcess
                0x000216e4       0x1c build/default/production/_ext/1376093119/sys_command.o

.text.SendCommandMessage%883
                0x00021700       0x1c
 .text.SendCommandMessage
                0x00021700       0x1c build/default/production/_ext/1376093119/sys_command.o

.text.SYS_DEBUG_Initialize%884
                0x0002171c       0x1c
 .text.SYS_DEBUG_Initialize
                0x0002171c       0x1c build/default/production/_ext/944882569/sys_debug.o
                0x0002171c                SYS_DEBUG_Initialize

.text.SYS_FS_MEDIA_MANAGER_GetMediaGeometry%885
                0x00021738       0x1c
 .text.SYS_FS_MEDIA_MANAGER_GetMediaGeometry
                0x00021738       0x1c build/default/production/_ext/1269487135/sys_fs_media_manager.o
                0x00021738                SYS_FS_MEDIA_MANAGER_GetMediaGeometry

.text.SYS_TIME_MSToCount%886
                0x00021754       0x1c
 .text.SYS_TIME_MSToCount
                0x00021754       0x1c build/default/production/_ext/101884895/sys_time.o
                0x00021754                SYS_TIME_MSToCount

.text.SYS_TMR_CallbackPeriodic%887
                0x00021770       0x1c
 .text.SYS_TMR_CallbackPeriodic
                0x00021770       0x1c build/default/production/_ext/753841488/sys_time_h2_adapter.o
                0x00021770                SYS_TMR_CallbackPeriodic

.rodata.sysTimePlibAPI%888
                0x0002178c       0x1c
 .rodata.sysTimePlibAPI
                0x0002178c       0x1c build/default/production/_ext/1171490990/initialization.o
                0x0002178c                sysTimePlibAPI

.text.__aeabi_ui2d%889
                0x000217a8       0x1c
 .text.__aeabi_ui2d
                0x000217a8       0x1c c:/program files/microchip/xc32/v4.00/bin/bin/../../lib/gcc/pic32c/8.3.1/../../../../pic32c/lib/thumb/v7e-m+fp/hard\libm-emfloat.a(floatasmops_arm.o)
                0x000217a8                __aeabi_ui2d

.text.isxdigit%890
                0x000217c4       0x1c
 .text.isxdigit
                0x000217c4       0x1c c:/program files/microchip/xc32/v4.00/bin/bin/../../lib/gcc/pic32c/8.3.1/../../../../pic32c/lib/thumb/v7e-m+fp/hard\libc-musl.a(isxdigit.o)
                0x000217c4                isxdigit

.text.calloc%891
                0x000217e0       0x1c
 .text.calloc   0x000217e0       0x1c c:/program files/microchip/xc32/v4.00/bin/bin/../../lib/gcc/pic32c/8.3.1/../../../../pic32c/lib/thumb/v7e-m+fp/hard\libc-musl.a(calloc.o)
                0x000217e0                calloc

.text.memcmp%892
                0x000217fc       0x1c
 .text.memcmp   0x000217fc       0x1c c:/program files/microchip/xc32/v4.00/bin/bin/../../lib/gcc/pic32c/8.3.1/../../../../pic32c/lib/thumb/v7e-m+fp/hard\libc-musl.a(memcmp.o)
                0x000217fc                memcmp

.text.vfprintf%893
                0x00021818       0x1c
 .text.vfprintf
                0x00021818       0x1c c:/program files/microchip/xc32/v4.00/bin/bin/../../lib/gcc/pic32c/8.3.1/../../../../pic32c/lib/thumb/v7e-m+fp/hard\libc-musl.a(vfprintf.o)
                0x00021818                vfprintf

.rodata%894     0x00021834       0x1c
 .rodata        0x00021834       0x1c c:/program files/microchip/xc32/v4.00/bin/bin/../../lib/gcc/pic32c/8.3.1/../../../../pic32c/lib/thumb/v7e-m+fp/hard\libc-musl.a(__printf_core.o)

.text.DRV_PIC32CGMAC_SingleListTailAdd%895
                0x00021850       0x1a
 .text.DRV_PIC32CGMAC_SingleListTailAdd
                0x00021850       0x1a build/default/production/_ext/1546807373/drv_gmac_lib_samE5x.o
                0x00021850                DRV_PIC32CGMAC_SingleListTailAdd

.text.Helper_SingleListTailAdd%896
                0x0002186a       0x1a
 .text.Helper_SingleListTailAdd
                0x0002186a       0x1a build/default/production/_ext/438849557/drv_miim.o
                0x0002186a                Helper_SingleListTailAdd

.text.DRV_MIIM_Read%897
                0x00021884       0x1a
 .text.DRV_MIIM_Read
                0x00021884       0x1a build/default/production/_ext/438849557/drv_miim.o
                0x00021884                DRV_MIIM_Read

.text.DRV_MIIM_Write%898
                0x0002189e       0x1a
 .text.DRV_MIIM_Write
                0x0002189e       0x1a build/default/production/_ext/438849557/drv_miim.o
                0x0002189e                DRV_MIIM_Write

.text.DRV_MIIM_Scan%899
                0x000218b8       0x1a
 .text.DRV_MIIM_Scan
                0x000218b8       0x1a build/default/production/_ext/438849557/drv_miim.o
                0x000218b8                DRV_MIIM_Scan

.text.TCPIP_TCP_ClientOpen%900
                0x000218d2       0x1a
 .text.TCPIP_TCP_ClientOpen
                0x000218d2       0x1a build/default/production/_ext/1033058136/tcp.o
                0x000218d2                TCPIP_TCP_ClientOpen

.text.TCPIP_TCP_Disconnect%901
                0x000218ec       0x1a
 .text.TCPIP_TCP_Disconnect
                0x000218ec       0x1a build/default/production/_ext/1033058136/tcp.o
                0x000218ec                TCPIP_TCP_Disconnect

.text.TCPIP_TCP_PutIsReady%902
                0x00021906       0x1a
 .text.TCPIP_TCP_PutIsReady
                0x00021906       0x1a build/default/production/_ext/1033058136/tcp.o
                0x00021906                TCPIP_TCP_PutIsReady

.text.TCPIP_Helper_SingleListTailAdd%903
                0x00021920       0x1a
 .text.TCPIP_Helper_SingleListTailAdd
                0x00021920       0x1a build/default/production/_ext/1033058136/tcpip_helpers.o
                0x00021920                TCPIP_Helper_SingleListTailAdd

.text.TCPIP_Helper_SingleListAppend%904
                0x0002193a       0x1a
 .text.TCPIP_Helper_SingleListAppend
                0x0002193a       0x1a build/default/production/_ext/1033058136/tcpip_helpers.o
                0x0002193a                TCPIP_Helper_SingleListAppend

.text.TCPIP_STACK_NetIsReady%905
                0x00021954       0x1a
 .text.TCPIP_STACK_NetIsReady
                0x00021954       0x1a build/default/production/_ext/1033058136/tcpip_manager.o
                0x00021954                TCPIP_STACK_NetIsReady

.text.TCPIP_Notification_RemoveAll%906
                0x0002196e       0x1a
 .text.TCPIP_Notification_RemoveAll
                0x0002196e       0x1a build/default/production/_ext/1033058136/tcpip_notify.o
                0x0002196e                TCPIP_Notification_RemoveAll

.text.TCPIP_UDP_TxPointerGet%907
                0x00021988       0x1a
 .text.TCPIP_UDP_TxPointerGet
                0x00021988       0x1a build/default/production/_ext/1033058136/udp.o
                0x00021988                TCPIP_UDP_TxPointerGet

.text.SDHC1_BusWidthSet%908
                0x000219a2       0x1a
 .text.SDHC1_BusWidthSet
                0x000219a2       0x1a build/default/production/_ext/1865600094/plib_sdhc1.o
                0x000219a2                SDHC1_BusWidthSet

.text.SDHC1_SpeedModeSet%909
                0x000219bc       0x1a
 .text.SDHC1_SpeedModeSet
                0x000219bc       0x1a build/default/production/_ext/1865600094/plib_sdhc1.o
                0x000219bc                SDHC1_SpeedModeSet

.text.st_clust%910
                0x000219d6       0x1a
 .text.st_clust
                0x000219d6       0x1a build/default/production/_ext/411819097/ff.o

.text.FATFS_readdir%911
                0x000219f0       0x1a
 .text.FATFS_readdir
                0x000219f0       0x1a build/default/production/_ext/1269487135/sys_fs_fat_interface.o
                0x000219f0                FATFS_readdir

.text.snprintf%912
                0x00021a0a       0x1a
 .text.snprintf
                0x00021a0a       0x1a c:/program files/microchip/xc32/v4.00/bin/bin/../../lib/gcc/pic32c/8.3.1/../../../../pic32c/lib/thumb/v7e-m+fp/hard\libc-musl.a(snprintf.o)
                0x00021a0a                __snprintf_dis
                0x00021a0a                snprintf

.text.sprintf%913
                0x00021a24       0x1a
 .text.sprintf  0x00021a24       0x1a c:/program files/microchip/xc32/v4.00/bin/bin/../../lib/gcc/pic32c/8.3.1/../../../../pic32c/lib/thumb/v7e-m+fp/hard\libc-musl.a(sprintf.o)
                0x00021a24                __sprintf_u
                0x00021a24                __sprintf_dis
                0x00021a24                __sprintf_s
                0x00021a24                sprintf
                0x00021a24                __sprintf_oxX
                0x00021a24                __sprintf_di

.text.DRV_ETHPHY_Deinitialize%914
                0x00021a40       0x18
 .text.DRV_ETHPHY_Deinitialize
                0x00021a40       0x18 build/default/production/_ext/444070925/drv_ethphy.o
                0x00021a40                DRV_ETHPHY_Deinitialize

.text._DRV_ETHPHY_NegCompletePhaseResultNoWait%915
                0x00021a58       0x18
 .text._DRV_ETHPHY_NegCompletePhaseResultNoWait
                0x00021a58       0x18 build/default/production/_ext/444070925/drv_ethphy.o

.text._DRV_ETHPHY_SetupPhaseNegotiate_SubPhase5%916
                0x00021a70       0x18
 .text._DRV_ETHPHY_SetupPhaseNegotiate_SubPhase5
                0x00021a70       0x18 build/default/production/_ext/444070925/drv_ethphy.o

.text._DRV_ETHPHY_LinkStatPhaseIdle%917
                0x00021a88       0x18
 .text._DRV_ETHPHY_LinkStatPhaseIdle
                0x00021a88       0x18 build/default/production/_ext/444070925/drv_ethphy.o

.text._DRV_ETHPHY_NegCompletePhaseIdle%918
                0x00021aa0       0x18
 .text._DRV_ETHPHY_NegCompletePhaseIdle
                0x00021aa0       0x18 build/default/production/_ext/444070925/drv_ethphy.o

.text._DRV_ETHPHY_NegResultPhaseIdle%919
                0x00021ab8       0x18
 .text._DRV_ETHPHY_NegResultPhaseIdle
                0x00021ab8       0x18 build/default/production/_ext/444070925/drv_ethphy.o

.text._DRV_ETHPHY_NegRestartPhaseIdle%920
                0x00021ad0       0x18
 .text._DRV_ETHPHY_NegRestartPhaseIdle
                0x00021ad0       0x18 build/default/production/_ext/444070925/drv_ethphy.o

.rodata._DRV_PHY_NegCompletePhasesTbl%921
                0x00021ae8       0x18
 .rodata._DRV_PHY_NegCompletePhasesTbl
                0x00021ae8       0x18 build/default/production/_ext/444070925/drv_ethphy.o

.text.DRV_PIC32CGMAC_SingleListHeadAdd%922
                0x00021b00       0x18
 .text.DRV_PIC32CGMAC_SingleListHeadAdd
                0x00021b00       0x18 build/default/production/_ext/1546807373/drv_gmac_lib_samE5x.o
                0x00021b00                DRV_PIC32CGMAC_SingleListHeadAdd

.text.DRV_PIC32CGMAC_LibSysInt_Restore%923
                0x00021b18       0x18
 .text.DRV_PIC32CGMAC_LibSysInt_Restore
                0x00021b18       0x18 build/default/production/_ext/1546807373/drv_gmac_lib_samE5x.o
                0x00021b18                DRV_PIC32CGMAC_LibSysInt_Restore

.text.TCPIP_ARP_HashKeyHash%924
                0x00021b30       0x18
 .text.TCPIP_ARP_HashKeyHash
                0x00021b30       0x18 build/default/production/_ext/1033058136/arp.o
                0x00021b30                TCPIP_ARP_HashKeyHash

.text.TCPIP_OAHASH_EntryRemove%925
                0x00021b48       0x18
 .text.TCPIP_OAHASH_EntryRemove
                0x00021b48       0x18 build/default/production/_ext/1033058136/oahash.o
                0x00021b48                TCPIP_OAHASH_EntryRemove

.text.TCPIP_STACK_NetAddressGet%926
                0x00021b60       0x18
 .text.TCPIP_STACK_NetAddressGet
                0x00021b60       0x18 build/default/production/_ext/1033058136/tcpip_manager.o
                0x00021b60                TCPIP_STACK_NetAddressGet

.text._TCPIPStackModuleRxExtract%927
                0x00021b78       0x18
 .text._TCPIPStackModuleRxExtract
                0x00021b78       0x18 build/default/production/_ext/1033058136/tcpip_manager.o
                0x00021b78                _TCPIPStackModuleRxExtract

.rodata.TCPIP_FRAME_PROCESS_TBL%928
                0x00021b90       0x18
 .rodata.TCPIP_FRAME_PROCESS_TBL
                0x00021b90       0x18 build/default/production/_ext/1033058136/tcpip_manager.o

.text.TCPIP_ICMP_Cleanup%929
                0x00021ba8       0x18
 .text.TCPIP_ICMP_Cleanup
                0x00021ba8       0x18 build/default/production/_ext/1033058136/icmp.o

.text.SDHC1_Initialize%930
                0x00021bc0       0x18
 .text.SDHC1_Initialize
                0x00021bc0       0x18 build/default/production/_ext/1865600094/plib_sdhc1.o
                0x00021bc0                SDHC1_Initialize

.text.SERCOM1_USART_WritePendingBytesGet%931
                0x00021bd8       0x18
 .text.SERCOM1_USART_WritePendingBytesGet
                0x00021bd8       0x18 build/default/production/_ext/504274921/plib_sercom1_usart.o

.text.SERCOM1_USART_ReadCountGet%932
                0x00021bf0       0x18
 .text.SERCOM1_USART_ReadCountGet
                0x00021bf0       0x18 build/default/production/_ext/504274921/plib_sercom1_usart.o
                0x00021bf0                SERCOM1_USART_ReadCountGet

.text.TC0_TimerStart%933
                0x00021c08       0x18
 .text.TC0_TimerStart
                0x00021c08       0x18 build/default/production/_ext/829342655/plib_tc0.o
                0x00021c08                TC0_TimerStart

.text.TC0_TimerStop%934
                0x00021c20       0x18
 .text.TC0_TimerStop
                0x00021c20       0x18 build/default/production/_ext/829342655/plib_tc0.o
                0x00021c20                TC0_TimerStop

.text._keyDownProcess%935
                0x00021c38       0x18
 .text._keyDownProcess
                0x00021c38       0x18 build/default/production/_ext/1376093119/sys_command.o

.text.CommandReset%936
                0x00021c50       0x18
 .text.CommandReset
                0x00021c50       0x18 build/default/production/_ext/1376093119/sys_command.o

.text._SYS_FS_MEDIA_MANAGER_HandleMediaDetach%937
                0x00021c68       0x18
 .text._SYS_FS_MEDIA_MANAGER_HandleMediaDetach
                0x00021c68       0x18 build/default/production/_ext/1269487135/sys_fs_media_manager.o

.text.FATFS_stat%938
                0x00021c80       0x18
 .text.FATFS_stat
                0x00021c80       0x18 build/default/production/_ext/1269487135/sys_fs_fat_interface.o
                0x00021c80                FATFS_stat

.text.SYS_TIME_GetElapsedCount%939
                0x00021c98       0x18
 .text.SYS_TIME_GetElapsedCount
                0x00021c98       0x18 build/default/production/_ext/101884895/sys_time.o

.text.SYS_TIME_DelayIsComplete%940
                0x00021cb0       0x18
 .text.SYS_TIME_DelayIsComplete
                0x00021cb0       0x18 build/default/production/_ext/101884895/sys_time.o
                0x00021cb0                SYS_TIME_DelayIsComplete

.rodata.sysConsole0UARTPlibAPI%941
                0x00021cc8       0x18
 .rodata.sysConsole0UARTPlibAPI
                0x00021cc8       0x18 build/default/production/_ext/1171490990/initialization.o
                0x00021cc8                sysConsole0UARTPlibAPI

.rodata.tcpipDNSClientInitData%942
                0x00021ce0       0x18
 .rodata.tcpipDNSClientInitData
                0x00021ce0       0x18 build/default/production/_ext/1171490990/initialization.o
                0x00021ce0                tcpipDNSClientInitData

.rodata.tcpipFTPInitData%943
                0x00021cf8       0x18
 .rodata.tcpipFTPInitData
                0x00021cf8       0x18 build/default/production/_ext/1171490990/initialization.o
                0x00021cf8                tcpipFTPInitData

.text.rand%944  0x00021d10       0x18
 .text.rand     0x00021d10       0x18 c:/program files/microchip/xc32/v4.00/bin/bin/../../lib/gcc/pic32c/8.3.1/../../../../pic32c/lib/thumb/v7e-m+fp/hard\libc-musl.a(rand.o)
                0x00021d10                rand

.text.strcmp%945
                0x00021d28       0x18
 .text.strcmp   0x00021d28       0x18 c:/program files/microchip/xc32/v4.00/bin/bin/../../lib/gcc/pic32c/8.3.1/../../../../pic32c/lib/thumb/v7e-m+fp/hard\libc-musl.a(strcmp.o)
                0x00021d28                strcmp

.text.DRV_MIIM_ClientStatus%946
                0x00021d40       0x16
 .text.DRV_MIIM_ClientStatus
                0x00021d40       0x16 build/default/production/_ext/438849557/drv_miim.o
                0x00021d40                DRV_MIIM_ClientStatus

.text.TCPIP_TCP_WasDisconnected%947
                0x00021d56       0x16
 .text.TCPIP_TCP_WasDisconnected
                0x00021d56       0x16 build/default/production/_ext/1033058136/tcp.o
                0x00021d56                TCPIP_TCP_WasDisconnected

.text._TCPIP_HEAP_LastError%948
                0x00021d6c       0x16
 .text._TCPIP_HEAP_LastError
                0x00021d6c       0x16 build/default/production/_ext/1033058136/tcpip_heap_internal.o

.text._DNSSocketRxSignalHandler%949
                0x00021d82       0x16
 .text._DNSSocketRxSignalHandler
                0x00021d82       0x16 build/default/production/_ext/1033058136/dns.o

.text.TCPIP_Helper_TCPSecurePortGet%950
                0x00021d98       0x16
 .text.TCPIP_Helper_TCPSecurePortGet
                0x00021d98       0x16 build/default/production/_ext/1033058136/tcpip_helpers.o
                0x00021d98                TCPIP_Helper_TCPSecurePortGet

.text.TCPIP_Helper_UDPSecurePortGet%951
                0x00021dae       0x16
 .text.TCPIP_Helper_UDPSecurePortGet
                0x00021dae       0x16 build/default/production/_ext/1033058136/tcpip_helpers.o
                0x00021dae                TCPIP_Helper_UDPSecurePortGet

.text._TCPIPStackPacketTx%952
                0x00021dc4       0x16
 .text._TCPIPStackPacketTx
                0x00021dc4       0x16 build/default/production/_ext/1033058136/tcpip_manager.o
                0x00021dc4                _TCPIPStackPacketTx

.text._TCPIP_AnnounceSocketRxSignalHandler%953
                0x00021dda       0x16
 .text._TCPIP_AnnounceSocketRxSignalHandler
                0x00021dda       0x16 build/default/production/_ext/1033058136/tcpip_announce.o

.text._IperfUDPRxSignalHandler%954
                0x00021df0       0x16
 .text._IperfUDPRxSignalHandler
                0x00021df0       0x16 build/default/production/_ext/1033058136/iperf.o

.text._IperfTCPRxSignalHandler%955
                0x00021e06       0x16
 .text._IperfTCPRxSignalHandler
                0x00021e06       0x16 build/default/production/_ext/1033058136/iperf.o

.text.ld_dword%956
                0x00021e1c       0x16
 .text.ld_dword
                0x00021e1c       0x16 build/default/production/_ext/411819097/ff.o

.text.clst2sect%957
                0x00021e32       0x16
 .text.clst2sect
                0x00021e32       0x16 build/default/production/_ext/411819097/ff.o

.text.__expand_heap%958
                0x00021e48       0x16
 .text.__expand_heap
                0x00021e48       0x16 c:/program files/microchip/xc32/v4.00/bin/bin/../../lib/gcc/pic32c/8.3.1/../../../../pic32c/lib/thumb/v7e-m+fp/hard\libc-musl.a(expand_heap.o)
                0x00021e48                __expand_heap

.text.memcpy%959
                0x00021e5e       0x16
 .text.memcpy   0x00021e5e       0x16 c:/program files/microchip/xc32/v4.00/bin/bin/../../lib/gcc/pic32c/8.3.1/../../../../pic32c/lib/thumb/v7e-m+fp/hard\libc-musl.a(memcpy.o)
                0x00021e5e                memcpy

.rodata._DRV_PHY_NegResultPhasesTbl%960
                0x00021e74       0x14
 .rodata._DRV_PHY_NegResultPhasesTbl
                0x00021e74       0x14 build/default/production/_ext/444070925/drv_ethphy.o

.rodata.DRV_ETHPHY_OBJECT_KSZ8061%961
                0x00021e88       0x14
 .rodata.DRV_ETHPHY_OBJECT_KSZ8061
                0x00021e88       0x14 build/default/production/_ext/444070925/drv_extphy_ksz8061.o
                0x00021e88                DRV_ETHPHY_OBJECT_KSZ8061

.rodata._DRV_GMAC_LinkStateTbl%962
                0x00021e9c       0x14
 .rodata._DRV_GMAC_LinkStateTbl
                0x00021e9c       0x14 build/default/production/_ext/1546807373/drv_gmac.o

.text.DRV_PIC32CGMAC_LibGetHighPrioReadyQue%963
                0x00021eb0       0x14
 .text.DRV_PIC32CGMAC_LibGetHighPrioReadyQue
                0x00021eb0       0x14 build/default/production/_ext/1546807373/drv_gmac_lib_samE5x.o
                0x00021eb0                DRV_PIC32CGMAC_LibGetHighPrioReadyQue

.text.DRV_SDMMC_RegisterWithSysFs%964
                0x00021ec4       0x14
 .text.DRV_SDMMC_RegisterWithSysFs
                0x00021ec4       0x14 build/default/production/_ext/20954303/drv_sdmmc_file_system.o
                0x00021ec4                DRV_SDMMC_RegisterWithSysFs

.text.DRV_SDMMC_AsyncRead%965
                0x00021ed8       0x14
 .text.DRV_SDMMC_AsyncRead
                0x00021ed8       0x14 build/default/production/_ext/20954303/drv_sdmmc.o
                0x00021ed8                DRV_SDMMC_AsyncRead

.text.DRV_SDMMC_AsyncWrite%966
                0x00021eec       0x14
 .text.DRV_SDMMC_AsyncWrite
                0x00021eec       0x14 build/default/production/_ext/20954303/drv_sdmmc.o
                0x00021eec                DRV_SDMMC_AsyncWrite

.text.TCPIP_TCP_Abort%967
                0x00021f00       0x14
 .text.TCPIP_TCP_Abort
                0x00021f00       0x14 build/default/production/_ext/1033058136/tcp.o
                0x00021f00                TCPIP_TCP_Abort

.text.TCPIP_HEAP_Create%968
                0x00021f14       0x14
 .text.TCPIP_HEAP_Create
                0x00021f14       0x14 build/default/production/_ext/1033058136/tcpip_heap_alloc.o
                0x00021f14                TCPIP_HEAP_Create

.text.TCPIP_STACK_NetUpMACAddressGet%969
                0x00021f28       0x14
 .text.TCPIP_STACK_NetUpMACAddressGet
                0x00021f28       0x14 build/default/production/_ext/1033058136/tcpip_manager.o
                0x00021f28                TCPIP_STACK_NetUpMACAddressGet

.text._FieldSetTruncated%970
                0x00021f3c       0x14
 .text._FieldSetTruncated
                0x00021f3c       0x14 build/default/production/_ext/1033058136/tcpip_announce.o
                0x00021f3c                _FieldSetTruncated

.text._UDPUpdatePacketLock%971
                0x00021f50       0x14
 .text._UDPUpdatePacketLock
                0x00021f50       0x14 build/default/production/_ext/1033058136/udp.o

.text.SDHC1_ErrorReset%972
                0x00021f64       0x14
 .text.SDHC1_ErrorReset
                0x00021f64       0x14 build/default/production/_ext/1865600094/plib_sdhc1.o
                0x00021f64                SDHC1_ErrorReset

.text.SERCOM1_USART_ReadFreeBufferCountGet%973
                0x00021f78       0x14
 .text.SERCOM1_USART_ReadFreeBufferCountGet
                0x00021f78       0x14 build/default/production/_ext/504274921/plib_sercom1_usart.o
                0x00021f78                SERCOM1_USART_ReadFreeBufferCountGet

.text.SERCOM1_USART_WriteFreeBufferCountGet%974
                0x00021f8c       0x14
 .text.SERCOM1_USART_WriteFreeBufferCountGet
                0x00021f8c       0x14 build/default/production/_ext/504274921/plib_sercom1_usart.o
                0x00021f8c                SERCOM1_USART_WriteFreeBufferCountGet

.text.TC0_Timer16bitPeriodSet%975
                0x00021fa0       0x14
 .text.TC0_Timer16bitPeriodSet
                0x00021fa0       0x14 build/default/production/_ext/829342655/plib_tc0.o
                0x00021fa0                TC0_Timer16bitPeriodSet

.text.TC0_Timer16bitCompareSet%976
                0x00021fb4       0x14
 .text.TC0_Timer16bitCompareSet
                0x00021fb4       0x14 build/default/production/_ext/829342655/plib_tc0.o
                0x00021fb4                TC0_Timer16bitCompareSet

.rodata.sysConsoleApi%977
                0x00021fc8       0x14
 .rodata.sysConsoleApi
                0x00021fc8       0x14 build/default/production/_ext/1376093119/sys_command.o
                0x00021fc8                sysConsoleApi

.text.Console_UART_Initialize%978
                0x00021fdc       0x14
 .text.Console_UART_Initialize
                0x00021fdc       0x14 build/default/production/_ext/1832805299/sys_console_uart.o
                0x00021fdc                Console_UART_Initialize

.rodata.badchr.9110%979
                0x00021ff0       0x14
 .rodata.badchr.9110
                0x00021ff0       0x14 build/default/production/_ext/411819097/ff.o

.text.CRYPT_WCCB_Initialize%980
                0x00022004       0x14
 .text.CRYPT_WCCB_Initialize
                0x00022004       0x14 build/default/production/_ext/172253694/crypt_wolfcryptcb.o
                0x00022004                CRYPT_WCCB_Initialize

.text.strchr%981
                0x00022018       0x14
 .text.strchr   0x00022018       0x14 c:/program files/microchip/xc32/v4.00/bin/bin/../../lib/gcc/pic32c/8.3.1/../../../../pic32c/lib/thumb/v7e-m+fp/hard\libc-musl.a(strchr.o)
                0x00022018                strchr

.text.TCPIP_TCP_GetIsReady%982
                0x0002202c       0x12
 .text.TCPIP_TCP_GetIsReady
                0x0002202c       0x12 build/default/production/_ext/1033058136/tcp.o
                0x0002202c                TCPIP_TCP_GetIsReady

.text._TCPIP_HEAP_FreeSize%983
                0x0002203e       0x12
 .text._TCPIP_HEAP_FreeSize
                0x0002203e       0x12 build/default/production/_ext/1033058136/tcpip_heap_internal.o

.text.TCPIP_OAHASH_EntryGet%984
                0x00022050       0x12
 .text.TCPIP_OAHASH_EntryGet
                0x00022050       0x12 build/default/production/_ext/1033058136/oahash.o
                0x00022050                TCPIP_OAHASH_EntryGet

.text.send%985  0x00022062       0x12
 .text.send     0x00022062       0x12 build/default/production/_ext/1033058136/berkeley_api.o
                0x00022062                send

.text.NVIC_INT_Disable%986
                0x00022074       0x12
 .text.NVIC_INT_Disable
                0x00022074       0x12 build/default/production/_ext/1865468468/plib_nvic.o
                0x00022074                NVIC_INT_Disable

.text.NVIC_INT_Restore%987
                0x00022086       0x12
 .text.NVIC_INT_Restore
                0x00022086       0x12 build/default/production/_ext/1865468468/plib_nvic.o
                0x00022086                NVIC_INT_Restore

.text.stpcpy%988
                0x00022098       0x12
 .text.stpcpy   0x00022098       0x12 c:/program files/microchip/xc32/v4.00/bin/bin/../../lib/gcc/pic32c/8.3.1/../../../../pic32c/lib/thumb/v7e-m+fp/hard\libc-musl.a(stpcpy.o)
                0x00022098                __stpcpy
                0x00022098                stpcpy

.rodata._DRV_PHY_SetupPhasesTbl%989
                0x000220ac       0x10
 .rodata._DRV_PHY_SetupPhasesTbl
                0x000220ac       0x10 build/default/production/_ext/444070925/drv_ethphy.o

.text.DRV_EXTPHY_MIIConfigure%990
                0x000220bc       0x10
 .text.DRV_EXTPHY_MIIConfigure
                0x000220bc       0x10 build/default/production/_ext/444070925/drv_extphy_ksz8061.o

.text.DRV_PIC32CGMAC_LibSetInterruptSrc%991
                0x000220cc       0x10
 .text.DRV_PIC32CGMAC_LibSetInterruptSrc
                0x000220cc       0x10 build/default/production/_ext/1546807373/drv_gmac_lib_samE5x.o
                0x000220cc                DRV_PIC32CGMAC_LibSetInterruptSrc

.text._Shell_ObjectLock%992
                0x000220dc       0x10
 .text._Shell_ObjectLock
                0x000220dc       0x10 build/default/production/_ext/1751889202/sys_fs_shell.o

.text.TCPIP_TCP_SocketNetGet%993
                0x000220ec       0x10
 .text.TCPIP_TCP_SocketNetGet
                0x000220ec       0x10 build/default/production/_ext/1033058136/tcp.o
                0x000220ec                TCPIP_TCP_SocketNetGet

.text.TCPIP_Notification_Deinitialize%994
                0x000220fc       0x10
 .text.TCPIP_Notification_Deinitialize
                0x000220fc       0x10 build/default/production/_ext/1033058136/tcpip_notify.o
                0x000220fc                TCPIP_Notification_Deinitialize

.text.TCPIP_UDP_SocketNetGet%995
                0x0002210c       0x10
 .text.TCPIP_UDP_SocketNetGet
                0x0002210c       0x10 build/default/production/_ext/1033058136/udp.o
                0x0002210c                TCPIP_UDP_SocketNetGet

.text.NVMCTRL_Initialize%996
                0x0002211c       0x10
 .text.NVMCTRL_Initialize
                0x0002211c       0x10 build/default/production/_ext/1593096446/plib_nvmctrl.o
                0x0002211c                NVMCTRL_Initialize

.text.SDHC1_CommandErrorGet%997
                0x0002212c       0x10
 .text.SDHC1_CommandErrorGet
                0x0002212c       0x10 build/default/production/_ext/1865600094/plib_sdhc1.o
                0x0002212c                SDHC1_CommandErrorGet

.text.SDHC1_DataErrorGet%998
                0x0002213c       0x10
 .text.SDHC1_DataErrorGet
                0x0002213c       0x10 build/default/production/_ext/1865600094/plib_sdhc1.o
                0x0002213c                SDHC1_DataErrorGet

.text.SDHC1_CallbackRegister%999
                0x0002214c       0x10
 .text.SDHC1_CallbackRegister
                0x0002214c       0x10 build/default/production/_ext/1865600094/plib_sdhc1.o
                0x0002214c                SDHC1_CallbackRegister

.text.IsCommandReady%1000
                0x0002215c       0x10
 .text.IsCommandReady
                0x0002215c       0x10 build/default/production/_ext/1376093119/sys_command.o

.text.Console_UART_Status%1001
                0x0002216c       0x10
 .text.Console_UART_Status
                0x0002216c       0x10 build/default/production/_ext/1832805299/sys_console_uart.o
                0x0002216c                Console_UART_Status

.text.st_dword%1002
                0x0002217c       0x10
 .text.st_dword
                0x0002217c       0x10 build/default/production/_ext/411819097/ff.o

.rodata.LfnOfs%1003
                0x0002218c       0x10
 .rodata.LfnOfs
                0x0002218c       0x10 build/default/production/_ext/411819097/ff.o

.rodata.cst.9147%1004
                0x0002219c       0x10
 .rodata.cst.9147
                0x0002219c       0x10 build/default/production/_ext/411819097/ff.o

.rodata.cst32.9148%1005
                0x000221ac       0x10
 .rodata.cst32.9148
                0x000221ac       0x10 build/default/production/_ext/411819097/ff.o

.rodata.defopt.9149%1006
                0x000221bc       0x10
 .rodata.defopt.9149
                0x000221bc       0x10 build/default/production/_ext/411819097/ff.o

.text.disk_initialize%1007
                0x000221cc       0x10
 .text.disk_initialize
                0x000221cc       0x10 build/default/production/_ext/565198302/diskio.o
                0x000221cc                disk_initialize

.text.sy_time_h2_adapter_callback%1008
                0x000221dc       0x10
 .text.sy_time_h2_adapter_callback
                0x000221dc       0x10 build/default/production/_ext/753841488/sys_time_h2_adapter.o
                0x000221dc                sy_time_h2_adapter_callback

.rodata.tcpipIPv4InitData%1009
                0x000221ec       0x10
 .rodata.tcpipIPv4InitData
                0x000221ec       0x10 build/default/production/_ext/1171490990/initialization.o
                0x000221ec                tcpipIPv4InitData

.text.memset%1010
                0x000221fc       0x10
 .text.memset   0x000221fc       0x10 c:/program files/microchip/xc32/v4.00/bin/bin/../../lib/gcc/pic32c/8.3.1/../../../../pic32c/lib/thumb/v7e-m+fp/hard\libc-musl.a(memset.o)
                0x000221fc                memset

.text.strlen%1011
                0x0002220c       0x10
 .text.strlen   0x0002220c       0x10 c:/program files/microchip/xc32/v4.00/bin/bin/../../lib/gcc/pic32c/8.3.1/../../../../pic32c/lib/thumb/v7e-m+fp/hard\libc-musl.a(strlen.o)
                0x0002220c                strlen

.rodata%1012    0x0002221c       0x20
 .rodata        0x0002221c       0x10 c:/program files/microchip/xc32/v4.00/bin/bin/../../lib/gcc/pic32c/8.3.1/../../../../pic32c/lib/thumb/v7e-m+fp/hard\libc-musl.a(__fmt_a.o)
 .rodata        0x0002222c       0x10 c:/program files/microchip/xc32/v4.00/bin/bin/../../lib/gcc/pic32c/8.3.1/../../../../pic32c/lib/thumb/v7e-m+fp/hard\libc-musl.a(__fmt_fp.o)

.text.DRV_PIC32CGMAC_LibSetPriorityToQueueNum%1014
                0x0002223c        0xe
 .text.DRV_PIC32CGMAC_LibSetPriorityToQueueNum
                0x0002223c        0xe build/default/production/_ext/1546807373/drv_gmac_lib_samE5x.o
                0x0002223c                DRV_PIC32CGMAC_LibSetPriorityToQueueNum

.text.Shell_FileWrite%1015
                0x0002224a        0xe
 .text.Shell_FileWrite
                0x0002224a        0xe build/default/production/_ext/1751889202/sys_fs_shell.o

.text.Shell_FileRead%1016
                0x00022258        0xe
 .text.Shell_FileRead
                0x00022258        0xe build/default/production/_ext/1751889202/sys_fs_shell.o

.text.Shell_FileSeek%1017
                0x00022266        0xe
 .text.Shell_FileSeek
                0x00022266        0xe build/default/production/_ext/1751889202/sys_fs_shell.o

.text.TCPIP_Helper_ChecksumFold%1018
                0x00022274        0xe
 .text.TCPIP_Helper_ChecksumFold
                0x00022274        0xe build/default/production/_ext/1033058136/tcpip_helpers.o
                0x00022274                TCPIP_Helper_ChecksumFold

.text.TCPIP_STACK_NetIxGet%1019
                0x00022282        0xe
 .text.TCPIP_STACK_NetIxGet
                0x00022282        0xe build/default/production/_ext/1033058136/tcpip_manager.o
                0x00022282                TCPIP_STACK_NetIxGet

.text._TCPIPStackSignalHandlerDeregister%1020
                0x00022290        0xe
 .text._TCPIPStackSignalHandlerDeregister
                0x00022290        0xe build/default/production/_ext/1033058136/tcpip_manager.o
                0x00022290                _TCPIPStackSignalHandlerDeregister

.text.FATFS_eof%1021
                0x0002229e        0xe
 .text.FATFS_eof
                0x0002229e        0xe build/default/production/_ext/1269487135/sys_fs_fat_interface.o
                0x0002229e                FATFS_eof

.text.main%1022
                0x000222ac        0xe
 .text.main     0x000222ac        0xe build/default/production/_ext/1360937237/main.o
                0x000222ac                main

.text.tolower%1023
                0x000222ba        0xe
 .text.tolower  0x000222ba        0xe c:/program files/microchip/xc32/v4.00/bin/bin/../../lib/gcc/pic32c/8.3.1/../../../../pic32c/lib/thumb/v7e-m+fp/hard\libc-musl.a(tolower.o)
                0x000222ba                tolower

.text.toupper%1024
                0x000222c8        0xe
 .text.toupper  0x000222c8        0xe c:/program files/microchip/xc32/v4.00/bin/bin/../../lib/gcc/pic32c/8.3.1/../../../../pic32c/lib/thumb/v7e-m+fp/hard\libc-musl.a(toupper.o)
                0x000222c8                toupper

.rodata._DRV_PHY_LinkStatPhasesTbl%1025
                0x000222d8        0xc
 .rodata._DRV_PHY_LinkStatPhasesTbl
                0x000222d8        0xc build/default/production/_ext/444070925/drv_ethphy.o

.rodata._DRV_PHY_NegRestartPhasesTbl%1026
                0x000222e4        0xc
 .rodata._DRV_PHY_NegRestartPhasesTbl
                0x000222e4        0xc build/default/production/_ext/444070925/drv_ethphy.o

.rodata._DRV_PHY_ResetPhasesTbl%1027
                0x000222f0        0xc
 .rodata._DRV_PHY_ResetPhasesTbl
                0x000222f0        0xc build/default/production/_ext/444070925/drv_ethphy.o

.text._DRV_GMAC_GetTxOctetLow%1028
                0x000222fc        0xc
 .text._DRV_GMAC_GetTxOctetLow
                0x000222fc        0xc build/default/production/_ext/1546807373/drv_gmac.o

.text._DRV_GMAC_GetTxOctetHigh%1029
                0x00022308        0xc
 .text._DRV_GMAC_GetTxOctetHigh
                0x00022308        0xc build/default/production/_ext/1546807373/drv_gmac.o

.text._DRV_GMAC_GetTxFrameCount%1030
                0x00022314        0xc
 .text._DRV_GMAC_GetTxFrameCount
                0x00022314        0xc build/default/production/_ext/1546807373/drv_gmac.o

.text._DRV_GMAC_GetTxBCastFrameCount%1031
                0x00022320        0xc
 .text._DRV_GMAC_GetTxBCastFrameCount
                0x00022320        0xc build/default/production/_ext/1546807373/drv_gmac.o

.text._DRV_GMAC_GetTxMCastFrameCount%1032
                0x0002232c        0xc
 .text._DRV_GMAC_GetTxMCastFrameCount
                0x0002232c        0xc build/default/production/_ext/1546807373/drv_gmac.o

.text._DRV_GMAC_GetTxPauseFrameCount%1033
                0x00022338        0xc
 .text._DRV_GMAC_GetTxPauseFrameCount
                0x00022338        0xc build/default/production/_ext/1546807373/drv_gmac.o

.text._DRV_GMAC_GetTx64ByteFrameCount%1034
                0x00022344        0xc
 .text._DRV_GMAC_GetTx64ByteFrameCount
                0x00022344        0xc build/default/production/_ext/1546807373/drv_gmac.o

.text._DRV_GMAC_GetTx127ByteFrameCount%1035
                0x00022350        0xc
 .text._DRV_GMAC_GetTx127ByteFrameCount
                0x00022350        0xc build/default/production/_ext/1546807373/drv_gmac.o

.text._DRV_GMAC_GetTx255ByteFrameCount%1036
                0x0002235c        0xc
 .text._DRV_GMAC_GetTx255ByteFrameCount
                0x0002235c        0xc build/default/production/_ext/1546807373/drv_gmac.o

.text._DRV_GMAC_GetTx511ByteFrameCount%1037
                0x00022368        0xc
 .text._DRV_GMAC_GetTx511ByteFrameCount
                0x00022368        0xc build/default/production/_ext/1546807373/drv_gmac.o

.text._DRV_GMAC_GetTx1023ByteFrameCount%1038
                0x00022374        0xc
 .text._DRV_GMAC_GetTx1023ByteFrameCount
                0x00022374        0xc build/default/production/_ext/1546807373/drv_gmac.o

.text._DRV_GMAC_GetTx1518ByteFrameCount%1039
                0x00022380        0xc
 .text._DRV_GMAC_GetTx1518ByteFrameCount
                0x00022380        0xc build/default/production/_ext/1546807373/drv_gmac.o

.text._DRV_GMAC_GetTxGT1518ByteFrameCount%1040
                0x0002238c        0xc
 .text._DRV_GMAC_GetTxGT1518ByteFrameCount
                0x0002238c        0xc build/default/production/_ext/1546807373/drv_gmac.o

.text._DRV_GMAC_GetTxUnderRunFrameCount%1041
                0x00022398        0xc
 .text._DRV_GMAC_GetTxUnderRunFrameCount
                0x00022398        0xc build/default/production/_ext/1546807373/drv_gmac.o

.text._DRV_GMAC_GetTxSingleCollFrameCount%1042
                0x000223a4        0xc
 .text._DRV_GMAC_GetTxSingleCollFrameCount
                0x000223a4        0xc build/default/production/_ext/1546807373/drv_gmac.o

.text._DRV_GMAC_GetTxMultiCollFrameCount%1043
                0x000223b0        0xc
 .text._DRV_GMAC_GetTxMultiCollFrameCount
                0x000223b0        0xc build/default/production/_ext/1546807373/drv_gmac.o

.text._DRV_GMAC_GetTxExcessCollFrameCount%1044
                0x000223bc        0xc
 .text._DRV_GMAC_GetTxExcessCollFrameCount
                0x000223bc        0xc build/default/production/_ext/1546807373/drv_gmac.o

.text._DRV_GMAC_GetTxLateCollFrameCount%1045
                0x000223c8        0xc
 .text._DRV_GMAC_GetTxLateCollFrameCount
                0x000223c8        0xc build/default/production/_ext/1546807373/drv_gmac.o

.text._DRV_GMAC_GetTxDeferFrameCount%1046
                0x000223d4        0xc
 .text._DRV_GMAC_GetTxDeferFrameCount
                0x000223d4        0xc build/default/production/_ext/1546807373/drv_gmac.o

.text._DRV_GMAC_GetTxCSErrorFrameCount%1047
                0x000223e0        0xc
 .text._DRV_GMAC_GetTxCSErrorFrameCount
                0x000223e0        0xc build/default/production/_ext/1546807373/drv_gmac.o

.text._DRV_GMAC_GetRxOctetLow%1048
                0x000223ec        0xc
 .text._DRV_GMAC_GetRxOctetLow
                0x000223ec        0xc build/default/production/_ext/1546807373/drv_gmac.o

.text._DRV_GMAC_GetRxOctetHigh%1049
                0x000223f8        0xc
 .text._DRV_GMAC_GetRxOctetHigh
                0x000223f8        0xc build/default/production/_ext/1546807373/drv_gmac.o

.text._DRV_GMAC_GetRxFrameCount%1050
                0x00022404        0xc
 .text._DRV_GMAC_GetRxFrameCount
                0x00022404        0xc build/default/production/_ext/1546807373/drv_gmac.o

.text._DRV_GMAC_GetRxBCastFrameCount%1051
                0x00022410        0xc
 .text._DRV_GMAC_GetRxBCastFrameCount
                0x00022410        0xc build/default/production/_ext/1546807373/drv_gmac.o

.text._DRV_GMAC_GetRxMCastFrameCount%1052
                0x0002241c        0xc
 .text._DRV_GMAC_GetRxMCastFrameCount
                0x0002241c        0xc build/default/production/_ext/1546807373/drv_gmac.o

.text._DRV_GMAC_GetRxPauseFrameCount%1053
                0x00022428        0xc
 .text._DRV_GMAC_GetRxPauseFrameCount
                0x00022428        0xc build/default/production/_ext/1546807373/drv_gmac.o

.text._DRV_GMAC_GetRx64ByteFrameCount%1054
                0x00022434        0xc
 .text._DRV_GMAC_GetRx64ByteFrameCount
                0x00022434        0xc build/default/production/_ext/1546807373/drv_gmac.o

.text._DRV_GMAC_GetRx127ByteFrameCount%1055
                0x00022440        0xc
 .text._DRV_GMAC_GetRx127ByteFrameCount
                0x00022440        0xc build/default/production/_ext/1546807373/drv_gmac.o

.text._DRV_GMAC_GetRx255ByteFrameCount%1056
                0x0002244c        0xc
 .text._DRV_GMAC_GetRx255ByteFrameCount
                0x0002244c        0xc build/default/production/_ext/1546807373/drv_gmac.o

.text._DRV_GMAC_GetRx511ByteFrameCount%1057
                0x00022458        0xc
 .text._DRV_GMAC_GetRx511ByteFrameCount
                0x00022458        0xc build/default/production/_ext/1546807373/drv_gmac.o

.text._DRV_GMAC_GetRx1023ByteFrameCount%1058
                0x00022464        0xc
 .text._DRV_GMAC_GetRx1023ByteFrameCount
                0x00022464        0xc build/default/production/_ext/1546807373/drv_gmac.o

.text._DRV_GMAC_GetRx1518ByteFrameCount%1059
                0x00022470        0xc
 .text._DRV_GMAC_GetRx1518ByteFrameCount
                0x00022470        0xc build/default/production/_ext/1546807373/drv_gmac.o

.text._DRV_GMAC_GetRxGT1518ByteFrameCount%1060
                0x0002247c        0xc
 .text._DRV_GMAC_GetRxGT1518ByteFrameCount
                0x0002247c        0xc build/default/production/_ext/1546807373/drv_gmac.o

.text._DRV_GMAC_GetRxUnderSizeFrameCount%1061
                0x00022488        0xc
 .text._DRV_GMAC_GetRxUnderSizeFrameCount
                0x00022488        0xc build/default/production/_ext/1546807373/drv_gmac.o

.text._DRV_GMAC_GetRxOverSizeFrameCount%1062
                0x00022494        0xc
 .text._DRV_GMAC_GetRxOverSizeFrameCount
                0x00022494        0xc build/default/production/_ext/1546807373/drv_gmac.o

.text._DRV_GMAC_GetRxJabberFrameCount%1063
                0x000224a0        0xc
 .text._DRV_GMAC_GetRxJabberFrameCount
                0x000224a0        0xc build/default/production/_ext/1546807373/drv_gmac.o

.text._DRV_GMAC_GetRxFCSErrorFrameCount%1064
                0x000224ac        0xc
 .text._DRV_GMAC_GetRxFCSErrorFrameCount
                0x000224ac        0xc build/default/production/_ext/1546807373/drv_gmac.o

.text._DRV_GMAC_GetRxLFErrorFrameCount%1065
                0x000224b8        0xc
 .text._DRV_GMAC_GetRxLFErrorFrameCount
                0x000224b8        0xc build/default/production/_ext/1546807373/drv_gmac.o

.text._DRV_GMAC_GetRxSymErrorFrameCount%1066
                0x000224c4        0xc
 .text._DRV_GMAC_GetRxSymErrorFrameCount
                0x000224c4        0xc build/default/production/_ext/1546807373/drv_gmac.o

.text._DRV_GMAC_GetRxAlignErrorFrameCount%1067
                0x000224d0        0xc
 .text._DRV_GMAC_GetRxAlignErrorFrameCount
                0x000224d0        0xc build/default/production/_ext/1546807373/drv_gmac.o

.text._DRV_GMAC_GetRxResErrorFrameCount%1068
                0x000224dc        0xc
 .text._DRV_GMAC_GetRxResErrorFrameCount
                0x000224dc        0xc build/default/production/_ext/1546807373/drv_gmac.o

.text._DRV_GMAC_GetRxOverRunFrameCount%1069
                0x000224e8        0xc
 .text._DRV_GMAC_GetRxOverRunFrameCount
                0x000224e8        0xc build/default/production/_ext/1546807373/drv_gmac.o

.text._DRV_GMAC_GetRxIPHdrCSErrorFrameCount%1070
                0x000224f4        0xc
 .text._DRV_GMAC_GetRxIPHdrCSErrorFrameCount
                0x000224f4        0xc build/default/production/_ext/1546807373/drv_gmac.o

.text._DRV_GMAC_GetRxTCPCSErrorFrameCount%1071
                0x00022500        0xc
 .text._DRV_GMAC_GetRxTCPCSErrorFrameCount
                0x00022500        0xc build/default/production/_ext/1546807373/drv_gmac.o

.text._DRV_GMAC_GetRxUDPCSErrorFrameCount%1072
                0x0002250c        0xc
 .text._DRV_GMAC_GetRxUDPCSErrorFrameCount
                0x0002250c        0xc build/default/production/_ext/1546807373/drv_gmac.o

.text.DRV_PIC32CGMAC_LibReadInterruptStatus%1073
                0x00022518        0xc
 .text.DRV_PIC32CGMAC_LibReadInterruptStatus
                0x00022518        0xc build/default/production/_ext/1546807373/drv_gmac_lib_samE5x.o
                0x00022518                DRV_PIC32CGMAC_LibReadInterruptStatus

.text.DRV_PIC32CGMAC_LibEnableInterrupt%1074
                0x00022524        0xc
 .text.DRV_PIC32CGMAC_LibEnableInterrupt
                0x00022524        0xc build/default/production/_ext/1546807373/drv_gmac_lib_samE5x.o
                0x00022524                DRV_PIC32CGMAC_LibEnableInterrupt

.text.DRV_PIC32CGMAC_LibDisableInterrupt%1075
                0x00022530        0xc
 .text.DRV_PIC32CGMAC_LibDisableInterrupt
                0x00022530        0xc build/default/production/_ext/1546807373/drv_gmac_lib_samE5x.o
                0x00022530                DRV_PIC32CGMAC_LibDisableInterrupt

.text.TCPIP_ARP_HashKeyCompare%1076
                0x0002253c        0xc
 .text.TCPIP_ARP_HashKeyCompare
                0x0002253c        0xc build/default/production/_ext/1033058136/arp.o
                0x0002253c                TCPIP_ARP_HashKeyCompare

.text.TCPIP_IPV4_PacketTransmit%1077
                0x00022548        0xc
 .text.TCPIP_IPV4_PacketTransmit
                0x00022548        0xc build/default/production/_ext/1033058136/ipv4.o
                0x00022548                TCPIP_IPV4_PacketTransmit

.text._TCPIP_HEAP_Size%1078
                0x00022554        0xc
 .text._TCPIP_HEAP_Size
                0x00022554        0xc build/default/production/_ext/1033058136/tcpip_heap_internal.o

.text._TCPIP_HEAP_HighWatermark%1079
                0x00022560        0xc
 .text._TCPIP_HEAP_HighWatermark
                0x00022560        0xc build/default/production/_ext/1033058136/tcpip_heap_internal.o

.text.TCPIP_DNS_OAHASH_KeyCompare%1080
                0x0002256c        0xc
 .text.TCPIP_DNS_OAHASH_KeyCompare
                0x0002256c        0xc build/default/production/_ext/1033058136/dns.o

.text.TCPIP_STACK_NetDefaultGet%1081
                0x00022578        0xc
 .text.TCPIP_STACK_NetDefaultGet
                0x00022578        0xc build/default/production/_ext/1033058136/tcpip_manager.o
                0x00022578                TCPIP_STACK_NetDefaultGet

.text.TCPIP_STACK_NumberOfNetworksGet%1082
                0x00022584        0xc
 .text.TCPIP_STACK_NumberOfNetworksGet
                0x00022584        0xc build/default/production/_ext/1033058136/tcpip_manager.o
                0x00022584                TCPIP_STACK_NumberOfNetworksGet

.rodata.TCPIP_STACK_IF_ALIAS_NAME_TBL%1083
                0x00022590        0xc
 .rodata.TCPIP_STACK_IF_ALIAS_NAME_TBL
                0x00022590        0xc build/default/production/_ext/1033058136/tcpip_manager.o

.text.TCPIP_PKT_Deinitialize%1084
                0x0002259c        0xc
 .text.TCPIP_PKT_Deinitialize
                0x0002259c        0xc build/default/production/_ext/1033058136/tcpip_packet.o
                0x0002259c                TCPIP_PKT_Deinitialize

.text._FieldSetUserStart%1085
                0x000225a8        0xc
 .text._FieldSetUserStart
                0x000225a8        0xc build/default/production/_ext/1033058136/tcpip_announce.o
                0x000225a8                _FieldSetUserStart

.text.SDHC1_IsCmdLineBusy%1086
                0x000225b4        0xc
 .text.SDHC1_IsCmdLineBusy
                0x000225b4        0xc build/default/production/_ext/1865600094/plib_sdhc1.o
                0x000225b4                SDHC1_IsCmdLineBusy

.text.SDHC1_IsDatLineBusy%1087
                0x000225c0        0xc
 .text.SDHC1_IsDatLineBusy
                0x000225c0        0xc build/default/production/_ext/1865600094/plib_sdhc1.o
                0x000225c0                SDHC1_IsDatLineBusy

.text.SDHC1_IsCardAttached%1088
                0x000225cc        0xc
 .text.SDHC1_IsCardAttached
                0x000225cc        0xc build/default/production/_ext/1865600094/plib_sdhc1.o
                0x000225cc                SDHC1_IsCardAttached

.text.TC0_TimerCallbackRegister%1089
                0x000225d8        0xc
 .text.TC0_TimerCallbackRegister
                0x000225d8        0xc build/default/production/_ext/829342655/plib_tc0.o
                0x000225d8                TC0_TimerCallbackRegister

.text.SYS_DEBUG_ConsoleInstanceGet%1090
                0x000225e4        0xc
 .text.SYS_DEBUG_ConsoleInstanceGet
                0x000225e4        0xc build/default/production/_ext/944882569/sys_debug.o
                0x000225e4                SYS_DEBUG_ConsoleInstanceGet

.text.SYS_DEBUG_ErrorLevelGet%1091
                0x000225f0        0xc
 .text.SYS_DEBUG_ErrorLevelGet
                0x000225f0        0xc build/default/production/_ext/944882569/sys_debug.o
                0x000225f0                SYS_DEBUG_ErrorLevelGet

.text.SYS_FS_Error%1092
                0x000225fc        0xc
 .text.SYS_FS_Error
                0x000225fc        0xc build/default/production/_ext/1269487135/sys_fs.o
                0x000225fc                SYS_FS_Error

.text.SYS_FS_MEDIA_MANAGER_RegisterTransferHandler%1093
                0x00022608        0xc
 .text.SYS_FS_MEDIA_MANAGER_RegisterTransferHandler
                0x00022608        0xc build/default/production/_ext/1269487135/sys_fs_media_manager.o
                0x00022608                SYS_FS_MEDIA_MANAGER_RegisterTransferHandler

.text.FATFS_error%1094
                0x00022614        0xc
 .text.FATFS_error
                0x00022614        0xc build/default/production/_ext/1269487135/sys_fs_fat_interface.o
                0x00022614                FATFS_error

.text.SYS_TIME_FrequencyGet%1095
                0x00022620        0xc
 .text.SYS_TIME_FrequencyGet
                0x00022620        0xc build/default/production/_ext/101884895/sys_time.o
                0x00022620                SYS_TIME_FrequencyGet

.rodata.sysConsole0Init%1096
                0x0002262c        0xc
 .rodata.sysConsole0Init
                0x0002262c        0xc build/default/production/_ext/1171490990/initialization.o
                0x0002262c                sysConsole0Init

.text.APP_Initialize%1097
                0x00022638        0xc
 .text.APP_Initialize
                0x00022638        0xc build/default/production/_ext/1360937237/app.o
                0x00022638                APP_Initialize

.text.vsprintf%1098
                0x00022644        0xc
 .text.vsprintf
                0x00022644        0xc c:/program files/microchip/xc32/v4.00/bin/bin/../../lib/gcc/pic32c/8.3.1/../../../../pic32c/lib/thumb/v7e-m+fp/hard\libc-musl.a(vsprintf.o)
                0x00022644                vsprintf

.text.strcpy%1099
                0x00022650        0xc
 .text.strcpy   0x00022650        0xc c:/program files/microchip/xc32/v4.00/bin/bin/../../lib/gcc/pic32c/8.3.1/../../../../pic32c/lib/thumb/v7e-m+fp/hard\libc-musl.a(strcpy.o)
                0x00022650                strcpy

.text.strncpy%1100
                0x0002265c        0xc
 .text.strncpy  0x0002265c        0xc c:/program files/microchip/xc32/v4.00/bin/bin/../../lib/gcc/pic32c/8.3.1/../../../../pic32c/lib/thumb/v7e-m+fp/hard\libc-musl.a(strncpy.o)
                0x0002265c                strncpy

.text._DRV_ETHPHY_NegRestartPhaseWrite%1101
                0x00022668        0xa
 .text._DRV_ETHPHY_NegRestartPhaseWrite
                0x00022668        0xa build/default/production/_ext/444070925/drv_ethphy.o

.text.Shell_DirClose%1102
                0x00022672        0xa
 .text.Shell_DirClose
                0x00022672        0xa build/default/production/_ext/1751889202/sys_fs_shell.o

.text.Shell_FileEof%1103
                0x0002267c        0xa
 .text.Shell_FileEof
                0x0002267c        0xa build/default/production/_ext/1751889202/sys_fs_shell.o

.text.Shell_FileTell%1104
                0x00022686        0xa
 .text.Shell_FileTell
                0x00022686        0xa build/default/production/_ext/1751889202/sys_fs_shell.o

.text.Shell_FileSize%1105
                0x00022690        0xa
 .text.Shell_FileSize
                0x00022690        0xa build/default/production/_ext/1751889202/sys_fs_shell.o

.text.Shell_FileClose%1106
                0x0002269a        0xa
 .text.Shell_FileClose
                0x0002269a        0xa build/default/production/_ext/1751889202/sys_fs_shell.o

.text.TCPIP_Helper_SingleListInitialize%1107
                0x000226a4        0xa
 .text.TCPIP_Helper_SingleListInitialize
                0x000226a4        0xa build/default/production/_ext/1033058136/tcpip_helpers.o
                0x000226a4                TCPIP_Helper_SingleListInitialize

.text.TCPIP_STACK_NetNameGet%1108
                0x000226ae        0xa
 .text.TCPIP_STACK_NetNameGet
                0x000226ae        0xa build/default/production/_ext/1033058136/tcpip_manager.o
                0x000226ae                TCPIP_STACK_NetNameGet

.text.TCPIP_UDP_ServerOpen%1109
                0x000226b8        0xa
 .text.TCPIP_UDP_ServerOpen
                0x000226b8        0xa build/default/production/_ext/1033058136/udp.o
                0x000226b8                TCPIP_UDP_ServerOpen

.text.TCPIP_UDP_ClientOpen%1110
                0x000226c2        0xa
 .text.TCPIP_UDP_ClientOpen
                0x000226c2        0xa build/default/production/_ext/1033058136/udp.o
                0x000226c2                TCPIP_UDP_ClientOpen

.text.TCPIP_UDP_Get%1111
                0x000226cc        0xa
 .text.TCPIP_UDP_Get
                0x000226cc        0xa build/default/production/_ext/1033058136/udp.o
                0x000226cc                TCPIP_UDP_Get

.text.FATFS_read%1112
                0x000226d6        0xa
 .text.FATFS_read
                0x000226d6        0xa build/default/production/_ext/1269487135/sys_fs_fat_interface.o
                0x000226d6                FATFS_read

.text.FATFS_lseek%1113
                0x000226e0        0xa
 .text.FATFS_lseek
                0x000226e0        0xa build/default/production/_ext/1269487135/sys_fs_fat_interface.o
                0x000226e0                FATFS_lseek

.text.FATFS_gets%1114
                0x000226ea        0xa
 .text.FATFS_gets
                0x000226ea        0xa build/default/production/_ext/1269487135/sys_fs_fat_interface.o
                0x000226ea                FATFS_gets

.text.FATFS_write%1115
                0x000226f4        0xa
 .text.FATFS_write
                0x000226f4        0xa build/default/production/_ext/1269487135/sys_fs_fat_interface.o
                0x000226f4                FATFS_write

.text.FATFS_truncate%1116
                0x000226fe        0xa
 .text.FATFS_truncate
                0x000226fe        0xa build/default/production/_ext/1269487135/sys_fs_fat_interface.o
                0x000226fe                FATFS_truncate

.text.FATFS_sync%1117
                0x00022708        0xa
 .text.FATFS_sync
                0x00022708        0xa build/default/production/_ext/1269487135/sys_fs_fat_interface.o
                0x00022708                FATFS_sync

.text.FATFS_putc%1118
                0x00022712        0xa
 .text.FATFS_putc
                0x00022712        0xa build/default/production/_ext/1269487135/sys_fs_fat_interface.o
                0x00022712                FATFS_putc

.text.FATFS_puts%1119
                0x0002271c        0xa
 .text.FATFS_puts
                0x0002271c        0xa build/default/production/_ext/1269487135/sys_fs_fat_interface.o
                0x0002271c                FATFS_puts

.text.FATFS_printf%1120
                0x00022726        0xa
 .text.FATFS_printf
                0x00022726        0xa build/default/production/_ext/1269487135/sys_fs_fat_interface.o
                0x00022726                FATFS_printf

.text.DRV_EXTPHY_SMIClockGet%1121
                0x00022730        0x8
 .text.DRV_EXTPHY_SMIClockGet
                0x00022730        0x8 build/default/production/_ext/444070925/drv_extphy_ksz8061.o

.rodata%1122    0x00022738        0x8
 .rodata        0x00022738        0x8 build/default/production/_ext/1751889202/sys_fs_shell.o

.text.TCPIP_HEAP_MallocOutline%1123
                0x00022740        0x8
 .text.TCPIP_HEAP_MallocOutline
                0x00022740        0x8 build/default/production/_ext/1033058136/tcpip_heap_alloc.o
                0x00022740                TCPIP_HEAP_MallocOutline

.text.TCPIP_HEAP_CallocOutline%1124
                0x00022748        0x8
 .text.TCPIP_HEAP_CallocOutline
                0x00022748        0x8 build/default/production/_ext/1033058136/tcpip_heap_alloc.o
                0x00022748                TCPIP_HEAP_CallocOutline

.text.TCPIP_HEAP_FreeOutline%1125
                0x00022750        0x8
 .text.TCPIP_HEAP_FreeOutline
                0x00022750        0x8 build/default/production/_ext/1033058136/tcpip_heap_alloc.o
                0x00022750                TCPIP_HEAP_FreeOutline

.text.TCPIP_Notification_Initialize%1126
                0x00022758        0x8
 .text.TCPIP_Notification_Initialize
                0x00022758        0x8 build/default/production/_ext/1033058136/tcpip_notify.o
                0x00022758                TCPIP_Notification_Initialize

.text.TCPIP_UDP_TxPutIsReady%1127
                0x00022760        0x8
 .text.TCPIP_UDP_TxPutIsReady
                0x00022760        0x8 build/default/production/_ext/1033058136/udp.o
                0x00022760                TCPIP_UDP_TxPutIsReady

.text.SDHC1_BlockCountSet%1128
                0x00022768        0x8
 .text.SDHC1_BlockCountSet
                0x00022768        0x8 build/default/production/_ext/1865600094/plib_sdhc1.o
                0x00022768                SDHC1_BlockCountSet

.text.SERCOM1_USART_WriteCountGet%1129
                0x00022770        0x8
 .text.SERCOM1_USART_WriteCountGet
                0x00022770        0x8 build/default/production/_ext/504274921/plib_sercom1_usart.o
                0x00022770                SERCOM1_USART_WriteCountGet

.text.TC0_TimerFrequencyGet%1130
                0x00022778        0x8
 .text.TC0_TimerFrequencyGet
                0x00022778        0x8 build/default/production/_ext/829342655/plib_tc0.o
                0x00022778                TC0_TimerFrequencyGet

.text.SYS_FS_Tasks%1131
                0x00022780        0x8
 .text.SYS_FS_Tasks
                0x00022780        0x8 build/default/production/_ext/1269487135/sys_fs.o
                0x00022780                SYS_FS_Tasks

.rodata%1132    0x00022788        0x8
 .rodata        0x00022788        0x8 build/default/production/_ext/1269487135/sys_fs.o

.rodata.gPartitionTypeOffset%1133
                0x00022790        0x8
 .rodata.gPartitionTypeOffset
                0x00022790        0x8 build/default/production/_ext/1269487135/sys_fs_media_manager.o
                0x00022790                gPartitionTypeOffset

.text.FATFS_getlabel%1134
                0x00022798        0x8
 .text.FATFS_getlabel
                0x00022798        0x8 build/default/production/_ext/1269487135/sys_fs_fat_interface.o
                0x00022798                FATFS_getlabel

.text.FATFS_getcwd%1135
                0x000227a0        0x8
 .text.FATFS_getcwd
                0x000227a0        0x8 build/default/production/_ext/1269487135/sys_fs_fat_interface.o
                0x000227a0                FATFS_getcwd

.text.FATFS_chdir%1136
                0x000227a8        0x8
 .text.FATFS_chdir
                0x000227a8        0x8 build/default/production/_ext/1269487135/sys_fs_fat_interface.o
                0x000227a8                FATFS_chdir

.text.FATFS_mkdir%1137
                0x000227b0        0x8
 .text.FATFS_mkdir
                0x000227b0        0x8 build/default/production/_ext/1269487135/sys_fs_fat_interface.o
                0x000227b0                FATFS_mkdir

.text.FATFS_unlink%1138
                0x000227b8        0x8
 .text.FATFS_unlink
                0x000227b8        0x8 build/default/production/_ext/1269487135/sys_fs_fat_interface.o
                0x000227b8                FATFS_unlink

.text.FATFS_setlabel%1139
                0x000227c0        0x8
 .text.FATFS_setlabel
                0x000227c0        0x8 build/default/production/_ext/1269487135/sys_fs_fat_interface.o
                0x000227c0                FATFS_setlabel

.text.FATFS_chmod%1140
                0x000227c8        0x8
 .text.FATFS_chmod
                0x000227c8        0x8 build/default/production/_ext/1269487135/sys_fs_fat_interface.o
                0x000227c8                FATFS_chmod

.text.FATFS_utime%1141
                0x000227d0        0x8
 .text.FATFS_utime
                0x000227d0        0x8 build/default/production/_ext/1269487135/sys_fs_fat_interface.o
                0x000227d0                FATFS_utime

.text.FATFS_rename%1142
                0x000227d8        0x8
 .text.FATFS_rename
                0x000227d8        0x8 build/default/production/_ext/1269487135/sys_fs_fat_interface.o
                0x000227d8                FATFS_rename

.text.FATFS_fdisk%1143
                0x000227e0        0x8
 .text.FATFS_fdisk
                0x000227e0        0x8 build/default/production/_ext/1269487135/sys_fs_fat_interface.o
                0x000227e0                FATFS_fdisk

.text.SYS_INT_Disable%1144
                0x000227e8        0x8
 .text.SYS_INT_Disable
                0x000227e8        0x8 build/default/production/_ext/1881668453/sys_int.o
                0x000227e8                SYS_INT_Disable

.text.SYS_INT_Restore%1145
                0x000227f0        0x8
 .text.SYS_INT_Restore
                0x000227f0        0x8 build/default/production/_ext/1881668453/sys_int.o
                0x000227f0                SYS_INT_Restore

.rodata.drvMiimInitData%1146
                0x000227f8        0x8
 .rodata.drvMiimInitData
                0x000227f8        0x8 build/default/production/_ext/1171490990/initialization.o

.rodata.netPresInitData%1147
                0x00022800        0x8
 .rodata.netPresInitData
                0x00022800        0x8 build/default/production/_ext/1171490990/initialization.o

.rodata.sysFSInit%1148
                0x00022808        0x8
 .rodata.sysFSInit
                0x00022808        0x8 build/default/production/_ext/1171490990/initialization.o
                0x00022808                sysFSInit

.rodata.sysTimeInitData%1149
                0x00022810        0x8
 .rodata.sysTimeInitData
                0x00022810        0x8 build/default/production/_ext/1171490990/initialization.o
                0x00022810                sysTimeInitData

.rodata.tcpipTCPInitData%1150
                0x00022818        0x8
 .rodata.tcpipTCPInitData
                0x00022818        0x8 build/default/production/_ext/1171490990/initialization.o
                0x00022818                tcpipTCPInitData

.rodata.tcpipUDPInitData%1151
                0x00022820        0x8
 .rodata.tcpipUDPInitData
                0x00022820        0x8 build/default/production/_ext/1171490990/initialization.o
                0x00022820                tcpipUDPInitData

.text.__aeabi_dsub%1152
                0x00022828        0x8
 .text.__aeabi_dsub
                0x00022828        0x8 c:/program files/microchip/xc32/v4.00/bin/bin/../../lib/gcc/pic32c/8.3.1/../../../../pic32c/lib/thumb/v7e-m+fp/hard\libm-emfloat.a(floatasmops_arm.o)
                0x00022828                __aeabi_dsub

.rodata%1153    0x00022830        0x7
 .rodata        0x00022830        0x7 c:/program files/microchip/xc32/v4.00/bin/bin/../../lib/gcc/pic32c/8.3.1/../../../../pic32c/lib/thumb/v7e-m+fp/hard\libc-musl.a(__fmt_s.o)

.text._DRV_SDMMC_TimerCallback%1154
                0x00022838        0x6
 .text._DRV_SDMMC_TimerCallback
                0x00022838        0x6 build/default/production/_ext/20954303/drv_sdmmc.o

.text.TCPIP_ARP_HashKeyCopy%1155
                0x0002283e        0x6
 .text.TCPIP_ARP_HashKeyCopy
                0x0002283e        0x6 build/default/production/_ext/1033058136/arp.o
                0x0002283e                TCPIP_ARP_HashKeyCopy

.text.TCPIP_STACK_NetBIOSName%1156
                0x00022844        0x6
 .text.TCPIP_STACK_NetBIOSName
                0x00022844        0x6 build/default/production/_ext/1033058136/tcpip_manager.o
                0x00022844                TCPIP_STACK_NetBIOSName

.text.TCPIP_PKT_GapDcptOffset%1157
                0x0002284a        0x6
 .text.TCPIP_PKT_GapDcptOffset
                0x0002284a        0x6 build/default/production/_ext/1033058136/tcpip_packet.o
                0x0002284a                TCPIP_PKT_GapDcptOffset

.text.CRYPT_WCCB_Callback%1158
                0x00022850        0x6
 .text.CRYPT_WCCB_Callback
                0x00022850        0x6 build/default/production/_ext/172253694/crypt_wolfcryptcb.o
                0x00022850                CRYPT_WCCB_Callback

.text.DRV_EXTPHY_MDIXConfigure%1159
                0x000090c4        0x4
 .text.DRV_EXTPHY_MDIXConfigure
                0x000090c4        0x4 build/default/production/_ext/444070925/drv_extphy_ksz8061.o

.text.DRV_GMAC_PowerMode%1160
                0x000165ec        0x4
 .text.DRV_GMAC_PowerMode
                0x000165ec        0x4 build/default/production/_ext/1546807373/drv_gmac.o
                0x000165ec                DRV_GMAC_PowerMode

.text.DRV_PIC32CGMAC_LibRxQueFilterInit%1161
                0x00022856        0x4
 .text.DRV_PIC32CGMAC_LibRxQueFilterInit
                0x00022856        0x4 build/default/production/_ext/1546807373/drv_gmac_lib_samE5x.o
                0x00022856                DRV_PIC32CGMAC_LibRxQueFilterInit

.text.DRV_PIC32CGMAC_LibGetPriorityFromQueueNum%1162
                0x0002285a        0x4
 .text.DRV_PIC32CGMAC_LibGetPriorityFromQueueNum
                0x0002285a        0x4 build/default/production/_ext/1546807373/drv_gmac_lib_samE5x.o
                0x0002285a                DRV_PIC32CGMAC_LibGetPriorityFromQueueNum

.text.TCPIP_IPV4_IsFragmentationEnabled%1163
                0x0002285e        0x4
 .text.TCPIP_IPV4_IsFragmentationEnabled
                0x0002285e        0x4 build/default/production/_ext/1033058136/ipv4.o
                0x0002285e                TCPIP_IPV4_IsFragmentationEnabled

.text.TCPIP_PKT_GapDcptSize%1164
                0x00022862        0x4
 .text.TCPIP_PKT_GapDcptSize
                0x00022862        0x4 build/default/production/_ext/1033058136/tcpip_packet.o
                0x00022862                TCPIP_PKT_GapDcptSize

.text._FieldSetNone%1165
                0x00022866        0x4
 .text._FieldSetNone
                0x00022866        0x4 build/default/production/_ext/1033058136/tcpip_announce.o
                0x00022866                _FieldSetNone

.text.Console_UART_Flush%1166
                0x0002286a        0x4
 .text.Console_UART_Flush
                0x0002286a        0x4 build/default/production/_ext/1832805299/sys_console_uart.o
                0x0002286a                Console_UART_Flush

.text.disk_status%1167
                0x0002286e        0x4
 .text.disk_status
                0x0002286e        0x4 build/default/production/_ext/565198302/diskio.o
                0x0002286e                disk_status

.text.FATFS_tell%1168
                0x00022872        0x4
 .text.FATFS_tell
                0x00022872        0x4 build/default/production/_ext/1269487135/sys_fs_fat_interface.o
                0x00022872                FATFS_tell

.text.FATFS_size%1169
                0x00022876        0x4
 .text.FATFS_size
                0x00022876        0x4 build/default/production/_ext/1269487135/sys_fs_fat_interface.o
                0x00022876                FATFS_size

.rodata.debugInit%1170
                0x0002287c        0x4
 .rodata.debugInit
                0x0002287c        0x4 build/default/production/_ext/1171490990/initialization.o
                0x0002287c                debugInit

.rodata.sysConsole0UARTInitData%1171
                0x00022880        0x4
 .rodata.sysConsole0UARTInitData
                0x00022880        0x4 build/default/production/_ext/1171490990/initialization.o
                0x00022880                sysConsole0UARTInitData

.rodata.tcpipBerkeleyInitData%1172
                0x00022884        0x4
 .rodata.tcpipBerkeleyInitData
                0x00022884        0x4 build/default/production/_ext/1171490990/initialization.o
                0x00022884                tcpipBerkeleyInitData

.text%1173      0x00022888        0x4
 .text          0x00022888        0x4 c:/program files/microchip/xc32/v4.00/bin/bin/../../lib/gcc/pic32c/8.3.1/thumb/v7e-m+fp/hard\libgcc.a(_dvmd_tls.o)
                0x00022888                __aeabi_idiv0
                0x00022888                __aeabi_ldiv0

.text._DRV_ETHPHY_ClientOpNone%1174
                0x0000ffea        0x2
 .text._DRV_ETHPHY_ClientOpNone
                0x0000ffea        0x2 build/default/production/_ext/444070925/drv_ethphy.o

.text.DRV_GMAC_Reinitialize%1175
                0x000120e2        0x2
 .text.DRV_GMAC_Reinitialize
                0x000120e2        0x2 build/default/production/_ext/1546807373/drv_gmac.o
                0x000120e2                DRV_GMAC_Reinitialize

.text.DRV_MIIM_Reinitialize%1176
                0x00012c42        0x2
 .text.DRV_MIIM_Reinitialize
                0x00012c42        0x2 build/default/production/_ext/438849557/drv_miim.o
                0x00012c42                DRV_MIIM_Reinitialize

.text._TCPIP_HEAP_BufferMapNonCached%1177
                0x000135da        0x2
 .text._TCPIP_HEAP_BufferMapNonCached
                0x000135da        0x2 build/default/production/_ext/1033058136/tcpip_heap_alloc.o
                0x000135da                _TCPIP_HEAP_BufferMapNonCached

.text.EVSYS_Initialize%1178
                0x00014262        0x2
 .text.EVSYS_Initialize
                0x00014262        0x2 build/default/production/_ext/1986646378/plib_evsys.o
                0x00014262                EVSYS_Initialize

.text.Console_UART_Tasks%1179
                0x000147b6        0x2
 .text.Console_UART_Tasks
                0x000147b6        0x2 build/default/production/_ext/1832805299/sys_console_uart.o
                0x000147b6                Console_UART_Tasks

.text.Dummy_Handler%1180
                0x00015c2a        0x2
 .text.Dummy_Handler
                0x00015c2a        0x2 build/default/production/_ext/1171490990/interrupts.o
                0x00015c2a                EIC_EXTINT_9_Handler
                0x00015c2a                TCC0_MC5_Handler
                0x00015c2a                SVCall_Handler
                0x00015c2a                SERCOM0_2_Handler
                0x00015c2a                USB_SOF_HSOF_Handler
                0x00015c2a                TCC4_OTHER_Handler
                0x00015c2a                TCC2_MC2_Handler
                0x00015c2a                EVSYS_0_Handler
                0x00015c2a                TRNG_Handler
                0x00015c2a                TC2_Handler
                0x00015c2a                USB_TRCPT0_Handler
                0x00015c2a                DAC_OTHER_Handler
                0x00015c2a                AC_Handler
                0x00015c2a                DAC_EMPTY_0_Handler
                0x00015c2a                DMAC_OTHER_Handler
                0x00015c2a                EIC_EXTINT_5_Handler
                0x00015c2a                SERCOM3_1_Handler
                0x00015c2a                SysTick_Handler
                0x00015c2a                SERCOM4_OTHER_Handler
                0x00015c2a                SERCOM3_2_Handler
                0x00015c2a                EIC_EXTINT_6_Handler
                0x00015c2a                PendSV_Handler
                0x00015c2a                TC7_Handler
                0x00015c2a                TCC4_MC0_Handler
                0x00015c2a                EVSYS_3_Handler
                0x00015c2a                QSPI_Handler
                0x00015c2a                TCC2_MC0_Handler
                0x00015c2a                PDEC_OTHER_Handler
                0x00015c2a                TCC3_MC0_Handler
                0x00015c2a                PDEC_MC1_Handler
                0x00015c2a                TCC2_MC1_Handler
                0x00015c2a                OSCCTRL_XOSC1_Handler
                0x00015c2a                PDEC_MC0_Handler
                0x00015c2a                EIC_EXTINT_4_Handler
                0x00015c2a                EIC_EXTINT_7_Handler
                0x00015c2a                SERCOM0_OTHER_Handler
                0x00015c2a                EVSYS_OTHER_Handler
                0x00015c2a                SERCOM0_0_Handler
                0x00015c2a                RTC_Handler
                0x00015c2a                SERCOM4_0_Handler
                0x00015c2a                TCC1_MC0_Handler
                0x00015c2a                TCC2_OTHER_Handler
                0x00015c2a                EIC_EXTINT_11_Handler
                0x00015c2a                SUPC_BODDET_Handler
                0x00015c2a                EIC_EXTINT_14_Handler
                0x00015c2a                OSC32KCTRL_Handler
                0x00015c2a                SERCOM6_2_Handler
                0x00015c2a                EVSYS_1_Handler
                0x00015c2a                TC6_Handler
                0x00015c2a                TCC4_MC1_Handler
                0x00015c2a                DMAC_0_Handler
                0x00015c2a                SUPC_OTHER_Handler
                0x00015c2a                WDT_Handler
                0x00015c2a                CAN0_Handler
                0x00015c2a                EIC_EXTINT_15_Handler
                0x00015c2a                SERCOM6_0_Handler
                0x00015c2a                EIC_EXTINT_1_Handler
                0x00015c2a                TCC3_MC1_Handler
                0x00015c2a                SERCOM5_0_Handler
                0x00015c2a                TC4_Handler
                0x00015c2a                TC1_Handler
                0x00015c2a                TCC1_MC1_Handler
                0x00015c2a                EIC_EXTINT_0_Handler
                0x00015c2a                TCC1_OTHER_Handler
                0x00015c2a                PAC_Handler
                0x00015c2a                SERCOM4_1_Handler
                0x00015c2a                TC3_Handler
                0x00015c2a                Dummy_Handler
                0x00015c2a                DAC_RESRDY_0_Handler
                0x00015c2a                SERCOM5_1_Handler
                0x00015c2a                DMAC_2_Handler
                0x00015c2a                TCC0_MC4_Handler
                0x00015c2a                USB_TRCPT1_Handler
                0x00015c2a                SERCOM0_1_Handler
                0x00015c2a                TCC0_MC3_Handler
                0x00015c2a                EIC_EXTINT_12_Handler
                0x00015c2a                OSCCTRL_DPLL0_Handler
                0x00015c2a                SERCOM6_OTHER_Handler
                0x00015c2a                SERCOM7_1_Handler
                0x00015c2a                SERCOM5_OTHER_Handler
                0x00015c2a                PM_Handler
                0x00015c2a                OSCCTRL_DFLL_Handler
                0x00015c2a                SERCOM7_0_Handler
                0x00015c2a                DAC_RESRDY_1_Handler
                0x00015c2a                DMAC_1_Handler
                0x00015c2a                USB_OTHER_Handler
                0x00015c2a                SERCOM7_2_Handler
                0x00015c2a                CAN1_Handler
                0x00015c2a                TCC0_OTHER_Handler
                0x00015c2a                EIC_EXTINT_10_Handler
                0x00015c2a                TCC1_MC3_Handler
                0x00015c2a                OSCCTRL_XOSC0_Handler
                0x00015c2a                SERCOM6_1_Handler
                0x00015c2a                TCC0_MC0_Handler
                0x00015c2a                EIC_EXTINT_2_Handler
                0x00015c2a                SDHC0_Handler
                0x00015c2a                I2S_Handler
                0x00015c2a                PCC_Handler
                0x00015c2a                TCC3_OTHER_Handler
                0x00015c2a                EIC_EXTINT_13_Handler
                0x00015c2a                PUKCC_Handler
                0x00015c2a                SERCOM2_1_Handler
                0x00015c2a                SERCOM3_0_Handler
                0x00015c2a                SERCOM4_2_Handler
                0x00015c2a                TCC1_MC2_Handler
                0x00015c2a                ADC1_RESRDY_Handler
                0x00015c2a                NVMCTRL_1_Handler
                0x00015c2a                SERCOM5_2_Handler
                0x00015c2a                SERCOM2_2_Handler
                0x00015c2a                DAC_EMPTY_1_Handler
                0x00015c2a                ADC1_OTHER_Handler
                0x00015c2a                OSCCTRL_DPLL1_Handler
                0x00015c2a                EIC_EXTINT_3_Handler
                0x00015c2a                SERCOM3_OTHER_Handler
                0x00015c2a                EIC_EXTINT_8_Handler
                0x00015c2a                NVMCTRL_0_Handler
                0x00015c2a                ADC0_RESRDY_Handler
                0x00015c2a                ADC0_OTHER_Handler
                0x00015c2a                MCLK_Handler
                0x00015c2a                SERCOM7_OTHER_Handler
                0x00015c2a                EVSYS_2_Handler
                0x00015c2a                SERCOM2_OTHER_Handler
                0x00015c2a                FREQM_Handler
                0x00015c2a                TCC0_MC1_Handler
                0x00015c2a                DMAC_3_Handler
                0x00015c2a                RAMECC_Handler
                0x00015c2a                TC5_Handler
                0x00015c2a                SERCOM2_0_Handler
                0x00015c2a                AES_Handler
                0x00015c2a                ICM_Handler
                0x00015c2a                TCC0_MC2_Handler

.text.NonMaskableInt_Handler%1181
                0x00016122        0x2
 .text.NonMaskableInt_Handler
                0x00016122        0x2 build/default/production/_ext/1171490990/exceptions.o
                0x00016122                NonMaskableInt_Handler

.text.HardFault_Handler%1182
                0x00016ffa        0x2
 .text.HardFault_Handler
                0x00016ffa        0x2 build/default/production/_ext/1171490990/exceptions.o
                0x00016ffa                HardFault_Handler

.text.DebugMonitor_Handler%1183
                0x00017522        0x2
 .text.DebugMonitor_Handler
                0x00017522        0x2 build/default/production/_ext/1171490990/exceptions.o
                0x00017522                DebugMonitor_Handler

.text.MemoryManagement_Handler%1184
                0x00017ee6        0x2
 .text.MemoryManagement_Handler
                0x00017ee6        0x2 build/default/production/_ext/1171490990/exceptions.o
                0x00017ee6                MemoryManagement_Handler

.text.BusFault_Handler%1185
                0x00018186        0x2
 .text.BusFault_Handler
                0x00018186        0x2 build/default/production/_ext/1171490990/exceptions.o
                0x00018186                BusFault_Handler

.text.UsageFault_Handler%1186
                0x00018872        0x2
 .text.UsageFault_Handler
                0x00018872        0x2 build/default/production/_ext/1171490990/exceptions.o
                0x00018872                UsageFault_Handler

.text.Dummy_App_Func%1187
                0x00019156        0x2
 .text.Dummy_App_Func
                0x00019156        0x2 build/default/production/_ext/1171490990/startup_xc32.o
                0x00019156                _on_reset
                0x00019156                _on_bootstrap
                0x00019156                __xc32_on_reset
                0x00019156                Dummy_App_Func
                0x00019156                __xc32_on_bootstrap

.text.__dummy%1188
                0x00019b7e        0x2
 .text.__dummy  0x00019b7e        0x2 c:/program files/microchip/xc32/v4.00/bin/bin/../../lib/gcc/pic32c/8.3.1/../../../../pic32c/lib/thumb/v7e-m+fp/hard\libc-musl.a(__libc_start_main.o)
                0x00019b7e                __init_stdio
                0x00019b7e                __init_host
