Archive member included to satisfy reference by file (symbol)

c:/program files/microchip/xc32/v4.00/bin/bin/../../lib/gcc/pic32c/8.3.1/../../../../pic32c/lib/thumb/v7e-m+fp/hard\libpic32c.a(data_init.o)
                              build/default/debug/_ext/1171490990/startup_xc32.o (__pic32c_data_initialization)
c:/program files/microchip/xc32/v4.00/bin/bin/../../lib/gcc/pic32c/8.3.1/../../../../pic32c/lib/thumb/v7e-m+fp/hard\libg-musl.a(isxdigit.o)
                              build/default/debug/_ext/1033058136/tcpip_helpers.o (isxdigit)
c:/program files/microchip/xc32/v4.00/bin/bin/../../lib/gcc/pic32c/8.3.1/../../../../pic32c/lib/thumb/v7e-m+fp/hard\libg-musl.a(tolower.o)
                              build/default/debug/_ext/1033058136/helpers.o (tolower)
c:/program files/microchip/xc32/v4.00/bin/bin/../../lib/gcc/pic32c/8.3.1/../../../../pic32c/lib/thumb/v7e-m+fp/hard\libg-musl.a(toupper.o)
                              build/default/debug/_ext/1033058136/tcpip_helpers.o (toupper)
c:/program files/microchip/xc32/v4.00/bin/bin/../../lib/gcc/pic32c/8.3.1/../../../../pic32c/lib/thumb/v7e-m+fp/hard\libg-musl.a(__libc_start_main.o)
                              build/default/debug/_ext/1171490990/startup_xc32.o (__libc_init_array)
c:/program files/microchip/xc32/v4.00/bin/bin/../../lib/gcc/pic32c/8.3.1/../../../../pic32c/lib/thumb/v7e-m+fp/hard\libg-musl.a(__errno_location.o)
                              build/default/debug/_ext/1360937237/app.o (__errno_val)
c:/program files/microchip/xc32/v4.00/bin/bin/../../lib/gcc/pic32c/8.3.1/../../../../pic32c/lib/thumb/v7e-m+fp/hard\libg-musl.a(libc.o)
                              c:/program files/microchip/xc32/v4.00/bin/bin/../../lib/gcc/pic32c/8.3.1/../../../../pic32c/lib/thumb/v7e-m+fp/hard\libg-musl.a(__libc_start_main.o) (__progname_full)
c:/program files/microchip/xc32/v4.00/bin/bin/../../lib/gcc/pic32c/8.3.1/../../../../pic32c/lib/thumb/v7e-m+fp/hard\libg-musl.a(calloc.o)
                              build/default/debug/_ext/1171490990/initialization.o (calloc)
c:/program files/microchip/xc32/v4.00/bin/bin/../../lib/gcc/pic32c/8.3.1/../../../../pic32c/lib/thumb/v7e-m+fp/hard\libg-musl.a(malloc.o)
                              build/default/debug/_ext/1645245335/crypto.o (free)
c:/program files/microchip/xc32/v4.00/bin/bin/../../lib/gcc/pic32c/8.3.1/../../../../pic32c/lib/thumb/v7e-m+fp/hard\libg-musl.a(expand_heap.o)
                              c:/program files/microchip/xc32/v4.00/bin/bin/../../lib/gcc/pic32c/8.3.1/../../../../pic32c/lib/thumb/v7e-m+fp/hard\libg-musl.a(malloc.o) (__expand_heap)
c:/program files/microchip/xc32/v4.00/bin/bin/../../lib/gcc/pic32c/8.3.1/../../../../pic32c/lib/thumb/v7e-m+fp/hard\libg-musl.a(rand.o)
                              build/default/debug/_ext/1664057780/random.o (srand)
c:/program files/microchip/xc32/v4.00/bin/bin/../../lib/gcc/pic32c/8.3.1/../../../../pic32c/lib/thumb/v7e-m+fp/hard\libg-musl.a(vsnprintf.o)
                              build/default/debug/_ext/1832805299/sys_console.o (vsnprintf)
c:/program files/microchip/xc32/v4.00/bin/bin/../../lib/gcc/pic32c/8.3.1/../../../../pic32c/lib/thumb/v7e-m+fp/hard\libg-musl.a(snprintf.o)
                              (snprintf)
c:/program files/microchip/xc32/v4.00/bin/bin/../../lib/gcc/pic32c/8.3.1/../../../../pic32c/lib/thumb/v7e-m+fp/hard\libg-musl.a(sprintf.o)
                              (sprintf)
c:/program files/microchip/xc32/v4.00/bin/bin/../../lib/gcc/pic32c/8.3.1/../../../../pic32c/lib/thumb/v7e-m+fp/hard\libg-musl.a(vsprintf.o)
                              c:/program files/microchip/xc32/v4.00/bin/bin/../../lib/gcc/pic32c/8.3.1/../../../../pic32c/lib/thumb/v7e-m+fp/hard\libg-musl.a(sprintf.o) (vsprintf)
c:/program files/microchip/xc32/v4.00/bin/bin/../../lib/gcc/pic32c/8.3.1/../../../../pic32c/lib/thumb/v7e-m+fp/hard\libg-musl.a(atoi.o)
                              build/default/debug/_ext/1033058136/ftp.o (atoi)
c:/program files/microchip/xc32/v4.00/bin/bin/../../lib/gcc/pic32c/8.3.1/../../../../pic32c/lib/thumb/v7e-m+fp/hard\libg-musl.a(strtol.o)
                              build/default/debug/_ext/1033058136/tcpip_helpers.o (strtol)
c:/program files/microchip/xc32/v4.00/bin/bin/../../lib/gcc/pic32c/8.3.1/../../../../pic32c/lib/thumb/v7e-m+fp/hard\libg-musl.a(memcmp.o)
                              build/default/debug/_ext/1546807373/drv_gmac.o (memcmp)
c:/program files/microchip/xc32/v4.00/bin/bin/../../lib/gcc/pic32c/8.3.1/../../../../pic32c/lib/thumb/v7e-m+fp/hard\libg-musl.a(memcpy.o)
                              build/default/debug/_ext/1751889202/sys_fs_shell.o (memcpy)
c:/program files/microchip/xc32/v4.00/bin/bin/../../lib/gcc/pic32c/8.3.1/../../../../pic32c/lib/thumb/v7e-m+fp/hard\libg-musl.a(memmove.o)
                              build/default/debug/_ext/1664057780/asn.o (memmove)
c:/program files/microchip/xc32/v4.00/bin/bin/../../lib/gcc/pic32c/8.3.1/../../../../pic32c/lib/thumb/v7e-m+fp/hard\libg-musl.a(memset.o)
                              build/default/debug/_ext/444070925/drv_ethphy.o (memset)
c:/program files/microchip/xc32/v4.00/bin/bin/../../lib/gcc/pic32c/8.3.1/../../../../pic32c/lib/thumb/v7e-m+fp/hard\libg-musl.a(strlen.o)
                              build/default/debug/_ext/1751889202/sys_fs_shell.o (strlen)
c:/program files/microchip/xc32/v4.00/bin/bin/../../lib/gcc/pic32c/8.3.1/../../../../pic32c/lib/thumb/v7e-m+fp/hard\libg-musl.a(strstr.o)
                              build/default/debug/_ext/1751889202/sys_fs_shell.o (strstr)
c:/program files/microchip/xc32/v4.00/bin/bin/../../lib/gcc/pic32c/8.3.1/../../../../pic32c/lib/thumb/v7e-m+fp/hard\libg-musl.a(strchr.o)
                              build/default/debug/_ext/411819097/ff.o (strchr)
c:/program files/microchip/xc32/v4.00/bin/bin/../../lib/gcc/pic32c/8.3.1/../../../../pic32c/lib/thumb/v7e-m+fp/hard\libg-musl.a(strchrnul.o)
                              c:/program files/microchip/xc32/v4.00/bin/bin/../../lib/gcc/pic32c/8.3.1/../../../../pic32c/lib/thumb/v7e-m+fp/hard\libg-musl.a(strchr.o) (__strchrnul)
c:/program files/microchip/xc32/v4.00/bin/bin/../../lib/gcc/pic32c/8.3.1/../../../../pic32c/lib/thumb/v7e-m+fp/hard\libg-musl.a(strcmp.o)
                              build/default/debug/_ext/1033058136/dns.o (strcmp)
c:/program files/microchip/xc32/v4.00/bin/bin/../../lib/gcc/pic32c/8.3.1/../../../../pic32c/lib/thumb/v7e-m+fp/hard\libg-musl.a(strcpy.o)
                              build/default/debug/_ext/1751889202/sys_fs_shell.o (strcpy)
c:/program files/microchip/xc32/v4.00/bin/bin/../../lib/gcc/pic32c/8.3.1/../../../../pic32c/lib/thumb/v7e-m+fp/hard\libg-musl.a(strncmp.o)
                              build/default/debug/_ext/1269487135/sys_fs.o (strncmp)
c:/program files/microchip/xc32/v4.00/bin/bin/../../lib/gcc/pic32c/8.3.1/../../../../pic32c/lib/thumb/v7e-m+fp/hard\libg-musl.a(strncpy.o)
                              build/default/debug/_ext/1645245335/crypto.o (strncpy)
c:/program files/microchip/xc32/v4.00/bin/bin/../../lib/gcc/pic32c/8.3.1/../../../../pic32c/lib/thumb/v7e-m+fp/hard\libg-musl.a(gmtime.o)
                              build/default/debug/_ext/1664057780/asn.o (gmtime)
c:/program files/microchip/xc32/v4.00/bin/bin/../../lib/gcc/pic32c/8.3.1/../../../../pic32c/lib/thumb/v7e-m+fp/hard\libg-musl.a(gmtime_r.o)
                              c:/program files/microchip/xc32/v4.00/bin/bin/../../lib/gcc/pic32c/8.3.1/../../../../pic32c/lib/thumb/v7e-m+fp/hard\libg-musl.a(gmtime.o) (__gmtime_r)
c:/program files/microchip/xc32/v4.00/bin/bin/../../lib/gcc/pic32c/8.3.1/../../../../pic32c/lib/thumb/v7e-m+fp/hard\libg-musl.a(__tz.o)
                              c:/program files/microchip/xc32/v4.00/bin/bin/../../lib/gcc/pic32c/8.3.1/../../../../pic32c/lib/thumb/v7e-m+fp/hard\libg-musl.a(gmtime_r.o) (__gmt)
c:/program files/microchip/xc32/v4.00/bin/bin/../../lib/gcc/pic32c/8.3.1/../../../../pic32c/lib/thumb/v7e-m+fp/hard\libg-musl.a(time.o)
                              build/default/debug/_ext/1664057780/asn.o (time)
c:/program files/microchip/xc32/v4.00/bin/bin/../../lib/gcc/pic32c/8.3.1/../../../../pic32c/lib/thumb/v7e-m+fp/hard\libg-musl.a(__environ.o)
                              c:/program files/microchip/xc32/v4.00/bin/bin/../../lib/gcc/pic32c/8.3.1/../../../../pic32c/lib/thumb/v7e-m+fp/hard\libg-musl.a(__libc_start_main.o) (__environ)
c:/program files/microchip/xc32/v4.00/bin/bin/../../lib/gcc/pic32c/8.3.1/../../../../pic32c/lib/thumb/v7e-m+fp/hard\libg-musl.a(intscan.o)
                              c:/program files/microchip/xc32/v4.00/bin/bin/../../lib/gcc/pic32c/8.3.1/../../../../pic32c/lib/thumb/v7e-m+fp/hard\libg-musl.a(strtol.o) (__intscan)
c:/program files/microchip/xc32/v4.00/bin/bin/../../lib/gcc/pic32c/8.3.1/../../../../pic32c/lib/thumb/v7e-m+fp/hard\libg-musl.a(shgetc.o)
                              c:/program files/microchip/xc32/v4.00/bin/bin/../../lib/gcc/pic32c/8.3.1/../../../../pic32c/lib/thumb/v7e-m+fp/hard\libg-musl.a(strtol.o) (__shlim)
c:/program files/microchip/xc32/v4.00/bin/bin/../../lib/gcc/pic32c/8.3.1/../../../../pic32c/lib/thumb/v7e-m+fp/hard\libg-musl.a(__uflow.o)
                              c:/program files/microchip/xc32/v4.00/bin/bin/../../lib/gcc/pic32c/8.3.1/../../../../pic32c/lib/thumb/v7e-m+fp/hard\libg-musl.a(shgetc.o) (__uflow)
c:/program files/microchip/xc32/v4.00/bin/bin/../../lib/gcc/pic32c/8.3.1/../../../../pic32c/lib/thumb/v7e-m+fp/hard\libg-musl.a(vfprintf.o)
                              c:/program files/microchip/xc32/v4.00/bin/bin/../../lib/gcc/pic32c/8.3.1/../../../../pic32c/lib/thumb/v7e-m+fp/hard\libg-musl.a(vsnprintf.o) (vfprintf)
c:/program files/microchip/xc32/v4.00/bin/bin/../../lib/gcc/pic32c/8.3.1/../../../../pic32c/lib/thumb/v7e-m+fp/hard\libg-musl.a(stpcpy.o)
                              c:/program files/microchip/xc32/v4.00/bin/bin/../../lib/gcc/pic32c/8.3.1/../../../../pic32c/lib/thumb/v7e-m+fp/hard\libg-musl.a(strcpy.o) (__stpcpy)
c:/program files/microchip/xc32/v4.00/bin/bin/../../lib/gcc/pic32c/8.3.1/../../../../pic32c/lib/thumb/v7e-m+fp/hard\libg-musl.a(stpncpy.o)
                              c:/program files/microchip/xc32/v4.00/bin/bin/../../lib/gcc/pic32c/8.3.1/../../../../pic32c/lib/thumb/v7e-m+fp/hard\libg-musl.a(strncpy.o) (__stpncpy)
c:/program files/microchip/xc32/v4.00/bin/bin/../../lib/gcc/pic32c/8.3.1/../../../../pic32c/lib/thumb/v7e-m+fp/hard\libg-musl.a(__month_to_secs.o)
                              c:/program files/microchip/xc32/v4.00/bin/bin/../../lib/gcc/pic32c/8.3.1/../../../../pic32c/lib/thumb/v7e-m+fp/hard\libg-musl.a(__tz.o) (__month_to_secs)
c:/program files/microchip/xc32/v4.00/bin/bin/../../lib/gcc/pic32c/8.3.1/../../../../pic32c/lib/thumb/v7e-m+fp/hard\libg-musl.a(__secs_to_tm.o)
                              c:/program files/microchip/xc32/v4.00/bin/bin/../../lib/gcc/pic32c/8.3.1/../../../../pic32c/lib/thumb/v7e-m+fp/hard\libg-musl.a(gmtime_r.o) (__secs_to_tm)
c:/program files/microchip/xc32/v4.00/bin/bin/../../lib/gcc/pic32c/8.3.1/../../../../pic32c/lib/thumb/v7e-m+fp/hard\libg-musl.a(__year_to_secs.o)
                              c:/program files/microchip/xc32/v4.00/bin/bin/../../lib/gcc/pic32c/8.3.1/../../../../pic32c/lib/thumb/v7e-m+fp/hard\libg-musl.a(__tz.o) (__year_to_secs)
c:/program files/microchip/xc32/v4.00/bin/bin/../../lib/gcc/pic32c/8.3.1/../../../../pic32c/lib/thumb/v7e-m+fp/hard\libg-musl.a(clock_gettime.o)
                              c:/program files/microchip/xc32/v4.00/bin/bin/../../lib/gcc/pic32c/8.3.1/../../../../pic32c/lib/thumb/v7e-m+fp/hard\libg-musl.a(time.o) (__clock_gettime)
c:/program files/microchip/xc32/v4.00/bin/bin/../../lib/gcc/pic32c/8.3.1/../../../../pic32c/lib/thumb/v7e-m+fp/hard\libg-musl.a(gettimeofday.o)
                              c:/program files/microchip/xc32/v4.00/bin/bin/../../lib/gcc/pic32c/8.3.1/../../../../pic32c/lib/thumb/v7e-m+fp/hard\libg-musl.a(clock_gettime.o) (gettimeofday)
c:/program files/microchip/xc32/v4.00/bin/bin/../../lib/gcc/pic32c/8.3.1/../../../../pic32c/lib/thumb/v7e-m+fp/hard\libg-musl.a(syscall_ret.o)
                              c:/program files/microchip/xc32/v4.00/bin/bin/../../lib/gcc/pic32c/8.3.1/../../../../pic32c/lib/thumb/v7e-m+fp/hard\libg-musl.a(clock_gettime.o) (__syscall_ret)
c:/program files/microchip/xc32/v4.00/bin/bin/../../lib/gcc/pic32c/8.3.1/../../../../pic32c/lib/thumb/v7e-m+fp/hard\libg-musl.a(__toread.o)
                              c:/program files/microchip/xc32/v4.00/bin/bin/../../lib/gcc/pic32c/8.3.1/../../../../pic32c/lib/thumb/v7e-m+fp/hard\libg-musl.a(__uflow.o) (__toread)
c:/program files/microchip/xc32/v4.00/bin/bin/../../lib/gcc/pic32c/8.3.1/../../../../pic32c/lib/thumb/v7e-m+fp/hard\libg-musl.a(__io_fmt_needed.o)
                              c:/program files/microchip/xc32/v4.00/bin/bin/../../lib/gcc/pic32c/8.3.1/../../../../pic32c/lib/thumb/v7e-m+fp/hard\libg-musl.a(vfprintf.o) (__io_fmt_needed)
c:/program files/microchip/xc32/v4.00/bin/bin/../../lib/gcc/pic32c/8.3.1/../../../../pic32c/lib/thumb/v7e-m+fp/hard\libg-musl.a(__printf_core.o)
                              c:/program files/microchip/xc32/v4.00/bin/bin/../../lib/gcc/pic32c/8.3.1/../../../../pic32c/lib/thumb/v7e-m+fp/hard\libg-musl.a(vfprintf.o) (__printf_core)
c:/program files/microchip/xc32/v4.00/bin/bin/../../lib/gcc/pic32c/8.3.1/../../../../pic32c/lib/thumb/v7e-m+fp/hard\libg-musl.a(__stdio_exit.o)
                              c:/program files/microchip/xc32/v4.00/bin/bin/../../lib/gcc/pic32c/8.3.1/../../../../pic32c/lib/thumb/v7e-m+fp/hard\libg-musl.a(__toread.o) (__stdio_exit_needed)
c:/program files/microchip/xc32/v4.00/bin/bin/../../lib/gcc/pic32c/8.3.1/../../../../pic32c/lib/thumb/v7e-m+fp/hard\libg-musl.a(__fmt_a.o)
                              c:/program files/microchip/xc32/v4.00/bin/bin/../../lib/gcc/pic32c/8.3.1/../../../../pic32c/lib/thumb/v7e-m+fp/hard\libg-musl.a(__io_fmt_needed.o) (__fmt_a_needed)
c:/program files/microchip/xc32/v4.00/bin/bin/../../lib/gcc/pic32c/8.3.1/../../../../pic32c/lib/thumb/v7e-m+fp/hard\libg-musl.a(__fmt_d.o)
                              c:/program files/microchip/xc32/v4.00/bin/bin/../../lib/gcc/pic32c/8.3.1/../../../../pic32c/lib/thumb/v7e-m+fp/hard\libg-musl.a(__io_fmt_needed.o) (__fmt_d_needed)
c:/program files/microchip/xc32/v4.00/bin/bin/../../lib/gcc/pic32c/8.3.1/../../../../pic32c/lib/thumb/v7e-m+fp/hard\libg-musl.a(__fmt_fp.o)
                              c:/program files/microchip/xc32/v4.00/bin/bin/../../lib/gcc/pic32c/8.3.1/../../../../pic32c/lib/thumb/v7e-m+fp/hard\libg-musl.a(__io_fmt_needed.o) (__fmt_f_needed)
c:/program files/microchip/xc32/v4.00/bin/bin/../../lib/gcc/pic32c/8.3.1/../../../../pic32c/lib/thumb/v7e-m+fp/hard\libg-musl.a(__fmt_o.o)
                              c:/program files/microchip/xc32/v4.00/bin/bin/../../lib/gcc/pic32c/8.3.1/../../../../pic32c/lib/thumb/v7e-m+fp/hard\libg-musl.a(__io_fmt_needed.o) (__fmt_o_needed)
c:/program files/microchip/xc32/v4.00/bin/bin/../../lib/gcc/pic32c/8.3.1/../../../../pic32c/lib/thumb/v7e-m+fp/hard\libg-musl.a(__fmt_s.o)
                              c:/program files/microchip/xc32/v4.00/bin/bin/../../lib/gcc/pic32c/8.3.1/../../../../pic32c/lib/thumb/v7e-m+fp/hard\libg-musl.a(__io_fmt_needed.o) (__fmt_s_needed)
c:/program files/microchip/xc32/v4.00/bin/bin/../../lib/gcc/pic32c/8.3.1/../../../../pic32c/lib/thumb/v7e-m+fp/hard\libg-musl.a(__fmt_u.o)
                              c:/program files/microchip/xc32/v4.00/bin/bin/../../lib/gcc/pic32c/8.3.1/../../../../pic32c/lib/thumb/v7e-m+fp/hard\libg-musl.a(__fmt_d.o) (__cvt_u)
c:/program files/microchip/xc32/v4.00/bin/bin/../../lib/gcc/pic32c/8.3.1/../../../../pic32c/lib/thumb/v7e-m+fp/hard\libg-musl.a(__fmt_x.o)
                              c:/program files/microchip/xc32/v4.00/bin/bin/../../lib/gcc/pic32c/8.3.1/../../../../pic32c/lib/thumb/v7e-m+fp/hard\libg-musl.a(__io_fmt_needed.o) (__fmt_x_needed)
c:/program files/microchip/xc32/v4.00/bin/bin/../../lib/gcc/pic32c/8.3.1/../../../../pic32c/lib/thumb/v7e-m+fp/hard\libg-musl.a(__pop_float.o)
                              c:/program files/microchip/xc32/v4.00/bin/bin/../../lib/gcc/pic32c/8.3.1/../../../../pic32c/lib/thumb/v7e-m+fp/hard\libg-musl.a(__printf_core.o) (__pop_float)
c:/program files/microchip/xc32/v4.00/bin/bin/../../lib/gcc/pic32c/8.3.1/../../../../pic32c/lib/thumb/v7e-m+fp/hard\libg-musl.a(__pop_int.o)
                              c:/program files/microchip/xc32/v4.00/bin/bin/../../lib/gcc/pic32c/8.3.1/../../../../pic32c/lib/thumb/v7e-m+fp/hard\libg-musl.a(__printf_core.o) (__pop_int)
c:/program files/microchip/xc32/v4.00/bin/bin/../../lib/gcc/pic32c/8.3.1/../../../../pic32c/lib/thumb/v7e-m+fp/hard\libg-musl.a(__pop_ptr.o)
                              c:/program files/microchip/xc32/v4.00/bin/bin/../../lib/gcc/pic32c/8.3.1/../../../../pic32c/lib/thumb/v7e-m+fp/hard\libg-musl.a(__printf_core.o) (__pop_ptr)
c:/program files/microchip/xc32/v4.00/bin/bin/../../lib/gcc/pic32c/8.3.1/../../../../pic32c/lib/thumb/v7e-m+fp/hard\libm-emfloat.a(lib_a-_FLOOR.o)
                              c:/program files/microchip/xc32/v4.00/bin/bin/../../lib/gcc/pic32c/8.3.1/../../../../pic32c/lib/thumb/v7e-m+fp/hard\libg-musl.a(__fmt_a.o) (floor)
c:/program files/microchip/xc32/v4.00/bin/bin/../../lib/gcc/pic32c/8.3.1/../../../../pic32c/lib/thumb/v7e-m+fp/hard\libm-emfloat.a(lib_a-_FMA.o)
                              c:/program files/microchip/xc32/v4.00/bin/bin/../../lib/gcc/pic32c/8.3.1/../../../../pic32c/lib/thumb/v7e-m+fp/hard\libg-musl.a(__fmt_fp.o) (fma)
c:/program files/microchip/xc32/v4.00/bin/bin/../../lib/gcc/pic32c/8.3.1/../../../../pic32c/lib/thumb/v7e-m+fp/hard\libm-emfloat.a(floatasmops_arm.o)
                              c:/program files/microchip/xc32/v4.00/bin/bin/../../lib/gcc/pic32c/8.3.1/../../../../pic32c/lib/thumb/v7e-m+fp/hard\libg-musl.a(__fmt_a.o) (__aeabi_dadd)
c:/program files/microchip/xc32/v4.00/bin/bin/../../lib/gcc/pic32c/8.3.1/../../../../pic32c/lib/thumb/v7e-m+fp/hard\libm-emfloat.a(lib_a-_ILOGB.o)
                              c:/program files/microchip/xc32/v4.00/bin/bin/../../lib/gcc/pic32c/8.3.1/../../../../pic32c/lib/thumb/v7e-m+fp/hard\libm-emfloat.a(lib_a-_FLOOR.o) (ilogb)
c:/program files/microchip/xc32/v4.00/bin/bin/../../lib/gcc/pic32c/8.3.1/../../../../pic32c/lib/thumb/v7e-m+fp/hard\libm-emfloat.a(lib_a-_LDEXP.o)
                              c:/program files/microchip/xc32/v4.00/bin/bin/../../lib/gcc/pic32c/8.3.1/../../../../pic32c/lib/thumb/v7e-m+fp/hard\libm-emfloat.a(lib_a-_FLOOR.o) (ldexp)
c:/program files/microchip/xc32/v4.00/bin/bin/../../lib/gcc/pic32c/8.3.1/thumb/v7e-m+fp/hard\libgcc.a(_aeabi_ldivmod.o)
                              c:/program files/microchip/xc32/v4.00/bin/bin/../../lib/gcc/pic32c/8.3.1/../../../../pic32c/lib/thumb/v7e-m+fp/hard\libg-musl.a(__tz.o) (__aeabi_ldivmod)
c:/program files/microchip/xc32/v4.00/bin/bin/../../lib/gcc/pic32c/8.3.1/thumb/v7e-m+fp/hard\libgcc.a(_aeabi_uldivmod.o)
                              build/default/debug/_ext/1033058136/tcp.o (__aeabi_uldivmod)
c:/program files/microchip/xc32/v4.00/bin/bin/../../lib/gcc/pic32c/8.3.1/thumb/v7e-m+fp/hard\libgcc.a(_udivmoddi4.o)
                              c:/program files/microchip/xc32/v4.00/bin/bin/../../lib/gcc/pic32c/8.3.1/thumb/v7e-m+fp/hard\libgcc.a(_aeabi_ldivmod.o) (__udivmoddi4)
c:/program files/microchip/xc32/v4.00/bin/bin/../../lib/gcc/pic32c/8.3.1/thumb/v7e-m+fp/hard\libgcc.a(_dvmd_tls.o)
                              c:/program files/microchip/xc32/v4.00/bin/bin/../../lib/gcc/pic32c/8.3.1/thumb/v7e-m+fp/hard\libgcc.a(_aeabi_ldivmod.o) (__aeabi_ldiv0)
c:/program files/microchip/xc32/v4.00/bin/bin/../../lib/gcc/pic32c/8.3.1/../../../../pic32c/lib/thumb/v7e-m+fp/hard\libpic32c.a(sbrk.o)
                              c:/program files/microchip/xc32/v4.00/bin/bin/../../lib/gcc/pic32c/8.3.1/../../../../pic32c/lib/thumb/v7e-m+fp/hard\libg-musl.a(expand_heap.o) (_sbrk)

Microchip PIC32 Memory-Usage Report

ROM Program-Memory Usage
section                    address  length [bytes]      (dec)  Description
-------                 ----------  -------------------------  -----------
.vectors                         0          0x264         612   
.text                        0x264           0x20          32  App's exec code 
.ARM.exidx                   0x284            0x8           8   
.text.TCPIP_FTP_CmdsExe      0x28c         0x19ac        6572   
.text.DRV_SDMMC_Tasks       0x1c38         0x197c        6524   
.text.TCPIP_TCP_Task        0x35b4          0xe2c        3628   
.dinit                      0x43e0          0x870        2160   
.text.f_mkfs                0x4c50          0x7f4        2036   
.rodata.macPIC32CHwRegD     0x5444          0x708        1800   
.rodata                     0x5b4c          0x6cc        1740  Read-only const 
.text.TCPIP_STACK_Task      0x6218          0x5fc        1532   
.text._TcpSend              0x6814          0x5e0        1504   
.rodata                     0x6df4          0x498        1176  Read-only const 
.text.DRV_EXTPHY_MDIXCo     0x728c            0x4           4   
.text.__fmt_a               0x7290          0x498        1176   
.text.__fmt_fp              0x7728          0x488        1160   
.text._TCPIP_DoInitiali     0x7bb0          0x428        1064   
.text._DNS_ProcessPacke     0x7fd8          0x3f8        1016   
.text.SYS_FS_MEDIA_MANA     0x83d0          0x3f8        1016   
.text.follow_path           0x87c8          0x39c         924   
.text.mount_volume          0x8b64          0x398         920   
.text.DRV_PIC32CGMAC_Li     0x8efc          0x378         888   
.text.f_printf              0x9274          0x350         848   
.text.TCPIP_FTP_ServerT     0x95c4          0x338         824   
.text.DRV_GMAC_Initiali     0x98fc          0x308         776   
.text.__printf_core         0x9c04          0x2f4         756   
.text._TCP_Open             0x9ef8          0x2f0         752   
.text.TCPIP_TCP_FifoSiz     0xa1e8          0x2f0         752   
.text                       0xa4d8          0x2d0         720  App's exec code 
.text.TCPIP_ARP_Task        0xa7a8          0x2c0         704   
.text.dir_register          0xaa68          0x2b0         688   
.text._DNS_Send_Query       0xad18          0x290         656   
.text.f_open                0xafa8          0x268         616   
.text.TCPIP_ANNOUNCE_Ta     0xb210          0x250         592   
.text.__aeabi_dadd          0xb460          0x240         576   
.text.TCPIP_STACK_Bring     0xb6a0          0x23c         572   
.text.TCPIP_IPV4_Task       0xb8dc          0x234         564   
.text.TCPIP_UDP_Options     0xbb10          0x228         552   
.text.TCPIP_UDP_Flush       0xbd38          0x220         544   
.text.TCPIP_DNS_ClientI     0xbf58          0x214         532   
.text.TCPIP_IPV4_PktTx      0xc16c          0x210         528   
.text.NET_PRES_SocketOp     0xc37c          0x200         512   
.text.TCPIP_UDP_Task        0xc57c          0x200         512   
.text.APP_Tasks             0xc77c          0x1f8         504   
.rodata.cvt1.8309           0xc974          0x1f4         500   
.text.TCPIP_ARP_Initial     0xcb68          0x1e4         484   
.text.SERCOM1_USART_Int     0xcd4c          0x1d4         468   
.text.TCPIP_FTP_ServerI     0xcf20          0x1c8         456   
.text.f_write               0xd0e8          0x1c6         454   
.text._DRV_ETHPHY_Clien     0xd2ae            0x2           2   
.text.dir_find              0xd2b0          0x1c4         452   
.text.__aeabi_ddiv          0xd474          0x1c4         452   
.text.NET_PRES_Initiali     0xd638          0x1bc         444   
.text.DRV_PIC32CGMAC_Li     0xd7f4          0x1b0         432   
.text.malloc                0xd9a4          0x1b0         432   
.text.DRV_GMAC_PacketRx     0xdb54          0x1ac         428   
.text._DRV_ETHPHY_Defau     0xdd00          0x1a6         422   
.text.f_read                0xdea6          0x198         408   
.text.f_lseek               0xe03e          0x192         402   
.text.DRV_PIC32CGMAC_Li     0xe1d0          0x190         400   
.text.DRV_SDMMC_SetupXf     0xe360          0x190         400   
.text.create_partition      0xe4f0          0x188         392   
.text.SYS_FS_MEDIA_MANA     0xe678          0x188         392   
.text.Shell_FileAbsPath     0xe800          0x180         384   
.text.f_setlabel            0xe980          0x180         384   
.text._UDPOpen              0xeb00          0x178         376   
.text.TCPIP_TCP_ArrayPu     0xec78          0x170         368   
.text.get_fileinfo          0xede8          0x168         360   
.text.f_rename              0xef50          0x162         354   
.text.DRV_GMAC_Reinitia     0xf0b2            0x2           2   
.text.DRV_MIIM_Tasks        0xf0b4          0x158         344   
.text.TCPIP_UDP_Bind        0xf20c          0x158         344   
.text.sendto                0xf364          0x148         328   
.text._TcpCloseSocket       0xf4ac          0x140         320   
.text.SYS_FS_DirSearch      0xf5ec          0x140         320   
.text._MACDeinit            0xf72c          0x13c         316   
.text.f_mkdir               0xf868          0x13a         314   
.text._LoadNetworkConfi     0xf9a2          0x138         312   
.text.DRV_MIIM_Reinitia     0xfada            0x2           2   
.text.dir_read              0xfadc          0x138         312   
.text.f_getcwd              0xfc14          0x138         312   
.text.TCPIP_UDP_Options     0xfd4c          0x138         312   
.text.listen                0xfe84          0x134         308   
.text.TCPIP_UDP_Deiniti     0xffb8          0x134         308   
.text.closesocket          0x100ec          0x130         304   
.text.__aeabi_dmul         0x1021c          0x130         304   
.text._TCPIP_HEAP_Free     0x1034c          0x12e         302   
.text._TCPIP_HEAP_Buffe    0x1047a            0x2           2   
.text._DRV_SDMMC_Comman    0x1047c          0x12c         300   
.text.put_fat              0x105a8          0x12c         300   
.text.TCPIP_TCP_Initial    0x106d4          0x124         292   
.text.TCPIP_IPV4_Initia    0x107f8          0x124         292   
.text.NET_PRES_SocketWr    0x1091c          0x124         292   
.text.__fmt_x              0x10a40          0x124         292   
.text.DRV_GMAC_Tasks       0x10b64          0x120         288   
.text.DRV_PIC32CGMAC_Li    0x10c84          0x120         288   
.text.TCPIP_IPV4_Packet    0x10da4          0x120         288   
.text.TCPIP_Helper_Stri    0x10ec4          0x120         288   
.text.create_chain         0x10fe4          0x11e         286   
.text.EVSYS_Initialize     0x11102            0x2           2   
.text.DRV_GMAC_EventMas    0x11104          0x11c         284   
.text.NET_PRES_SocketRe    0x11220          0x114         276   
.text.SYS_FS_FileOpen      0x11334          0x110         272   
.text.check_fs             0x11444          0x10c         268   
.text.TCPIP_TCP_Options    0x11550          0x106         262   
.text.Console_UART_Task    0x11656            0x2           2   
.text.DRV_PIC32CGMAC_Li    0x11658          0x100         256   
.rodata.uc437              0x11758          0x100         256   
.text.accept               0x11858          0x100         256   
.text.DRV_SDMMC_Open       0x11958           0xfc         252   
.text.socket               0x11a54           0xfc         252   
.text.CLOCK_Initialize     0x11b50           0xf8         248   
.text.free                 0x11c48           0xf8         248   
.text.SDHC1_ClockSet       0x11d40           0xf4         244   
.text.TCPIP_ANNOUNCE_In    0x11e34           0xf4         244   
.text.TCPIP_DNS_ClientT    0x11f28           0xf0         240   
.text.TCPIP_UDP_Initial    0x12018           0xf0         240   
.text.DRV_SDMMC_Initial    0x12108           0xec         236   
.text.Shell_Cwd            0x121f4           0xec         236   
.text._ARPProbeAddress     0x122e0           0xec         236   
.text.SYS_FS_Shell_Crea    0x123cc           0xe8         232   
.text.SDHC1_CommandSend    0x124b4           0xe8         232   
.text.recv                 0x1259c           0xe4         228   
.text._DRV_MIIM_StartOp    0x12680           0xe0         224   
.text.TCPIP_ICMP_Task      0x12760           0xde         222   
.text.TCPIP_UDP_ArrayGe    0x1283e           0xde         222   
.text.DRV_ETHPHY_Setup     0x1291c           0xdc         220   
.text.SYS_TIME_PLIBCall    0x129f8           0xdc         220   
.text.f_getfree            0x12ad4           0xda         218   
.text.Dummy_App_Func       0x12bae            0x2           2   
.text._Tcpv4TxAckFnc       0x12bb0           0xd8         216   
.text.SERCOM1_USART_Wri    0x12c88           0xd8         216   
.text._cfgBsdSocket        0x12d60           0xd4         212   
.text._DRV_ETHPHY_NegRe    0x12e34           0xd2         210   
.text._TCPIP_HEAP_Mallo    0x12f06           0xd0         208   
.text.get_fat              0x12fd6           0xd0         208   
.text.__dummy              0x130a6            0x2           2   
.text.TCPIP_TCP_ArrayGe    0x130a8           0xcc         204   
.text.TCPIP_FTP_CreateD    0x13174           0xcc         204   
.text.SDHC1_InterruptHa    0x13240           0xcc         204   
.text.f_unlink             0x1330c           0xcc         204   
.text.bind                 0x133d8           0xcc         204   
.text.TCPIP_UDP_OpenSer    0x134a4           0xcc         204   
.text.floor                0x13570           0xcc         204   
.text.DRV_GMAC_PacketTx    0x1363c           0xc8         200   
.text.DRV_PIC32CGMAC_Li    0x13704           0xc8         200   
.text.dir_next             0x137cc           0xc8         200   
.text.SYS_FS_FileSeek      0x13894           0xc8         200   
.text.SYS_FS_DirOpen       0x1395c           0xc8         200   
.text.TCPIP_TCP_Deiniti    0x13a24           0xc4         196   
.text.TCPIP_TCP_Options    0x13ae8           0xc4         196   
.text.NET_PRES_SocketDi    0x13bac           0xc4         196   
.text.SYS_FS_GetDisk       0x13c70           0xc4         196   
.text.BerkeleySocketIni    0x13d34           0xc4         196   
.text.f_truncate           0x13df8           0xc2         194   
.text.TCPIP_TCP_Bind       0x13eba           0xc0         192   
.text.NET_PRES_Tasks       0x13f7c           0xc0         192   
.text._DRV_MIIM_ClientD    0x1403c           0xbc         188   
.text.TCPIP_IPV4_DeInit    0x140f8           0xbc         188   
.text.TCPIP_HEAP_Create    0x141b4           0xbc         188   
.text.TCPIP_STACK_KillS    0x14270           0xbc         188   
.rodata.cvt2.8310          0x1432c           0xbc         188   
.text._GetMaxSegSizeOpt    0x143e8           0xba         186   
.text.TCPIP_IPV4_ArpHan    0x144a4           0xb8         184   
.text._UDPv4TxAckFnc       0x1455c           0xb8         184   
.text._ARPSendIfPkt        0x14614           0xb4         180   
.text.ff_wtoupper          0x146c8           0xb4         180   
.text.SYS_TIME_HwTimerC    0x1477c           0xb4         180   
.text.dir_sdi              0x14830           0xb0         176   
.text.SYS_TIME_TimerObj    0x148e0           0xb0         176   
.text.NET_PRES_SocketCl    0x14990           0xac         172   
.text.NET_PRES_SocketRe    0x14a3c           0xac         172   
.text.PORT_Initialize      0x14ae8           0xac         172   
.text._TcpDisconnect       0x14b94           0xaa         170   
.text._DRV_ETHPHY_Setup    0x14c40           0xa8         168   
.text.TCPIP_TCP_ServerO    0x14ce8           0xa8         168   
.rodata                    0x14d90           0xa8         168  Read-only const 
.text.__fmt_d              0x14e38           0xa8         168   
.text.TCPIP_UDP_RemoteB    0x14ee0           0xa6         166   
.text.DRV_MIIM_Setup       0x14f88           0xa4         164   
.text.SYS_TIME_Initiali    0x1502c           0xa4         164   
.text._DRV_ETHPHY_Setup    0x150d0           0xa2         162   
.text.f_getlabel           0x15172           0xa2         162   
.text._ARPDeleteResourc    0x15214           0xa0         160   
.text.NET_PRES_SocketSi    0x152b4           0xa0         160   
.text._UDPv4AllocateSkt    0x15354           0xa0         160   
.text.TCPIP_UDP_Disconn    0x153f4           0xa0         160   
.text.__pop_int            0x15494           0xa0         160   
.text._DRV_PHY_SMITrans    0x15534           0x9e         158   
.text.DRV_SDMMC_Close      0x155d4           0x9c         156   
.text.NET_PRES_SocketSi    0x15670           0x9c         156   
.text.f_sync               0x1570c           0x9c         156   
.text.FATFS_unmount        0x157a8           0x9c         156   
.text._DRV_ETHPHY_Setup    0x15844           0x98         152   
.text.DRV_GMAC_Statisti    0x158dc           0x98         152   
.text.DRV_MIIM_Operatio    0x15974           0x98         152   
.text.TCPIP_Helper_Stri    0x15a0c           0x98         152   
.text.NET_PRES_SocketWr    0x15aa4           0x98         152   
.text.SYS_Initialize       0x15b3c           0x98         152   
.text.DRV_PIC32CGMAC_Li    0x15bd4           0x94         148   
.text.TCPIP_ARP_IsResol    0x15c68           0x94         148   
.text.remove_chain         0x15cfc           0x94         148   
.text.f_opendir            0x15d90           0x92         146   
.text.TCPIP_STACK_Initi    0x15e24           0x90         144   
.text.TCPIP_FTP_Cleanup    0x15eb4           0x90         144   
.text.SYS_TIME_AddToLis    0x15f44           0x90         144   
.text.NVIC_Initialize      0x15fd4           0x8c         140   
.text.sync_fs              0x16060           0x8c         140   
.text.SYS_FS_FileStat      0x160ec           0x8c         140   
.text.Reset_Handler        0x16178           0x8c         140   
.text._UDPsetPacketInfo    0x16204           0x8c         140   
.text._OAHashFindBkt       0x16290           0x88         136   
.text.SYS_FS_DirectoryM    0x16318           0x88         136   
.text.SYS_FS_FileDirect    0x163a0           0x88         136   
.rodata.FatFsFunctions     0x16428           0x88         136   
.text.__pic32c_data_ini    0x164b0           0x88         136   
.text.TCPIP_IPV4_MacPac    0x16538           0x84         132   
.text._TCPIP_PKT_Packet    0x165bc           0x84         132   
.text.DRV_PIC32CGMAC_Li    0x16640           0x82         130   
.text._DNS_ValidateIf      0x166c2           0x82         130   
.text.TCPIP_Helper_Pack    0x16744           0x82         130   
.text.DRV_ETHPHY_Vendor    0x167c8           0x80         128   
.text.DRV_ETHPHY_Vendor    0x16848           0x80         128   
.text.DRV_MIIM_Open        0x168c8           0x80         128   
.rodata.ExCvt              0x16948           0x80         128   
.text.TCP_SocketWasRese    0x169c8           0x80         128   
.text.BerkeleySocketDeI    0x16a48           0x80         128   
.text.__pad                0x16ac8           0x7e         126   
.text.DRV_ETHPHY_Vendor    0x16b48           0x7c         124   
.text.DRV_PIC32CGMAC_Li    0x16bc4           0x7c         124   
.text.SERCOM1_USART_Ini    0x16c40           0x7c         124   
.text.SERCOM1_USART_Rea    0x16cbc           0x7c         124   
.text.FATFS_mount          0x16d38           0x7c         124   
.text.__pop_ptr            0x16db4           0x7c         124   
.text.TCPIP_TCP_SocketI    0x16e30           0x7a         122   
.text._DRV_ETHPHY_Setup    0x16eaa           0x78         120   
.text.DRV_PIC32CGMAC_Li    0x16f24           0x78         120   
.rodata                    0x16f9c           0x78         120  Read-only const 
.text.TCPIP_Helper_Pack    0x17014           0x78         120   
.text.SYS_FS_FileWrite     0x1708c           0x78         120   
.rodata                    0x17104           0x78         120  Read-only const 
.text.__cvt_u              0x1717c           0x78         120   
.text._DRV_GMAC_LinkSta    0x171f4           0x76         118   
.text._ARPUpdateEntry      0x1726c           0x74         116   
.text.TCPIP_ARP_EntryRe    0x172e0           0x74         116   
.text.inc_lock             0x17354           0x74         116   
.text.SYS_FS_FileRead      0x173c8           0x74         116   
.text.TCPIP_PKT_DataSeg    0x1743c           0x72         114   
.text.__fmt_o              0x174ae           0x72         114   
.text._DRV_ETHPHY_NegCo    0x17520           0x70         112   
.text.DRV_GMAC_EventAck    0x17590           0x70         112   
.text.DRV_GMAC_Tasks_IS    0x17600           0x70         112   
.text.TCPIP_IPV4_Cleanu    0x17670           0x70         112   
.text.TCPIP_Helper_Calc    0x176e0           0x70         112   
.rodata.sTCPIPFTPCmdStr    0x17750           0x70         112   
.text.SYS_FS_FileClose     0x177c0           0x70         112   
.text.SYS_FS_DirClose      0x17830           0x70         112   
.text.TCPIP_BSD_Task       0x178a0           0x70         112   
.text.DRV_PIC32CGMAC_Li    0x17910           0x6c         108   
.text._AllocateRxPacket    0x1797c           0x6c         108   
.text.DRV_MIIM_Initiali    0x179e8           0x6c         108   
.text._TcpCleanup          0x17a54           0x6c         108   
.text._TCPIPStackModule    0x17ac0           0x6c         108   
.rodata.TCPIP_STACK_MOD    0x17b2c           0x6c         108   
.text.SYS_CONSOLE_Print    0x17b98           0x6c         108   
.text.DRV_ETHPHY_Open      0x17c04           0x68         104   
.text.DRV_GMAC_Process     0x17c6c           0x68         104   
.text._TcpSwapHeader       0x17cd4           0x68         104   
.text._DNS_AddSelection    0x17d3c           0x68         104   
.text.TCPIP_OAHASH_Entr    0x17da4           0x68         104   
.text.SDHC1_ModuleInit     0x17e0c           0x68         104   
.text.SYS_FS_FileTell      0x17e74           0x68         104   
.text.SYS_FS_FileSize      0x17edc           0x68         104   
.text.TCPIP_TCP_ArrayPe    0x17f44           0x66         102   
.text._DRV_ETHPHY_NegRe    0x17faa           0x64         100   
.text._DRV_ETHPHY_Reset    0x1800e           0x64         100   
.text._DRV_ETHPHY_NegCo    0x18074           0x64         100   
.text.DRV_GMAC_Register    0x180d8           0x64         100   
.text._MacRxPacketAck      0x1813c           0x64         100   
.text._DRV_SDMMC_Driver    0x181a0           0x64         100   
.text.TCPIP_OAHASH_Entr    0x18204           0x64         100   
.text.TCPIP_STACK_Bring    0x18268           0x64         100   
.text._TCPIPStackInsert    0x182cc           0x64         100   
.text.f_mount              0x18330           0x64         100   
.text.TCPIP_UDP_SocketI    0x18394           0x64         100   
.text.TCPIP_ARP_EntryGe    0x183f8           0x62          98   
.text._TCPIP_StackSyncF    0x1845a           0x62          98   
.text._DRV_SDMMC_PlibCa    0x184bc           0x60          96   
.text.TCPIP_DNS_ClientD    0x1851c           0x60          96   
.text.f_chdir              0x1857c           0x60          96   
.text.TCP_SignalFunctio    0x185dc           0x60          96   
.text.vsnprintf            0x1863c           0x60          96   
.text.__strchrnul          0x1869c           0x60          96   
.text.DRV_MIIM_Operatio    0x186fc           0x5e          94   
.text.f_chmod              0x1875a           0x5e          94   
.rodata.DRV_ETHPHY_OBJE    0x187b8           0x5c          92   
.text._DRV_GMAC_LinkSta    0x18814           0x5c          92   
.text._DRV_SDMMC_InitCa    0x18870           0x5c          92   
.text._TcpClientSocketC    0x188cc           0x5c          92   
.text._TCPIP_SelectDefa    0x18928           0x5c          92   
.rodata.sTCPIPFTPRespSt    0x18984           0x5c          92   
.text.chk_lock             0x189e0           0x5c          92   
.text.get_ldnumber         0x18a3c           0x5c          92   
.text.dir_clear            0x18a98           0x5c          92   
.text.dir_remove           0x18af4           0x5c          92   
.text.f_utime              0x18b50           0x5c          92   
.text.SYS_FS_Initialize    0x18bac           0x5c          92   
.text.SYS_FS_FileEOF       0x18c08           0x5c          92   
.text.FATFS_open           0x18c64           0x5c          92   
.text.SYS_TIME_RemoveFr    0x18cc0           0x5c          92   
.text.__libc_start_init    0x18d1c           0x5c          92   
.rodata                    0x18d78           0x5c          92  Read-only const 
.text.DRV_PIC32CGMAC_Li    0x18dd4           0x5a          90   
.text.f_gets               0x18e2e           0x5a          90   
.text.TCPIP_UDP_BcastIP    0x18e88           0x5a          90   
.text.DRV_ETHPHY_Initia    0x18ee4           0x58          88   
.text.DRV_GMAC_RxFilter    0x18f3c           0x58          88   
.rodata.DRV_GMAC_Object    0x18f94           0x58          88   
.text.DRV_SDMMC_Command    0x18fec           0x58          88   
.text._DNS_Enable          0x19044           0x58          88   
.text._TCPIPStackIpAddF    0x1909c           0x58          88   
.text._FTPSocketRxSigna    0x190f4           0x58          88   
.text.NET_PRES_SocketOp    0x1914c           0x58          88   
.text.NET_PRES_SocketIs    0x191a4           0x58          88   
.text.NET_PRES_SocketWa    0x191fc           0x58          88   
.text.NET_PRES_SocketWa    0x19254           0x58          88   
.text.NET_PRES_SocketCo    0x192ac           0x58          88   
.text.NET_PRES_SocketIn    0x19304           0x58          88   
.text.NET_PRES_SocketFl    0x1935c           0x58          88   
.text.NET_PRES_SocketDi    0x193b4           0x58          88   
.text.SYS_TIME_TimerAdd    0x1940c           0x58          88   
.text.SYS_TIME_TimerSta    0x19464           0x58          88   
.rodata.TCPIP_STACK_MOD    0x194bc           0x58          88   
.rodata.netPresTransObj    0x19514           0x58          88   
.rodata.netPresTransObj    0x1956c           0x58          88   
.rodata.netPresTransObj    0x195c4           0x58          88   
.rodata.netPresTransObj    0x1961c           0x58          88   
.text.unbin                0x19674           0x58          88   
.text.__fmt_s              0x196cc           0x58          88   
.text.__fmt_u              0x19724           0x56          86   
.text._DRV_PHY_SMITrans    0x1977a           0x54          84   
.text._ARPNotifyClients    0x197d0           0x54          84   
.text._DNS_DeleteHash      0x19824           0x54          84   
.text._TCPIPStackAnyNet    0x19878           0x54          84   
.text.NET_PRES_SocketBi    0x198cc           0x54          84   
.text.NET_PRES_SocketRe    0x19920           0x54          84   
.text.SYS_CONSOLE_Initi    0x19974           0x54          84   
.text.dir_alloc            0x199c8           0x54          84   
.rodata                    0x19a1c           0x54          84  Read-only const 
.text.SYS_FS_MEDIA_MANA    0x19a70           0x54          84   
.text.SYS_TIME_Callback    0x19ac4           0x54          84   
.text.TCPIP_UDP_PutIsRe    0x19b18           0x54          84   
.text.TCPIP_UDP_SocketN    0x19b6c           0x54          84   
.text._TcpAbort            0x19bc0           0x52          82   
.text.TCPIP_TCP_RemoteB    0x19c12           0x52          82   
.text._TCPIP_HEAP_MaxSi    0x19c64           0x52          82   
.text.DRV_ETHPHY_LinkSt    0x19cb8           0x50          80   
.text.DRV_GMAC_Paramete    0x19d08           0x50          80   
.rodata                    0x19d58           0x50          80  Read-only const 
.text.TCPIP_DNS_OAHASH_    0x19da8           0x50          80   
.text._TCPIPStackModule    0x19df8           0x50          80   
.text.SYS_TIME_DelayMS     0x19e48           0x50          80   
.text._DRV_ETHPHY_Setup    0x19e98           0x4e          78   
.text._DRV_MIIM_GetClie    0x19ee6           0x4e          78   
.text.TCPIP_IPV4_Select    0x19f34           0x4e          78   
.text.f_readdir            0x19f82           0x4e          78   
.text._DRV_ETHPHY_LinkS    0x19fd0           0x4c          76   
.text._MacTxPendingPack    0x1a01c           0x4c          76   
.text._TCPIP_MacEventCB    0x1a068           0x4c          76   
.text.SDHC1_ResponseRea    0x1a0b4           0x4c          76   
.text.TCP_SocketWasDisc    0x1a100           0x4c          76   
.text.TCPIP_ANNOUNCE_De    0x1a14c           0x4c          76   
.text._UDPClose            0x1a198           0x4c          76   
.text.__aeabi_d2iz         0x1a1e4           0x4c          76   
.text.TCPIP_IPV4_Select    0x1a230           0x4a          74   
.text.TCPIP_UDP_ArrayPu    0x1a27a           0x4a          74   
.text.TCPIP_UDP_Destina    0x1a2c4           0x4a          74   
.text.DRV_ETHPHY_Negoti    0x1a310           0x48          72   
.text.DRV_GMAC_LinkChec    0x1a358           0x48          72   
.rodata.default_shell_o    0x1a3a0           0x48          72   
.text._TCPSendWinIncUpd    0x1a3e8           0x48          72   
.text.TCPIP_TCP_Destina    0x1a430           0x48          72   
.text.TCPIP_ARP_Deiniti    0x1a478           0x48          72   
.text.TCPIP_STACK_Match    0x1a4c0           0x48          72   
.text._TCPIPStackSignal    0x1a508           0x48          72   
.text.sync_window          0x1a550           0x48          72   
.text.ff_uni2oem           0x1a598           0x48          72   
.rodata.drvSDMMC0PlibAP    0x1a5e0           0x48          72   
.text.TCPIP_UDP_Close      0x1a628           0x48          72   
.text._DRV_GMAC_LinkSta    0x1a670           0x46          70   
.text.DRV_MIIM_Register    0x1a6b6           0x46          70   
.text.Shell_GetCwd         0x1a6fc           0x46          70   
.text.Shell_GetRoot        0x1a742           0x46          70   
.text.TCPIP_TCP_FifoTxF    0x1a788           0x46          70   
.text.TCPIP_Helper_Sing    0x1a7ce           0x46          70   
.text.validate             0x1a814           0x46          70   
.text.atoi                 0x1a85a           0x46          70   
.text.DRV_GMAC_ConfigGe    0x1a8a0           0x44          68   
.text.Helper_SingleList    0x1a8e4           0x44          68   
.text.TCPIP_ICMP_Initia    0x1a928           0x44          68   
.text.f_stat               0x1a96c           0x44          68   
.text.SYS_INT_SourceDis    0x1a9b0           0x44          68   
.rodata                    0x1a9f4           0x44          68  Read-only const 
.text._DRV_GMAC_LinkSta    0x1aa38           0x42          66   
.text._TcpSocketSetSour    0x1aa7a           0x42          66   
.text.TCPIP_Helper_Form    0x1aabc           0x42          66   
.text._UDPSetNewRxPacke    0x1aafe           0x42          66   
.text.TCPIP_UDP_SourceI    0x1ab40           0x42          66   
.text                      0x1ab84           0x40          64  App's exec code 
.text.DRV_ETHPHY_Reset     0x1abc4           0x40          64   
.text.DRV_ETHPHY_Negoti    0x1ac04           0x40          64   
.text.DRV_ETHPHY_Restar    0x1ac44           0x40          64   
.text._DRV_ETHPHY_Reset    0x1ac84           0x40          64   
.text._MacTxDiscardQueu    0x1acc4           0x40          64   
.rodata.DRV_MIIM_OBJECT    0x1ad04           0x40          64   
.rodata.TRAN_SPEED_MULT    0x1ad44           0x40          64   
.text._TCP_PortIsAvaila    0x1ad84           0x40          64   
.text.TCPIP_Helper_Prot    0x1adc4           0x40          64   
.rodata                    0x1ae04           0x40          64  Read-only const 
.text.TCPIP_STACK_NetBy    0x1ae44           0x40          64   
.text._TCPIP_PKT_Packet    0x1ae84           0x40          64   
.text.NET_PRES_SocketGe    0x1aec4           0x40          64   
.text.TC0_TimerInitiali    0x1af04           0x40          64   
.text.disk_checkCommand    0x1af44           0x40          64   
.text.SYS_FS_MEDIA_MANA    0x1af84           0x40          64   
.text._UDPIsAvailablePo    0x1afc4           0x40          64   
.text.adjust_size          0x1b004           0x40          64   
.text._DRV_MIIM_GetObje    0x1b044           0x3e          62   
.text._TCPSetHalfFlushF    0x1b082           0x3e          62   
.text._TCPIP_HEAP_Delet    0x1b0c0           0x3e          62   
.text.putc_bfd             0x1b0fe           0x3e          62   
.text.FATFS_getclusters    0x1b13c           0x3e          62   
.text.TCPIP_UDP_TxOffse    0x1b17a           0x3e          62   
.text._DRV_ETHPHY_NegCo    0x1b1b8           0x3c          60   
.text.DRV_SDMMC_EventHa    0x1b1f4           0x3c          60   
.text.hexatob              0x1b230           0x3c          60   
.text._TcpSocketKill       0x1b26c           0x3c          60   
.text.TCPIP_TCP_Close      0x1b2a8           0x3c          60   
.text.TCPIP_Helper_Prot    0x1b2e4           0x3c          60   
.text.TCPIP_Helper_Prot    0x1b320           0x3c          60   
.text.TCPIP_STACK_MACId    0x1b35c           0x3c          60   
.text._TCPIP_PKT_Packet    0x1b398           0x3c          60   
.text.move_window          0x1b3d4           0x3c          60   
.text.SYS_TIME_GetTimer    0x1b410           0x3c          60   
.text.SYS_TIME_TimerDes    0x1b44c           0x3c          60   
.text._TCPIP_AnnounceCl    0x1b488           0x3c          60   
.text.TCPIP_UDP_OpenCli    0x1b4c4           0x3c          60   
.text._DRV_ETHPHY_Setup    0x1b500           0x3a          58   
.text._DRV_ETHPHY_NegRe    0x1b53a           0x3a          58   
.text._DRV_MIIM_Release    0x1b574           0x3a          58   
.text.Shell_FileOpen       0x1b5ae           0x3a          58   
.text.Shell_FileStat       0x1b5e8           0x3a          58   
.text.TCPIP_Helper_Prot    0x1b622           0x3a          58   
.text.putc_flush           0x1b65c           0x3a          58   
.text.disk_ioctl           0x1b696           0x3a          58   
.text.DRV_ETHPHY_HWConf    0x1b6d0           0x38          56   
.text._DRV_ETHPHY_Setup    0x1b708           0x38          56   
.text.DRV_GMAC_Open        0x1b740           0x38          56   
.text.DRV_PIC32CGMAC_Li    0x1b778           0x38          56   
.text.DRV_MIIM_Deregist    0x1b7b0           0x38          56   
.text._TCP_EphemeralPor    0x1b7e8           0x38          56   
.text._TCPIP_Helper_Sec    0x1b820           0x38          56   
.text._TCPIPStackModule    0x1b858           0x38          56   
.text.TCPIP_PKT_PacketM    0x1b890           0x38          56   
.text.SYS_TIME_Resource    0x1b8c8           0x38          56   
.rodata.TCPIP_HOSTS_CON    0x1b900           0x38          56   
.text._UDPAllocateEphem    0x1b938           0x38          56   
.text.bin_index            0x1b970           0x38          56   
.text.__fmt_state          0x1b9a8           0x38          56   
.text.__aeabi_dcmpgt       0x1b9e0           0x38          56   
.text.__aeabi_dcmplt       0x1ba18           0x38          56   
.text._DRV_ETHPHY_NegCo    0x1ba50           0x36          54   
.text.Shell_FileDelete     0x1ba86           0x36          54   
.text.Shell_DirMake        0x1babc           0x36          54   
.text.Shell_DirOpen        0x1baf2           0x36          54   
.text._TCPSetSourceAddr    0x1bb28           0x36          54   
.text._DNS_NetIsValid      0x1bb5e           0x36          54   
.text._DRV_ETHPHY_Setup    0x1bb94           0x34          52   
.text.DRV_MIIM_Deinitia    0x1bbc8           0x34          52   
.text._TCP_SktFlagsGet     0x1bbfc           0x34          52   
.text._ARPSetEntry         0x1bc30           0x34          52   
.text.TCPIP_ARP_Handler    0x1bc64           0x34          52   
.text._DNSGetData          0x1bc98           0x34          52   
.text.Console_UART_Read    0x1bccc           0x34          52   
.text.Console_UART_Writ    0x1bd00           0x34          52   
.text.dec_lock             0x1bd34           0x34          52   
.text.f_close              0x1bd68           0x34          52   
.text.f_fdisk              0x1bd9c           0x34          52   
.text.SYS_TIME_Resource    0x1bdd0           0x34          52   
.rodata.tcpipMACPIC32CI    0x1be04           0x34          52   
.text._FieldSetMacName     0x1be38           0x34          52   
.text.stpncpy              0x1be6c           0x34          52   
.text.__aeabi_dcmpeq       0x1bea0           0x34          52   
.text._DRV_PHY_SMIReadS    0x1bed4           0x32          50   
.text._DRV_PHY_SMIWrite    0x1bf06           0x32          50   
.text._DRV_ETHPHY_Setup    0x1bf38           0x32          50   
.text.DRV_PIC32CGMAC_Li    0x1bf6a           0x32          50   
.text.TCPIP_Helper_Prot    0x1bf9c           0x32          50   
.text._FieldSetHostName    0x1bfce           0x32          50   
.text._DRV_PHY_NegCompl    0x1c000           0x30          48   
.text._DRV_ETHPHY_Setup    0x1c030           0x30          48   
.text.DRV_GMAC_Status      0x1c060           0x30          48   
.text.DRV_PIC32CGMAC_Li    0x1c090           0x30          48   
.text.DRV_PIC32CGMAC_Li    0x1c0c0           0x30          48   
.rodata.sdmmcMediaFunct    0x1c0f0           0x30          48   
.text._TCPSocketTxFreeS    0x1c120           0x30          48   
.text.TCPIP_ARP_HashEnt    0x1c150           0x30          48   
.text.TCPIP_IPV4_CheckP    0x1c180           0x30          48   
.text.fnv_32_hash          0x1c1b0           0x30          48   
.text.TCPIP_OAHASH_Entr    0x1c1e0           0x30          48   
.text.TCPIP_Helper_Stri    0x1c210           0x30          48   
.text.TCPIP_PKT_Initial    0x1c240           0x30          48   
.rodata.month              0x1c270           0x30          48   
.text.SYS_CONSOLE_Messa    0x1c2a0           0x30          48   
.text.Console_UART_Writ    0x1c2d0           0x30          48   
.text.Console_UART_Writ    0x1c300           0x30          48   
.text.Console_UART_Read    0x1c330           0x30          48   
.text.Console_UART_Read    0x1c360           0x30          48   
.text.f_puts               0x1c390           0x30          48   
.text.disk_write           0x1c3c0           0x30          48   
.text.SYS_FS_MEDIA_MANA    0x1c3f0           0x30          48   
.text.SYS_TIME_UpdateTi    0x1c420           0x30          48   
.text.SYS_TIME_Counter6    0x1c450           0x30          48   
.text.wc_CryptoCb_FindD    0x1c480           0x30          48   
.text.alloc_rev            0x1c4b0           0x30          48   
.text                      0x1c4e0           0x30          48  App's exec code 
.text._XtlEventsTcp2Eth    0x1c510           0x2e          46   
.text.TCPIP_TCP_Connect    0x1c53e           0x2e          46   
.text._DNS_CleanCacheEn    0x1c56c           0x2e          46   
.text._DNSClientCleanup    0x1c59a           0x2e          46   
.text.TCPIP_STACK_DNSSe    0x1c5c8           0x2e          46   
.text.wc_CryptoCb_Regis    0x1c5f6           0x2e          46   
.text._UDPFreeTxResourc    0x1c624           0x2e          46   
.text.trim                 0x1c652           0x2e          46   
.text.strstr               0x1c680           0x2e          46   
.text.DRV_ETHPHY_Close     0x1c6b0           0x2c          44   
.text.DRV_ETHPHY_Vendor    0x1c6dc           0x2c          44   
.text.DRV_ETHPHY_Reinit    0x1c708           0x2c          44   
.text._DRV_ETHPHY_LinkS    0x1c734           0x2c          44   
.text.GMAC_InterruptHan    0x1c760           0x2c          44   
.text.DRV_SDMMC_IsAttac    0x1c78c           0x2c          44   
.text.TCPIP_TCP_SignalH    0x1c7b8           0x2c          44   
.text._ARPRemoveEntry      0x1c7e4           0x2c          44   
.text.TCPIP_STACK_Addre    0x1c810           0x2c          44   
.text.TCPIP_STACK_IsBca    0x1c83c           0x2c          44   
.text._TCPIP_PKT_Socket    0x1c868           0x2c          44   
.text._FTP_ReleaseDataS    0x1c894           0x2c          44   
.text.TC0_TimerInterrup    0x1c8c0           0x2c          44   
.rodata.sysConsoleUARTD    0x1c8ec           0x2c          44   
.text.ff_oem2uni           0x1c918           0x2c          44   
.text.disk_read            0x1c944           0x2c          44   
.text.FATFS_opendir        0x1c970           0x2c          44   
.text.TCPIP_STACK_Init     0x1c99c           0x2c          44   
.text.SYS_Tasks            0x1c9c8           0x2c          44   
.text._getBsdSocket        0x1c9f4           0x2c          44   
.text.TCPIP_UDP_IsConne    0x1ca20           0x2c          44   
.text.TCPIP_UDP_SignalH    0x1ca4c           0x2c          44   
.text.alloc_fwd            0x1ca78           0x2c          44   
.text.fma                  0x1caa4           0x2c          44   
.text._sbrk                0x1cad0           0x2c          44   
.text._DRV_GMAC_LinkSta    0x1cafc           0x2a          42   
.text.TCPIP_TCP_WasRese    0x1cb26           0x2a          42   
.text.TCPIP_DNS_OAHASH_    0x1cb50           0x2a          42   
.text.TCPIP_Notificatio    0x1cb7a           0x2a          42   
.text.f_closedir           0x1cba4           0x2a          42   
.text._FieldSetMacAddr     0x1cbce           0x2a          42   
.text.__pop_float          0x1cbf8           0x2a          42   
.text.DRV_ETHPHY_Tasks     0x1cc24           0x28          40   
.text.DRV_ETHPHY_PhyAdd    0x1cc4c           0x28          40   
.text._DRV_PHY_SetOperD    0x1cc74           0x28          40   
.text.DRV_ETHPHY_Client    0x1cc9c           0x28          40   
.text.DRV_PIC32CGMAC_Li    0x1ccc4           0x28          40   
.text.DRV_PIC32CGMAC_Li    0x1ccec           0x28          40   
.text.DRV_MIIM_Status      0x1cd14           0x28          40   
.text._TcpSocketChk        0x1cd3c           0x28          40   
.text._TcpFlush            0x1cd64           0x28          40   
.text._ARPRemoveCacheEn    0x1cd8c           0x28          40   
.text._TCPIP_STACK_Tick    0x1cdb4           0x28          40   
.text.TCPIP_STACK_NetIs    0x1cddc           0x28          40   
.text._TCPIPStackSignal    0x1ce04           0x28          40   
.text._TCPIPStackModule    0x1ce2c           0x28          40   
.text.TCPIP_FTP_ServerD    0x1ce54           0x28          40   
.text.TCPIP_ICMP_Deinit    0x1ce7c           0x28          40   
.text.TC0_Timer16bitCou    0x1cea4           0x28          40   
.text.tchar2uni            0x1cecc           0x28          40   
.text.FATFS_mkfs           0x1cef4           0x28          40   
.text.SYS_TIME_TimerPer    0x1cf1c           0x28          40   
.text.SYS_TMR_TickCount    0x1cf44           0x28          40   
.text.SYS_TMR_TickCount    0x1cf6c           0x28          40   
.text.SYS_TMR_TickCount    0x1cf94           0x28          40   
.rodata.tcpipARPInitDat    0x1cfbc           0x28          40   
.text._UDPSocketDcpt       0x1cfe4           0x28          40   
.text.TCPIP_UDP_GetIsRe    0x1d00c           0x28          40   
.text._DRV_ETHPHY_NegRe    0x1d034           0x26          38   
.text._DRV_ETHPHY_NegRe    0x1d05a           0x26          38   
.text.TCPIP_TCP_IsConne    0x1d080           0x26          38   
.text.TCPIP_TCP_Flush      0x1d0a6           0x26          38   
.text.TCPIP_TCP_Discard    0x1d0cc           0x26          38   
.text.TCPIP_OAHASH_Init    0x1d0f2           0x26          38   
.text.TCPIP_Helper_Prot    0x1d118           0x26          38   
.text.TCPIP_STACK_DNSSe    0x1d13e           0x26          38   
.text.f_putc               0x1d164           0x26          38   
.text.get_fattime          0x1d18a           0x26          38   
.text.__malloc0            0x1d1b0           0x26          38   
.text.__string_out         0x1d1d6           0x26          38   
.text.DRV_ETHPHY_Vendor    0x1d1fc           0x24          36   
.rodata                    0x1d220           0x24          36  Read-only const 
.text.DRV_PIC32CGMAC_Li    0x1d244           0x24          36   
.text.DRV_SDMMC_Geometr    0x1d268           0x24          36   
.text.Shell_Delete         0x1d28c           0x24          36   
.text.TCPIP_TCP_SignalH    0x1d2b0           0x24          36   
.text._ARPAllocateTxPac    0x1d2d4           0x24          36   
.text.TCPIP_ARP_Handler    0x1d2f8           0x24          36   
.rodata._tcpip_heap_obj    0x1d31c           0x24          36   
.text.TCPIP_STACK_IPAdd    0x1d340           0x24          36   
.text.NET_PRES_SignalHa    0x1d364           0x24          36   
.text.f_chdrive            0x1d388           0x24          36   
.rodata.drvSDMMC0InitDa    0x1d3ac           0x24          36   
.text._UDPFreeRxQueue      0x1d3d0           0x24          36   
.text.TCPIP_UDP_SignalH    0x1d3f4           0x24          36   
.text.strncmp              0x1d418           0x24          36   
.text._DRV_PHY_SMITrans    0x1d43c           0x22          34   
.text.DRV_MIIM_Close       0x1d45e           0x22          34   
.text.SDHC1_ClockEnable    0x1d480           0x22          34   
.text.SYS_FS_MEDIA_MANA    0x1d4a2           0x22          34   
.text.FATFS_chdrive        0x1d4c4           0x22          34   
.text._UDPTxPktValid       0x1d4e6           0x22          34   
.text.TCPIP_UDP_Discard    0x1d508           0x22          34   
.text.DRV_ETHPHY_Status    0x1d52c           0x20          32   
.text.DRV_ETHPHY_Client    0x1d54c           0x20          32   
.text.DRV_ETHPHY_Client    0x1d56c           0x20          32   
.text._DRV_ETHPHY_Clien    0x1d58c           0x20          32   
.text._DRV_ETHPHY_Clien    0x1d5ac           0x20          32   
.text._DRV_ETHPHY_Clien    0x1d5cc           0x20          32   
.text._DRV_ETHPHY_Clien    0x1d5ec           0x20          32   
.text._DRV_ETHPHY_Clien    0x1d60c           0x20          32   
.text._DRV_ETHPHY_Clien    0x1d62c           0x20          32   
.text._DRV_ETHPHY_Setup    0x1d64c           0x20          32   
.rodata                    0x1d66c           0x20          32  Read-only const 
.rodata._DRV_PHY_SetupP    0x1d68c           0x20          32   
.text.DRV_GMAC_Close       0x1d6ac           0x20          32   
.text._MACTxAcknowledge    0x1d6cc           0x20          32   
.text.DRV_GMAC_Deinitia    0x1d6ec           0x20          32   
.text.DRV_PIC32CGMAC_Li    0x1d70c           0x20          32   
.text.DRV_GMAC_LibDescr    0x1d72c           0x20          32   
.rodata.TRAN_SPEED_UNIT    0x1d74c           0x20          32   
.text._SwapARPPacket       0x1d76c           0x20          32   
.text.TCPIP_DNS_OAHASH_    0x1d78c           0x20          32   
.rodata.TCPIP_MAC_POWER    0x1d7ac           0x20          32   
.text.TCPIP_STACK_Index    0x1d7cc           0x20          32   
.text._TCPIPStackHandle    0x1d7ec           0x20          32   
.text.TCPIP_Notificatio    0x1d80c           0x20          32   
.rodata                    0x1d82c           0x20          32  Read-only const 
.text.ld_clust             0x1d84c           0x20          32   
.text.diskEventHandler     0x1d86c           0x20          32   
.text.SYS_FS_MEDIA_MANA    0x1d88c           0x20          32   
.rodata                    0x1d8ac           0x20          32  Read-only const 
.text.SYS_INT_SourceRes    0x1d8cc           0x20          32   
.rodata.netPresCfgs        0x1d8ec           0x20          32   
.rodata.tcpipPhyInitDat    0x1d90c           0x20          32   
.text.TCPIP_UDP_Destina    0x1d92c           0x20          32   
.text.lock_bin             0x1d94c           0x20          32   
.text._DRV_GMAC_LinkSta    0x1d96c           0x1e          30   
.text._TCPIsGetReady       0x1d98a           0x1e          30   
.text.TCPIP_Helper_Prot    0x1d9a8           0x1e          30   
.text.TCPIP_STACK_NetAd    0x1d9c6           0x1e          30   
.text.TCPIP_STACK_NetAd    0x1d9e4           0x1e          30   
.text.TCPIP_STACK_Netwo    0x1da02           0x1e          30   
.text.TCPIP_PKT_Payload    0x1da20           0x1e          30   
.text.sum_sfn              0x1da3e           0x1e          30   
.text.FATFS_close          0x1da5c           0x1e          30   
.text.FATFS_closedir       0x1da7a           0x1e          30   
.text._FieldSetIpv4Addr    0x1da98           0x1e          30   
.text._DRV_ETHPHY_Reset    0x1dab6           0x1c          28   
.rodata._DRV_PHY_Client    0x1dad4           0x1c          28   
.text.DRV_GMAC_EventPen    0x1daf0           0x1c          28   
.text.DRV_PIC32CGMAC_Li    0x1db0c           0x1c          28   
.text.DRV_PIC32CGMAC_Si    0x1db28           0x1c          28   
.text.Helper_SingleList    0x1db44           0x1c          28   
.text.Shell_LastError      0x1db60           0x1c          28   
.text._ARPTxAckFnc         0x1db7c           0x1c          28   
.text.TCPIP_IPV4_MaxDat    0x1db98           0x1c          28   
.text._TCPIP_HEAP_Callo    0x1dbb4           0x1c          28   
.text.TCPIP_Helper_Sing    0x1dbd0           0x1c          28   
.text.TCPIP_Helper_Prot    0x1dbec           0x1c          28   
.text._TCPIPSignalEntry    0x1dc08           0x1c          28   
.text.TCPIP_STACK_Statu    0x1dc24           0x1c          28   
.text.TCPIP_FTP_LIST_Ad    0x1dc40           0x1c          28   
.text.SDHC1_BlockSizeSe    0x1dc5c           0x1c          28   
.text.SDHC1_DmaSetup       0x1dc78           0x1c          28   
.text.SYS_DEBUG_Initial    0x1dc94           0x1c          28   
.text.SYS_FS_MEDIA_MANA    0x1dcb0           0x1c          28   
.text.SYS_TIME_MSToCoun    0x1dccc           0x1c          28   
.text.SYS_TMR_CallbackP    0x1dce8           0x1c          28   
.rodata.sysTimePlibAPI     0x1dd04           0x1c          28   
.rodata._AnnounceSendTb    0x1dd20           0x1c          28   
.text.isxdigit             0x1dd3c           0x1c          28   
.text.calloc               0x1dd58           0x1c          28   
.text.memcmp               0x1dd74           0x1c          28   
.text.vfprintf             0x1dd90           0x1c          28   
.rodata                    0x1ddac           0x1c          28  Read-only const 
.text.DRV_PIC32CGMAC_Si    0x1ddc8           0x1a          26   
.text.Helper_SingleList    0x1dde2           0x1a          26   
.text.DRV_MIIM_Read        0x1ddfc           0x1a          26   
.text.DRV_MIIM_Write       0x1de16           0x1a          26   
.text.DRV_MIIM_Scan        0x1de30           0x1a          26   
.text.TCPIP_TCP_ClientO    0x1de4a           0x1a          26   
.text.TCPIP_TCP_Disconn    0x1de64           0x1a          26   
.text.TCPIP_TCP_PutIsRe    0x1de7e           0x1a          26   
.text.TCPIP_Helper_Sing    0x1de98           0x1a          26   
.text.TCPIP_Helper_Sing    0x1deb2           0x1a          26   
.text.TCPIP_STACK_NetIs    0x1decc           0x1a          26   
.text.TCPIP_Notificatio    0x1dee6           0x1a          26   
.text.SDHC1_BusWidthSet    0x1df00           0x1a          26   
.text.SDHC1_SpeedModeSe    0x1df1a           0x1a          26   
.text.st_clust             0x1df34           0x1a          26   
.text.FATFS_readdir        0x1df4e           0x1a          26   
.text.TCPIP_UDP_TxPoint    0x1df68           0x1a          26   
.text.snprintf             0x1df82           0x1a          26   
.text.sprintf              0x1df9c           0x1a          26   
.text.DRV_ETHPHY_Deinit    0x1dfb8           0x18          24   
.text._DRV_ETHPHY_NegCo    0x1dfd0           0x18          24   
.text._DRV_ETHPHY_Setup    0x1dfe8           0x18          24   
.text._DRV_ETHPHY_LinkS    0x1e000           0x18          24   
.text._DRV_ETHPHY_NegCo    0x1e018           0x18          24   
.text._DRV_ETHPHY_NegRe    0x1e030           0x18          24   
.text._DRV_ETHPHY_NegRe    0x1e048           0x18          24   
.rodata._DRV_PHY_NegCom    0x1e060           0x18          24   
.text.DRV_PIC32CGMAC_Si    0x1e078           0x18          24   
.text.DRV_PIC32CGMAC_Li    0x1e090           0x18          24   
.text.TCPIP_ARP_HashKey    0x1e0a8           0x18          24   
.text.TCPIP_OAHASH_Entr    0x1e0c0           0x18          24   
.text.TCPIP_STACK_NetAd    0x1e0d8           0x18          24   
.text._TCPIPStackModule    0x1e0f0           0x18          24   
.rodata.TCPIP_FRAME_PRO    0x1e108           0x18          24   
.text.TCPIP_ICMP_Cleanu    0x1e120           0x18          24   
.text.SDHC1_Initialize     0x1e138           0x18          24   
.text.SERCOM1_USART_Wri    0x1e150           0x18          24   
.text.SERCOM1_USART_Rea    0x1e168           0x18          24   
.text.TC0_TimerStart       0x1e180           0x18          24   
.text.TC0_TimerStop        0x1e198           0x18          24   
.text._SYS_FS_MEDIA_MAN    0x1e1b0           0x18          24   
.text.FATFS_stat           0x1e1c8           0x18          24   
.text.SYS_TIME_GetElaps    0x1e1e0           0x18          24   
.text.SYS_TIME_DelayIsC    0x1e1f8           0x18          24   
.rodata.sysConsole0UART    0x1e210           0x18          24   
.rodata.tcpipDNSClientI    0x1e228           0x18          24   
.rodata.tcpipFTPInitDat    0x1e240           0x18          24   
.text.rand                 0x1e258           0x18          24   
.text.strcmp               0x1e270           0x18          24   
.text.DRV_MIIM_ClientSt    0x1e288           0x16          22   
.text.TCPIP_TCP_WasDisc    0x1e29e           0x16          22   
.text._TCPIP_HEAP_LastE    0x1e2b4           0x16          22   
.text._DNSSocketRxSigna    0x1e2ca           0x16          22   
.text.TCPIP_Helper_TCPS    0x1e2e0           0x16          22   
.text.TCPIP_Helper_UDPS    0x1e2f6           0x16          22   
.text._TCPIPStackPacket    0x1e30c           0x16          22   
.text.ld_dword             0x1e322           0x16          22   
.text.clst2sect            0x1e338           0x16          22   
.text._TCPIP_AnnounceSo    0x1e34e           0x16          22   
.text.__expand_heap        0x1e364           0x16          22   
.text.memcpy               0x1e37a           0x16          22   
.rodata._DRV_PHY_NegRes    0x1e390           0x14          20   
.rodata.DRV_ETHPHY_OBJE    0x1e3a4           0x14          20   
.rodata._DRV_GMAC_LinkS    0x1e3b8           0x14          20   
.text.DRV_PIC32CGMAC_Li    0x1e3cc           0x14          20   
.text.DRV_SDMMC_Registe    0x1e3e0           0x14          20   
.text.DRV_SDMMC_AsyncRe    0x1e3f4           0x14          20   
.text.DRV_SDMMC_AsyncWr    0x1e408           0x14          20   
.text.TCPIP_TCP_Abort      0x1e41c           0x14          20   
.text.TCPIP_HEAP_Create    0x1e430           0x14          20   
.text.TCPIP_STACK_NetUp    0x1e444           0x14          20   
.text.SDHC1_ErrorReset     0x1e458           0x14          20   
.text.SERCOM1_USART_Rea    0x1e46c           0x14          20   
.text.SERCOM1_USART_Wri    0x1e480           0x14          20   
.text.TC0_Timer16bitPer    0x1e494           0x14          20   
.text.TC0_Timer16bitCom    0x1e4a8           0x14          20   
.text.Console_UART_Init    0x1e4bc           0x14          20   
.rodata.badchr.9110        0x1e4d0           0x14          20   
.text.CRYPT_WCCB_Initia    0x1e4e4           0x14          20   
.text._FieldSetTruncate    0x1e4f8           0x14          20   
.text._UDPUpdatePacketL    0x1e50c           0x14          20   
.text.strchr               0x1e520           0x14          20   
.text.TCPIP_TCP_GetIsRe    0x1e534           0x12          18   
.text._TCPIP_HEAP_FreeS    0x1e546           0x12          18   
.text.TCPIP_OAHASH_Entr    0x1e558           0x12          18   
.text.NVIC_INT_Disable     0x1e56a           0x12          18   
.text.NVIC_INT_Restore     0x1e57c           0x12          18   
.text.send                 0x1e58e           0x12          18   
.text.stpcpy               0x1e5a0           0x12          18   
.rodata._DRV_PHY_SetupP    0x1e5b4           0x10          16   
.text.DRV_EXTPHY_MIICon    0x1e5c4           0x10          16   
.text.DRV_PIC32CGMAC_Li    0x1e5d4           0x10          16   
.text._Shell_ObjectLock    0x1e5e4           0x10          16   
.text.TCPIP_Notificatio    0x1e5f4           0x10          16   
.text.NVMCTRL_Initializ    0x1e604           0x10          16   
.text.SDHC1_CommandErro    0x1e614           0x10          16   
.text.SDHC1_DataErrorGe    0x1e624           0x10          16   
.text.SDHC1_CallbackReg    0x1e634           0x10          16   
.text.Console_UART_Stat    0x1e644           0x10          16   
.text.st_dword             0x1e654           0x10          16   
.rodata.LfnOfs             0x1e664           0x10          16   
.rodata.cst.9147           0x1e674           0x10          16   
.rodata.cst32.9148         0x1e684           0x10          16   
.rodata.defopt.9149        0x1e694           0x10          16   
.text.disk_initialize      0x1e6a4           0x10          16   
.text.sy_time_h2_adapte    0x1e6b4           0x10          16   
.rodata.tcpipIPv4InitDa    0x1e6c4           0x10          16   
.text.memset               0x1e6d4           0x10          16   
.text.strlen               0x1e6e4           0x10          16   
.rodata                    0x1e6f4           0x20          32  Read-only const 
.text.DRV_PIC32CGMAC_Li    0x1e714            0xe          14   
.text.Shell_FileWrite      0x1e722            0xe          14   
.text.Shell_FileRead       0x1e730            0xe          14   
.text.Shell_FileSeek       0x1e73e            0xe          14   
.text.TCPIP_Helper_Chec    0x1e74c            0xe          14   
.text.TCPIP_STACK_NetIx    0x1e75a            0xe          14   
.text._TCPIPStackSignal    0x1e768            0xe          14   
.text.FATFS_eof            0x1e776            0xe          14   
.text.main                 0x1e784            0xe          14   
.text.tolower              0x1e792            0xe          14   
.text.toupper              0x1e7a0            0xe          14   
.rodata._DRV_PHY_LinkSt    0x1e7b0            0xc          12   
.rodata._DRV_PHY_NegRes    0x1e7bc            0xc          12   
.rodata._DRV_PHY_ResetP    0x1e7c8            0xc          12   
.text._DRV_GMAC_GetTxOc    0x1e7d4            0xc          12   
.text._DRV_GMAC_GetTxOc    0x1e7e0            0xc          12   
.text._DRV_GMAC_GetTxFr    0x1e7ec            0xc          12   
.text._DRV_GMAC_GetTxBC    0x1e7f8            0xc          12   
.text._DRV_GMAC_GetTxMC    0x1e804            0xc          12   
.text._DRV_GMAC_GetTxPa    0x1e810            0xc          12   
.text._DRV_GMAC_GetTx64    0x1e81c            0xc          12   
.text._DRV_GMAC_GetTx12    0x1e828            0xc          12   
.text._DRV_GMAC_GetTx25    0x1e834            0xc          12   
.text._DRV_GMAC_GetTx51    0x1e840            0xc          12   
.text._DRV_GMAC_GetTx10    0x1e84c            0xc          12   
.text._DRV_GMAC_GetTx15    0x1e858            0xc          12   
.text._DRV_GMAC_GetTxGT    0x1e864            0xc          12   
.text._DRV_GMAC_GetTxUn    0x1e870            0xc          12   
.text._DRV_GMAC_GetTxSi    0x1e87c            0xc          12   
.text._DRV_GMAC_GetTxMu    0x1e888            0xc          12   
.text._DRV_GMAC_GetTxEx    0x1e894            0xc          12   
.text._DRV_GMAC_GetTxLa    0x1e8a0            0xc          12   
.text._DRV_GMAC_GetTxDe    0x1e8ac            0xc          12   
.text._DRV_GMAC_GetTxCS    0x1e8b8            0xc          12   
.text._DRV_GMAC_GetRxOc    0x1e8c4            0xc          12   
.text._DRV_GMAC_GetRxOc    0x1e8d0            0xc          12   
.text._DRV_GMAC_GetRxFr    0x1e8dc            0xc          12   
.text._DRV_GMAC_GetRxBC    0x1e8e8            0xc          12   
.text._DRV_GMAC_GetRxMC    0x1e8f4            0xc          12   
.text._DRV_GMAC_GetRxPa    0x1e900            0xc          12   
.text._DRV_GMAC_GetRx64    0x1e90c            0xc          12   
.text._DRV_GMAC_GetRx12    0x1e918            0xc          12   
.text._DRV_GMAC_GetRx25    0x1e924            0xc          12   
.text._DRV_GMAC_GetRx51    0x1e930            0xc          12   
.text._DRV_GMAC_GetRx10    0x1e93c            0xc          12   
.text._DRV_GMAC_GetRx15    0x1e948            0xc          12   
.text._DRV_GMAC_GetRxGT    0x1e954            0xc          12   
.text._DRV_GMAC_GetRxUn    0x1e960            0xc          12   
.text._DRV_GMAC_GetRxOv    0x1e96c            0xc          12   
.text._DRV_GMAC_GetRxJa    0x1e978            0xc          12   
.text._DRV_GMAC_GetRxFC    0x1e984            0xc          12   
.text._DRV_GMAC_GetRxLF    0x1e990            0xc          12   
.text._DRV_GMAC_GetRxSy    0x1e99c            0xc          12   
.text._DRV_GMAC_GetRxAl    0x1e9a8            0xc          12   
.text._DRV_GMAC_GetRxRe    0x1e9b4            0xc          12   
.text._DRV_GMAC_GetRxOv    0x1e9c0            0xc          12   
.text._DRV_GMAC_GetRxIP    0x1e9cc            0xc          12   
.text._DRV_GMAC_GetRxTC    0x1e9d8            0xc          12   
.text._DRV_GMAC_GetRxUD    0x1e9e4            0xc          12   
.text.DRV_PIC32CGMAC_Li    0x1e9f0            0xc          12   
.text.DRV_PIC32CGMAC_Li    0x1e9fc            0xc          12   
.text.DRV_PIC32CGMAC_Li    0x1ea08            0xc          12   
.text.TCPIP_ARP_HashKey    0x1ea14            0xc          12   
.text.TCPIP_IPV4_Packet    0x1ea20            0xc          12   
.text._TCPIP_HEAP_Size     0x1ea2c            0xc          12   
.text._TCPIP_HEAP_HighW    0x1ea38            0xc          12   
.text.TCPIP_DNS_OAHASH_    0x1ea44            0xc          12   
.text.TCPIP_STACK_NetDe    0x1ea50            0xc          12   
.text.TCPIP_STACK_Numbe    0x1ea5c            0xc          12   
.rodata.TCPIP_STACK_IF_    0x1ea68            0xc          12   
.text.TCPIP_PKT_Deiniti    0x1ea74            0xc          12   
.text.SDHC1_IsCmdLineBu    0x1ea80            0xc          12   
.text.SDHC1_IsDatLineBu    0x1ea8c            0xc          12   
.text.SDHC1_IsCardAttac    0x1ea98            0xc          12   
.text.TC0_TimerCallback    0x1eaa4            0xc          12   
.text.SYS_DEBUG_Console    0x1eab0            0xc          12   
.text.SYS_DEBUG_ErrorLe    0x1eabc            0xc          12   
.text.SYS_FS_Error         0x1eac8            0xc          12   
.text.SYS_FS_MEDIA_MANA    0x1ead4            0xc          12   
.text.FATFS_error          0x1eae0            0xc          12   
.text.SYS_TIME_Frequenc    0x1eaec            0xc          12   
.rodata.sysConsole0Init    0x1eaf8            0xc          12   
.text.APP_Initialize       0x1eb04            0xc          12   
.text._FieldSetUserStar    0x1eb10            0xc          12   
.text.vsprintf             0x1eb1c            0xc          12   
.text.strcpy               0x1eb28            0xc          12   
.text.strncpy              0x1eb34            0xc          12   
.text._DRV_ETHPHY_NegRe    0x1eb40            0xa          10   
.text.Shell_DirClose       0x1eb4a            0xa          10   
.text.Shell_FileEof        0x1eb54            0xa          10   
.text.Shell_FileTell       0x1eb5e            0xa          10   
.text.Shell_FileSize       0x1eb68            0xa          10   
.text.Shell_FileClose      0x1eb72            0xa          10   
.text.TCPIP_Helper_Sing    0x1eb7c            0xa          10   
.text.TCPIP_STACK_NetNa    0x1eb86            0xa          10   
.text.FATFS_read           0x1eb90            0xa          10   
.text.FATFS_lseek          0x1eb9a            0xa          10   
.text.FATFS_gets           0x1eba4            0xa          10   
.text.FATFS_write          0x1ebae            0xa          10   
.text.FATFS_truncate       0x1ebb8            0xa          10   
.text.FATFS_sync           0x1ebc2            0xa          10   
.text.FATFS_putc           0x1ebcc            0xa          10   
.text.FATFS_puts           0x1ebd6            0xa          10   
.text.FATFS_printf         0x1ebe0            0xa          10   
.text.TCPIP_UDP_ServerO    0x1ebea            0xa          10   
.text.TCPIP_UDP_ClientO    0x1ebf4            0xa          10   
.text.TCPIP_UDP_Get        0x1ebfe            0xa          10   
.text.DRV_EXTPHY_SMIClo    0x1ec08            0x8           8   
.rodata                    0x1ec10            0x8           8  Read-only const 
.text.TCPIP_HEAP_Malloc    0x1ec18            0x8           8   
.text.TCPIP_HEAP_Calloc    0x1ec20            0x8           8   
.text.TCPIP_HEAP_FreeOu    0x1ec28            0x8           8   
.text.TCPIP_Notificatio    0x1ec30            0x8           8   
.text.SDHC1_BlockCountS    0x1ec38            0x8           8   
.text.SERCOM1_USART_Wri    0x1ec40            0x8           8   
.text.TC0_TimerFrequenc    0x1ec48            0x8           8   
.text.SYS_FS_Tasks         0x1ec50            0x8           8   
.rodata                    0x1ec58            0x8           8  Read-only const 
.rodata.gPartitionTypeO    0x1ec60            0x8           8   
.text.FATFS_getlabel       0x1ec68            0x8           8   
.text.FATFS_getcwd         0x1ec70            0x8           8   
.text.FATFS_chdir          0x1ec78            0x8           8   
.text.FATFS_mkdir          0x1ec80            0x8           8   
.text.FATFS_unlink         0x1ec88            0x8           8   
.text.FATFS_setlabel       0x1ec90            0x8           8   
.text.FATFS_chmod          0x1ec98            0x8           8   
.text.FATFS_utime          0x1eca0            0x8           8   
.text.FATFS_rename         0x1eca8            0x8           8   
.text.FATFS_fdisk          0x1ecb0            0x8           8   
.text.SYS_INT_Disable      0x1ecb8            0x8           8   
.text.SYS_INT_Restore      0x1ecc0            0x8           8   
.rodata.drvMiimInitData    0x1ecc8            0x8           8   
.rodata.netPresInitData    0x1ecd0            0x8           8   
.rodata.sysFSInit          0x1ecd8            0x8           8   
.rodata.sysTimeInitData    0x1ece0            0x8           8   
.rodata.tcpipTCPInitDat    0x1ece8            0x8           8   
.rodata.tcpipUDPInitDat    0x1ecf0            0x8           8   
.text.TCPIP_UDP_TxPutIs    0x1ecf8            0x8           8   
.text.__aeabi_dsub         0x1ed00            0x8           8   
.rodata                    0x1ed08            0x7           7  Read-only const 
.text._DRV_SDMMC_TimerC    0x1ed10            0x6           6   
.text.TCPIP_ARP_HashKey    0x1ed16            0x6           6   
.text.TCPIP_STACK_NetBI    0x1ed1c            0x6           6   
.text.TCPIP_PKT_GapDcpt    0x1ed22            0x6           6   
.text.CRYPT_WCCB_Callba    0x1ed28            0x6           6   
.text.DRV_GMAC_PowerMod    0x1ed2e            0x4           4   
.text.DRV_PIC32CGMAC_Li    0x1ed32            0x4           4   
.text.DRV_PIC32CGMAC_Li    0x1ed36            0x4           4   
.text.TCPIP_IPV4_IsFrag    0x1ed3a            0x4           4   
.text.TCPIP_PKT_GapDcpt    0x1ed3e            0x4           4   
.text.Console_UART_Flus    0x1ed42            0x4           4   
.text.disk_status          0x1ed46            0x4           4   
.text.FATFS_tell           0x1ed4a            0x4           4   
.text.FATFS_size           0x1ed4e            0x4           4   
.rodata.debugInit          0x1ed54            0x4           4   
.rodata.sysConsole0UART    0x1ed58            0x4           4   
.rodata.tcpipBerkeleyIn    0x1ed5c            0x4           4   
.text.Dummy_Handler        0x1ed60            0x4           4   
.text.NonMaskableInt_Ha    0x1ed64            0x4           4   
.text.HardFault_Handler    0x1ed68            0x4           4   
.text.DebugMonitor_Hand    0x1ed6c            0x4           4   
.text.MemoryManagement_    0x1ed70            0x4           4   
.text.BusFault_Handler     0x1ed74            0x4           4   
.text.UsageFault_Handle    0x1ed78            0x4           4   
.text._FieldSetNone        0x1ed7c            0x4           4   
.text                      0x1ed80            0x4           4  App's exec code 
      Total ROM used  :     0x1ed53      126291  12.0% of 0x100000
        --------------------------------------------------------------------------
         Total Program Memory used  :     0x1ed53      126291  12.0% of 0x100000
        --------------------------------------------------------------------------


RAM Data-Memory Usage
section                    address  length [bytes]      (dec)  Description
-------                 ----------  -------------------------  -----------
.bss.gSYSFSMediaBlockBu 0x20000000          0x800        2048   
.bss.gDrvSDMMCObj       0x20000800          0x310         784   
.bss.TCPIP_STACK_MODULE 0x20000b10          0x270         624   
.bss.FATFSVolume        0x20000d80          0x250         592   
.bss.FATFSFileObject    0x20000fd0          0x240         576   
.bss.sNetPresData       0x20001210          0x234         564   
.bss._hEventMac         0x20001444            0x4           4   
.bss                    0x20001448          0x20c         524  Uninitialized data 
.bss.LfnBuf             0x20001654          0x200         512   
.bss.sysfsMountTable    0x20001854            0xc          12   
.bss.gSYSFSMediaBuffer  0x20001860          0x200         512   
.bss.sNetPresSockets    0x20001a60          0x168         360   
.bss.fileNameList.14315 0x20001bc8          0x14c         332   
.bss.fileNameList.14410 0x20001d14          0x12e         302   
.bss.tcpDefRxSize       0x20001e42            0x2           2   
.bss.appData            0x20001e44            0xa          10   
.bss.tcpDefTxSize       0x20001e4e            0x2           2   
.bss.gSYSFSFileObj      0x20001e50          0x110         272   
.data._gmac_drv_dcpt    0x20001f60           0xf8         248   
.bss.consolePrintBuffer 0x20002058           0xc8         200   
.bss.timers             0x20002120           0xa0         160   
.bss.gDrvMIIMObj        0x200021c0           0x94         148   
.bss.TCPIP_MODULES_QUEU 0x20002254           0x90         144   
.bss.drvGmacQueEvents   0x200022e4            0x4           4   
.bss.gmac_dcpt_array    0x200022e8           0x80         128   
.bss.SERCOM1_USART_Read 0x20002368           0x80         128   
.bss.SERCOM1_USART_Writ 0x200023e8           0x80         128   
.bss.gPhyDrvInst        0x20002468           0x68         104   
.bss.gCryptoDev         0x200024d0           0x60          96   
.bss                    0x20002530           0x50          80  Uninitialized data 
.bss.arpMod             0x20002580           0x48          72   
.bss.drvSDMMC0BufferObj 0x200025c8           0x48          72   
.bss.sercom1USARTObj    0x20002610           0x40          64   
.bss.gSystemCounterObj  0x20002650           0x40          64   
.bss.FATFSDirObject     0x20002690           0x38          56   
.bss.gDnsDcpt           0x200026c8           0x28          40   
.data.tcpSecurePortTbl  0x200026f0           0x28          40   
.bss.gSYSFSMediaObject  0x20002718           0x28          40   
.bss.announceDcpt       0x20002740           0x20          32   
.bss                    0x20002760           0x1c          28  Uninitialized data 
.bss.tcpip_stack_ctrl_d 0x2000277c           0x1c          28   
.bss.gSYSFSVolumeObject 0x20002798           0x1c          28   
.bss.sysObj             0x200027b4           0x1c          28   
.bss.tcpip_init_data    0x200027d0           0x18          24   
.data.gSYSFSMediaManage 0x200027e8           0x18          24   
.data.gSYSFSVolumeName  0x20002800           0x14          20   
.data.tcpipHeapConfig   0x20002814           0x14          20   
.bss.ipv4ArpQueue       0x20002828           0x10          16   
.bss.ipv4PacketFilters  0x20002838           0x10          16   
.bss.tcpip_heap_config  0x20002848           0x10          16   
.bss.DirectoryFileList  0x20002858           0x10          16   
.bss.TC0_CallbackObject 0x20002868            0x8           8   
.bss.sdhc1DmaDescrTable 0x20002870           0x10          16   
.bss.Files              0x20002880           0x10          16   
.bss.gSYSFSDirObj       0x20002890           0x10          16   
.bss.gSYSFSMountPoint   0x200028a0           0x10          16   
.bss.drvSDMMC0ClientObj 0x200028b0           0x10          16   
.bss.gSysFsDiskData     0x200028c0            0x8           8   
.data.TCPIP_FTP_CMD_NLS 0x200028c8            0xf          15   
.data.queueIndex.10328  0x200028d7            0x1           1   
.bss.ipv4ArpPool        0x200028d8            0xc          12   
.bss.sdhc1Obj           0x200028e4            0xc          12   
.bss.consoleDeviceInsta 0x200028f0            0xc          12   
.bss.ftpConfigData      0x200028fc            0xa          10   
.bss.ipv4Identifier     0x20002906            0x2           2   
.bss.gConsoleUartData   0x20002908            0x8           8   
.bss.gSYSFSCurrentMount 0x20002910            0x8           8   
.bss.gSYSFSObj          0x20002918            0x8           8   
.data.arpBcastAdd       0x20002920            0x6           6   
.bss.ipv4InitCount      0x20002926            0x2           2   
.bss.TCBStubs           0x20002928            0x4           4   
.bss.TcpSockets         0x2000292c            0x4           4   
.bss.tcpHeapH           0x20002930            0x4           4   
.bss.tcpInitCount       0x20002934            0x4           4   
.bss.tcpLockCount       0x20002938            0x4           4   
.bss.tcpSignalHandle    0x2000293c            0x4           4   
.bss.ipv4ActFilterCount 0x20002940            0x4           4   
.bss.ipv4ArpEntries     0x20002944            0x4           4   
.bss.ipv4ArpHandle      0x20002948            0x4           4   
.bss.ipv4MemH           0x2000294c            0x4           4   
.bss.signalHandle       0x20002950            0x4           4   
.bss.dnsInitCount       0x20002954            0x4           4   
.bss.pgDnsDcpt          0x20002958            0x4           4   
.bss.newTcpipErrorEvent 0x2000295c            0x4           4   
.bss.newTcpipStackEvent 0x20002960            0x4           4   
.bss.newTcpipTickAvlbl  0x20002964            0x4           4   
.bss.stackAsyncSignalCo 0x20002968            0x4           4   
.bss.stackTaskRate      0x2000296c            0x4           4   
.bss.tcpipDefIf         0x20002970            0x4           4   
.bss.tcpipNetIf         0x20002974            0x4           4   
.bss.tcpip_stack_init_c 0x20002978            0x4           4   
.bss.totTcpipEventsCnt  0x2000297c            0x4           4   
.data.tcpip_stack_tickH 0x20002980            0x4           4   
.bss.pktMemH            0x20002984            0x4           4   
.bss.FTPAuthHParam      0x20002988            0x4           4   
.bss.FTPAuthHandler     0x2000298c            0x4           4   
.bss.ftpsSignalHandle   0x20002990            0x4           4   
.bss.sTCPIPFTPDcpt      0x20002994            0x4           4   
.bss.sTCPIPFTPServerCou 0x20002998            0x4           4   
.bss.sTCPIPFtpMemH      0x2000299c            0x4           4   
.bss.icmpInitCount      0x200029a0            0x4           4   
.bss.signalHandle       0x200029a4            0x4           4   
.bss.sysDebugInstance   0x200029a8            0x4           4   
.bss.FatFs              0x200029ac            0x4           4   
.bss.gTickConv          0x200029b0            0x4           4   
.bss.systemAdaptObj     0x200029b4            0x4           4   
.bss.tcpipAnnounceInitD 0x200029b8            0x4           4   
.bss.BSDSocketArray     0x200029bc            0x4           4   
.bss.InitCount          0x200029c0            0x4           4   
.bss.bsdApiHeapH        0x200029c4            0x4           4   
.bss.bsdSignalHandle    0x200029c8            0x4           4   
.bss.announceInitCount  0x200029cc            0x4           4   
.bss.UDPSocketDcpt      0x200029d0            0x4           4   
.bss.nUdpSockets        0x200029d4            0x4           4   
.bss.signalHandle       0x200029d8            0x4           4   
.bss.udpInitCount       0x200029dc            0x4           4   
.bss.udpMemH            0x200029e0            0x4           4   
.bss                    0x200029e4           0x14          20  Uninitialized data 
.bss.VolToPart          0x200029f8            0x2           2   
.bss.remainingBytes.143 0x200029fa            0x2           2   
.data.drvGmacIRQ        0x200029fc            0x2           2   
.bss.remainingBytes.144 0x200029fe            0x2           2   
.bss.Fsid               0x20002a00            0x2           2   
.data.gSysTimeTokenCoun 0x20002a02            0x2           2   
.bss.udpDefTxSize       0x20002a04            0x2           2   
.data.cardAttached.9384 0x20002a06            0x1           1   
.bss.tcpSemaphore       0x20002a07            0x1           1   
.bss.ipv4FilterType     0x20002a08            0x1           1   
.bss.tcpip_stack_status 0x20002a09            0x1           1   
.bss.cmdWithArg.14419   0x20002a0a            0x1           1   
.data.gFTPNLSTArgIndex  0x20002a0b            0x1           1   
.bss.consolePrintBuffer 0x20002a0c            0x1           1   
.bss.isConsoleMutexCrea 0x20002a0d            0x1           1   
.bss.gblErrLvl          0x20002a0e            0x1           1   
.bss.CurrVol            0x20002a0f            0x1           1   
.bss.errorValue         0x20002a10            0x1           1   
.bss.gSysFsMutex        0x20002a11            0x1           1   
.bss.startupflag        0x20002a12            0x1           1   
.bss.bsdSemaphore       0x20002a13            0x1           1   
.data.BSD_SOCKET_COUNT  0x20002a14            0x1           1   
.bss.userSem            0x20002a15            0x1           1   
         Total RAM used  :      0x2a16       10774  4.1% of 0x40000
        --------------------------------------------------------------------------
            Total Data Memory used  :      0x2a16       10774  4.1% of 0x40000
        --------------------------------------------------------------------------


Dynamic Data-Memory Reservation
section                    address  length [bytes]      (dec)  Description
-------                 ----------  -------------------------  -----------
heap                    0x20002a18        0x186a0      100000  Reserved for heap 
stack                   0x2001b0d0        0x24f20      151328  Reserved for stack 

        --------------------------------------------------------------------------

Discarded input sections

 .text          0x00000000        0x0 c:/program files/microchip/xc32/v4.00/bin/bin/../../lib/gcc/pic32c/8.3.1/thumb/v7e-m+fp/hard/crti.o
 .data          0x00000000        0x0 c:/program files/microchip/xc32/v4.00/bin/bin/../../lib/gcc/pic32c/8.3.1/thumb/v7e-m+fp/hard/crti.o
 .bss           0x00000000        0x0 c:/program files/microchip/xc32/v4.00/bin/bin/../../lib/gcc/pic32c/8.3.1/thumb/v7e-m+fp/hard/crti.o
 .xc_stack_usage.hdr
                0x00000000        0xe c:/program files/microchip/xc32/v4.00/bin/bin/../../lib/gcc/pic32c/8.3.1/thumb/v7e-m+fp/hard/crti.o
 .xc_stack_usage
                0x00000000       0x26 c:/program files/microchip/xc32/v4.00/bin/bin/../../lib/gcc/pic32c/8.3.1/thumb/v7e-m+fp/hard/crti.o
 .data          0x00000000        0x4 c:/program files/microchip/xc32/v4.00/bin/bin/../../lib/gcc/pic32c/8.3.1/thumb/v7e-m+fp/hard/crtbegin.o
 .xc_stack_usage
                0x00000000       0x3c c:/program files/microchip/xc32/v4.00/bin/bin/../../lib/gcc/pic32c/8.3.1/thumb/v7e-m+fp/hard/crtbegin.o
 .xc_stack_usage.hdr
                0x00000000        0xe c:/program files/microchip/xc32/v4.00/bin/bin/../../lib/gcc/pic32c/8.3.1/thumb/v7e-m+fp/hard/crtbegin.o
 .text          0x00000000        0x0 build/default/debug/_ext/1645245335/crypto.o
 .data          0x00000000        0x0 build/default/debug/_ext/1645245335/crypto.o
 .bss           0x00000000        0x0 build/default/debug/_ext/1645245335/crypto.o
 .text.CRYPT_MD5_Initialize
                0x00000000       0x12 build/default/debug/_ext/1645245335/crypto.o
 .text.CRYPT_MD5_DataSizeSet
                0x00000000        0xc build/default/debug/_ext/1645245335/crypto.o
 .text.CRYPT_MD5_DataAdd
                0x00000000       0x18 build/default/debug/_ext/1645245335/crypto.o
 .text.CRYPT_MD5_Finalize
                0x00000000       0x18 build/default/debug/_ext/1645245335/crypto.o
 .text.CRYPT_SHA_Initialize
                0x00000000       0x10 build/default/debug/_ext/1645245335/crypto.o
 .text.CRYPT_SHA_DataSizeSet
                0x00000000        0xc build/default/debug/_ext/1645245335/crypto.o
 .text.CRYPT_SHA_DataAdd
                0x00000000       0x18 build/default/debug/_ext/1645245335/crypto.o
 .text.CRYPT_SHA_Finalize
                0x00000000       0x18 build/default/debug/_ext/1645245335/crypto.o
 .text.CRYPT_SHA256_Initialize
                0x00000000       0x10 build/default/debug/_ext/1645245335/crypto.o
 .text.CRYPT_SHA256_DataSizeSet
                0x00000000        0xc build/default/debug/_ext/1645245335/crypto.o
 .text.CRYPT_SHA256_DataAdd
                0x00000000       0x18 build/default/debug/_ext/1645245335/crypto.o
 .text.CRYPT_SHA256_Finalize
                0x00000000       0x18 build/default/debug/_ext/1645245335/crypto.o
 .text.CRYPT_SHA224_Initialize
                0x00000000       0x10 build/default/debug/_ext/1645245335/crypto.o
 .text.CRYPT_SHA224_DataAdd
                0x00000000       0x18 build/default/debug/_ext/1645245335/crypto.o
 .text.CRYPT_SHA224_Finalize
                0x00000000       0x18 build/default/debug/_ext/1645245335/crypto.o
 .text.CRYPT_HMAC_SetKey
                0x00000000       0x48 build/default/debug/_ext/1645245335/crypto.o
 .text.CRYPT_HMAC_DataAdd
                0x00000000       0x18 build/default/debug/_ext/1645245335/crypto.o
 .text.CRYPT_HMAC_Finalize
                0x00000000       0x18 build/default/debug/_ext/1645245335/crypto.o
 .text.CRYPT_RNG_Initialize
                0x00000000       0x10 build/default/debug/_ext/1645245335/crypto.o
 .text.CRYPT_RNG_Deinitialize
                0x00000000       0x12 build/default/debug/_ext/1645245335/crypto.o
 .text.CRYPT_RNG_Get
                0x00000000       0x18 build/default/debug/_ext/1645245335/crypto.o
 .text.CRYPT_RNG_BlockGenerate
                0x00000000       0x18 build/default/debug/_ext/1645245335/crypto.o
 .text.CRYPT_TDES_KeySet
                0x00000000       0x18 build/default/debug/_ext/1645245335/crypto.o
 .text.CRYPT_TDES_IvSet
                0x00000000       0x18 build/default/debug/_ext/1645245335/crypto.o
 .text.CRYPT_TDES_CBC_Encrypt
                0x00000000       0x20 build/default/debug/_ext/1645245335/crypto.o
 .text.CRYPT_TDES_CBC_Decrypt
                0x00000000       0x20 build/default/debug/_ext/1645245335/crypto.o
 .text.CRYPT_AES_KeySet
                0x00000000       0x20 build/default/debug/_ext/1645245335/crypto.o
 .text.CRYPT_AES_IvSet
                0x00000000       0x18 build/default/debug/_ext/1645245335/crypto.o
 .text.CRYPT_AES_CBC_Encrypt
                0x00000000       0x20 build/default/debug/_ext/1645245335/crypto.o
 .text.CRYPT_AES_CBC_Decrypt
                0x00000000       0x20 build/default/debug/_ext/1645245335/crypto.o
 .text.CRYPT_AES_CTR_Encrypt
                0x00000000       0x20 build/default/debug/_ext/1645245335/crypto.o
 .text.CRYPT_AES_GCM_SetKey
                0x00000000       0x18 build/default/debug/_ext/1645245335/crypto.o
 .text.CRYPT_AES_GCM_Encrypt
                0x00000000       0x34 build/default/debug/_ext/1645245335/crypto.o
 .text.CRYPT_AES_GCM_Decrypt
                0x00000000       0x2c build/default/debug/_ext/1645245335/crypto.o
 .text.CRYPT_AES_DIRECT_Encrypt
                0x00000000       0x12 build/default/debug/_ext/1645245335/crypto.o
 .text.CRYPT_AES_DIRECT_Decrypt
                0x00000000       0x22 build/default/debug/_ext/1645245335/crypto.o
 .text.CRYPT_RSA_Initialize
                0x00000000       0x28 build/default/debug/_ext/1645245335/crypto.o
 .text.CRYPT_RSA_Free
                0x00000000       0x20 build/default/debug/_ext/1645245335/crypto.o
 .text.CRYPT_RSA_PublicKeyDecode
                0x00000000       0x2a build/default/debug/_ext/1645245335/crypto.o
 .text.CRYPT_RSA_PrivateKeyDecode
                0x00000000       0x2a build/default/debug/_ext/1645245335/crypto.o
 .text.CRYPT_RSA_PublicEncrypt
                0x00000000       0x3e build/default/debug/_ext/1645245335/crypto.o
 .text.CRYPT_RSA_PrivateDecrypt
                0x00000000       0x32 build/default/debug/_ext/1645245335/crypto.o
 .text.CRYPT_RSA_EncryptSizeGet
                0x00000000       0x12 build/default/debug/_ext/1645245335/crypto.o
 .text.CRYPT_ECC_Initialize
                0x00000000       0x24 build/default/debug/_ext/1645245335/crypto.o
 .text.CRYPT_ECC_Free
                0x00000000       0x20 build/default/debug/_ext/1645245335/crypto.o
 .text.CRYPT_ECC_PublicExport
                0x00000000       0x28 build/default/debug/_ext/1645245335/crypto.o
 .text.CRYPT_ECC_PublicImport
                0x00000000       0x22 build/default/debug/_ext/1645245335/crypto.o
 .text.CRYPT_ECC_PrivateImport
                0x00000000       0x36 build/default/debug/_ext/1645245335/crypto.o
 .text.CRYPT_ECC_DHE_KeyMake
                0x00000000       0x22 build/default/debug/_ext/1645245335/crypto.o
 .text.CRYPT_ECC_DHE_SharedSecretMake
                0x00000000       0x3a build/default/debug/_ext/1645245335/crypto.o
 .text.CRYPT_ECC_DSA_HashSign
                0x00000000       0x4a build/default/debug/_ext/1645245335/crypto.o
 .text.CRYPT_ECC_DSA_HashVerify
                0x00000000       0x42 build/default/debug/_ext/1645245335/crypto.o
 .text.CRYPT_ECC_KeySizeGet
                0x00000000       0x12 build/default/debug/_ext/1645245335/crypto.o
 .text.CRYPT_ECC_SignatureSizeGet
                0x00000000       0x12 build/default/debug/_ext/1645245335/crypto.o
 .text.CRYPT_ERROR_StringGet
                0x00000000       0x1c build/default/debug/_ext/1645245335/crypto.o
 .rodata        0x00000000       0x28 build/default/debug/_ext/1645245335/crypto.o
 .debug_info    0x00000000     0x406f build/default/debug/_ext/1645245335/crypto.o
 .debug_abbrev  0x00000000      0x3ba build/default/debug/_ext/1645245335/crypto.o
 .debug_loc     0x00000000     0x334c build/default/debug/_ext/1645245335/crypto.o
 .debug_aranges
                0x00000000      0x1d0 build/default/debug/_ext/1645245335/crypto.o
 .debug_ranges  0x00000000      0x1c0 build/default/debug/_ext/1645245335/crypto.o
 .debug_line    0x00000000      0xd7e build/default/debug/_ext/1645245335/crypto.o
 .debug_str     0x00000000      0x448 build/default/debug/_ext/1645245335/crypto.o
 .comment       0x00000000       0x54 build/default/debug/_ext/1645245335/crypto.o
 .debug_frame   0x00000000      0x5f8 build/default/debug/_ext/1645245335/crypto.o
 .ARM.attributes
                0x00000000       0x34 build/default/debug/_ext/1645245335/crypto.o
 .text          0x00000000        0x0 build/default/debug/_ext/444070925/drv_ethphy.o
 .data          0x00000000        0x0 build/default/debug/_ext/444070925/drv_ethphy.o
 .bss           0x00000000        0x0 build/default/debug/_ext/444070925/drv_ethphy.o
 .text          0x00000000        0x0 build/default/debug/_ext/444070925/drv_extphy_ksz8061.o
 .data          0x00000000        0x0 build/default/debug/_ext/444070925/drv_extphy_ksz8061.o
 .bss           0x00000000        0x0 build/default/debug/_ext/444070925/drv_extphy_ksz8061.o
 .text          0x00000000        0x0 build/default/debug/_ext/1546807373/drv_gmac.o
 .data          0x00000000        0x0 build/default/debug/_ext/1546807373/drv_gmac.o
 .bss           0x00000000        0x0 build/default/debug/_ext/1546807373/drv_gmac.o
 .text          0x00000000        0x0 build/default/debug/_ext/1546807373/drv_gmac_lib_samE5x.o
 .data          0x00000000        0x0 build/default/debug/_ext/1546807373/drv_gmac_lib_samE5x.o
 .bss           0x00000000        0x0 build/default/debug/_ext/1546807373/drv_gmac_lib_samE5x.o
 .text          0x00000000        0x0 build/default/debug/_ext/438849557/drv_miim.o
 .data          0x00000000        0x0 build/default/debug/_ext/438849557/drv_miim.o
 .bss           0x00000000        0x0 build/default/debug/_ext/438849557/drv_miim.o
 .text.Helper_SingleListInitialize
                0x00000000        0xa build/default/debug/_ext/438849557/drv_miim.o
 .text          0x00000000        0x0 build/default/debug/_ext/20954303/drv_sdmmc_file_system.o
 .data          0x00000000        0x0 build/default/debug/_ext/20954303/drv_sdmmc_file_system.o
 .bss           0x00000000        0x0 build/default/debug/_ext/20954303/drv_sdmmc_file_system.o
 .text          0x00000000        0x0 build/default/debug/_ext/20954303/drv_sdmmc.o
 .data          0x00000000        0x0 build/default/debug/_ext/20954303/drv_sdmmc.o
 .bss           0x00000000        0x0 build/default/debug/_ext/20954303/drv_sdmmc.o
 .text.DRV_SDMMC_RegisterWithSysFs
                0x00000000        0x2 build/default/debug/_ext/20954303/drv_sdmmc.o
 .text.DRV_SDMMC_Status
                0x00000000       0x14 build/default/debug/_ext/20954303/drv_sdmmc.o
 .text.DRV_SDMMC_IsWriteProtected
                0x00000000       0x38 build/default/debug/_ext/20954303/drv_sdmmc.o
 .text          0x00000000        0x0 build/default/debug/_ext/1751889202/sys_fs_shell.o
 .data          0x00000000        0x0 build/default/debug/_ext/1751889202/sys_fs_shell.o
 .bss           0x00000000        0x0 build/default/debug/_ext/1751889202/sys_fs_shell.o
 .text          0x00000000        0x0 build/default/debug/_ext/1033058136/helpers.o
 .data          0x00000000        0x0 build/default/debug/_ext/1033058136/helpers.o
 .bss           0x00000000        0x0 build/default/debug/_ext/1033058136/helpers.o
 .text.uitoa    0x00000000       0x5c build/default/debug/_ext/1033058136/helpers.o
 .text.btohexa_high
                0x00000000        0xc build/default/debug/_ext/1033058136/helpers.o
 .text.btohexa_low
                0x00000000        0xe build/default/debug/_ext/1033058136/helpers.o
 .text.strncpy_m
                0x00000000       0x6e build/default/debug/_ext/1033058136/helpers.o
 .text.stricmp  0x00000000       0x36 build/default/debug/_ext/1033058136/helpers.o
 .text          0x00000000        0x0 build/default/debug/_ext/1033058136/tcp.o
 .data          0x00000000        0x0 build/default/debug/_ext/1033058136/tcp.o
 .bss           0x00000000        0x0 build/default/debug/_ext/1033058136/tcp.o
 .text.TCPIP_TCP_SocketTraceSet
                0x00000000        0x4 build/default/debug/_ext/1033058136/tcp.o
 .text.TCPIP_TCP_SocketFlagsGet
                0x00000000       0x12 build/default/debug/_ext/1033058136/tcp.o
 .text.TCPIP_TCP_SocketsNumberGet
                0x00000000        0xc build/default/debug/_ext/1033058136/tcp.o
 .text.TCPIP_TCP_Put
                0x00000000       0x18 build/default/debug/_ext/1033058136/tcp.o
 .text.TCPIP_TCP_StringPut
                0x00000000       0x1a build/default/debug/_ext/1033058136/tcp.o
 .text.TCPIP_TCP_FifoTxFreeGet
                0x00000000       0x26 build/default/debug/_ext/1033058136/tcp.o
 .text.TCPIP_TCP_Get
                0x00000000        0xa build/default/debug/_ext/1033058136/tcp.o
 .text.TCPIP_TCP_FifoRxFreeGet
                0x00000000       0x1e build/default/debug/_ext/1033058136/tcp.o
 .text.TCPIP_TCP_Peek
                0x00000000       0x1a build/default/debug/_ext/1033058136/tcp.o
 .text.TCPIP_TCP_ArrayFind
                0x00000000      0x23c build/default/debug/_ext/1033058136/tcp.o
 .text.TCPIP_TCP_Find
                0x00000000       0x22 build/default/debug/_ext/1033058136/tcp.o
 .text.TCPIP_TCP_SocketNetSet
                0x00000000       0x28 build/default/debug/_ext/1033058136/tcp.o
 .text.TCPIP_TCP_SocketNetGet
                0x00000000       0x10 build/default/debug/_ext/1033058136/tcp.o
 .text.TCPIP_TCP_SourceIPAddressSet
                0x00000000       0x32 build/default/debug/_ext/1033058136/tcp.o
 .text.TCPIP_TCP_IsReady
                0x00000000        0x4 build/default/debug/_ext/1033058136/tcp.o
 .text          0x00000000        0x0 build/default/debug/_ext/1033058136/arp.o
 .data          0x00000000        0x0 build/default/debug/_ext/1033058136/arp.o
 .bss           0x00000000        0x0 build/default/debug/_ext/1033058136/arp.o
 .text.TCPIP_ARP_Resolve
                0x00000000       0x46 build/default/debug/_ext/1033058136/arp.o
 .text.TCPIP_ARP_Probe
                0x00000000       0x5c build/default/debug/_ext/1033058136/arp.o
 .text.TCPIP_ARP_EntrySet
                0x00000000       0xe8 build/default/debug/_ext/1033058136/arp.o
 .text.TCPIP_ARP_EntryRemoveNet
                0x00000000       0xf0 build/default/debug/_ext/1033058136/arp.o
 .text.TCPIP_ARP_EntryRemoveAll
                0x00000000       0x84 build/default/debug/_ext/1033058136/arp.o
 .text.TCPIP_ARP_EntryQuery
                0x00000000       0xa8 build/default/debug/_ext/1033058136/arp.o
 .text.TCPIP_ARP_CacheEntriesNoGet
                0x00000000       0x58 build/default/debug/_ext/1033058136/arp.o
 .text.TCPIP_ARP_CacheThresholdSet
                0x00000000       0x54 build/default/debug/_ext/1033058136/arp.o
 .text          0x00000000        0x0 build/default/debug/_ext/1033058136/ipv4.o
 .data          0x00000000        0x0 build/default/debug/_ext/1033058136/ipv4.o
 .bss           0x00000000        0x0 build/default/debug/_ext/1033058136/ipv4.o
 .text.Ipv4DeRegisterCallback
                0x00000000       0x14 build/default/debug/_ext/1033058136/ipv4.o
 .text.TCPIP_IPv4_ArpStatGet
                0x00000000        0x4 build/default/debug/_ext/1033058136/ipv4.o
 .text.TCPIP_IPv4_ForwardStatGet
                0x00000000        0x4 build/default/debug/_ext/1033058136/ipv4.o
 .text.IPv4RegisterFilter
                0x00000000       0x54 build/default/debug/_ext/1033058136/ipv4.o
 .text.Ipv4DeRegisterFilter
                0x00000000       0x28 build/default/debug/_ext/1033058136/ipv4.o
 .text.Ipv4FilterSetActive
                0x00000000       0x60 build/default/debug/_ext/1033058136/ipv4.o
 .text.TCPIP_IPV4_PacketFilterSet
                0x00000000       0x10 build/default/debug/_ext/1033058136/ipv4.o
 .text.TCPIP_IPV4_PacketFilterClear
                0x00000000       0x10 build/default/debug/_ext/1033058136/ipv4.o
 .text.TCPIP_IPV4_MacPacketTransmit
                0x00000000       0x60 build/default/debug/_ext/1033058136/ipv4.o
 .text.TCPIP_IPV4_PacketAlloc
                0x00000000       0x78 build/default/debug/_ext/1033058136/ipv4.o
 .text.TCPIP_IPV4_PacketOptionFieldSet
                0x00000000       0x36 build/default/debug/_ext/1033058136/ipv4.o
 .text.TCPIP_IPV4_PacketOptionListGet
                0x00000000       0x56 build/default/debug/_ext/1033058136/ipv4.o
 .text.TCPIP_IPV4_PacketOptionGet
                0x00000000       0x70 build/default/debug/_ext/1033058136/ipv4.o
 .text          0x00000000        0x0 build/default/debug/_ext/1033058136/tcpip_heap_alloc.o
 .data          0x00000000        0x0 build/default/debug/_ext/1033058136/tcpip_heap_alloc.o
 .bss           0x00000000        0x0 build/default/debug/_ext/1033058136/tcpip_heap_alloc.o
 .text._TCPIP_HEAP_PointerMapCached
                0x00000000        0x2 build/default/debug/_ext/1033058136/tcpip_heap_alloc.o
 .text          0x00000000        0x0 build/default/debug/_ext/1033058136/tcpip_heap_internal.o
 .data          0x00000000        0x0 build/default/debug/_ext/1033058136/tcpip_heap_internal.o
 .bss           0x00000000        0x0 build/default/debug/_ext/1033058136/tcpip_heap_internal.o
 .text          0x00000000        0x0 build/default/debug/_ext/1033058136/dhcp.o
 .data          0x00000000        0x0 build/default/debug/_ext/1033058136/dhcp.o
 .bss           0x00000000        0x0 build/default/debug/_ext/1033058136/dhcp.o
 .text.TCPIP_DHCP_IsEnabled
                0x00000000        0x4 build/default/debug/_ext/1033058136/dhcp.o
 .text.TCPIP_DHCP_IsActive
                0x00000000        0x4 build/default/debug/_ext/1033058136/dhcp.o
 .text.TCPIP_DHCP_Disable
                0x00000000        0x4 build/default/debug/_ext/1033058136/dhcp.o
 .text.TCPIP_DHCP_Enable
                0x00000000        0x4 build/default/debug/_ext/1033058136/dhcp.o
 .text.TCPIP_DHCP_Renew
                0x00000000        0x4 build/default/debug/_ext/1033058136/dhcp.o
 .text.TCPIP_DHCP_Request
                0x00000000        0x4 build/default/debug/_ext/1033058136/dhcp.o
 .text.TCPIP_DHCP_InfoGet
                0x00000000        0x4 build/default/debug/_ext/1033058136/dhcp.o
 .debug_info    0x00000000     0x2598 build/default/debug/_ext/1033058136/dhcp.o
 .debug_abbrev  0x00000000      0x280 build/default/debug/_ext/1033058136/dhcp.o
 .debug_loc     0x00000000      0x103 build/default/debug/_ext/1033058136/dhcp.o
 .debug_aranges
                0x00000000       0x50 build/default/debug/_ext/1033058136/dhcp.o
 .debug_ranges  0x00000000       0x40 build/default/debug/_ext/1033058136/dhcp.o
 .debug_line    0x00000000      0x2e5 build/default/debug/_ext/1033058136/dhcp.o
 .debug_str     0x00000000        0xe build/default/debug/_ext/1033058136/dhcp.o
 .comment       0x00000000       0x54 build/default/debug/_ext/1033058136/dhcp.o
 .debug_frame   0x00000000       0x80 build/default/debug/_ext/1033058136/dhcp.o
 .ARM.attributes
                0x00000000       0x34 build/default/debug/_ext/1033058136/dhcp.o
 .text          0x00000000        0x0 build/default/debug/_ext/1033058136/dns.o
 .data          0x00000000        0x0 build/default/debug/_ext/1033058136/dns.o
 .bss           0x00000000        0x0 build/default/debug/_ext/1033058136/dns.o
 .text._DNS_Resolve
                0x00000000      0x130 build/default/debug/_ext/1033058136/dns.o
 .text._DNS_GetAddresses
                0x00000000       0xec build/default/debug/_ext/1033058136/dns.o
 .text._DNS_IsNameResolved
                0x00000000       0xf0 build/default/debug/_ext/1033058136/dns.o
 .text.TCPIP_DNS_Resolve
                0x00000000        0xa build/default/debug/_ext/1033058136/dns.o
 .text.TCPIP_DNS_Send_Query
                0x00000000        0xa build/default/debug/_ext/1033058136/dns.o
 .text.TCPIP_DNS_GetIPv4Addresses
                0x00000000       0x10 build/default/debug/_ext/1033058136/dns.o
 .text.TCPIP_DNS_GetIPv6Addresses
                0x00000000       0x10 build/default/debug/_ext/1033058136/dns.o
 .text.TCPIP_DNS_GetIPAddressesNumber
                0x00000000       0x60 build/default/debug/_ext/1033058136/dns.o
 .text.TCPIP_DNS_IsResolved
                0x00000000       0x1a build/default/debug/_ext/1033058136/dns.o
 .text.TCPIP_DNS_IsNameResolved
                0x00000000        0xa build/default/debug/_ext/1033058136/dns.o
 .text.TCPIP_DNS_ClientInfoGet
                0x00000000       0x38 build/default/debug/_ext/1033058136/dns.o
 .text.TCPIP_DNS_EntryQuery
                0x00000000      0x154 build/default/debug/_ext/1033058136/dns.o
 .text.TCPIP_DNS_RemoveEntry
                0x00000000       0x40 build/default/debug/_ext/1033058136/dns.o
 .text.TCPIP_DNS_RemoveAll
                0x00000000       0x54 build/default/debug/_ext/1033058136/dns.o
 .text.TCPIP_DNS_IsEnabled
                0x00000000       0x1a build/default/debug/_ext/1033058136/dns.o
 .text.TCPIP_DNS_Enable
                0x00000000        0xc build/default/debug/_ext/1033058136/dns.o
 .text.TCPIP_DNS_Disable
                0x00000000       0x6c build/default/debug/_ext/1033058136/dns.o
 .text          0x00000000        0x0 build/default/debug/_ext/1033058136/hash_fnv.o
 .data          0x00000000        0x0 build/default/debug/_ext/1033058136/hash_fnv.o
 .bss           0x00000000        0x0 build/default/debug/_ext/1033058136/hash_fnv.o
 .text.fnv_32a_hash
                0x00000000       0x30 build/default/debug/_ext/1033058136/hash_fnv.o
 .text          0x00000000        0x0 build/default/debug/_ext/1033058136/oahash.o
 .data          0x00000000        0x0 build/default/debug/_ext/1033058136/oahash.o
 .bss           0x00000000        0x0 build/default/debug/_ext/1033058136/oahash.o
 .text.TCPIP_OAHASH_EntryGetIndex
                0x00000000       0x46 build/default/debug/_ext/1033058136/oahash.o
 .text          0x00000000        0x0 build/default/debug/_ext/1033058136/tcpip_helpers.o
 .data          0x00000000        0x0 build/default/debug/_ext/1033058136/tcpip_helpers.o
 .bss           0x00000000        0x0 build/default/debug/_ext/1033058136/tcpip_helpers.o
 .text.TCPIP_Helper_IPAddressToString
                0x00000000       0x4c build/default/debug/_ext/1033058136/tcpip_helpers.o
 .text.TCPIP_Helper_StringToIPv6Address
                0x00000000      0x32a build/default/debug/_ext/1033058136/tcpip_helpers.o
 .text.TCPIP_Helper_IPv6AddressToString
                0x00000000       0xa2 build/default/debug/_ext/1033058136/tcpip_helpers.o
 .text.TCPIP_Helper_IsPrivateAddress
                0x00000000       0x2c build/default/debug/_ext/1033058136/tcpip_helpers.o
 .text.TCPIP_Helper_MACAddressToString
                0x00000000       0x44 build/default/debug/_ext/1033058136/tcpip_helpers.o
 .text.TCPIP_Helper_PowerModeToString
                0x00000000       0x14 build/default/debug/_ext/1033058136/tcpip_helpers.o
 .text.TCPIP_Helper_Base64Decode
                0x00000000       0xee build/default/debug/_ext/1033058136/tcpip_helpers.o
 .text.TCPIP_Helper_Base64Encode
                0x00000000      0x116 build/default/debug/_ext/1033058136/tcpip_helpers.o
 .text.TCPIP_Helper_FindCommonPrefix
                0x00000000       0x52 build/default/debug/_ext/1033058136/tcpip_helpers.o
 .text.TCPIP_Helper_SingleListHeadAdd
                0x00000000       0x16 build/default/debug/_ext/1033058136/tcpip_helpers.o
 .text.TCPIP_Helper_SingleListMidAdd
                0x00000000        0xe build/default/debug/_ext/1033058136/tcpip_helpers.o
 .text.TCPIP_Helper_SingleListNextRemove
                0x00000000       0x26 build/default/debug/_ext/1033058136/tcpip_helpers.o
 .text.TCPIP_Helper_SingleListFind
                0x00000000       0x20 build/default/debug/_ext/1033058136/tcpip_helpers.o
 .text.TCPIP_Helper_ProtectedSingleListHeadAdd
                0x00000000       0x3a build/default/debug/_ext/1033058136/tcpip_helpers.o
 .text.TCPIP_Helper_ProtectedSingleListMidAdd
                0x00000000       0x40 build/default/debug/_ext/1033058136/tcpip_helpers.o
 .text.TCPIP_Helper_ProtectedSingleListNextRemove
                0x00000000       0x40 build/default/debug/_ext/1033058136/tcpip_helpers.o
 .text.TCPIP_Helper_ProtectedSingleListAppend
                0x00000000       0x3a build/default/debug/_ext/1033058136/tcpip_helpers.o
 .text.TCPIP_Helper_DoubleListInitialize
                0x00000000        0xa build/default/debug/_ext/1033058136/tcpip_helpers.o
 .text.TCPIP_Helper_DoubleListHeadAdd
                0x00000000       0x22 build/default/debug/_ext/1033058136/tcpip_helpers.o
 .text.TCPIP_Helper_DoubleListTailAdd
                0x00000000       0x22 build/default/debug/_ext/1033058136/tcpip_helpers.o
 .text.TCPIP_Helper_DoubleListMidAdd
                0x00000000       0x14 build/default/debug/_ext/1033058136/tcpip_helpers.o
 .text.TCPIP_Helper_DoubleListHeadRemove
                0x00000000       0x24 build/default/debug/_ext/1033058136/tcpip_helpers.o
 .text.TCPIP_Helper_DoubleListTailRemove
                0x00000000       0x24 build/default/debug/_ext/1033058136/tcpip_helpers.o
 .text.TCPIP_Helper_DoubleListMidRemove
                0x00000000       0x12 build/default/debug/_ext/1033058136/tcpip_helpers.o
 .text.TCPIP_Helper_DoubleListNodeRemove
                0x00000000       0x20 build/default/debug/_ext/1033058136/tcpip_helpers.o
 .text.TCPIP_Helper_DoubleListFind
                0x00000000       0x20 build/default/debug/_ext/1033058136/tcpip_helpers.o
 .text.TCPIP_Helper_ProtectedDoubleListInitialize
                0x00000000       0x1e build/default/debug/_ext/1033058136/tcpip_helpers.o
 .text.TCPIP_Helper_ProtectedDoubleListDeinitialize
                0x00000000       0x32 build/default/debug/_ext/1033058136/tcpip_helpers.o
 .text.TCPIP_Helper_ProtectedDoubleListHeadAdd
                0x00000000       0x3a build/default/debug/_ext/1033058136/tcpip_helpers.o
 .text.TCPIP_Helper_ProtectedDoubleListTailAdd
                0x00000000       0x3a build/default/debug/_ext/1033058136/tcpip_helpers.o
 .text.TCPIP_Helper_ProtectedDoubleListMidAdd
                0x00000000       0x3e build/default/debug/_ext/1033058136/tcpip_helpers.o
 .text.TCPIP_Helper_ProtectedDoubleListHeadRemove
                0x00000000       0x3c build/default/debug/_ext/1033058136/tcpip_helpers.o
 .text.TCPIP_Helper_ProtectedDoubleListTailRemove
                0x00000000       0x3c build/default/debug/_ext/1033058136/tcpip_helpers.o
 .text.TCPIP_Helper_ProtectedDoubleListMidRemove
                0x00000000       0x3a build/default/debug/_ext/1033058136/tcpip_helpers.o
 .text.TCPIP_Helper_ProtectedDoubleListNodeRemove
                0x00000000       0x3a build/default/debug/_ext/1033058136/tcpip_helpers.o
 .text.TCPIP_Helper_ProtectedDoubleListRemoveAll
                0x00000000       0x3c build/default/debug/_ext/1033058136/tcpip_helpers.o
 .text.TCPIP_Helper_ProtectedDoubleListLock
                0x00000000       0x22 build/default/debug/_ext/1033058136/tcpip_helpers.o
 .text.TCPIP_Helper_ProtectedDoubleListUnlock
                0x00000000       0x1a build/default/debug/_ext/1033058136/tcpip_helpers.o
 .text.TCPIP_Helper_SecurePortGetByIndex
                0x00000000       0x34 build/default/debug/_ext/1033058136/tcpip_helpers.o
 .text.TCPIP_Helper_SecurePortSet
                0x00000000       0x5e build/default/debug/_ext/1033058136/tcpip_helpers.o
 .text          0x00000000        0x0 build/default/debug/_ext/1033058136/tcpip_manager.o
 .data          0x00000000        0x0 build/default/debug/_ext/1033058136/tcpip_manager.o
 .bss           0x00000000        0x0 build/default/debug/_ext/1033058136/tcpip_manager.o
 .text._NetConfigStringToBuffer
                0x00000000       0x52 build/default/debug/_ext/1033058136/tcpip_manager.o
 .text.TCPIP_STACK_InitializeDataGet
                0x00000000       0x30 build/default/debug/_ext/1033058136/tcpip_manager.o
 .text.TCPIP_STACK_NetDefaultSet
                0x00000000       0x20 build/default/debug/_ext/1033058136/tcpip_manager.o
 .text.TCPIP_STACK_NetMulticastGet
                0x00000000        0x4 build/default/debug/_ext/1033058136/tcpip_manager.o
 .text.TCPIP_STACK_NetMulticastSet
                0x00000000        0x4 build/default/debug/_ext/1033058136/tcpip_manager.o
 .text.TCPIP_STACK_MacToNet
                0x00000000       0x3c build/default/debug/_ext/1033058136/tcpip_manager.o
 .text.TCPIP_STACK_MacToNetIndex
                0x00000000       0x44 build/default/debug/_ext/1033058136/tcpip_manager.o
 .text.TCPIP_STACK_NetIndexGet
                0x00000000        0xe build/default/debug/_ext/1033058136/tcpip_manager.o
 .text.TCPIP_Stack_UserHandleToNet
                0x00000000       0x3c build/default/debug/_ext/1033058136/tcpip_manager.o
 .text.TCPIP_STACK_MACIdToNet
                0x00000000       0x48 build/default/debug/_ext/1033058136/tcpip_manager.o
 .text.TCPIP_STACK_NetAliasNameGet
                0x00000000       0x3a build/default/debug/_ext/1033058136/tcpip_manager.o
 .text.TCPIP_STACK_MACObjectGet
                0x00000000        0x6 build/default/debug/_ext/1033058136/tcpip_manager.o
 .text.TCPIP_STACK_NetAddressGatewaySet
                0x00000000       0x1c build/default/debug/_ext/1033058136/tcpip_manager.o
 .text.TCPIP_STACK_NetAddressGateway
                0x00000000       0x18 build/default/debug/_ext/1033058136/tcpip_manager.o
 .text.TCPIP_STACK_NetAddressDnsPrimary
                0x00000000       0x18 build/default/debug/_ext/1033058136/tcpip_manager.o
 .text.TCPIP_STACK_NetAddressDnsSecond
                0x00000000       0x18 build/default/debug/_ext/1033058136/tcpip_manager.o
 .text.TCPIP_STACK_NetAddressDnsPrimarySet
                0x00000000       0x1c build/default/debug/_ext/1033058136/tcpip_manager.o
 .text.TCPIP_STACK_NetAddressDnsSecondSet
                0x00000000       0x1c build/default/debug/_ext/1033058136/tcpip_manager.o
 .text.TCPIP_STACK_NetAddressMacSet
                0x00000000       0x22 build/default/debug/_ext/1033058136/tcpip_manager.o
 .text.TCPIP_STACK_NetBiosNameSet
                0x00000000       0x32 build/default/debug/_ext/1033058136/tcpip_manager.o
 .text.TCPIP_STACK_NetMACIdGet
                0x00000000       0x18 build/default/debug/_ext/1033058136/tcpip_manager.o
 .text.TCPIP_STACK_NetMACStatisticsGet
                0x00000000       0x28 build/default/debug/_ext/1033058136/tcpip_manager.o
 .text.TCPIP_STACK_NetMACRegisterStatisticsGet
                0x00000000       0x28 build/default/debug/_ext/1033058136/tcpip_manager.o
 .text.TCPIP_STACK_ModuleConfigGet
                0x00000000       0x48 build/default/debug/_ext/1033058136/tcpip_manager.o
 .text.TCPIP_STACK_NetConfigGet
                0x00000000       0x50 build/default/debug/_ext/1033058136/tcpip_manager.o
 .text.TCPIP_STACK_NetConfigSet
                0x00000000      0x1aa build/default/debug/_ext/1033058136/tcpip_manager.o
 .text.TCPIP_STACK_StringToMACId
                0x00000000       0x50 build/default/debug/_ext/1033058136/tcpip_manager.o
 .text.TCPIP_STACK_NetHandleGet
                0x00000000       0x3c build/default/debug/_ext/1033058136/tcpip_manager.o
 .text.TCPIP_STACK_NetIsUp
                0x00000000       0x1c build/default/debug/_ext/1033058136/tcpip_manager.o
 .text.TCPIP_STACK_AddressServiceSelect
                0x00000000       0x10 build/default/debug/_ext/1033058136/tcpip_manager.o
 .text.TCPIP_STACK_AddressServiceCanStart
                0x00000000       0x16 build/default/debug/_ext/1033058136/tcpip_manager.o
 .text.TCPIP_STACK_NetAddressSet
                0x00000000       0x64 build/default/debug/_ext/1033058136/tcpip_manager.o
 .text._TCPIPStackAddressServiceIsRunning
                0x00000000        0xa build/default/debug/_ext/1033058136/tcpip_manager.o
 .text.TCPIP_STACK_AddressServiceEvent
                0x00000000       0x44 build/default/debug/_ext/1033058136/tcpip_manager.o
 .text.TCPIP_STACK_EventsPendingGet
                0x00000000       0x20 build/default/debug/_ext/1033058136/tcpip_manager.o
 .text.TCPIP_STACK_NetStaticIPv6AddressGet
                0x00000000        0x4 build/default/debug/_ext/1033058136/tcpip_manager.o
 .text.TCPIP_STACK_NetDefaultIPv6GatewayGet
                0x00000000        0x4 build/default/debug/_ext/1033058136/tcpip_manager.o
 .text._TCPIPStackSetConfigAddress
                0x00000000       0x30 build/default/debug/_ext/1033058136/tcpip_manager.o
 .text.TCPIP_STACK_NetMaskGet
                0x00000000       0x18 build/default/debug/_ext/1033058136/tcpip_manager.o
 .text.TCPIP_STACK_NetMask
                0x00000000       0x1c build/default/debug/_ext/1033058136/tcpip_manager.o
 .text.TCPIP_STACK_GatewayAddressSet
                0x00000000        0x8 build/default/debug/_ext/1033058136/tcpip_manager.o
 .text.TCPIP_STACK_PrimaryDNSAddressSet
                0x00000000        0x8 build/default/debug/_ext/1033058136/tcpip_manager.o
 .text.TCPIP_STACK_SecondaryDNSAddressSet
                0x00000000        0x8 build/default/debug/_ext/1033058136/tcpip_manager.o
 .text.TCPIP_STACK_AddressIsOfNetUp
                0x00000000       0x30 build/default/debug/_ext/1033058136/tcpip_manager.o
 .text.TCPIP_STACK_NetIsLinked
                0x00000000       0x1c build/default/debug/_ext/1033058136/tcpip_manager.o
 .text._TCPIPStackAnyNetDirected
                0x00000000       0x48 build/default/debug/_ext/1033058136/tcpip_manager.o
 .text.TCPIP_STACK_NetMACId
                0x00000000        0xc build/default/debug/_ext/1033058136/tcpip_manager.o
 .text.TCPIP_STACK_NetToMAC
                0x00000000        0xa build/default/debug/_ext/1033058136/tcpip_manager.o
 .text.TCPIP_STACK_NetAddressMac
                0x00000000        0x8 build/default/debug/_ext/1033058136/tcpip_manager.o
 .text.TCPIP_STACK_Deinitialize
                0x00000000       0x1c build/default/debug/_ext/1033058136/tcpip_manager.o
 .text.TCPIP_STACK_NetUp
                0x00000000       0xb0 build/default/debug/_ext/1033058136/tcpip_manager.o
 .text.TCPIP_STACK_NetDown
                0x00000000       0x34 build/default/debug/_ext/1033058136/tcpip_manager.o
 .text.TCPIP_STACK_VersionGet
                0x00000000        0x8 build/default/debug/_ext/1033058136/tcpip_manager.o
 .text.TCPIP_STACK_VersionStrGet
                0x00000000        0x8 build/default/debug/_ext/1033058136/tcpip_manager.o
 .text.TCPIP_MODULE_SignalFunctionRegister
                0x00000000       0x28 build/default/debug/_ext/1033058136/tcpip_manager.o
 .text.TCPIP_MODULE_SignalFunctionDeregister
                0x00000000        0xe build/default/debug/_ext/1033058136/tcpip_manager.o
 .text.TCPIP_MODULE_SignalGet
                0x00000000       0x28 build/default/debug/_ext/1033058136/tcpip_manager.o
 .text.TCPIP_STACK_HeapHandleGet
                0x00000000       0x14 build/default/debug/_ext/1033058136/tcpip_manager.o
 .text.TCPIP_STACK_HEAP_Size
                0x00000000        0xe build/default/debug/_ext/1033058136/tcpip_manager.o
 .text.TCPIP_STACK_HEAP_MaxSize
                0x00000000        0xe build/default/debug/_ext/1033058136/tcpip_manager.o
 .text.TCPIP_STACK_HEAP_FreeSize
                0x00000000        0xe build/default/debug/_ext/1033058136/tcpip_manager.o
 .text.TCPIP_STACK_HEAP_HighWatermark
                0x00000000        0xe build/default/debug/_ext/1033058136/tcpip_manager.o
 .text.TCPIP_STACK_HEAP_LastError
                0x00000000       0x10 build/default/debug/_ext/1033058136/tcpip_manager.o
 .text._TCPIPStackHeapConfig
                0x00000000        0x8 build/default/debug/_ext/1033058136/tcpip_manager.o
 .text.TCPIP_STACK_NetGetType
                0x00000000        0x8 build/default/debug/_ext/1033058136/tcpip_manager.o
 .text          0x00000000        0x0 build/default/debug/_ext/1033058136/tcpip_notify.o
 .data          0x00000000        0x0 build/default/debug/_ext/1033058136/tcpip_notify.o
 .bss           0x00000000        0x0 build/default/debug/_ext/1033058136/tcpip_notify.o
 .text.TCPIP_Notification_CbackRemove
                0x00000000       0x46 build/default/debug/_ext/1033058136/tcpip_notify.o
 .text          0x00000000        0x0 build/default/debug/_ext/1033058136/tcpip_packet.o
 .data          0x00000000        0x0 build/default/debug/_ext/1033058136/tcpip_packet.o
 .bss           0x00000000        0x0 build/default/debug/_ext/1033058136/tcpip_packet.o
 .text.TCPIP_PKT_SegmentAppend
                0x00000000       0x14 build/default/debug/_ext/1033058136/tcpip_packet.o
 .text._TCPIP_PKT_SegmentAlloc
                0x00000000       0x4c build/default/debug/_ext/1033058136/tcpip_packet.o
 .text._TCPIP_PKT_SegmentFree
                0x00000000       0x1c build/default/debug/_ext/1033058136/tcpip_packet.o
 .text          0x00000000        0x0 build/default/debug/_ext/1033058136/ftp.o
 .data          0x00000000        0x0 build/default/debug/_ext/1033058136/ftp.o
 .bss           0x00000000        0x0 build/default/debug/_ext/1033058136/ftp.o
 .text.TCPIP_FTP_AuthenticationRegister
                0x00000000       0x1c build/default/debug/_ext/1033058136/ftp.o
 .text.TCPIP_FTP_AuthenticationDeregister
                0x00000000       0x1c build/default/debug/_ext/1033058136/ftp.o
 .text          0x00000000        0x0 build/default/debug/_ext/1033058136/icmp.o
 .data          0x00000000        0x0 build/default/debug/_ext/1033058136/icmp.o
 .bss           0x00000000        0x0 build/default/debug/_ext/1033058136/icmp.o
 .text          0x00000000        0x0 build/default/debug/_ext/1508031553/net_pres.o
 .data          0x00000000        0x0 build/default/debug/_ext/1508031553/net_pres.o
 .bss           0x00000000        0x0 build/default/debug/_ext/1508031553/net_pres.o
 .text.NET_PRES_Deinitialize
                0x00000000       0xa8 build/default/debug/_ext/1508031553/net_pres.o
 .text.NET_PRES_Reinitialize
                0x00000000       0x12 build/default/debug/_ext/1508031553/net_pres.o
 .text.NET_PRES_SocketOptionsGet
                0x00000000       0x58 build/default/debug/_ext/1508031553/net_pres.o
 .text.NET_PRES_SocketPeek
                0x00000000       0x9c build/default/debug/_ext/1508031553/net_pres.o
 .text.NET_PRES_SocketIsNegotiatingEncryption
                0x00000000       0x38 build/default/debug/_ext/1508031553/net_pres.o
 .text.NET_PRES_SocketIsSecure
                0x00000000       0x34 build/default/debug/_ext/1508031553/net_pres.o
 .text.NET_PRES_SocketEncryptSocket
                0x00000000       0x78 build/default/debug/_ext/1508031553/net_pres.o
 .text.NET_PRES_SocketIsOpenModeSupported
                0x00000000       0xb0 build/default/debug/_ext/1508031553/net_pres.o
 .text.NET_PRES_Status
                0x00000000       0x1c build/default/debug/_ext/1508031553/net_pres.o
 .text.NET_PRES_SocketLastError
                0x00000000       0x40 build/default/debug/_ext/1508031553/net_pres.o
 .text          0x00000000        0x0 build/default/debug/_ext/1640433940/net_pres_enc_glue.o
 .data          0x00000000        0x0 build/default/debug/_ext/1640433940/net_pres_enc_glue.o
 .bss           0x00000000        0x0 build/default/debug/_ext/1640433940/net_pres_enc_glue.o
 .debug_info    0x00000000      0x326 build/default/debug/_ext/1640433940/net_pres_enc_glue.o
 .debug_abbrev  0x00000000       0x44 build/default/debug/_ext/1640433940/net_pres_enc_glue.o
 .debug_aranges
                0x00000000       0x18 build/default/debug/_ext/1640433940/net_pres_enc_glue.o
 .debug_line    0x00000000       0x9e build/default/debug/_ext/1640433940/net_pres_enc_glue.o
 .debug_str     0x00000000        0x0 build/default/debug/_ext/1640433940/net_pres_enc_glue.o
 .comment       0x00000000       0x54 build/default/debug/_ext/1640433940/net_pres_enc_glue.o
 .ARM.attributes
                0x00000000       0x39 build/default/debug/_ext/1640433940/net_pres_enc_glue.o
 .text          0x00000000        0x0 build/default/debug/_ext/1640433940/net_pres_cert_store.o
 .data          0x00000000        0x0 build/default/debug/_ext/1640433940/net_pres_cert_store.o
 .bss           0x00000000        0x0 build/default/debug/_ext/1640433940/net_pres_cert_store.o
 .debug_info    0x00000000      0x31f build/default/debug/_ext/1640433940/net_pres_cert_store.o
 .debug_abbrev  0x00000000       0x44 build/default/debug/_ext/1640433940/net_pres_cert_store.o
 .debug_aranges
                0x00000000       0x18 build/default/debug/_ext/1640433940/net_pres_cert_store.o
 .debug_line    0x00000000       0x9e build/default/debug/_ext/1640433940/net_pres_cert_store.o
 .debug_str     0x00000000        0x0 build/default/debug/_ext/1640433940/net_pres_cert_store.o
 .comment       0x00000000       0x54 build/default/debug/_ext/1640433940/net_pres_cert_store.o
 .ARM.attributes
                0x00000000       0x39 build/default/debug/_ext/1640433940/net_pres_cert_store.o
 .text          0x00000000        0x0 build/default/debug/_ext/1984496892/plib_clock.o
 .data          0x00000000        0x0 build/default/debug/_ext/1984496892/plib_clock.o
 .bss           0x00000000        0x0 build/default/debug/_ext/1984496892/plib_clock.o
 .text          0x00000000        0x0 build/default/debug/_ext/1865131932/plib_cmcc.o
 .data          0x00000000        0x0 build/default/debug/_ext/1865131932/plib_cmcc.o
 .bss           0x00000000        0x0 build/default/debug/_ext/1865131932/plib_cmcc.o
 .text.CMCC_Disable
                0x00000000       0x18 build/default/debug/_ext/1865131932/plib_cmcc.o
 .text.CMCC_EnableICache
                0x00000000       0x28 build/default/debug/_ext/1865131932/plib_cmcc.o
 .text.CMCC_DisableICache
                0x00000000       0x28 build/default/debug/_ext/1865131932/plib_cmcc.o
 .text.CMCC_EnableDCache
                0x00000000       0x28 build/default/debug/_ext/1865131932/plib_cmcc.o
 .text.CMCC_DisableDCache
                0x00000000       0x28 build/default/debug/_ext/1865131932/plib_cmcc.o
 .text.CMCC_InvalidateAll
                0x00000000       0x20 build/default/debug/_ext/1865131932/plib_cmcc.o
 .debug_info    0x00000000      0x56a build/default/debug/_ext/1865131932/plib_cmcc.o
 .debug_abbrev  0x00000000       0xac build/default/debug/_ext/1865131932/plib_cmcc.o
 .debug_aranges
                0x00000000       0x48 build/default/debug/_ext/1865131932/plib_cmcc.o
 .debug_ranges  0x00000000       0x38 build/default/debug/_ext/1865131932/plib_cmcc.o
 .debug_line    0x00000000      0x23b build/default/debug/_ext/1865131932/plib_cmcc.o
 .debug_str     0x00000000        0x0 build/default/debug/_ext/1865131932/plib_cmcc.o
 .comment       0x00000000       0x54 build/default/debug/_ext/1865131932/plib_cmcc.o
 .debug_frame   0x00000000       0x70 build/default/debug/_ext/1865131932/plib_cmcc.o
 .ARM.attributes
                0x00000000       0x34 build/default/debug/_ext/1865131932/plib_cmcc.o
 .text          0x00000000        0x0 build/default/debug/_ext/1986646378/plib_evsys.o
 .data          0x00000000        0x0 build/default/debug/_ext/1986646378/plib_evsys.o
 .bss           0x00000000        0x0 build/default/debug/_ext/1986646378/plib_evsys.o
 .text          0x00000000        0x0 build/default/debug/_ext/1865468468/plib_nvic.o
 .data          0x00000000        0x0 build/default/debug/_ext/1865468468/plib_nvic.o
 .bss           0x00000000        0x0 build/default/debug/_ext/1865468468/plib_nvic.o
 .text.NVIC_INT_Enable
                0x00000000        0x8 build/default/debug/_ext/1865468468/plib_nvic.o
 .text          0x00000000        0x0 build/default/debug/_ext/1593096446/plib_nvmctrl.o
 .data          0x00000000        0x0 build/default/debug/_ext/1593096446/plib_nvmctrl.o
 .bss           0x00000000        0x0 build/default/debug/_ext/1593096446/plib_nvmctrl.o
 .text.NVMCTRL_Read
                0x00000000       0x10 build/default/debug/_ext/1593096446/plib_nvmctrl.o
 .text.NVMCTRL_SetWriteMode
                0x00000000       0x14 build/default/debug/_ext/1593096446/plib_nvmctrl.o
 .text.NVMCTRL_QuadWordWrite
                0x00000000       0x4c build/default/debug/_ext/1593096446/plib_nvmctrl.o
 .text.NVMCTRL_DoubleWordWrite
                0x00000000       0x40 build/default/debug/_ext/1593096446/plib_nvmctrl.o
 .text.NVMCTRL_PageBufferWrite
                0x00000000       0x2c build/default/debug/_ext/1593096446/plib_nvmctrl.o
 .text.NVMCTRL_PageBufferCommit
                0x00000000       0x28 build/default/debug/_ext/1593096446/plib_nvmctrl.o
 .text.NVMCTRL_PageWrite
                0x00000000       0x40 build/default/debug/_ext/1593096446/plib_nvmctrl.o
 .text.NVMCTRL_BlockErase
                0x00000000       0x1c build/default/debug/_ext/1593096446/plib_nvmctrl.o
 .text.NVMCTRL_USER_ROW_RowErase
                0x00000000       0x30 build/default/debug/_ext/1593096446/plib_nvmctrl.o
 .text.NVMCTRL_ErrorGet
                0x00000000       0x20 build/default/debug/_ext/1593096446/plib_nvmctrl.o
 .text.NVMCTRL_StatusGet
                0x00000000        0xc build/default/debug/_ext/1593096446/plib_nvmctrl.o
 .text.NVMCTRL_IsBusy
                0x00000000       0x14 build/default/debug/_ext/1593096446/plib_nvmctrl.o
 .text.NVMCTRL_USER_ROW_PageWrite
                0x00000000       0x6c build/default/debug/_ext/1593096446/plib_nvmctrl.o
 .text.NVMCTRL_RegionLock
                0x00000000       0x10 build/default/debug/_ext/1593096446/plib_nvmctrl.o
 .text.NVMCTRL_RegionUnlock
                0x00000000       0x10 build/default/debug/_ext/1593096446/plib_nvmctrl.o
 .text.NVMCTRL_RegionLockStatusGet
                0x00000000        0xc build/default/debug/_ext/1593096446/plib_nvmctrl.o
 .text.NVMCTRL_SecurityBitSet
                0x00000000       0x10 build/default/debug/_ext/1593096446/plib_nvmctrl.o
 .text.NVMCTRL_SmartEEPROM_IsBusy
                0x00000000       0x10 build/default/debug/_ext/1593096446/plib_nvmctrl.o
 .text.NVMCTRL_SmartEEPROMStatusGet
                0x00000000        0xc build/default/debug/_ext/1593096446/plib_nvmctrl.o
 .text.NVMCTRL_SmartEEPROM_IsActiveSectorFull
                0x00000000       0x10 build/default/debug/_ext/1593096446/plib_nvmctrl.o
 .text.NVMCTRL_BankSwap
                0x00000000       0x10 build/default/debug/_ext/1593096446/plib_nvmctrl.o
 .text.NVMCTRL_SmartEEPROMSectorReallocate
                0x00000000       0x10 build/default/debug/_ext/1593096446/plib_nvmctrl.o
 .text.NVMCTRL_SmartEEPROMFlushPageBuffer
                0x00000000       0x18 build/default/debug/_ext/1593096446/plib_nvmctrl.o
 .bss.nvm_error
                0x00000000        0x2 build/default/debug/_ext/1593096446/plib_nvmctrl.o
 .text          0x00000000        0x0 build/default/debug/_ext/1865521619/plib_port.o
 .data          0x00000000        0x0 build/default/debug/_ext/1865521619/plib_port.o
 .bss           0x00000000        0x0 build/default/debug/_ext/1865521619/plib_port.o
 .text.PORT_GroupRead
                0x00000000        0x4 build/default/debug/_ext/1865521619/plib_port.o
 .text.PORT_GroupWrite
                0x00000000        0xc build/default/debug/_ext/1865521619/plib_port.o
 .text.PORT_GroupLatchRead
                0x00000000        0x4 build/default/debug/_ext/1865521619/plib_port.o
 .text.PORT_GroupSet
                0x00000000        0x4 build/default/debug/_ext/1865521619/plib_port.o
 .text.PORT_GroupClear
                0x00000000        0x4 build/default/debug/_ext/1865521619/plib_port.o
 .text.PORT_GroupToggle
                0x00000000        0x4 build/default/debug/_ext/1865521619/plib_port.o
 .text.PORT_GroupInputEnable
                0x00000000        0x4 build/default/debug/_ext/1865521619/plib_port.o
 .text.PORT_GroupOutputEnable
                0x00000000        0x4 build/default/debug/_ext/1865521619/plib_port.o
 .text.PORT_PinPeripheralFunctionConfig
                0x00000000       0x4a build/default/debug/_ext/1865521619/plib_port.o
 .text.PORT_PinGPIOConfig
                0x00000000       0x20 build/default/debug/_ext/1865521619/plib_port.o
 .text          0x00000000        0x0 build/default/debug/_ext/1865600094/plib_sdhc1.o
 .data          0x00000000        0x0 build/default/debug/_ext/1865600094/plib_sdhc1.o
 .bss           0x00000000        0x0 build/default/debug/_ext/1865600094/plib_sdhc1.o
 .text.SDHC1_GetError
                0x00000000        0xc build/default/debug/_ext/1865600094/plib_sdhc1.o
 .text.SDHC1_ClockDisable
                0x00000000       0x12 build/default/debug/_ext/1865600094/plib_sdhc1.o
 .text          0x00000000        0x0 build/default/debug/_ext/504274921/plib_sercom1_usart.o
 .data          0x00000000        0x0 build/default/debug/_ext/504274921/plib_sercom1_usart.o
 .bss           0x00000000        0x0 build/default/debug/_ext/504274921/plib_sercom1_usart.o
 .text.SERCOM1_USART_FrequencyGet
                0x00000000        0x8 build/default/debug/_ext/504274921/plib_sercom1_usart.o
 .text.SERCOM1_USART_SerialSetup
                0x00000000      0x140 build/default/debug/_ext/504274921/plib_sercom1_usart.o
 .text.SERCOM1_USART_ErrorGet
                0x00000000       0x10 build/default/debug/_ext/504274921/plib_sercom1_usart.o
 .text.SERCOM1_USART_ReadBufferSizeGet
                0x00000000        0xc build/default/debug/_ext/504274921/plib_sercom1_usart.o
 .text.SERCOM1_USART_ReadNotificationEnable
                0x00000000       0x18 build/default/debug/_ext/504274921/plib_sercom1_usart.o
 .text.SERCOM1_USART_ReadThresholdSet
                0x00000000        0xc build/default/debug/_ext/504274921/plib_sercom1_usart.o
 .text.SERCOM1_USART_ReadCallbackRegister
                0x00000000        0xc build/default/debug/_ext/504274921/plib_sercom1_usart.o
 .text.SERCOM1_USART_TransmitComplete
                0x00000000       0x10 build/default/debug/_ext/504274921/plib_sercom1_usart.o
 .text.SERCOM1_USART_WriteBufferSizeGet
                0x00000000        0xc build/default/debug/_ext/504274921/plib_sercom1_usart.o
 .text.SERCOM1_USART_WriteNotificationEnable
                0x00000000       0x10 build/default/debug/_ext/504274921/plib_sercom1_usart.o
 .text.SERCOM1_USART_WriteThresholdSet
                0x00000000        0xc build/default/debug/_ext/504274921/plib_sercom1_usart.o
 .text.SERCOM1_USART_WriteCallbackRegister
                0x00000000        0xc build/default/debug/_ext/504274921/plib_sercom1_usart.o
 .text          0x00000000        0x0 build/default/debug/_ext/829342655/plib_tc0.o
 .data          0x00000000        0x0 build/default/debug/_ext/829342655/plib_tc0.o
 .bss           0x00000000        0x0 build/default/debug/_ext/829342655/plib_tc0.o
 .text.TC0_TimerCommandSet
                0x00000000       0x18 build/default/debug/_ext/829342655/plib_tc0.o
 .text.TC0_Timer16bitCounterSet
                0x00000000       0x14 build/default/debug/_ext/829342655/plib_tc0.o
 .text.TC0_Timer16bitPeriodGet
                0x00000000        0xc build/default/debug/_ext/829342655/plib_tc0.o
 .text          0x00000000        0x0 build/default/debug/_ext/163028504/xc32_monitor.o
 .data          0x00000000        0x0 build/default/debug/_ext/163028504/xc32_monitor.o
 .bss           0x00000000        0x0 build/default/debug/_ext/163028504/xc32_monitor.o
 .text.read     0x00000000        0x6 build/default/debug/_ext/163028504/xc32_monitor.o
 .text.write    0x00000000        0x6 build/default/debug/_ext/163028504/xc32_monitor.o
 .debug_info    0x00000000      0x334 build/default/debug/_ext/163028504/xc32_monitor.o
 .debug_abbrev  0x00000000       0x96 build/default/debug/_ext/163028504/xc32_monitor.o
 .debug_loc     0x00000000       0x4a build/default/debug/_ext/163028504/xc32_monitor.o
 .debug_aranges
                0x00000000       0x28 build/default/debug/_ext/163028504/xc32_monitor.o
 .debug_ranges  0x00000000       0x18 build/default/debug/_ext/163028504/xc32_monitor.o
 .debug_line    0x00000000       0xca build/default/debug/_ext/163028504/xc32_monitor.o
 .debug_str     0x00000000        0x0 build/default/debug/_ext/163028504/xc32_monitor.o
 .comment       0x00000000       0x54 build/default/debug/_ext/163028504/xc32_monitor.o
 .debug_frame   0x00000000       0x30 build/default/debug/_ext/163028504/xc32_monitor.o
 .ARM.attributes
                0x00000000       0x34 build/default/debug/_ext/163028504/xc32_monitor.o
 .text          0x00000000        0x0 build/default/debug/_ext/1014039709/sys_cache.o
 .data          0x00000000        0x0 build/default/debug/_ext/1014039709/sys_cache.o
 .bss           0x00000000        0x0 build/default/debug/_ext/1014039709/sys_cache.o
 .text.SYS_CACHE_EnableCaches
                0x00000000        0x2 build/default/debug/_ext/1014039709/sys_cache.o
 .text.SYS_CACHE_DisableCaches
                0x00000000        0x2 build/default/debug/_ext/1014039709/sys_cache.o
 .text.SYS_CACHE_EnableICache
                0x00000000        0x2 build/default/debug/_ext/1014039709/sys_cache.o
 .text.SYS_CACHE_DisableICache
                0x00000000        0x2 build/default/debug/_ext/1014039709/sys_cache.o
 .text.SYS_CACHE_InvalidateICache
                0x00000000        0x2 build/default/debug/_ext/1014039709/sys_cache.o
 .text.SYS_CACHE_EnableDCache
                0x00000000        0x2 build/default/debug/_ext/1014039709/sys_cache.o
 .text.SYS_CACHE_DisableDCache
                0x00000000        0x2 build/default/debug/_ext/1014039709/sys_cache.o
 .text.SYS_CACHE_InvalidateDCache
                0x00000000        0x2 build/default/debug/_ext/1014039709/sys_cache.o
 .text.SYS_CACHE_CleanDCache
                0x00000000        0x2 build/default/debug/_ext/1014039709/sys_cache.o
 .text.SYS_CACHE_CleanInvalidateDCache
                0x00000000        0x2 build/default/debug/_ext/1014039709/sys_cache.o
 .text.SYS_CACHE_InvalidateDCache_by_Addr
                0x00000000        0x2 build/default/debug/_ext/1014039709/sys_cache.o
 .text.SYS_CACHE_CleanDCache_by_Addr
                0x00000000        0x2 build/default/debug/_ext/1014039709/sys_cache.o
 .text.SYS_CACHE_CleanInvalidateDCache_by_Addr
                0x00000000        0x2 build/default/debug/_ext/1014039709/sys_cache.o
 .debug_info    0x00000000      0x5fc build/default/debug/_ext/1014039709/sys_cache.o
 .debug_abbrev  0x00000000       0xa9 build/default/debug/_ext/1014039709/sys_cache.o
 .debug_aranges
                0x00000000       0x80 build/default/debug/_ext/1014039709/sys_cache.o
 .debug_ranges  0x00000000       0x70 build/default/debug/_ext/1014039709/sys_cache.o
 .debug_line    0x00000000      0x1c5 build/default/debug/_ext/1014039709/sys_cache.o
 .debug_str     0x00000000        0x0 build/default/debug/_ext/1014039709/sys_cache.o
 .comment       0x00000000       0x54 build/default/debug/_ext/1014039709/sys_cache.o
 .debug_frame   0x00000000       0xe0 build/default/debug/_ext/1014039709/sys_cache.o
 .ARM.attributes
                0x00000000       0x34 build/default/debug/_ext/1014039709/sys_cache.o
 .text          0x00000000        0x0 build/default/debug/_ext/1832805299/sys_console.o
 .data          0x00000000        0x0 build/default/debug/_ext/1832805299/sys_console.o
 .bss           0x00000000        0x0 build/default/debug/_ext/1832805299/sys_console.o
 .text.SYS_CONSOLE_Status
                0x00000000       0x50 build/default/debug/_ext/1832805299/sys_console.o
 .text.SYS_CONSOLE_HandleGet
                0x00000000        0xa build/default/debug/_ext/1832805299/sys_console.o
 .text.SYS_CONSOLE_DeviceGet
                0x00000000       0x18 build/default/debug/_ext/1832805299/sys_console.o
 .text.SYS_CONSOLE_Tasks
                0x00000000       0x28 build/default/debug/_ext/1832805299/sys_console.o
 .text.SYS_CONSOLE_Read
                0x00000000       0x34 build/default/debug/_ext/1832805299/sys_console.o
 .text.SYS_CONSOLE_ReadFreeBufferCountGet
                0x00000000       0x34 build/default/debug/_ext/1832805299/sys_console.o
 .text.SYS_CONSOLE_ReadCountGet
                0x00000000       0x34 build/default/debug/_ext/1832805299/sys_console.o
 .text.SYS_CONSOLE_Write
                0x00000000       0x34 build/default/debug/_ext/1832805299/sys_console.o
 .text.SYS_CONSOLE_WriteFreeBufferCountGet
                0x00000000       0x34 build/default/debug/_ext/1832805299/sys_console.o
 .text.SYS_CONSOLE_WriteCountGet
                0x00000000       0x34 build/default/debug/_ext/1832805299/sys_console.o
 .text.SYS_CONSOLE_Flush
                0x00000000       0x2c build/default/debug/_ext/1832805299/sys_console.o
 .text          0x00000000        0x0 build/default/debug/_ext/1832805299/sys_console_uart.o
 .data          0x00000000        0x0 build/default/debug/_ext/1832805299/sys_console_uart.o
 .bss           0x00000000        0x0 build/default/debug/_ext/1832805299/sys_console_uart.o
 .text          0x00000000        0x0 build/default/debug/_ext/944882569/sys_debug.o
 .data          0x00000000        0x0 build/default/debug/_ext/944882569/sys_debug.o
 .bss           0x00000000        0x0 build/default/debug/_ext/944882569/sys_debug.o
 .text.SYS_DEBUG_Status
                0x00000000        0xc build/default/debug/_ext/944882569/sys_debug.o
 .text.SYS_DEBUG_ErrorLevelSet
                0x00000000        0xc build/default/debug/_ext/944882569/sys_debug.o
 .text.SYS_DEBUG_Redirect
                0x00000000       0x14 build/default/debug/_ext/944882569/sys_debug.o
 .text          0x00000000        0x0 build/default/debug/_ext/411819097/ff.o
 .data          0x00000000        0x0 build/default/debug/_ext/411819097/ff.o
 .bss           0x00000000        0x0 build/default/debug/_ext/411819097/ff.o
 .text          0x00000000        0x0 build/default/debug/_ext/411819097/ffunicode.o
 .data          0x00000000        0x0 build/default/debug/_ext/411819097/ffunicode.o
 .bss           0x00000000        0x0 build/default/debug/_ext/411819097/ffunicode.o
 .text          0x00000000        0x0 build/default/debug/_ext/565198302/diskio.o
 .data          0x00000000        0x0 build/default/debug/_ext/565198302/diskio.o
 .bss           0x00000000        0x0 build/default/debug/_ext/565198302/diskio.o
 .text          0x00000000        0x0 build/default/debug/_ext/1269487135/sys_fs.o
 .data          0x00000000        0x0 build/default/debug/_ext/1269487135/sys_fs.o
 .bss           0x00000000        0x0 build/default/debug/_ext/1269487135/sys_fs.o
 .text.SYS_FS_Mount
                0x00000000      0x194 build/default/debug/_ext/1269487135/sys_fs.o
 .text.SYS_FS_Unmount
                0x00000000       0xf0 build/default/debug/_ext/1269487135/sys_fs.o
 .text.SYS_FS_FileNameGet
                0x00000000       0x50 build/default/debug/_ext/1269487135/sys_fs.o
 .text.SYS_FS_FileError
                0x00000000       0x16 build/default/debug/_ext/1269487135/sys_fs.o
 .text.SYS_FS_DirRead
                0x00000000       0x74 build/default/debug/_ext/1269487135/sys_fs.o
 .text.SYS_FS_DirRewind
                0x00000000       0x6c build/default/debug/_ext/1269487135/sys_fs.o
 .text.SYS_FS_FileStringGet
                0x00000000       0x80 build/default/debug/_ext/1269487135/sys_fs.o
 .text.SYS_FS_DirectoryChange
                0x00000000       0x88 build/default/debug/_ext/1269487135/sys_fs.o
 .text.SYS_FS_CurrentWorkingDirectoryGet
                0x00000000      0x110 build/default/debug/_ext/1269487135/sys_fs.o
 .text.SYS_FS_CurrentDriveGet
                0x00000000       0x4c build/default/debug/_ext/1269487135/sys_fs.o
 .text.SYS_FS_DriveLabelGet
                0x00000000       0xa8 build/default/debug/_ext/1269487135/sys_fs.o
 .text.SYS_FS_FileSync
                0x00000000       0x6c build/default/debug/_ext/1269487135/sys_fs.o
 .text.SYS_FS_FileTruncate
                0x00000000       0x68 build/default/debug/_ext/1269487135/sys_fs.o
 .text.SYS_FS_FileCharacterPut
                0x00000000       0x74 build/default/debug/_ext/1269487135/sys_fs.o
 .text.SYS_FS_FileStringPut
                0x00000000       0x78 build/default/debug/_ext/1269487135/sys_fs.o
 .text.SYS_FS_FilePrintf
                0x00000000       0x8c build/default/debug/_ext/1269487135/sys_fs.o
 .text.SYS_FS_FileTestError
                0x00000000       0x5c build/default/debug/_ext/1269487135/sys_fs.o
 .text.SYS_FS_FileDirectoryModeSet
                0x00000000       0x90 build/default/debug/_ext/1269487135/sys_fs.o
 .text.SYS_FS_FileDirectoryTimeSet
                0x00000000       0xa0 build/default/debug/_ext/1269487135/sys_fs.o
 .text.SYS_FS_FileDirectoryRenameMove
                0x00000000       0xb0 build/default/debug/_ext/1269487135/sys_fs.o
 .text.SYS_FS_CurrentDriveSet
                0x00000000       0xa0 build/default/debug/_ext/1269487135/sys_fs.o
 .text.SYS_FS_DriveLabelSet
                0x00000000       0xb4 build/default/debug/_ext/1269487135/sys_fs.o
 .text.SYS_FS_DriveFormat
                0x00000000       0x74 build/default/debug/_ext/1269487135/sys_fs.o
 .text.SYS_FS_DrivePartition
                0x00000000       0x78 build/default/debug/_ext/1269487135/sys_fs.o
 .text.SYS_FS_DriveSectorGet
                0x00000000       0xb4 build/default/debug/_ext/1269487135/sys_fs.o
 .text          0x00000000        0x0 build/default/debug/_ext/1269487135/sys_fs_media_manager.o
 .data          0x00000000        0x0 build/default/debug/_ext/1269487135/sys_fs_media_manager.o
 .bss           0x00000000        0x0 build/default/debug/_ext/1269487135/sys_fs_media_manager.o
 .text.SYS_FS_MEDIA_MANAGER_DeRegister
                0x00000000        0xc build/default/debug/_ext/1269487135/sys_fs_media_manager.o
 .text.SYS_FS_MEDIA_MANAGER_Read
                0x00000000       0x4c build/default/debug/_ext/1269487135/sys_fs_media_manager.o
 .text.SYS_FS_MEDIA_MANAGER_AddressGet
                0x00000000       0x1c build/default/debug/_ext/1269487135/sys_fs_media_manager.o
 .text.SYS_FS_MEDIA_MANAGER_CommandStatusGet
                0x00000000       0x28 build/default/debug/_ext/1269487135/sys_fs_media_manager.o
 .text.SYS_FS_MEDIA_MANAGER_MediaStatusGet
                0x00000000       0x5c build/default/debug/_ext/1269487135/sys_fs_media_manager.o
 .text.SYS_FS_MEDIA_MANAGER_VolumePropertyGet
                0x00000000       0x30 build/default/debug/_ext/1269487135/sys_fs_media_manager.o
 .text          0x00000000        0x0 build/default/debug/_ext/1269487135/sys_fs_fat_interface.o
 .data          0x00000000        0x0 build/default/debug/_ext/1269487135/sys_fs_fat_interface.o
 .bss           0x00000000        0x0 build/default/debug/_ext/1269487135/sys_fs_fat_interface.o
 .text.FATFS_getfree
                0x00000000        0x8 build/default/debug/_ext/1269487135/sys_fs_fat_interface.o
 .text          0x00000000        0x0 build/default/debug/_ext/1881668453/sys_int.o
 .data          0x00000000        0x0 build/default/debug/_ext/1881668453/sys_int.o
 .bss           0x00000000        0x0 build/default/debug/_ext/1881668453/sys_int.o
 .text.SYS_INT_Enable
                0x00000000        0x8 build/default/debug/_ext/1881668453/sys_int.o
 .text          0x00000000        0x0 build/default/debug/_ext/101884895/sys_time.o
 .data          0x00000000        0x0 build/default/debug/_ext/101884895/sys_time.o
 .bss           0x00000000        0x0 build/default/debug/_ext/101884895/sys_time.o
 .text.SYS_TIME_Deinitialize
                0x00000000       0x30 build/default/debug/_ext/101884895/sys_time.o
 .text.SYS_TIME_Status
                0x00000000       0x14 build/default/debug/_ext/101884895/sys_time.o
 .text.SYS_TIME_CounterGet
                0x00000000        0x8 build/default/debug/_ext/101884895/sys_time.o
 .text.SYS_TIME_CounterSet
                0x00000000       0x1c build/default/debug/_ext/101884895/sys_time.o
 .text.SYS_TIME_CountToUS
                0x00000000       0x44 build/default/debug/_ext/101884895/sys_time.o
 .text.SYS_TIME_CountToMS
                0x00000000       0x3c build/default/debug/_ext/101884895/sys_time.o
 .text.SYS_TIME_USToCount
                0x00000000       0x1c build/default/debug/_ext/101884895/sys_time.o
 .text.SYS_TIME_TimerCreate
                0x00000000       0x1c build/default/debug/_ext/101884895/sys_time.o
 .text.SYS_TIME_TimerReload
                0x00000000       0x88 build/default/debug/_ext/101884895/sys_time.o
 .text.SYS_TIME_TimerStop
                0x00000000       0x3c build/default/debug/_ext/101884895/sys_time.o
 .text.SYS_TIME_TimerCounterGet
                0x00000000       0x88 build/default/debug/_ext/101884895/sys_time.o
 .text.SYS_TIME_DelayUS
                0x00000000       0x50 build/default/debug/_ext/101884895/sys_time.o
 .text.SYS_TIME_CallbackRegisterUS
                0x00000000       0x58 build/default/debug/_ext/101884895/sys_time.o
 .text          0x00000000        0x0 build/default/debug/_ext/753841488/sys_time_h2_adapter.o
 .data          0x00000000        0x0 build/default/debug/_ext/753841488/sys_time_h2_adapter.o
 .bss           0x00000000        0x0 build/default/debug/_ext/753841488/sys_time_h2_adapter.o
 .text          0x00000000        0x0 build/default/debug/_ext/753841488/sys_random_h2_adapter.o
 .data          0x00000000        0x0 build/default/debug/_ext/753841488/sys_random_h2_adapter.o
 .bss           0x00000000        0x0 build/default/debug/_ext/753841488/sys_random_h2_adapter.o
 .text._InitSysRand
                0x00000000       0x5c build/default/debug/_ext/753841488/sys_random_h2_adapter.o
 .text._SYS_RANDOM_CryptoLock
                0x00000000       0x40 build/default/debug/_ext/753841488/sys_random_h2_adapter.o
 .text.SYS_RANDOM_CryptoInitialize
                0x00000000       0x10 build/default/debug/_ext/753841488/sys_random_h2_adapter.o
 .text.SYS_RANDOM_CryptoDeinitialize
                0x00000000       0x28 build/default/debug/_ext/753841488/sys_random_h2_adapter.o
 .text.SYS_RANDOM_CryptoGet
                0x00000000       0x34 build/default/debug/_ext/753841488/sys_random_h2_adapter.o
 .text.SYS_RANDOM_CryptoBlockGet
                0x00000000       0x3c build/default/debug/_ext/753841488/sys_random_h2_adapter.o
 .text.SYS_RANDOM_CryptoByteGet
                0x00000000       0x38 build/default/debug/_ext/753841488/sys_random_h2_adapter.o
 .bss.pRandCtx  0x00000000        0x4 build/default/debug/_ext/753841488/sys_random_h2_adapter.o
 .bss.randLockCount
                0x00000000        0x4 build/default/debug/_ext/753841488/sys_random_h2_adapter.o
 .bss.randSemaphore
                0x00000000        0x1 build/default/debug/_ext/753841488/sys_random_h2_adapter.o
 .bss.sysRandCtx
                0x00000000      0x108 build/default/debug/_ext/753841488/sys_random_h2_adapter.o
 .debug_info    0x00000000      0xe97 build/default/debug/_ext/753841488/sys_random_h2_adapter.o
 .debug_abbrev  0x00000000      0x2e7 build/default/debug/_ext/753841488/sys_random_h2_adapter.o
 .debug_loc     0x00000000      0x5e3 build/default/debug/_ext/753841488/sys_random_h2_adapter.o
 .debug_aranges
                0x00000000       0x50 build/default/debug/_ext/753841488/sys_random_h2_adapter.o
 .debug_ranges  0x00000000       0xb8 build/default/debug/_ext/753841488/sys_random_h2_adapter.o
 .debug_line    0x00000000      0x509 build/default/debug/_ext/753841488/sys_random_h2_adapter.o
 .debug_str     0x00000000       0xab build/default/debug/_ext/753841488/sys_random_h2_adapter.o
 .comment       0x00000000       0x54 build/default/debug/_ext/753841488/sys_random_h2_adapter.o
 .debug_frame   0x00000000       0xbc build/default/debug/_ext/753841488/sys_random_h2_adapter.o
 .ARM.attributes
                0x00000000       0x34 build/default/debug/_ext/753841488/sys_random_h2_adapter.o
 .text          0x00000000        0x0 build/default/debug/_ext/1171490990/initialization.o
 .data          0x00000000        0x0 build/default/debug/_ext/1171490990/initialization.o
 .bss           0x00000000        0x0 build/default/debug/_ext/1171490990/initialization.o
 .bss.tcpipICMPInitData
                0x00000000        0x4 build/default/debug/_ext/1171490990/initialization.o
 .rodata.TCPIP_HOSTS_CONFIGURATION_SIZE
                0x00000000        0x4 build/default/debug/_ext/1171490990/initialization.o
 .rodata.TCPIP_STACK_MODULE_CONFIG_TBL_SIZE
                0x00000000        0x4 build/default/debug/_ext/1171490990/initialization.o
 .text          0x00000000        0x0 build/default/debug/_ext/1171490990/interrupts.o
 .data          0x00000000        0x0 build/default/debug/_ext/1171490990/interrupts.o
 .bss           0x00000000        0x0 build/default/debug/_ext/1171490990/interrupts.o
 .text          0x00000000        0x0 build/default/debug/_ext/1171490990/exceptions.o
 .data          0x00000000        0x0 build/default/debug/_ext/1171490990/exceptions.o
 .bss           0x00000000        0x0 build/default/debug/_ext/1171490990/exceptions.o
 .text          0x00000000        0x0 build/default/debug/_ext/1171490990/startup_xc32.o
 .data          0x00000000        0x0 build/default/debug/_ext/1171490990/startup_xc32.o
 .bss           0x00000000        0x0 build/default/debug/_ext/1171490990/startup_xc32.o
 .text          0x00000000        0x0 build/default/debug/_ext/1171490990/libc_syscalls.o
 .data          0x00000000        0x0 build/default/debug/_ext/1171490990/libc_syscalls.o
 .bss           0x00000000        0x0 build/default/debug/_ext/1171490990/libc_syscalls.o
 .text._exit    0x00000000        0x4 build/default/debug/_ext/1171490990/libc_syscalls.o
 .debug_info    0x00000000      0x3ab build/default/debug/_ext/1171490990/libc_syscalls.o
 .debug_abbrev  0x00000000       0xb3 build/default/debug/_ext/1171490990/libc_syscalls.o
 .debug_aranges
                0x00000000       0x20 build/default/debug/_ext/1171490990/libc_syscalls.o
 .debug_ranges  0x00000000       0x10 build/default/debug/_ext/1171490990/libc_syscalls.o
 .debug_line    0x00000000      0x122 build/default/debug/_ext/1171490990/libc_syscalls.o
 .debug_str     0x00000000        0x0 build/default/debug/_ext/1171490990/libc_syscalls.o
 .comment       0x00000000       0x54 build/default/debug/_ext/1171490990/libc_syscalls.o
 .debug_frame   0x00000000       0x20 build/default/debug/_ext/1171490990/libc_syscalls.o
 .ARM.attributes
                0x00000000       0x34 build/default/debug/_ext/1171490990/libc_syscalls.o
 .text          0x00000000        0x0 build/default/debug/_ext/1171490990/tasks.o
 .data          0x00000000        0x0 build/default/debug/_ext/1171490990/tasks.o
 .bss           0x00000000        0x0 build/default/debug/_ext/1171490990/tasks.o
 .text          0x00000000        0x0 build/default/debug/_ext/172253694/pic32mz-crypt.o
 .data          0x00000000        0x0 build/default/debug/_ext/172253694/pic32mz-crypt.o
 .bss           0x00000000        0x0 build/default/debug/_ext/172253694/pic32mz-crypt.o
 .debug_info    0x00000000      0x340 build/default/debug/_ext/172253694/pic32mz-crypt.o
 .debug_abbrev  0x00000000       0x44 build/default/debug/_ext/172253694/pic32mz-crypt.o
 .debug_aranges
                0x00000000       0x18 build/default/debug/_ext/172253694/pic32mz-crypt.o
 .debug_line    0x00000000       0x9e build/default/debug/_ext/172253694/pic32mz-crypt.o
 .debug_str     0x00000000        0x0 build/default/debug/_ext/172253694/pic32mz-crypt.o
 .comment       0x00000000       0x54 build/default/debug/_ext/172253694/pic32mz-crypt.o
 .ARM.attributes
                0x00000000       0x39 build/default/debug/_ext/172253694/pic32mz-crypt.o
 .text          0x00000000        0x0 build/default/debug/_ext/172253694/crypt_aes_sam6149.o
 .data          0x00000000        0x0 build/default/debug/_ext/172253694/crypt_aes_sam6149.o
 .bss           0x00000000        0x0 build/default/debug/_ext/172253694/crypt_aes_sam6149.o
 .debug_info    0x00000000      0x344 build/default/debug/_ext/172253694/crypt_aes_sam6149.o
 .debug_abbrev  0x00000000       0x44 build/default/debug/_ext/172253694/crypt_aes_sam6149.o
 .debug_aranges
                0x00000000       0x18 build/default/debug/_ext/172253694/crypt_aes_sam6149.o
 .debug_line    0x00000000       0x9e build/default/debug/_ext/172253694/crypt_aes_sam6149.o
 .debug_str     0x00000000        0x0 build/default/debug/_ext/172253694/crypt_aes_sam6149.o
 .comment       0x00000000       0x54 build/default/debug/_ext/172253694/crypt_aes_sam6149.o
 .ARM.attributes
                0x00000000       0x39 build/default/debug/_ext/172253694/crypt_aes_sam6149.o
 .text          0x00000000        0x0 build/default/debug/_ext/172253694/crypt_aes_u2238.o
 .data          0x00000000        0x0 build/default/debug/_ext/172253694/crypt_aes_u2238.o
 .bss           0x00000000        0x0 build/default/debug/_ext/172253694/crypt_aes_u2238.o
 .debug_info    0x00000000      0x342 build/default/debug/_ext/172253694/crypt_aes_u2238.o
 .debug_abbrev  0x00000000       0x44 build/default/debug/_ext/172253694/crypt_aes_u2238.o
 .debug_aranges
                0x00000000       0x18 build/default/debug/_ext/172253694/crypt_aes_u2238.o
 .debug_line    0x00000000       0x9e build/default/debug/_ext/172253694/crypt_aes_u2238.o
 .debug_str     0x00000000        0x0 build/default/debug/_ext/172253694/crypt_aes_u2238.o
 .comment       0x00000000       0x54 build/default/debug/_ext/172253694/crypt_aes_u2238.o
 .ARM.attributes
                0x00000000       0x39 build/default/debug/_ext/172253694/crypt_aes_u2238.o
 .text          0x00000000        0x0 build/default/debug/_ext/172253694/crypt_ecc_ba414e.o
 .data          0x00000000        0x0 build/default/debug/_ext/172253694/crypt_ecc_ba414e.o
 .bss           0x00000000        0x0 build/default/debug/_ext/172253694/crypt_ecc_ba414e.o
 .debug_info    0x00000000      0x334 build/default/debug/_ext/172253694/crypt_ecc_ba414e.o
 .debug_abbrev  0x00000000       0x44 build/default/debug/_ext/172253694/crypt_ecc_ba414e.o
 .debug_aranges
                0x00000000       0x18 build/default/debug/_ext/172253694/crypt_ecc_ba414e.o
 .debug_line    0x00000000       0x9e build/default/debug/_ext/172253694/crypt_ecc_ba414e.o
 .debug_str     0x00000000        0x0 build/default/debug/_ext/172253694/crypt_ecc_ba414e.o
 .comment       0x00000000       0x54 build/default/debug/_ext/172253694/crypt_ecc_ba414e.o
 .ARM.attributes
                0x00000000       0x39 build/default/debug/_ext/172253694/crypt_ecc_ba414e.o
 .text          0x00000000        0x0 build/default/debug/_ext/172253694/crypt_ecc_pukcl.o
 .data          0x00000000        0x0 build/default/debug/_ext/172253694/crypt_ecc_pukcl.o
 .bss           0x00000000        0x0 build/default/debug/_ext/172253694/crypt_ecc_pukcl.o
 .debug_info    0x00000000     0x29ad build/default/debug/_ext/172253694/crypt_ecc_pukcl.o
 .debug_abbrev  0x00000000      0x106 build/default/debug/_ext/172253694/crypt_ecc_pukcl.o
 .debug_aranges
                0x00000000       0x18 build/default/debug/_ext/172253694/crypt_ecc_pukcl.o
 .debug_line    0x00000000      0x4d8 build/default/debug/_ext/172253694/crypt_ecc_pukcl.o
 .debug_str     0x00000000      0x20b build/default/debug/_ext/172253694/crypt_ecc_pukcl.o
 .comment       0x00000000       0x54 build/default/debug/_ext/172253694/crypt_ecc_pukcl.o
 .ARM.attributes
                0x00000000       0x39 build/default/debug/_ext/172253694/crypt_ecc_pukcl.o
 .text          0x00000000        0x0 build/default/debug/_ext/172253694/crypt_pukcl_functions.o
 .data          0x00000000        0x0 build/default/debug/_ext/172253694/crypt_pukcl_functions.o
 .bss           0x00000000        0x0 build/default/debug/_ext/172253694/crypt_pukcl_functions.o
 .text.crypt_pukcl_SelfTest
                0x00000000       0x88 build/default/debug/_ext/172253694/crypt_pukcl_functions.o
 .text.SecureCopy
                0x00000000       0x4e build/default/debug/_ext/172253694/crypt_pukcl_functions.o
 .bss.PUKCLParam
                0x00000000       0x30 build/default/debug/_ext/172253694/crypt_pukcl_functions.o
 .bss.SelfTestState
                0x00000000        0x1 build/default/debug/_ext/172253694/crypt_pukcl_functions.o
 .bss.pvPUKCLParam
                0x00000000        0x4 build/default/debug/_ext/172253694/crypt_pukcl_functions.o
 .debug_info    0x00000000     0x295a build/default/debug/_ext/172253694/crypt_pukcl_functions.o
 .debug_abbrev  0x00000000      0x1a0 build/default/debug/_ext/172253694/crypt_pukcl_functions.o
 .debug_loc     0x00000000      0x223 build/default/debug/_ext/172253694/crypt_pukcl_functions.o
 .debug_aranges
                0x00000000       0x28 build/default/debug/_ext/172253694/crypt_pukcl_functions.o
 .debug_ranges  0x00000000       0x18 build/default/debug/_ext/172253694/crypt_pukcl_functions.o
 .debug_line    0x00000000      0x54d build/default/debug/_ext/172253694/crypt_pukcl_functions.o
 .debug_str     0x00000000      0x1fe build/default/debug/_ext/172253694/crypt_pukcl_functions.o
 .comment       0x00000000       0x54 build/default/debug/_ext/172253694/crypt_pukcl_functions.o
 .debug_frame   0x00000000       0x4c build/default/debug/_ext/172253694/crypt_pukcl_functions.o
 .ARM.attributes
                0x00000000       0x34 build/default/debug/_ext/172253694/crypt_pukcl_functions.o
 .text          0x00000000        0x0 build/default/debug/_ext/172253694/crypt_rng_sam6334.o
 .data          0x00000000        0x0 build/default/debug/_ext/172253694/crypt_rng_sam6334.o
 .bss           0x00000000        0x0 build/default/debug/_ext/172253694/crypt_rng_sam6334.o
 .debug_info    0x00000000      0x344 build/default/debug/_ext/172253694/crypt_rng_sam6334.o
 .debug_abbrev  0x00000000       0x44 build/default/debug/_ext/172253694/crypt_rng_sam6334.o
 .debug_aranges
                0x00000000       0x18 build/default/debug/_ext/172253694/crypt_rng_sam6334.o
 .debug_line    0x00000000       0x9e build/default/debug/_ext/172253694/crypt_rng_sam6334.o
 .debug_str     0x00000000        0x0 build/default/debug/_ext/172253694/crypt_rng_sam6334.o
 .comment       0x00000000       0x54 build/default/debug/_ext/172253694/crypt_rng_sam6334.o
 .ARM.attributes
                0x00000000       0x39 build/default/debug/_ext/172253694/crypt_rng_sam6334.o
 .text          0x00000000        0x0 build/default/debug/_ext/172253694/crypt_rng_u2242.o
 .data          0x00000000        0x0 build/default/debug/_ext/172253694/crypt_rng_u2242.o
 .bss           0x00000000        0x0 build/default/debug/_ext/172253694/crypt_rng_u2242.o
 .debug_info    0x00000000      0x342 build/default/debug/_ext/172253694/crypt_rng_u2242.o
 .debug_abbrev  0x00000000       0x44 build/default/debug/_ext/172253694/crypt_rng_u2242.o
 .debug_aranges
                0x00000000       0x18 build/default/debug/_ext/172253694/crypt_rng_u2242.o
 .debug_line    0x00000000       0x9e build/default/debug/_ext/172253694/crypt_rng_u2242.o
 .debug_str     0x00000000        0x0 build/default/debug/_ext/172253694/crypt_rng_u2242.o
 .comment       0x00000000       0x54 build/default/debug/_ext/172253694/crypt_rng_u2242.o
 .ARM.attributes
                0x00000000       0x39 build/default/debug/_ext/172253694/crypt_rng_u2242.o
 .text          0x00000000        0x0 build/default/debug/_ext/172253694/crypt_rsa_pukcl.o
 .data          0x00000000        0x0 build/default/debug/_ext/172253694/crypt_rsa_pukcl.o
 .bss           0x00000000        0x0 build/default/debug/_ext/172253694/crypt_rsa_pukcl.o
 .debug_info    0x00000000     0x298c build/default/debug/_ext/172253694/crypt_rsa_pukcl.o
 .debug_abbrev  0x00000000      0x106 build/default/debug/_ext/172253694/crypt_rsa_pukcl.o
 .debug_aranges
                0x00000000       0x18 build/default/debug/_ext/172253694/crypt_rsa_pukcl.o
 .debug_line    0x00000000      0x4cf build/default/debug/_ext/172253694/crypt_rsa_pukcl.o
 .debug_str     0x00000000      0x20b build/default/debug/_ext/172253694/crypt_rsa_pukcl.o
 .comment       0x00000000       0x54 build/default/debug/_ext/172253694/crypt_rsa_pukcl.o
 .ARM.attributes
                0x00000000       0x39 build/default/debug/_ext/172253694/crypt_rsa_pukcl.o
 .text          0x00000000        0x0 build/default/debug/_ext/172253694/crypt_sam_u2803.o
 .data          0x00000000        0x0 build/default/debug/_ext/172253694/crypt_sam_u2803.o
 .bss           0x00000000        0x0 build/default/debug/_ext/172253694/crypt_sam_u2803.o
 .debug_info    0x00000000      0x333 build/default/debug/_ext/172253694/crypt_sam_u2803.o
 .debug_abbrev  0x00000000       0x44 build/default/debug/_ext/172253694/crypt_sam_u2803.o
 .debug_aranges
                0x00000000       0x18 build/default/debug/_ext/172253694/crypt_sam_u2803.o
 .debug_line    0x00000000       0x9e build/default/debug/_ext/172253694/crypt_sam_u2803.o
 .debug_str     0x00000000        0x0 build/default/debug/_ext/172253694/crypt_sam_u2803.o
 .comment       0x00000000       0x54 build/default/debug/_ext/172253694/crypt_sam_u2803.o
 .ARM.attributes
                0x00000000       0x39 build/default/debug/_ext/172253694/crypt_sam_u2803.o
 .text          0x00000000        0x0 build/default/debug/_ext/172253694/crypt_sha1_sam11105.o
 .data          0x00000000        0x0 build/default/debug/_ext/172253694/crypt_sha1_sam11105.o
 .bss           0x00000000        0x0 build/default/debug/_ext/172253694/crypt_sha1_sam11105.o
 .debug_info    0x00000000      0x346 build/default/debug/_ext/172253694/crypt_sha1_sam11105.o
 .debug_abbrev  0x00000000       0x44 build/default/debug/_ext/172253694/crypt_sha1_sam11105.o
 .debug_aranges
                0x00000000       0x18 build/default/debug/_ext/172253694/crypt_sha1_sam11105.o
 .debug_line    0x00000000       0x9e build/default/debug/_ext/172253694/crypt_sha1_sam11105.o
 .debug_str     0x00000000        0x0 build/default/debug/_ext/172253694/crypt_sha1_sam11105.o
 .comment       0x00000000       0x54 build/default/debug/_ext/172253694/crypt_sha1_sam11105.o
 .ARM.attributes
                0x00000000       0x39 build/default/debug/_ext/172253694/crypt_sha1_sam11105.o
 .text          0x00000000        0x0 build/default/debug/_ext/172253694/crypt_sha1_sam6156.o
 .data          0x00000000        0x0 build/default/debug/_ext/172253694/crypt_sha1_sam6156.o
 .bss           0x00000000        0x0 build/default/debug/_ext/172253694/crypt_sha1_sam6156.o
 .debug_info    0x00000000      0x345 build/default/debug/_ext/172253694/crypt_sha1_sam6156.o
 .debug_abbrev  0x00000000       0x44 build/default/debug/_ext/172253694/crypt_sha1_sam6156.o
 .debug_aranges
                0x00000000       0x18 build/default/debug/_ext/172253694/crypt_sha1_sam6156.o
 .debug_line    0x00000000       0x9e build/default/debug/_ext/172253694/crypt_sha1_sam6156.o
 .debug_str     0x00000000        0x0 build/default/debug/_ext/172253694/crypt_sha1_sam6156.o
 .comment       0x00000000       0x54 build/default/debug/_ext/172253694/crypt_sha1_sam6156.o
 .ARM.attributes
                0x00000000       0x39 build/default/debug/_ext/172253694/crypt_sha1_sam6156.o
 .text          0x00000000        0x0 build/default/debug/_ext/172253694/crypt_sha224_sam11105.o
 .data          0x00000000        0x0 build/default/debug/_ext/172253694/crypt_sha224_sam11105.o
 .bss           0x00000000        0x0 build/default/debug/_ext/172253694/crypt_sha224_sam11105.o
 .debug_info    0x00000000      0x348 build/default/debug/_ext/172253694/crypt_sha224_sam11105.o
 .debug_abbrev  0x00000000       0x44 build/default/debug/_ext/172253694/crypt_sha224_sam11105.o
 .debug_aranges
                0x00000000       0x18 build/default/debug/_ext/172253694/crypt_sha224_sam11105.o
 .debug_line    0x00000000       0x9e build/default/debug/_ext/172253694/crypt_sha224_sam11105.o
 .debug_str     0x00000000        0x0 build/default/debug/_ext/172253694/crypt_sha224_sam11105.o
 .comment       0x00000000       0x54 build/default/debug/_ext/172253694/crypt_sha224_sam11105.o
 .ARM.attributes
                0x00000000       0x39 build/default/debug/_ext/172253694/crypt_sha224_sam11105.o
 .text          0x00000000        0x0 build/default/debug/_ext/172253694/crypt_sha224_sam6156.o
 .data          0x00000000        0x0 build/default/debug/_ext/172253694/crypt_sha224_sam6156.o
 .bss           0x00000000        0x0 build/default/debug/_ext/172253694/crypt_sha224_sam6156.o
 .debug_info    0x00000000      0x347 build/default/debug/_ext/172253694/crypt_sha224_sam6156.o
 .debug_abbrev  0x00000000       0x44 build/default/debug/_ext/172253694/crypt_sha224_sam6156.o
 .debug_aranges
                0x00000000       0x18 build/default/debug/_ext/172253694/crypt_sha224_sam6156.o
 .debug_line    0x00000000       0x9e build/default/debug/_ext/172253694/crypt_sha224_sam6156.o
 .debug_str     0x00000000        0x0 build/default/debug/_ext/172253694/crypt_sha224_sam6156.o
 .comment       0x00000000       0x54 build/default/debug/_ext/172253694/crypt_sha224_sam6156.o
 .ARM.attributes
                0x00000000       0x39 build/default/debug/_ext/172253694/crypt_sha224_sam6156.o
 .text          0x00000000        0x0 build/default/debug/_ext/172253694/crypt_sha256_sam11105.o
 .data          0x00000000        0x0 build/default/debug/_ext/172253694/crypt_sha256_sam11105.o
 .bss           0x00000000        0x0 build/default/debug/_ext/172253694/crypt_sha256_sam11105.o
 .debug_info    0x00000000      0x348 build/default/debug/_ext/172253694/crypt_sha256_sam11105.o
 .debug_abbrev  0x00000000       0x44 build/default/debug/_ext/172253694/crypt_sha256_sam11105.o
 .debug_aranges
                0x00000000       0x18 build/default/debug/_ext/172253694/crypt_sha256_sam11105.o
 .debug_line    0x00000000       0x9e build/default/debug/_ext/172253694/crypt_sha256_sam11105.o
 .debug_str     0x00000000        0x0 build/default/debug/_ext/172253694/crypt_sha256_sam11105.o
 .comment       0x00000000       0x54 build/default/debug/_ext/172253694/crypt_sha256_sam11105.o
 .ARM.attributes
                0x00000000       0x39 build/default/debug/_ext/172253694/crypt_sha256_sam11105.o
 .text          0x00000000        0x0 build/default/debug/_ext/172253694/crypt_sha256_sam6156.o
 .data          0x00000000        0x0 build/default/debug/_ext/172253694/crypt_sha256_sam6156.o
 .bss           0x00000000        0x0 build/default/debug/_ext/172253694/crypt_sha256_sam6156.o
 .debug_info    0x00000000      0x347 build/default/debug/_ext/172253694/crypt_sha256_sam6156.o
 .debug_abbrev  0x00000000       0x44 build/default/debug/_ext/172253694/crypt_sha256_sam6156.o
 .debug_aranges
                0x00000000       0x18 build/default/debug/_ext/172253694/crypt_sha256_sam6156.o
 .debug_line    0x00000000       0x9e build/default/debug/_ext/172253694/crypt_sha256_sam6156.o
 .debug_str     0x00000000        0x0 build/default/debug/_ext/172253694/crypt_sha256_sam6156.o
 .comment       0x00000000       0x54 build/default/debug/_ext/172253694/crypt_sha256_sam6156.o
 .ARM.attributes
                0x00000000       0x39 build/default/debug/_ext/172253694/crypt_sha256_sam6156.o
 .text          0x00000000        0x0 build/default/debug/_ext/172253694/crypt_sha384_sam6156.o
 .data          0x00000000        0x0 build/default/debug/_ext/172253694/crypt_sha384_sam6156.o
 .bss           0x00000000        0x0 build/default/debug/_ext/172253694/crypt_sha384_sam6156.o
 .debug_info    0x00000000      0x347 build/default/debug/_ext/172253694/crypt_sha384_sam6156.o
 .debug_abbrev  0x00000000       0x44 build/default/debug/_ext/172253694/crypt_sha384_sam6156.o
 .debug_aranges
                0x00000000       0x18 build/default/debug/_ext/172253694/crypt_sha384_sam6156.o
 .debug_line    0x00000000       0x9e build/default/debug/_ext/172253694/crypt_sha384_sam6156.o
 .debug_str     0x00000000        0x0 build/default/debug/_ext/172253694/crypt_sha384_sam6156.o
 .comment       0x00000000       0x54 build/default/debug/_ext/172253694/crypt_sha384_sam6156.o
 .ARM.attributes
                0x00000000       0x39 build/default/debug/_ext/172253694/crypt_sha384_sam6156.o
 .text          0x00000000        0x0 build/default/debug/_ext/172253694/crypt_sha512_sam6156.o
 .data          0x00000000        0x0 build/default/debug/_ext/172253694/crypt_sha512_sam6156.o
 .bss           0x00000000        0x0 build/default/debug/_ext/172253694/crypt_sha512_sam6156.o
 .debug_info    0x00000000      0x347 build/default/debug/_ext/172253694/crypt_sha512_sam6156.o
 .debug_abbrev  0x00000000       0x44 build/default/debug/_ext/172253694/crypt_sha512_sam6156.o
 .debug_aranges
                0x00000000       0x18 build/default/debug/_ext/172253694/crypt_sha512_sam6156.o
 .debug_line    0x00000000       0x9e build/default/debug/_ext/172253694/crypt_sha512_sam6156.o
 .debug_str     0x00000000        0x0 build/default/debug/_ext/172253694/crypt_sha512_sam6156.o
 .comment       0x00000000       0x54 build/default/debug/_ext/172253694/crypt_sha512_sam6156.o
 .ARM.attributes
                0x00000000       0x39 build/default/debug/_ext/172253694/crypt_sha512_sam6156.o
 .text          0x00000000        0x0 build/default/debug/_ext/172253694/crypt_tdes_sam6150.o
 .data          0x00000000        0x0 build/default/debug/_ext/172253694/crypt_tdes_sam6150.o
 .bss           0x00000000        0x0 build/default/debug/_ext/172253694/crypt_tdes_sam6150.o
 .debug_info    0x00000000      0x336 build/default/debug/_ext/172253694/crypt_tdes_sam6150.o
 .debug_abbrev  0x00000000       0x44 build/default/debug/_ext/172253694/crypt_tdes_sam6150.o
 .debug_aranges
                0x00000000       0x18 build/default/debug/_ext/172253694/crypt_tdes_sam6150.o
 .debug_line    0x00000000       0x9e build/default/debug/_ext/172253694/crypt_tdes_sam6150.o
 .debug_str     0x00000000        0x0 build/default/debug/_ext/172253694/crypt_tdes_sam6150.o
 .comment       0x00000000       0x54 build/default/debug/_ext/172253694/crypt_tdes_sam6150.o
 .ARM.attributes
                0x00000000       0x39 build/default/debug/_ext/172253694/crypt_tdes_sam6150.o
 .text          0x00000000        0x0 build/default/debug/_ext/172253694/crypt_wolfcryptcb.o
 .data          0x00000000        0x0 build/default/debug/_ext/172253694/crypt_wolfcryptcb.o
 .bss           0x00000000        0x0 build/default/debug/_ext/172253694/crypt_wolfcryptcb.o
 .text          0x00000000        0x0 build/default/debug/_ext/1664057780/arc4.o
 .data          0x00000000        0x0 build/default/debug/_ext/1664057780/arc4.o
 .bss           0x00000000        0x0 build/default/debug/_ext/1664057780/arc4.o
 .debug_info    0x00000000      0x32c build/default/debug/_ext/1664057780/arc4.o
 .debug_abbrev  0x00000000       0x44 build/default/debug/_ext/1664057780/arc4.o
 .debug_aranges
                0x00000000       0x18 build/default/debug/_ext/1664057780/arc4.o
 .debug_line    0x00000000       0x9e build/default/debug/_ext/1664057780/arc4.o
 .debug_str     0x00000000        0x0 build/default/debug/_ext/1664057780/arc4.o
 .comment       0x00000000       0x54 build/default/debug/_ext/1664057780/arc4.o
 .ARM.attributes
                0x00000000       0x39 build/default/debug/_ext/1664057780/arc4.o
 .text          0x00000000        0x0 build/default/debug/_ext/1664057780/asm.o
 .data          0x00000000        0x0 build/default/debug/_ext/1664057780/asm.o
 .bss           0x00000000        0x0 build/default/debug/_ext/1664057780/asm.o
 .debug_info    0x00000000      0x32b build/default/debug/_ext/1664057780/asm.o
 .debug_abbrev  0x00000000       0x44 build/default/debug/_ext/1664057780/asm.o
 .debug_aranges
                0x00000000       0x18 build/default/debug/_ext/1664057780/asm.o
 .debug_line    0x00000000       0x9e build/default/debug/_ext/1664057780/asm.o
 .debug_str     0x00000000        0x0 build/default/debug/_ext/1664057780/asm.o
 .comment       0x00000000       0x54 build/default/debug/_ext/1664057780/asm.o
 .ARM.attributes
                0x00000000       0x39 build/default/debug/_ext/1664057780/asm.o
 .text          0x00000000        0x0 build/default/debug/_ext/1664057780/asn.o
 .data          0x00000000        0x0 build/default/debug/_ext/1664057780/asn.o
 .bss           0x00000000        0x0 build/default/debug/_ext/1664057780/asn.o
 .text.GetBoolean
                0x00000000       0x3a build/default/debug/_ext/1664057780/asn.o
 .text.trim_leading_zeros
                0x00000000       0x42 build/default/debug/_ext/1664057780/asn.o
 .text.CheckCurve
                0x00000000       0x28 build/default/debug/_ext/1664057780/asn.o
 .text.MatchBaseName
                0x00000000       0xf4 build/default/debug/_ext/1664057780/asn.o
 .text.OurPasswordCb
                0x00000000       0x22 build/default/debug/_ext/1664057780/asn.o
 .text.GetLength_ex
                0x00000000       0x7a build/default/debug/_ext/1664057780/asn.o
 .text.GetLength
                0x00000000       0x10 build/default/debug/_ext/1664057780/asn.o
 .text.GetDateInfo
                0x00000000       0x8e build/default/debug/_ext/1664057780/asn.o
 .text.GetASNTag
                0x00000000       0x36 build/default/debug/_ext/1664057780/asn.o
 .text.GetASNHeader_ex
                0x00000000       0x58 build/default/debug/_ext/1664057780/asn.o
 .text.GetASNInt
                0x00000000       0x6c build/default/debug/_ext/1664057780/asn.o
 .text.GetSequence
                0x00000000       0x18 build/default/debug/_ext/1664057780/asn.o
 .text.GetSequence_ex
                0x00000000       0x18 build/default/debug/_ext/1664057780/asn.o
 .text.GetSet   0x00000000       0x18 build/default/debug/_ext/1664057780/asn.o
 .text.GetSet_ex
                0x00000000       0x18 build/default/debug/_ext/1664057780/asn.o
 .text.GetOctetString
                0x00000000       0x18 build/default/debug/_ext/1664057780/asn.o
 .text.GetSigName
                0x00000000       0x7c build/default/debug/_ext/1664057780/asn.o
 .text.GetMyVersion
                0x00000000       0x58 build/default/debug/_ext/1664057780/asn.o
 .text.GetInt   0x00000000       0x56 build/default/debug/_ext/1664057780/asn.o
 .text.CheckBitString
                0x00000000       0xbe build/default/debug/_ext/1664057780/asn.o
 .text.OidFromId
                0x00000000      0x630 build/default/debug/_ext/1664057780/asn.o
 .text.GetASNObjectId
                0x00000000       0x68 build/default/debug/_ext/1664057780/asn.o
 .text.SkipObjectId
                0x00000000       0x26 build/default/debug/_ext/1664057780/asn.o
 .text.GetObjectId
                0x00000000       0x94 build/default/debug/_ext/1664057780/asn.o
 .text.GetAlgoId
                0x00000000       0x9c build/default/debug/_ext/1664057780/asn.o
 .text.wc_RsaPrivateKeyDecode
                0x00000000      0x11a build/default/debug/_ext/1664057780/asn.o
 .text.ToTraditionalInline_ex
                0x00000000       0xc2 build/default/debug/_ext/1664057780/asn.o
 .text.ToTraditionalInline
                0x00000000       0x10 build/default/debug/_ext/1664057780/asn.o
 .text.ToTraditional_ex
                0x00000000       0x40 build/default/debug/_ext/1664057780/asn.o
 .text.ToTraditional
                0x00000000       0x10 build/default/debug/_ext/1664057780/asn.o
 .text.wc_GetPkcs8TraditionalOffset
                0x00000000       0x30 build/default/debug/_ext/1664057780/asn.o
 .text.wc_RsaPublicKeyDecode_ex
                0x00000000      0x17a build/default/debug/_ext/1664057780/asn.o
 .text.wc_RsaPublicKeyDecodeRaw
                0x00000000       0x92 build/default/debug/_ext/1664057780/asn.o
 .text.wc_RsaPublicKeyDecode
                0x00000000       0x48 build/default/debug/_ext/1664057780/asn.o
 .text.FreeAltNames
                0x00000000       0x22 build/default/debug/_ext/1664057780/asn.o
 .text.FreeNameSubtrees
                0x00000000       0x22 build/default/debug/_ext/1664057780/asn.o
 .text.CalcHashId
                0x00000000        0x8 build/default/debug/_ext/1664057780/asn.o
 .text.GetName  0x00000000      0x404 build/default/debug/_ext/1664057780/asn.o
 .text.ExtractDate
                0x00000000      0x200 build/default/debug/_ext/1664057780/asn.o
 .text.DateGreaterThan
                0x00000000       0x92 build/default/debug/_ext/1664057780/asn.o
 .text.wc_ValidateDate
                0x00000000       0xfa build/default/debug/_ext/1664057780/asn.o
 .text.GetDate  0x00000000       0xaa build/default/debug/_ext/1664057780/asn.o
 .text.wc_GetTime
                0x00000000       0x22 build/default/debug/_ext/1664057780/asn.o
 .text.wc_GetDateInfo
                0x00000000       0x1c build/default/debug/_ext/1664057780/asn.o
 .text.wc_GetDateAsCalendarTime
                0x00000000       0x22 build/default/debug/_ext/1664057780/asn.o
 .text.SetLength
                0x00000000       0x7a build/default/debug/_ext/1664057780/asn.o
 .text.SetASNInt
                0x00000000       0x44 build/default/debug/_ext/1664057780/asn.o
 .text.SetASNIntMP
                0x00000000       0x8a build/default/debug/_ext/1664057780/asn.o
 .text.SetBitString
                0x00000000       0x28 build/default/debug/_ext/1664057780/asn.o
 .text.SetObjectId
                0x00000000       0x16 build/default/debug/_ext/1664057780/asn.o
 .text.SetCurve
                0x00000000       0x32 build/default/debug/_ext/1664057780/asn.o
 .text.SetSequence
                0x00000000       0x16 build/default/debug/_ext/1664057780/asn.o
 .text.SetOctetString
                0x00000000       0x10 build/default/debug/_ext/1664057780/asn.o
 .text.SetSet   0x00000000       0x10 build/default/debug/_ext/1664057780/asn.o
 .text.SetImplicit
                0x00000000       0x24 build/default/debug/_ext/1664057780/asn.o
 .text.SetExplicit
                0x00000000       0x18 build/default/debug/_ext/1664057780/asn.o
 .text.SetAlgoID
                0x00000000      0x108 build/default/debug/_ext/1664057780/asn.o
 .text.SetEccPublicKey
                0x00000000       0xa0 build/default/debug/_ext/1664057780/asn.o
 .text.wc_EncodeSignature
                0x00000000       0x66 build/default/debug/_ext/1664057780/asn.o
 .text.wc_GetCTC_HashOID
                0x00000000       0x10 build/default/debug/_ext/1664057780/asn.o
 .text.InitSignatureCtx
                0x00000000       0x1c build/default/debug/_ext/1664057780/asn.o
 .text.InitDecodedCert
                0x00000000       0x4a build/default/debug/_ext/1664057780/asn.o
 .text.FreeSignatureCtx
                0x00000000       0x5c build/default/debug/_ext/1664057780/asn.o
 .text.FreeDecodedCert
                0x00000000       0x7e build/default/debug/_ext/1664057780/asn.o
 .text.GetCA    0x00000000        0x2 build/default/debug/_ext/1664057780/asn.o
 .text.GetCAByName
                0x00000000        0x2 build/default/debug/_ext/1664057780/asn.o
 .text.MakeSigner
                0x00000000       0x18 build/default/debug/_ext/1664057780/asn.o
 .text.FreeSigner
                0x00000000       0x32 build/default/debug/_ext/1664057780/asn.o
 .text.FreeSignerTable
                0x00000000       0x3e build/default/debug/_ext/1664057780/asn.o
 .text.SetMyVersion
                0x00000000       0x28 build/default/debug/_ext/1664057780/asn.o
 .text.wc_CreatePKCS8Key
                0x00000000      0x146 build/default/debug/_ext/1664057780/asn.o
 .text.wc_BuildEccKeyDer
                0x00000000      0x1da build/default/debug/_ext/1664057780/asn.o
 .text.eccToPKCS8
                0x00000000      0x104 build/default/debug/_ext/1664057780/asn.o
 .text.SetSerialNumber
                0x00000000       0x9c build/default/debug/_ext/1664057780/asn.o
 .text.GetSerialNumber
                0x00000000       0x64 build/default/debug/_ext/1664057780/asn.o
 .text.wc_GetPubX509
                0x00000000      0x16e build/default/debug/_ext/1664057780/asn.o
 .text.DecodeToKey
                0x00000000      0x1cc build/default/debug/_ext/1664057780/asn.o
 .text.AllocDer
                0x00000000       0x88 build/default/debug/_ext/1664057780/asn.o
 .text.FreeDer  0x00000000       0x38 build/default/debug/_ext/1664057780/asn.o
 .text.wc_AllocDer
                0x00000000        0x8 build/default/debug/_ext/1664057780/asn.o
 .text.wc_FreeDer
                0x00000000        0x8 build/default/debug/_ext/1664057780/asn.o
 .text.wc_PemGetHeaderFooter
                0x00000000       0xf0 build/default/debug/_ext/1664057780/asn.o
 .text.PemToDer
                0x00000000      0x1d8 build/default/debug/_ext/1664057780/asn.o
 .text.wc_PemToDer
                0x00000000       0x18 build/default/debug/_ext/1664057780/asn.o
 .text.wc_KeyPemToDer
                0x00000000       0x8c build/default/debug/_ext/1664057780/asn.o
 .text.wc_CertPemToDer
                0x00000000       0x7a build/default/debug/_ext/1664057780/asn.o
 .text.wc_EccPublicKeyToDer
                0x00000000       0x56 build/default/debug/_ext/1664057780/asn.o
 .text.wc_EccPublicKeyDerSize
                0x00000000        0xe build/default/debug/_ext/1664057780/asn.o
 .text.StoreECC_DSA_Sig
                0x00000000       0x7a build/default/debug/_ext/1664057780/asn.o
 .text.StoreECC_DSA_Sig_Bin
                0x00000000       0xe8 build/default/debug/_ext/1664057780/asn.o
 .text.DecodeECC_DSA_Sig_Bin
                0x00000000       0x9a build/default/debug/_ext/1664057780/asn.o
 .text.DecodeECC_DSA_Sig
                0x00000000       0x70 build/default/debug/_ext/1664057780/asn.o
 .text.wc_EccPrivateKeyDecode
                0x00000000      0x1a0 build/default/debug/_ext/1664057780/asn.o
 .text.wc_CheckPrivateKey
                0x00000000      0x18c build/default/debug/_ext/1664057780/asn.o
 .text.wc_CheckPrivateKeyCert
                0x00000000       0x26 build/default/debug/_ext/1664057780/asn.o
 .text.wc_EccPublicKeyDecode
                0x00000000      0x1f4 build/default/debug/_ext/1664057780/asn.o
 .text.ConfirmSignature
                0x00000000      0x35e build/default/debug/_ext/1664057780/asn.o
 .text.ParseCertRelative
                0x00000000     0x1176 build/default/debug/_ext/1664057780/asn.o
 .text.ParseCert
                0x00000000       0x7e build/default/debug/_ext/1664057780/asn.o
 .text.wc_EccKeyToDer
                0x00000000        0xa build/default/debug/_ext/1664057780/asn.o
 .text.wc_EccPrivateKeyToDer
                0x00000000        0xa build/default/debug/_ext/1664057780/asn.o
 .text.wc_EccPrivateKeyToPKCS8
                0x00000000        0xa build/default/debug/_ext/1664057780/asn.o
 .text.wc_EccKeyToPKCS8
                0x00000000        0xa build/default/debug/_ext/1664057780/asn.o
 .text.GetNameHash
                0x00000000       0x7c build/default/debug/_ext/1664057780/asn.o
 .rodata        0x00000000      0x244 build/default/debug/_ext/1664057780/asn.o
 .rodata.BEGIN_CERT
                0x00000000        0x4 build/default/debug/_ext/1664057780/asn.o
 .rodata.BEGIN_DSA_PRIV
                0x00000000        0x4 build/default/debug/_ext/1664057780/asn.o
 .rodata.BEGIN_EC_PRIV
                0x00000000        0x4 build/default/debug/_ext/1664057780/asn.o
 .rodata.BEGIN_ENC_PRIV_KEY
                0x00000000        0x4 build/default/debug/_ext/1664057780/asn.o
 .rodata.BEGIN_PRIV_KEY
                0x00000000        0x4 build/default/debug/_ext/1664057780/asn.o
 .rodata.BEGIN_PUB_KEY
                0x00000000        0x4 build/default/debug/_ext/1664057780/asn.o
 .rodata.BEGIN_RSA_PRIV
                0x00000000        0x4 build/default/debug/_ext/1664057780/asn.o
 .rodata.BEGIN_X509_CRL
                0x00000000        0x4 build/default/debug/_ext/1664057780/asn.o
 .rodata.END_CERT
                0x00000000        0x4 build/default/debug/_ext/1664057780/asn.o
 .rodata.END_DSA_PRIV
                0x00000000        0x4 build/default/debug/_ext/1664057780/asn.o
 .rodata.END_EC_PRIV
                0x00000000        0x4 build/default/debug/_ext/1664057780/asn.o
 .rodata.END_ENC_PRIV_KEY
                0x00000000        0x4 build/default/debug/_ext/1664057780/asn.o
 .rodata.END_PRIV_KEY
                0x00000000        0x4 build/default/debug/_ext/1664057780/asn.o
 .rodata.END_PUB_KEY
                0x00000000        0x4 build/default/debug/_ext/1664057780/asn.o
 .rodata.END_RSA_PRIV
                0x00000000        0x4 build/default/debug/_ext/1664057780/asn.o
 .rodata.END_X509_CRL
                0x00000000        0x4 build/default/debug/_ext/1664057780/asn.o
 .rodata.blkAes128CbcOid
                0x00000000        0xc build/default/debug/_ext/1664057780/asn.o
 .rodata.blkAes128CcmOid
                0x00000000        0xc build/default/debug/_ext/1664057780/asn.o
 .rodata.blkAes128GcmOid
                0x00000000        0xc build/default/debug/_ext/1664057780/asn.o
 .rodata.blkAes192CbcOid
                0x00000000        0xc build/default/debug/_ext/1664057780/asn.o
 .rodata.blkAes192CcmOid
                0x00000000        0xc build/default/debug/_ext/1664057780/asn.o
 .rodata.blkAes192GcmOid
                0x00000000        0xc build/default/debug/_ext/1664057780/asn.o
 .rodata.blkAes256CbcOid
                0x00000000        0xc build/default/debug/_ext/1664057780/asn.o
 .rodata.blkAes256CcmOid
                0x00000000        0xc build/default/debug/_ext/1664057780/asn.o
 .rodata.blkAes256GcmOid
                0x00000000        0xc build/default/debug/_ext/1664057780/asn.o
 .rodata.blkDes3CbcOid
                0x00000000        0x8 build/default/debug/_ext/1664057780/asn.o
 .rodata.blkDesCbcOid
                0x00000000        0x8 build/default/debug/_ext/1664057780/asn.o
 .rodata.dhSinglePass_stdDH_sha1kdf_Oid
                0x00000000        0xc build/default/debug/_ext/1664057780/asn.o
 .rodata.dhSinglePass_stdDH_sha224kdf_Oid
                0x00000000        0x8 build/default/debug/_ext/1664057780/asn.o
 .rodata.dhSinglePass_stdDH_sha256kdf_Oid
                0x00000000        0x8 build/default/debug/_ext/1664057780/asn.o
 .rodata.extAltNamesHwNameOid
                0x00000000        0x8 build/default/debug/_ext/1664057780/asn.o
 .rodata.extAltNamesOid
                0x00000000        0x4 build/default/debug/_ext/1664057780/asn.o
 .rodata.extAuthInfoCaIssuerOid
                0x00000000        0x8 build/default/debug/_ext/1664057780/asn.o
 .rodata.extAuthInfoOid
                0x00000000        0x8 build/default/debug/_ext/1664057780/asn.o
 .rodata.extAuthKeyOid
                0x00000000        0x4 build/default/debug/_ext/1664057780/asn.o
 .rodata.extBasicCaOid
                0x00000000        0x4 build/default/debug/_ext/1664057780/asn.o
 .rodata.extCertPolicyAnyOid
                0x00000000        0x4 build/default/debug/_ext/1664057780/asn.o
 .rodata.extCertPolicyOid
                0x00000000        0x4 build/default/debug/_ext/1664057780/asn.o
 .rodata.extCrlDistOid
                0x00000000        0x4 build/default/debug/_ext/1664057780/asn.o
 .rodata.extExtKeyUsageAnyOid
                0x00000000        0x4 build/default/debug/_ext/1664057780/asn.o
 .rodata.extExtKeyUsageClientAuthOid
                0x00000000        0x8 build/default/debug/_ext/1664057780/asn.o
 .rodata.extExtKeyUsageCodeSigningOid
                0x00000000        0x8 build/default/debug/_ext/1664057780/asn.o
 .rodata.extExtKeyUsageEmailProtectOid
                0x00000000        0x8 build/default/debug/_ext/1664057780/asn.o
 .rodata.extExtKeyUsageOcspSignOid
                0x00000000        0x8 build/default/debug/_ext/1664057780/asn.o
 .rodata.extExtKeyUsageOid
                0x00000000        0x4 build/default/debug/_ext/1664057780/asn.o
 .rodata.extExtKeyUsageServerAuthOid
                0x00000000        0x8 build/default/debug/_ext/1664057780/asn.o
 .rodata.extExtKeyUsageTimestampOid
                0x00000000        0x8 build/default/debug/_ext/1664057780/asn.o
 .rodata.extInhibitAnyOid
                0x00000000        0x4 build/default/debug/_ext/1664057780/asn.o
 .rodata.extKeyUsageOid
                0x00000000        0x4 build/default/debug/_ext/1664057780/asn.o
 .rodata.extNameConsOid
                0x00000000        0x4 build/default/debug/_ext/1664057780/asn.o
 .rodata.extSubjKeyOid
                0x00000000        0x4 build/default/debug/_ext/1664057780/asn.o
 .rodata.hashMd5hOid
                0x00000000        0x8 build/default/debug/_ext/1664057780/asn.o
 .rodata.hashSha1hOid
                0x00000000        0x8 build/default/debug/_ext/1664057780/asn.o
 .rodata.hashSha224hOid
                0x00000000        0xc build/default/debug/_ext/1664057780/asn.o
 .rodata.hashSha256hOid
                0x00000000        0xc build/default/debug/_ext/1664057780/asn.o
 .rodata.hmacSha224Oid
                0x00000000        0x8 build/default/debug/_ext/1664057780/asn.o
 .rodata.hmacSha256Oid
                0x00000000        0x8 build/default/debug/_ext/1664057780/asn.o
 .rodata.keyEcdsaOid
                0x00000000        0x8 build/default/debug/_ext/1664057780/asn.o
 .rodata.keyRsaOid
                0x00000000        0xc build/default/debug/_ext/1664057780/asn.o
 .rodata.pbeSha1Des
                0x00000000        0xc build/default/debug/_ext/1664057780/asn.o
 .rodata.pbeSha1Des3
                0x00000000        0xc build/default/debug/_ext/1664057780/asn.o
 .rodata.pbes2  0x00000000        0xc build/default/debug/_ext/1664057780/asn.o
 .rodata.pbkdf2Oid
                0x00000000        0xc build/default/debug/_ext/1664057780/asn.o
 .rodata.pem_struct_min_sz
                0x00000000        0x4 build/default/debug/_ext/1664057780/asn.o
 .rodata.sigMd5wRsaName
                0x00000000       0x18 build/default/debug/_ext/1664057780/asn.o
 .rodata.sigMd5wRsaOid
                0x00000000        0xc build/default/debug/_ext/1664057780/asn.o
 .rodata.sigSha1wEcdsaName
                0x00000000        0xc build/default/debug/_ext/1664057780/asn.o
 .rodata.sigSha1wEcdsaOid
                0x00000000        0x8 build/default/debug/_ext/1664057780/asn.o
 .rodata.sigSha1wRsaName
                0x00000000       0x18 build/default/debug/_ext/1664057780/asn.o
 .rodata.sigSha1wRsaOid
                0x00000000        0xc build/default/debug/_ext/1664057780/asn.o
 .rodata.sigSha224wEcdsaName
                0x00000000       0x10 build/default/debug/_ext/1664057780/asn.o
 .rodata.sigSha224wEcdsaOid
                0x00000000        0x8 build/default/debug/_ext/1664057780/asn.o
 .rodata.sigSha224wRsaName
                0x00000000       0x18 build/default/debug/_ext/1664057780/asn.o
 .rodata.sigSha224wRsaOid
                0x00000000        0xc build/default/debug/_ext/1664057780/asn.o
 .rodata.sigSha256wEcdsaName
                0x00000000       0x10 build/default/debug/_ext/1664057780/asn.o
 .rodata.sigSha256wEcdsaOid
                0x00000000        0x8 build/default/debug/_ext/1664057780/asn.o
 .rodata.sigSha256wRsaName
                0x00000000       0x18 build/default/debug/_ext/1664057780/asn.o
 .rodata.sigSha256wRsaOid
                0x00000000        0xc build/default/debug/_ext/1664057780/asn.o
 .rodata.sigUnknownName
                0x00000000        0x8 build/default/debug/_ext/1664057780/asn.o
 .rodata.wrapAes128Oid
                0x00000000        0xc build/default/debug/_ext/1664057780/asn.o
 .rodata.wrapAes192Oid
                0x00000000        0xc build/default/debug/_ext/1664057780/asn.o
 .rodata.wrapAes256Oid
                0x00000000        0xc build/default/debug/_ext/1664057780/asn.o
 .debug_info    0x00000000     0xfe8c build/default/debug/_ext/1664057780/asn.o
 .debug_abbrev  0x00000000      0x6b0 build/default/debug/_ext/1664057780/asn.o
 .debug_loc     0x00000000     0xd4e6 build/default/debug/_ext/1664057780/asn.o
 .debug_aranges
                0x00000000      0x358 build/default/debug/_ext/1664057780/asn.o
 .debug_ranges  0x00000000      0x9b0 build/default/debug/_ext/1664057780/asn.o
 .debug_line    0x00000000     0x5b1f build/default/debug/_ext/1664057780/asn.o
 .debug_str     0x00000000      0x401 build/default/debug/_ext/1664057780/asn.o
 .comment       0x00000000       0x54 build/default/debug/_ext/1664057780/asn.o
 .debug_frame   0x00000000      0xe78 build/default/debug/_ext/1664057780/asn.o
 .ARM.attributes
                0x00000000       0x34 build/default/debug/_ext/1664057780/asn.o
 .text          0x00000000        0x0 build/default/debug/_ext/1664057780/blake2b.o
 .data          0x00000000        0x0 build/default/debug/_ext/1664057780/blake2b.o
 .bss           0x00000000        0x0 build/default/debug/_ext/1664057780/blake2b.o
 .debug_info    0x00000000      0x32f build/default/debug/_ext/1664057780/blake2b.o
 .debug_abbrev  0x00000000       0x44 build/default/debug/_ext/1664057780/blake2b.o
 .debug_aranges
                0x00000000       0x18 build/default/debug/_ext/1664057780/blake2b.o
 .debug_line    0x00000000       0x9e build/default/debug/_ext/1664057780/blake2b.o
 .debug_str     0x00000000        0x0 build/default/debug/_ext/1664057780/blake2b.o
 .comment       0x00000000       0x54 build/default/debug/_ext/1664057780/blake2b.o
 .ARM.attributes
                0x00000000       0x39 build/default/debug/_ext/1664057780/blake2b.o
 .text          0x00000000        0x0 build/default/debug/_ext/1664057780/blake2s.o
 .data          0x00000000        0x0 build/default/debug/_ext/1664057780/blake2s.o
 .bss           0x00000000        0x0 build/default/debug/_ext/1664057780/blake2s.o
 .debug_info    0x00000000      0x32f build/default/debug/_ext/1664057780/blake2s.o
 .debug_abbrev  0x00000000       0x44 build/default/debug/_ext/1664057780/blake2s.o
 .debug_aranges
                0x00000000       0x18 build/default/debug/_ext/1664057780/blake2s.o
 .debug_line    0x00000000       0x9e build/default/debug/_ext/1664057780/blake2s.o
 .debug_str     0x00000000        0x0 build/default/debug/_ext/1664057780/blake2s.o
 .comment       0x00000000       0x54 build/default/debug/_ext/1664057780/blake2s.o
 .ARM.attributes
                0x00000000       0x39 build/default/debug/_ext/1664057780/blake2s.o
 .text          0x00000000        0x0 build/default/debug/_ext/1664057780/camellia.o
 .data          0x00000000        0x0 build/default/debug/_ext/1664057780/camellia.o
 .bss           0x00000000        0x0 build/default/debug/_ext/1664057780/camellia.o
 .debug_info    0x00000000      0x330 build/default/debug/_ext/1664057780/camellia.o
 .debug_abbrev  0x00000000       0x44 build/default/debug/_ext/1664057780/camellia.o
 .debug_aranges
                0x00000000       0x18 build/default/debug/_ext/1664057780/camellia.o
 .debug_line    0x00000000       0x9e build/default/debug/_ext/1664057780/camellia.o
 .debug_str     0x00000000        0x0 build/default/debug/_ext/1664057780/camellia.o
 .comment       0x00000000       0x54 build/default/debug/_ext/1664057780/camellia.o
 .ARM.attributes
                0x00000000       0x39 build/default/debug/_ext/1664057780/camellia.o
 .text          0x00000000        0x0 build/default/debug/_ext/1664057780/chacha.o
 .data          0x00000000        0x0 build/default/debug/_ext/1664057780/chacha.o
 .bss           0x00000000        0x0 build/default/debug/_ext/1664057780/chacha.o
 .debug_info    0x00000000      0x32e build/default/debug/_ext/1664057780/chacha.o
 .debug_abbrev  0x00000000       0x44 build/default/debug/_ext/1664057780/chacha.o
 .debug_aranges
                0x00000000       0x18 build/default/debug/_ext/1664057780/chacha.o
 .debug_line    0x00000000       0x9e build/default/debug/_ext/1664057780/chacha.o
 .debug_str     0x00000000        0x0 build/default/debug/_ext/1664057780/chacha.o
 .comment       0x00000000       0x54 build/default/debug/_ext/1664057780/chacha.o
 .ARM.attributes
                0x00000000       0x39 build/default/debug/_ext/1664057780/chacha.o
 .text          0x00000000        0x0 build/default/debug/_ext/1664057780/chacha20_poly1305.o
 .data          0x00000000        0x0 build/default/debug/_ext/1664057780/chacha20_poly1305.o
 .bss           0x00000000        0x0 build/default/debug/_ext/1664057780/chacha20_poly1305.o
 .debug_info    0x00000000      0x339 build/default/debug/_ext/1664057780/chacha20_poly1305.o
 .debug_abbrev  0x00000000       0x44 build/default/debug/_ext/1664057780/chacha20_poly1305.o
 .debug_aranges
                0x00000000       0x18 build/default/debug/_ext/1664057780/chacha20_poly1305.o
 .debug_line    0x00000000       0x9e build/default/debug/_ext/1664057780/chacha20_poly1305.o
 .debug_str     0x00000000        0x0 build/default/debug/_ext/1664057780/chacha20_poly1305.o
 .comment       0x00000000       0x54 build/default/debug/_ext/1664057780/chacha20_poly1305.o
 .ARM.attributes
                0x00000000       0x39 build/default/debug/_ext/1664057780/chacha20_poly1305.o
 .text          0x00000000        0x0 build/default/debug/_ext/1664057780/cmac.o
 .data          0x00000000        0x0 build/default/debug/_ext/1664057780/cmac.o
 .bss           0x00000000        0x0 build/default/debug/_ext/1664057780/cmac.o
 .debug_info    0x00000000      0x32c build/default/debug/_ext/1664057780/cmac.o
 .debug_abbrev  0x00000000       0x44 build/default/debug/_ext/1664057780/cmac.o
 .debug_aranges
                0x00000000       0x18 build/default/debug/_ext/1664057780/cmac.o
 .debug_line    0x00000000       0x9e build/default/debug/_ext/1664057780/cmac.o
 .debug_str     0x00000000        0x0 build/default/debug/_ext/1664057780/cmac.o
 .comment       0x00000000       0x54 build/default/debug/_ext/1664057780/cmac.o
 .ARM.attributes
                0x00000000       0x39 build/default/debug/_ext/1664057780/cmac.o
 .text          0x00000000        0x0 build/default/debug/_ext/1664057780/coding.o
 .data          0x00000000        0x0 build/default/debug/_ext/1664057780/coding.o
 .bss           0x00000000        0x0 build/default/debug/_ext/1664057780/coding.o
 .text.Base64_Decode
                0x00000000      0x464 build/default/debug/_ext/1664057780/coding.o
 .rodata.base64Decode
                0x00000000       0x50 build/default/debug/_ext/1664057780/coding.o
 .debug_info    0x00000000     0x1cb0 build/default/debug/_ext/1664057780/coding.o
 .debug_abbrev  0x00000000      0x217 build/default/debug/_ext/1664057780/coding.o
 .debug_loc     0x00000000     0x1c94 build/default/debug/_ext/1664057780/coding.o
 .debug_aranges
                0x00000000       0x20 build/default/debug/_ext/1664057780/coding.o
 .debug_ranges  0x00000000      0x1e0 build/default/debug/_ext/1664057780/coding.o
 .debug_line    0x00000000      0x6f7 build/default/debug/_ext/1664057780/coding.o
 .debug_str     0x00000000        0x0 build/default/debug/_ext/1664057780/coding.o
 .comment       0x00000000       0x54 build/default/debug/_ext/1664057780/coding.o
 .debug_frame   0x00000000       0x40 build/default/debug/_ext/1664057780/coding.o
 .ARM.attributes
                0x00000000       0x34 build/default/debug/_ext/1664057780/coding.o
 .text          0x00000000        0x0 build/default/debug/_ext/1664057780/compress.o
 .data          0x00000000        0x0 build/default/debug/_ext/1664057780/compress.o
 .bss           0x00000000        0x0 build/default/debug/_ext/1664057780/compress.o
 .debug_info    0x00000000      0x330 build/default/debug/_ext/1664057780/compress.o
 .debug_abbrev  0x00000000       0x44 build/default/debug/_ext/1664057780/compress.o
 .debug_aranges
                0x00000000       0x18 build/default/debug/_ext/1664057780/compress.o
 .debug_line    0x00000000       0x9e build/default/debug/_ext/1664057780/compress.o
 .debug_str     0x00000000        0x0 build/default/debug/_ext/1664057780/compress.o
 .comment       0x00000000       0x54 build/default/debug/_ext/1664057780/compress.o
 .ARM.attributes
                0x00000000       0x39 build/default/debug/_ext/1664057780/compress.o
 .text          0x00000000        0x0 build/default/debug/_ext/1664057780/cpuid.o
 .data          0x00000000        0x0 build/default/debug/_ext/1664057780/cpuid.o
 .bss           0x00000000        0x0 build/default/debug/_ext/1664057780/cpuid.o
 .debug_info    0x00000000      0x390 build/default/debug/_ext/1664057780/cpuid.o
 .debug_abbrev  0x00000000       0x72 build/default/debug/_ext/1664057780/cpuid.o
 .debug_aranges
                0x00000000       0x18 build/default/debug/_ext/1664057780/cpuid.o
 .debug_line    0x00000000       0xe2 build/default/debug/_ext/1664057780/cpuid.o
 .debug_str     0x00000000        0x0 build/default/debug/_ext/1664057780/cpuid.o
 .comment       0x00000000       0x54 build/default/debug/_ext/1664057780/cpuid.o
 .ARM.attributes
                0x00000000       0x39 build/default/debug/_ext/1664057780/cpuid.o
 .text          0x00000000        0x0 build/default/debug/_ext/1664057780/cryptocb.o
 .data          0x00000000        0x0 build/default/debug/_ext/1664057780/cryptocb.o
 .bss           0x00000000        0x0 build/default/debug/_ext/1664057780/cryptocb.o
 .text.wc_CryptoCb_FindDeviceByIndex
                0x00000000       0x48 build/default/debug/_ext/1664057780/cryptocb.o
 .text.wc_CryptoCb_Init
                0x00000000       0x1c build/default/debug/_ext/1664057780/cryptocb.o
 .text.wc_CryptoCb_GetDevIdAtIndex
                0x00000000       0x12 build/default/debug/_ext/1664057780/cryptocb.o
 .text.wc_CryptoCb_UnRegisterDevice
                0x00000000       0x16 build/default/debug/_ext/1664057780/cryptocb.o
 .text.wc_CryptoCb_Rsa
                0x00000000       0x78 build/default/debug/_ext/1664057780/cryptocb.o
 .text.wc_CryptoCb_RsaCheckPrivKey
                0x00000000       0x60 build/default/debug/_ext/1664057780/cryptocb.o
 .text.wc_CryptoCb_MakeEccKey
                0x00000000       0x68 build/default/debug/_ext/1664057780/cryptocb.o
 .text.wc_CryptoCb_Ecdh
                0x00000000       0x66 build/default/debug/_ext/1664057780/cryptocb.o
 .text.wc_CryptoCb_EccSign
                0x00000000       0x72 build/default/debug/_ext/1664057780/cryptocb.o
 .text.wc_CryptoCb_EccVerify
                0x00000000       0x72 build/default/debug/_ext/1664057780/cryptocb.o
 .text.wc_CryptoCb_EccCheckPrivKey
                0x00000000       0x5e build/default/debug/_ext/1664057780/cryptocb.o
 .text.wc_CryptoCb_AesGcmEncrypt
                0x00000000       0x8e build/default/debug/_ext/1664057780/cryptocb.o
 .text.wc_CryptoCb_AesGcmDecrypt
                0x00000000       0x8a build/default/debug/_ext/1664057780/cryptocb.o
 .text.wc_CryptoCb_AesCbcEncrypt
                0x00000000       0x6e build/default/debug/_ext/1664057780/cryptocb.o
 .text.wc_CryptoCb_AesCbcDecrypt
                0x00000000       0x6a build/default/debug/_ext/1664057780/cryptocb.o
 .text.wc_CryptoCb_Des3Encrypt
                0x00000000       0x70 build/default/debug/_ext/1664057780/cryptocb.o
 .text.wc_CryptoCb_Des3Decrypt
                0x00000000       0x6c build/default/debug/_ext/1664057780/cryptocb.o
 .text.wc_CryptoCb_ShaHash
                0x00000000       0x6a build/default/debug/_ext/1664057780/cryptocb.o
 .text.wc_CryptoCb_Sha256Hash
                0x00000000       0x6a build/default/debug/_ext/1664057780/cryptocb.o
 .text.wc_CryptoCb_Hmac
                0x00000000       0x68 build/default/debug/_ext/1664057780/cryptocb.o
 .text.wc_CryptoCb_RandomBlock
                0x00000000       0x5c build/default/debug/_ext/1664057780/cryptocb.o
 .text.wc_CryptoCb_RandomSeed
                0x00000000       0x50 build/default/debug/_ext/1664057780/cryptocb.o
 .text          0x00000000        0x0 build/default/debug/_ext/1664057780/curve25519.o
 .data          0x00000000        0x0 build/default/debug/_ext/1664057780/curve25519.o
 .bss           0x00000000        0x0 build/default/debug/_ext/1664057780/curve25519.o
 .debug_info    0x00000000      0x332 build/default/debug/_ext/1664057780/curve25519.o
 .debug_abbrev  0x00000000       0x44 build/default/debug/_ext/1664057780/curve25519.o
 .debug_aranges
                0x00000000       0x18 build/default/debug/_ext/1664057780/curve25519.o
 .debug_line    0x00000000       0x9e build/default/debug/_ext/1664057780/curve25519.o
 .debug_str     0x00000000        0x0 build/default/debug/_ext/1664057780/curve25519.o
 .comment       0x00000000       0x54 build/default/debug/_ext/1664057780/curve25519.o
 .ARM.attributes
                0x00000000       0x39 build/default/debug/_ext/1664057780/curve25519.o
 .text          0x00000000        0x0 build/default/debug/_ext/1664057780/curve448.o
 .data          0x00000000        0x0 build/default/debug/_ext/1664057780/curve448.o
 .bss           0x00000000        0x0 build/default/debug/_ext/1664057780/curve448.o
 .debug_info    0x00000000      0x330 build/default/debug/_ext/1664057780/curve448.o
 .debug_abbrev  0x00000000       0x44 build/default/debug/_ext/1664057780/curve448.o
 .debug_aranges
                0x00000000       0x18 build/default/debug/_ext/1664057780/curve448.o
 .debug_line    0x00000000       0x9e build/default/debug/_ext/1664057780/curve448.o
 .debug_str     0x00000000        0x0 build/default/debug/_ext/1664057780/curve448.o
 .comment       0x00000000       0x54 build/default/debug/_ext/1664057780/curve448.o
 .ARM.attributes
                0x00000000       0x39 build/default/debug/_ext/1664057780/curve448.o
 .text          0x00000000        0x0 build/default/debug/_ext/1664057780/dh.o
 .data          0x00000000        0x0 build/default/debug/_ext/1664057780/dh.o
 .bss           0x00000000        0x0 build/default/debug/_ext/1664057780/dh.o
 .debug_info    0x00000000      0x32a build/default/debug/_ext/1664057780/dh.o
 .debug_abbrev  0x00000000       0x44 build/default/debug/_ext/1664057780/dh.o
 .debug_aranges
                0x00000000       0x18 build/default/debug/_ext/1664057780/dh.o
 .debug_line    0x00000000       0x9e build/default/debug/_ext/1664057780/dh.o
 .debug_str     0x00000000        0x0 build/default/debug/_ext/1664057780/dh.o
 .comment       0x00000000       0x54 build/default/debug/_ext/1664057780/dh.o
 .ARM.attributes
                0x00000000       0x39 build/default/debug/_ext/1664057780/dh.o
 .text          0x00000000        0x0 build/default/debug/_ext/1664057780/dsa.o
 .data          0x00000000        0x0 build/default/debug/_ext/1664057780/dsa.o
 .bss           0x00000000        0x0 build/default/debug/_ext/1664057780/dsa.o
 .debug_info    0x00000000      0x32b build/default/debug/_ext/1664057780/dsa.o
 .debug_abbrev  0x00000000       0x44 build/default/debug/_ext/1664057780/dsa.o
 .debug_aranges
                0x00000000       0x18 build/default/debug/_ext/1664057780/dsa.o
 .debug_line    0x00000000       0x9e build/default/debug/_ext/1664057780/dsa.o
 .debug_str     0x00000000        0x0 build/default/debug/_ext/1664057780/dsa.o
 .comment       0x00000000       0x54 build/default/debug/_ext/1664057780/dsa.o
 .ARM.attributes
                0x00000000       0x39 build/default/debug/_ext/1664057780/dsa.o
 .text          0x00000000        0x0 build/default/debug/_ext/1664057780/ecc_fp.o
 .data          0x00000000        0x0 build/default/debug/_ext/1664057780/ecc_fp.o
 .bss           0x00000000        0x0 build/default/debug/_ext/1664057780/ecc_fp.o
 .debug_line    0x00000000        0x0 build/default/debug/_ext/1664057780/ecc_fp.o
 .debug_str     0x00000000        0x0 build/default/debug/_ext/1664057780/ecc_fp.o
 .comment       0x00000000       0x54 build/default/debug/_ext/1664057780/ecc_fp.o
 .ARM.attributes
                0x00000000       0x39 build/default/debug/_ext/1664057780/ecc_fp.o
 .text          0x00000000        0x0 build/default/debug/_ext/1664057780/ed25519.o
 .data          0x00000000        0x0 build/default/debug/_ext/1664057780/ed25519.o
 .bss           0x00000000        0x0 build/default/debug/_ext/1664057780/ed25519.o
 .debug_info    0x00000000      0x32f build/default/debug/_ext/1664057780/ed25519.o
 .debug_abbrev  0x00000000       0x44 build/default/debug/_ext/1664057780/ed25519.o
 .debug_aranges
                0x00000000       0x18 build/default/debug/_ext/1664057780/ed25519.o
 .debug_line    0x00000000       0x9e build/default/debug/_ext/1664057780/ed25519.o
 .debug_str     0x00000000        0x0 build/default/debug/_ext/1664057780/ed25519.o
 .comment       0x00000000       0x54 build/default/debug/_ext/1664057780/ed25519.o
 .ARM.attributes
                0x00000000       0x39 build/default/debug/_ext/1664057780/ed25519.o
 .text          0x00000000        0x0 build/default/debug/_ext/1664057780/ed448.o
 .data          0x00000000        0x0 build/default/debug/_ext/1664057780/ed448.o
 .bss           0x00000000        0x0 build/default/debug/_ext/1664057780/ed448.o
 .debug_info    0x00000000      0x32d build/default/debug/_ext/1664057780/ed448.o
 .debug_abbrev  0x00000000       0x44 build/default/debug/_ext/1664057780/ed448.o
 .debug_aranges
                0x00000000       0x18 build/default/debug/_ext/1664057780/ed448.o
 .debug_line    0x00000000       0x9e build/default/debug/_ext/1664057780/ed448.o
 .debug_str     0x00000000        0x0 build/default/debug/_ext/1664057780/ed448.o
 .comment       0x00000000       0x54 build/default/debug/_ext/1664057780/ed448.o
 .ARM.attributes
                0x00000000       0x39 build/default/debug/_ext/1664057780/ed448.o
 .text          0x00000000        0x0 build/default/debug/_ext/1664057780/error.o
 .data          0x00000000        0x0 build/default/debug/_ext/1664057780/error.o
 .bss           0x00000000        0x0 build/default/debug/_ext/1664057780/error.o
 .debug_info    0x00000000      0x390 build/default/debug/_ext/1664057780/error.o
 .debug_abbrev  0x00000000       0x72 build/default/debug/_ext/1664057780/error.o
 .debug_aranges
                0x00000000       0x18 build/default/debug/_ext/1664057780/error.o
 .debug_line    0x00000000       0xe2 build/default/debug/_ext/1664057780/error.o
 .debug_str     0x00000000        0x0 build/default/debug/_ext/1664057780/error.o
 .comment       0x00000000       0x54 build/default/debug/_ext/1664057780/error.o
 .ARM.attributes
                0x00000000       0x39 build/default/debug/_ext/1664057780/error.o
 .text          0x00000000        0x0 build/default/debug/_ext/1664057780/fe_448.o
 .data          0x00000000        0x0 build/default/debug/_ext/1664057780/fe_448.o
 .bss           0x00000000        0x0 build/default/debug/_ext/1664057780/fe_448.o
 .debug_info    0x00000000      0x32e build/default/debug/_ext/1664057780/fe_448.o
 .debug_abbrev  0x00000000       0x44 build/default/debug/_ext/1664057780/fe_448.o
 .debug_aranges
                0x00000000       0x18 build/default/debug/_ext/1664057780/fe_448.o
 .debug_line    0x00000000       0x9e build/default/debug/_ext/1664057780/fe_448.o
 .debug_str     0x00000000        0x0 build/default/debug/_ext/1664057780/fe_448.o
 .comment       0x00000000       0x54 build/default/debug/_ext/1664057780/fe_448.o
 .ARM.attributes
                0x00000000       0x39 build/default/debug/_ext/1664057780/fe_448.o
 .text          0x00000000        0x0 build/default/debug/_ext/1664057780/fe_low_mem.o
 .data          0x00000000        0x0 build/default/debug/_ext/1664057780/fe_low_mem.o
 .bss           0x00000000        0x0 build/default/debug/_ext/1664057780/fe_low_mem.o
 .debug_info    0x00000000      0x332 build/default/debug/_ext/1664057780/fe_low_mem.o
 .debug_abbrev  0x00000000       0x44 build/default/debug/_ext/1664057780/fe_low_mem.o
 .debug_aranges
                0x00000000       0x18 build/default/debug/_ext/1664057780/fe_low_mem.o
 .debug_line    0x00000000       0x9e build/default/debug/_ext/1664057780/fe_low_mem.o
 .debug_str     0x00000000        0x0 build/default/debug/_ext/1664057780/fe_low_mem.o
 .comment       0x00000000       0x54 build/default/debug/_ext/1664057780/fe_low_mem.o
 .ARM.attributes
                0x00000000       0x39 build/default/debug/_ext/1664057780/fe_low_mem.o
 .text          0x00000000        0x0 build/default/debug/_ext/1664057780/fe_operations.o
 .data          0x00000000        0x0 build/default/debug/_ext/1664057780/fe_operations.o
 .bss           0x00000000        0x0 build/default/debug/_ext/1664057780/fe_operations.o
 .debug_info    0x00000000      0x335 build/default/debug/_ext/1664057780/fe_operations.o
 .debug_abbrev  0x00000000       0x44 build/default/debug/_ext/1664057780/fe_operations.o
 .debug_aranges
                0x00000000       0x18 build/default/debug/_ext/1664057780/fe_operations.o
 .debug_line    0x00000000       0x9e build/default/debug/_ext/1664057780/fe_operations.o
 .debug_str     0x00000000        0x0 build/default/debug/_ext/1664057780/fe_operations.o
 .comment       0x00000000       0x54 build/default/debug/_ext/1664057780/fe_operations.o
 .ARM.attributes
                0x00000000       0x39 build/default/debug/_ext/1664057780/fe_operations.o
 .text          0x00000000        0x0 build/default/debug/_ext/1664057780/ge_448.o
 .data          0x00000000        0x0 build/default/debug/_ext/1664057780/ge_448.o
 .bss           0x00000000        0x0 build/default/debug/_ext/1664057780/ge_448.o
 .debug_info    0x00000000      0x32e build/default/debug/_ext/1664057780/ge_448.o
 .debug_abbrev  0x00000000       0x44 build/default/debug/_ext/1664057780/ge_448.o
 .debug_aranges
                0x00000000       0x18 build/default/debug/_ext/1664057780/ge_448.o
 .debug_line    0x00000000       0x9e build/default/debug/_ext/1664057780/ge_448.o
 .debug_str     0x00000000        0x0 build/default/debug/_ext/1664057780/ge_448.o
 .comment       0x00000000       0x54 build/default/debug/_ext/1664057780/ge_448.o
 .ARM.attributes
                0x00000000       0x39 build/default/debug/_ext/1664057780/ge_448.o
 .text          0x00000000        0x0 build/default/debug/_ext/1664057780/ge_low_mem.o
 .data          0x00000000        0x0 build/default/debug/_ext/1664057780/ge_low_mem.o
 .bss           0x00000000        0x0 build/default/debug/_ext/1664057780/ge_low_mem.o
 .debug_info    0x00000000      0x332 build/default/debug/_ext/1664057780/ge_low_mem.o
 .debug_abbrev  0x00000000       0x44 build/default/debug/_ext/1664057780/ge_low_mem.o
 .debug_aranges
                0x00000000       0x18 build/default/debug/_ext/1664057780/ge_low_mem.o
 .debug_line    0x00000000       0x9e build/default/debug/_ext/1664057780/ge_low_mem.o
 .debug_str     0x00000000        0x0 build/default/debug/_ext/1664057780/ge_low_mem.o
 .comment       0x00000000       0x54 build/default/debug/_ext/1664057780/ge_low_mem.o
 .ARM.attributes
                0x00000000       0x39 build/default/debug/_ext/1664057780/ge_low_mem.o
 .text          0x00000000        0x0 build/default/debug/_ext/1664057780/ge_operations.o
 .data          0x00000000        0x0 build/default/debug/_ext/1664057780/ge_operations.o
 .bss           0x00000000        0x0 build/default/debug/_ext/1664057780/ge_operations.o
 .debug_info    0x00000000      0x335 build/default/debug/_ext/1664057780/ge_operations.o
 .debug_abbrev  0x00000000       0x44 build/default/debug/_ext/1664057780/ge_operations.o
 .debug_aranges
                0x00000000       0x18 build/default/debug/_ext/1664057780/ge_operations.o
 .debug_line    0x00000000       0x9e build/default/debug/_ext/1664057780/ge_operations.o
 .debug_str     0x00000000        0x0 build/default/debug/_ext/1664057780/ge_operations.o
 .comment       0x00000000       0x54 build/default/debug/_ext/1664057780/ge_operations.o
 .ARM.attributes
                0x00000000       0x39 build/default/debug/_ext/1664057780/ge_operations.o
 .text          0x00000000        0x0 build/default/debug/_ext/1664057780/hash.o
 .data          0x00000000        0x0 build/default/debug/_ext/1664057780/hash.o
 .bss           0x00000000        0x0 build/default/debug/_ext/1664057780/hash.o
 .text.wc_HashTypeConvert
                0x00000000        0xc build/default/debug/_ext/1664057780/hash.o
 .text.wc_HashGetOID
                0x00000000       0x3a build/default/debug/_ext/1664057780/hash.o
 .text.wc_OidGetHash
                0x00000000       0x30 build/default/debug/_ext/1664057780/hash.o
 .text.wc_HashGetDigestSize
                0x00000000       0x3a build/default/debug/_ext/1664057780/hash.o
 .text.wc_HashGetBlockSize
                0x00000000       0x2e build/default/debug/_ext/1664057780/hash.o
 .text.wc_HashInit_ex
                0x00000000       0x56 build/default/debug/_ext/1664057780/hash.o
 .text.wc_HashInit
                0x00000000        0xe build/default/debug/_ext/1664057780/hash.o
 .text.wc_HashUpdate
                0x00000000       0x66 build/default/debug/_ext/1664057780/hash.o
 .text.wc_HashFinal
                0x00000000       0x54 build/default/debug/_ext/1664057780/hash.o
 .text.wc_HashFree
                0x00000000       0x4c build/default/debug/_ext/1664057780/hash.o
 .text.wc_HashSetFlags
                0x00000000       0x4c build/default/debug/_ext/1664057780/hash.o
 .text.wc_HashGetFlags
                0x00000000       0x4c build/default/debug/_ext/1664057780/hash.o
 .text.wc_Md5Hash
                0x00000000       0x3c build/default/debug/_ext/1664057780/hash.o
 .text.wc_ShaHash
                0x00000000       0x56 build/default/debug/_ext/1664057780/hash.o
 .text.wc_Sha224Hash
                0x00000000       0x3c build/default/debug/_ext/1664057780/hash.o
 .text.wc_Sha256Hash
                0x00000000       0x56 build/default/debug/_ext/1664057780/hash.o
 .text.wc_Hash  0x00000000       0x94 build/default/debug/_ext/1664057780/hash.o
 .debug_info    0x00000000     0x2559 build/default/debug/_ext/1664057780/hash.o
 .debug_abbrev  0x00000000      0x29e build/default/debug/_ext/1664057780/hash.o
 .debug_loc     0x00000000     0x1af2 build/default/debug/_ext/1664057780/hash.o
 .debug_aranges
                0x00000000       0xa0 build/default/debug/_ext/1664057780/hash.o
 .debug_ranges  0x00000000       0x90 build/default/debug/_ext/1664057780/hash.o
 .debug_line    0x00000000      0x7c5 build/default/debug/_ext/1664057780/hash.o
 .debug_str     0x00000000      0x1f4 build/default/debug/_ext/1664057780/hash.o
 .comment       0x00000000       0x54 build/default/debug/_ext/1664057780/hash.o
 .debug_frame   0x00000000      0x1e4 build/default/debug/_ext/1664057780/hash.o
 .ARM.attributes
                0x00000000       0x34 build/default/debug/_ext/1664057780/hash.o
 .text          0x00000000        0x0 build/default/debug/_ext/1664057780/hc128.o
 .data          0x00000000        0x0 build/default/debug/_ext/1664057780/hc128.o
 .bss           0x00000000        0x0 build/default/debug/_ext/1664057780/hc128.o
 .debug_info    0x00000000      0x32d build/default/debug/_ext/1664057780/hc128.o
 .debug_abbrev  0x00000000       0x44 build/default/debug/_ext/1664057780/hc128.o
 .debug_aranges
                0x00000000       0x18 build/default/debug/_ext/1664057780/hc128.o
 .debug_line    0x00000000       0x9e build/default/debug/_ext/1664057780/hc128.o
 .debug_str     0x00000000        0x0 build/default/debug/_ext/1664057780/hc128.o
 .comment       0x00000000       0x54 build/default/debug/_ext/1664057780/hc128.o
 .ARM.attributes
                0x00000000       0x39 build/default/debug/_ext/1664057780/hc128.o
 .text          0x00000000        0x0 build/default/debug/_ext/1664057780/hmac.o
 .data          0x00000000        0x0 build/default/debug/_ext/1664057780/hmac.o
 .bss           0x00000000        0x0 build/default/debug/_ext/1664057780/hmac.o
 .text.HmacKeyInnerHash
                0x00000000       0x50 build/default/debug/_ext/1664057780/hmac.o
 .text.wc_HmacSizeByType
                0x00000000       0x30 build/default/debug/_ext/1664057780/hmac.o
 .text._InitHmac
                0x00000000       0x36 build/default/debug/_ext/1664057780/hmac.o
 .text.wc_HmacUpdate
                0x00000000       0xb0 build/default/debug/_ext/1664057780/hmac.o
 .text.wc_HmacFinal
                0x00000000      0x17a build/default/debug/_ext/1664057780/hmac.o
 .text.wc_HmacInit
                0x00000000       0x2a build/default/debug/_ext/1664057780/hmac.o
 .text.wc_HmacFree
                0x00000000       0x90 build/default/debug/_ext/1664057780/hmac.o
 .text.wc_HmacSetKey
                0x00000000      0x190 build/default/debug/_ext/1664057780/hmac.o
 .text.wolfSSL_GetHmacMaxSize
                0x00000000        0x4 build/default/debug/_ext/1664057780/hmac.o
 .debug_info    0x00000000     0x22df build/default/debug/_ext/1664057780/hmac.o
 .debug_abbrev  0x00000000      0x323 build/default/debug/_ext/1664057780/hmac.o
 .debug_loc     0x00000000      0xf06 build/default/debug/_ext/1664057780/hmac.o
 .debug_aranges
                0x00000000       0x60 build/default/debug/_ext/1664057780/hmac.o
 .debug_ranges  0x00000000       0x50 build/default/debug/_ext/1664057780/hmac.o
 .debug_line    0x00000000      0x7c3 build/default/debug/_ext/1664057780/hmac.o
 .debug_str     0x00000000      0x129 build/default/debug/_ext/1664057780/hmac.o
 .comment       0x00000000       0x54 build/default/debug/_ext/1664057780/hmac.o
 .debug_frame   0x00000000      0x134 build/default/debug/_ext/1664057780/hmac.o
 .ARM.attributes
                0x00000000       0x34 build/default/debug/_ext/1664057780/hmac.o
 .text          0x00000000        0x0 build/default/debug/_ext/1664057780/idea.o
 .data          0x00000000        0x0 build/default/debug/_ext/1664057780/idea.o
 .bss           0x00000000        0x0 build/default/debug/_ext/1664057780/idea.o
 .debug_info    0x00000000      0x32c build/default/debug/_ext/1664057780/idea.o
 .debug_abbrev  0x00000000       0x44 build/default/debug/_ext/1664057780/idea.o
 .debug_aranges
                0x00000000       0x18 build/default/debug/_ext/1664057780/idea.o
 .debug_line    0x00000000       0x9e build/default/debug/_ext/1664057780/idea.o
 .debug_str     0x00000000        0x0 build/default/debug/_ext/1664057780/idea.o
 .comment       0x00000000       0x54 build/default/debug/_ext/1664057780/idea.o
 .ARM.attributes
                0x00000000       0x39 build/default/debug/_ext/1664057780/idea.o
 .text          0x00000000        0x0 build/default/debug/_ext/1664057780/integer.o
 .data          0x00000000        0x0 build/default/debug/_ext/1664057780/integer.o
 .bss           0x00000000        0x0 build/default/debug/_ext/1664057780/integer.o
 .debug_info    0x00000000      0x392 build/default/debug/_ext/1664057780/integer.o
 .debug_abbrev  0x00000000       0x72 build/default/debug/_ext/1664057780/integer.o
 .debug_aranges
                0x00000000       0x18 build/default/debug/_ext/1664057780/integer.o
 .debug_line    0x00000000       0xe2 build/default/debug/_ext/1664057780/integer.o
 .debug_str     0x00000000        0x0 build/default/debug/_ext/1664057780/integer.o
 .comment       0x00000000       0x54 build/default/debug/_ext/1664057780/integer.o
 .ARM.attributes
                0x00000000       0x39 build/default/debug/_ext/1664057780/integer.o
 .text          0x00000000        0x0 build/default/debug/_ext/1664057780/logging.o
 .data          0x00000000        0x0 build/default/debug/_ext/1664057780/logging.o
 .bss           0x00000000        0x0 build/default/debug/_ext/1664057780/logging.o
 .text.wolfSSL_SetLoggingCb
                0x00000000        0x6 build/default/debug/_ext/1664057780/logging.o
 .text.wolfSSL_GetLoggingCb
                0x00000000        0x4 build/default/debug/_ext/1664057780/logging.o
 .text.wolfSSL_Debugging_ON
                0x00000000        0x6 build/default/debug/_ext/1664057780/logging.o
 .text.wolfSSL_Debugging_OFF
                0x00000000        0x2 build/default/debug/_ext/1664057780/logging.o
 .debug_info    0x00000000      0xfbd build/default/debug/_ext/1664057780/logging.o
 .debug_abbrev  0x00000000      0x111 build/default/debug/_ext/1664057780/logging.o
 .debug_loc     0x00000000       0x25 build/default/debug/_ext/1664057780/logging.o
 .debug_aranges
                0x00000000       0x38 build/default/debug/_ext/1664057780/logging.o
 .debug_ranges  0x00000000       0x28 build/default/debug/_ext/1664057780/logging.o
 .debug_line    0x00000000      0x1cb build/default/debug/_ext/1664057780/logging.o
 .debug_str     0x00000000        0x0 build/default/debug/_ext/1664057780/logging.o
 .comment       0x00000000       0x54 build/default/debug/_ext/1664057780/logging.o
 .debug_frame   0x00000000       0x50 build/default/debug/_ext/1664057780/logging.o
 .ARM.attributes
                0x00000000       0x34 build/default/debug/_ext/1664057780/logging.o
 .text          0x00000000        0x0 build/default/debug/_ext/1664057780/md2.o
 .data          0x00000000        0x0 build/default/debug/_ext/1664057780/md2.o
 .bss           0x00000000        0x0 build/default/debug/_ext/1664057780/md2.o
 .debug_info    0x00000000      0x32b build/default/debug/_ext/1664057780/md2.o
 .debug_abbrev  0x00000000       0x44 build/default/debug/_ext/1664057780/md2.o
 .debug_aranges
                0x00000000       0x18 build/default/debug/_ext/1664057780/md2.o
 .debug_line    0x00000000       0x9e build/default/debug/_ext/1664057780/md2.o
 .debug_str     0x00000000        0x0 build/default/debug/_ext/1664057780/md2.o
 .comment       0x00000000       0x54 build/default/debug/_ext/1664057780/md2.o
 .ARM.attributes
                0x00000000       0x39 build/default/debug/_ext/1664057780/md2.o
 .text          0x00000000        0x0 build/default/debug/_ext/1664057780/md4.o
 .data          0x00000000        0x0 build/default/debug/_ext/1664057780/md4.o
 .bss           0x00000000        0x0 build/default/debug/_ext/1664057780/md4.o
 .debug_info    0x00000000      0x32b build/default/debug/_ext/1664057780/md4.o
 .debug_abbrev  0x00000000       0x44 build/default/debug/_ext/1664057780/md4.o
 .debug_aranges
                0x00000000       0x18 build/default/debug/_ext/1664057780/md4.o
 .debug_line    0x00000000       0x9e build/default/debug/_ext/1664057780/md4.o
 .debug_str     0x00000000        0x0 build/default/debug/_ext/1664057780/md4.o
 .comment       0x00000000       0x54 build/default/debug/_ext/1664057780/md4.o
 .ARM.attributes
                0x00000000       0x39 build/default/debug/_ext/1664057780/md4.o
 .text          0x00000000        0x0 build/default/debug/_ext/1664057780/md5.o
 .data          0x00000000        0x0 build/default/debug/_ext/1664057780/md5.o
 .bss           0x00000000        0x0 build/default/debug/_ext/1664057780/md5.o
 .text.Transform
                0x00000000      0x6d0 build/default/debug/_ext/1664057780/md5.o
 .text.wc_InitMd5_ex
                0x00000000       0x3c build/default/debug/_ext/1664057780/md5.o
 .text.wc_Md5Update
                0x00000000       0xfe build/default/debug/_ext/1664057780/md5.o
 .text.wc_Md5Final
                0x00000000       0xb8 build/default/debug/_ext/1664057780/md5.o
 .text.wc_InitMd5
                0x00000000       0x16 build/default/debug/_ext/1664057780/md5.o
 .text.wc_Md5Free
                0x00000000        0x2 build/default/debug/_ext/1664057780/md5.o
 .text.wc_Md5Copy
                0x00000000       0x2a build/default/debug/_ext/1664057780/md5.o
 .text.wc_Md5GetHash
                0x00000000       0x34 build/default/debug/_ext/1664057780/md5.o
 .text.wc_Md5SetFlags
                0x00000000        0x8 build/default/debug/_ext/1664057780/md5.o
 .text.wc_Md5GetFlags
                0x00000000        0xc build/default/debug/_ext/1664057780/md5.o
 .debug_info    0x00000000     0x2520 build/default/debug/_ext/1664057780/md5.o
 .debug_abbrev  0x00000000      0x301 build/default/debug/_ext/1664057780/md5.o
 .debug_loc     0x00000000     0x2df9 build/default/debug/_ext/1664057780/md5.o
 .debug_aranges
                0x00000000       0x68 build/default/debug/_ext/1664057780/md5.o
 .debug_ranges  0x00000000       0x70 build/default/debug/_ext/1664057780/md5.o
 .debug_line    0x00000000      0xc1b build/default/debug/_ext/1664057780/md5.o
 .debug_str     0x00000000        0x0 build/default/debug/_ext/1664057780/md5.o
 .comment       0x00000000       0x54 build/default/debug/_ext/1664057780/md5.o
 .debug_frame   0x00000000      0x138 build/default/debug/_ext/1664057780/md5.o
 .ARM.attributes
                0x00000000       0x34 build/default/debug/_ext/1664057780/md5.o
 .text          0x00000000        0x0 build/default/debug/_ext/1664057780/memory.o
 .data          0x00000000        0x0 build/default/debug/_ext/1664057780/memory.o
 .bss           0x00000000        0x0 build/default/debug/_ext/1664057780/memory.o
 .debug_info    0x00000000      0x32e build/default/debug/_ext/1664057780/memory.o
 .debug_abbrev  0x00000000       0x44 build/default/debug/_ext/1664057780/memory.o
 .debug_aranges
                0x00000000       0x18 build/default/debug/_ext/1664057780/memory.o
 .debug_line    0x00000000       0x9e build/default/debug/_ext/1664057780/memory.o
 .debug_str     0x00000000        0x0 build/default/debug/_ext/1664057780/memory.o
 .comment       0x00000000       0x54 build/default/debug/_ext/1664057780/memory.o
 .ARM.attributes
                0x00000000       0x39 build/default/debug/_ext/1664057780/memory.o
 .text          0x00000000        0x0 build/default/debug/_ext/1664057780/pkcs12.o
 .data          0x00000000        0x0 build/default/debug/_ext/1664057780/pkcs12.o
 .bss           0x00000000        0x0 build/default/debug/_ext/1664057780/pkcs12.o
 .debug_info    0x00000000      0x32e build/default/debug/_ext/1664057780/pkcs12.o
 .debug_abbrev  0x00000000       0x44 build/default/debug/_ext/1664057780/pkcs12.o
 .debug_aranges
                0x00000000       0x18 build/default/debug/_ext/1664057780/pkcs12.o
 .debug_line    0x00000000       0x9e build/default/debug/_ext/1664057780/pkcs12.o
 .debug_str     0x00000000        0x0 build/default/debug/_ext/1664057780/pkcs12.o
 .comment       0x00000000       0x54 build/default/debug/_ext/1664057780/pkcs12.o
 .ARM.attributes
                0x00000000       0x39 build/default/debug/_ext/1664057780/pkcs12.o
 .text          0x00000000        0x0 build/default/debug/_ext/1664057780/pkcs7.o
 .data          0x00000000        0x0 build/default/debug/_ext/1664057780/pkcs7.o
 .bss           0x00000000        0x0 build/default/debug/_ext/1664057780/pkcs7.o
 .debug_info    0x00000000      0x32d build/default/debug/_ext/1664057780/pkcs7.o
 .debug_abbrev  0x00000000       0x44 build/default/debug/_ext/1664057780/pkcs7.o
 .debug_aranges
                0x00000000       0x18 build/default/debug/_ext/1664057780/pkcs7.o
 .debug_line    0x00000000       0x9e build/default/debug/_ext/1664057780/pkcs7.o
 .debug_str     0x00000000        0x0 build/default/debug/_ext/1664057780/pkcs7.o
 .comment       0x00000000       0x54 build/default/debug/_ext/1664057780/pkcs7.o
 .ARM.attributes
                0x00000000       0x39 build/default/debug/_ext/1664057780/pkcs7.o
 .text          0x00000000        0x0 build/default/debug/_ext/1664057780/poly1305.o
 .data          0x00000000        0x0 build/default/debug/_ext/1664057780/poly1305.o
 .bss           0x00000000        0x0 build/default/debug/_ext/1664057780/poly1305.o
 .debug_info    0x00000000      0x330 build/default/debug/_ext/1664057780/poly1305.o
 .debug_abbrev  0x00000000       0x44 build/default/debug/_ext/1664057780/poly1305.o
 .debug_aranges
                0x00000000       0x18 build/default/debug/_ext/1664057780/poly1305.o
 .debug_line    0x00000000       0x9e build/default/debug/_ext/1664057780/poly1305.o
 .debug_str     0x00000000        0x0 build/default/debug/_ext/1664057780/poly1305.o
 .comment       0x00000000       0x54 build/default/debug/_ext/1664057780/poly1305.o
 .ARM.attributes
                0x00000000       0x39 build/default/debug/_ext/1664057780/poly1305.o
 .text          0x00000000        0x0 build/default/debug/_ext/1664057780/pwdbased.o
 .data          0x00000000        0x0 build/default/debug/_ext/1664057780/pwdbased.o
 .bss           0x00000000        0x0 build/default/debug/_ext/1664057780/pwdbased.o
 .debug_info    0x00000000      0x330 build/default/debug/_ext/1664057780/pwdbased.o
 .debug_abbrev  0x00000000       0x44 build/default/debug/_ext/1664057780/pwdbased.o
 .debug_aranges
                0x00000000       0x18 build/default/debug/_ext/1664057780/pwdbased.o
 .debug_line    0x00000000       0x9e build/default/debug/_ext/1664057780/pwdbased.o
 .debug_str     0x00000000        0x0 build/default/debug/_ext/1664057780/pwdbased.o
 .comment       0x00000000       0x54 build/default/debug/_ext/1664057780/pwdbased.o
 .ARM.attributes
                0x00000000       0x39 build/default/debug/_ext/1664057780/pwdbased.o
 .text          0x00000000        0x0 build/default/debug/_ext/1664057780/rabbit.o
 .data          0x00000000        0x0 build/default/debug/_ext/1664057780/rabbit.o
 .bss           0x00000000        0x0 build/default/debug/_ext/1664057780/rabbit.o
 .debug_info    0x00000000      0x32e build/default/debug/_ext/1664057780/rabbit.o
 .debug_abbrev  0x00000000       0x44 build/default/debug/_ext/1664057780/rabbit.o
 .debug_aranges
                0x00000000       0x18 build/default/debug/_ext/1664057780/rabbit.o
 .debug_line    0x00000000       0x9e build/default/debug/_ext/1664057780/rabbit.o
 .debug_str     0x00000000        0x0 build/default/debug/_ext/1664057780/rabbit.o
 .comment       0x00000000       0x54 build/default/debug/_ext/1664057780/rabbit.o
 .ARM.attributes
                0x00000000       0x39 build/default/debug/_ext/1664057780/rabbit.o
 .text          0x00000000        0x0 build/default/debug/_ext/1664057780/rc2.o
 .data          0x00000000        0x0 build/default/debug/_ext/1664057780/rc2.o
 .bss           0x00000000        0x0 build/default/debug/_ext/1664057780/rc2.o
 .debug_info    0x00000000      0x32b build/default/debug/_ext/1664057780/rc2.o
 .debug_abbrev  0x00000000       0x44 build/default/debug/_ext/1664057780/rc2.o
 .debug_aranges
                0x00000000       0x18 build/default/debug/_ext/1664057780/rc2.o
 .debug_line    0x00000000       0x9e build/default/debug/_ext/1664057780/rc2.o
 .debug_str     0x00000000        0x0 build/default/debug/_ext/1664057780/rc2.o
 .comment       0x00000000       0x54 build/default/debug/_ext/1664057780/rc2.o
 .ARM.attributes
                0x00000000       0x39 build/default/debug/_ext/1664057780/rc2.o
 .text          0x00000000        0x0 build/default/debug/_ext/1664057780/ripemd.o
 .data          0x00000000        0x0 build/default/debug/_ext/1664057780/ripemd.o
 .bss           0x00000000        0x0 build/default/debug/_ext/1664057780/ripemd.o
 .debug_info    0x00000000      0x32e build/default/debug/_ext/1664057780/ripemd.o
 .debug_abbrev  0x00000000       0x44 build/default/debug/_ext/1664057780/ripemd.o
 .debug_aranges
                0x00000000       0x18 build/default/debug/_ext/1664057780/ripemd.o
 .debug_line    0x00000000       0x9e build/default/debug/_ext/1664057780/ripemd.o
 .debug_str     0x00000000        0x0 build/default/debug/_ext/1664057780/ripemd.o
 .comment       0x00000000       0x54 build/default/debug/_ext/1664057780/ripemd.o
 .ARM.attributes
                0x00000000       0x39 build/default/debug/_ext/1664057780/ripemd.o
 .text          0x00000000        0x0 build/default/debug/_ext/1664057780/rsa.o
 .data          0x00000000        0x0 build/default/debug/_ext/1664057780/rsa.o
 .bss           0x00000000        0x0 build/default/debug/_ext/1664057780/rsa.o
 .text.wc_RsaCleanup
                0x00000000       0x66 build/default/debug/_ext/1664057780/rsa.o
 .text.RsaMGF1  0x00000000       0xfa build/default/debug/_ext/1664057780/rsa.o
 .text.RsaMGF   0x00000000       0x4a build/default/debug/_ext/1664057780/rsa.o
 .text.RsaGetValue
                0x00000000       0x2c build/default/debug/_ext/1664057780/rsa.o
 .text.wc_InitRsaKey_ex
                0x00000000       0x8c build/default/debug/_ext/1664057780/rsa.o
 .text.wc_InitRsaKey
                0x00000000        0xc build/default/debug/_ext/1664057780/rsa.o
 .text.wc_InitRsaKey_Id
                0x00000000       0x46 build/default/debug/_ext/1664057780/rsa.o
 .text.wc_InitRsaKey_Label
                0x00000000       0x60 build/default/debug/_ext/1664057780/rsa.o
 .text.wc_FreeRsaKey
                0x00000000       0x90 build/default/debug/_ext/1664057780/rsa.o
 .text.wc_RsaPad_ex
                0x00000000      0x272 build/default/debug/_ext/1664057780/rsa.o
 .text.wc_RsaUnPad_ex
                0x00000000      0x272 build/default/debug/_ext/1664057780/rsa.o
 .text.wc_hash2mgf
                0x00000000       0x1a build/default/debug/_ext/1664057780/rsa.o
 .text.wc_RsaEncryptSize
                0x00000000       0x2c build/default/debug/_ext/1664057780/rsa.o
 .text.wc_RsaFunction
                0x00000000      0x2c4 build/default/debug/_ext/1664057780/rsa.o
 .text.RsaPrivateDecryptEx
                0x00000000      0x20a build/default/debug/_ext/1664057780/rsa.o
 .text.wc_RsaPrivateDecryptInline
                0x00000000       0x2c build/default/debug/_ext/1664057780/rsa.o
 .text.wc_RsaPrivateDecryptInline_ex
                0x00000000       0x38 build/default/debug/_ext/1664057780/rsa.o
 .text.wc_RsaPrivateDecrypt
                0x00000000       0x2a build/default/debug/_ext/1664057780/rsa.o
 .text.wc_RsaPrivateDecrypt_ex
                0x00000000       0x36 build/default/debug/_ext/1664057780/rsa.o
 .text.wc_RsaSSL_VerifyInline
                0x00000000       0x2a build/default/debug/_ext/1664057780/rsa.o
 .text.wc_RsaSSL_Verify_ex2
                0x00000000       0x54 build/default/debug/_ext/1664057780/rsa.o
 .text.wc_RsaSSL_Verify_ex
                0x00000000       0x18 build/default/debug/_ext/1664057780/rsa.o
 .text.wc_RsaSSL_Verify
                0x00000000       0x14 build/default/debug/_ext/1664057780/rsa.o
 .text.RsaPublicEncryptEx
                0x00000000      0x12a build/default/debug/_ext/1664057780/rsa.o
 .text.wc_RsaPublicEncrypt
                0x00000000       0x28 build/default/debug/_ext/1664057780/rsa.o
 .text.wc_RsaPublicEncrypt_ex
                0x00000000       0x34 build/default/debug/_ext/1664057780/rsa.o
 .text.wc_RsaSSL_Sign
                0x00000000       0x2a build/default/debug/_ext/1664057780/rsa.o
 .text.wc_RsaFlattenPublicKey
                0x00000000       0x8a build/default/debug/_ext/1664057780/rsa.o
 .text.wc_RsaExportKey
                0x00000000       0xd0 build/default/debug/_ext/1664057780/rsa.o
 .debug_info    0x00000000     0x5131 build/default/debug/_ext/1664057780/rsa.o
 .debug_abbrev  0x00000000      0x470 build/default/debug/_ext/1664057780/rsa.o
 .debug_loc     0x00000000     0x4c18 build/default/debug/_ext/1664057780/rsa.o
 .debug_aranges
                0x00000000      0x100 build/default/debug/_ext/1664057780/rsa.o
 .debug_ranges  0x00000000      0x448 build/default/debug/_ext/1664057780/rsa.o
 .debug_line    0x00000000     0x1529 build/default/debug/_ext/1664057780/rsa.o
 .debug_str     0x00000000      0x19f build/default/debug/_ext/1664057780/rsa.o
 .comment       0x00000000       0x54 build/default/debug/_ext/1664057780/rsa.o
 .debug_frame   0x00000000      0x40c build/default/debug/_ext/1664057780/rsa.o
 .ARM.attributes
                0x00000000       0x34 build/default/debug/_ext/1664057780/rsa.o
 .text          0x00000000        0x0 build/default/debug/_ext/1664057780/sha3.o
 .data          0x00000000        0x0 build/default/debug/_ext/1664057780/sha3.o
 .bss           0x00000000        0x0 build/default/debug/_ext/1664057780/sha3.o
 .debug_info    0x00000000      0x32c build/default/debug/_ext/1664057780/sha3.o
 .debug_abbrev  0x00000000       0x44 build/default/debug/_ext/1664057780/sha3.o
 .debug_aranges
                0x00000000       0x18 build/default/debug/_ext/1664057780/sha3.o
 .debug_line    0x00000000       0x9e build/default/debug/_ext/1664057780/sha3.o
 .debug_str     0x00000000        0x0 build/default/debug/_ext/1664057780/sha3.o
 .comment       0x00000000       0x54 build/default/debug/_ext/1664057780/sha3.o
 .ARM.attributes
                0x00000000       0x39 build/default/debug/_ext/1664057780/sha3.o
 .text          0x00000000        0x0 build/default/debug/_ext/1664057780/signature.o
 .data          0x00000000        0x0 build/default/debug/_ext/1664057780/signature.o
 .bss           0x00000000        0x0 build/default/debug/_ext/1664057780/signature.o
 .debug_info    0x00000000      0x580 build/default/debug/_ext/1664057780/signature.o
 .debug_abbrev  0x00000000       0xaf build/default/debug/_ext/1664057780/signature.o
 .debug_aranges
                0x00000000       0x18 build/default/debug/_ext/1664057780/signature.o
 .debug_line    0x00000000      0x13a build/default/debug/_ext/1664057780/signature.o
 .debug_str     0x00000000        0xd build/default/debug/_ext/1664057780/signature.o
 .comment       0x00000000       0x54 build/default/debug/_ext/1664057780/signature.o
 .ARM.attributes
                0x00000000       0x39 build/default/debug/_ext/1664057780/signature.o
 .text          0x00000000        0x0 build/default/debug/_ext/1664057780/sp_arm32.o
 .data          0x00000000        0x0 build/default/debug/_ext/1664057780/sp_arm32.o
 .bss           0x00000000        0x0 build/default/debug/_ext/1664057780/sp_arm32.o
 .debug_info    0x00000000      0x393 build/default/debug/_ext/1664057780/sp_arm32.o
 .debug_abbrev  0x00000000       0x72 build/default/debug/_ext/1664057780/sp_arm32.o
 .debug_aranges
                0x00000000       0x18 build/default/debug/_ext/1664057780/sp_arm32.o
 .debug_line    0x00000000       0xe2 build/default/debug/_ext/1664057780/sp_arm32.o
 .debug_str     0x00000000        0x0 build/default/debug/_ext/1664057780/sp_arm32.o
 .comment       0x00000000       0x54 build/default/debug/_ext/1664057780/sp_arm32.o
 .ARM.attributes
                0x00000000       0x39 build/default/debug/_ext/1664057780/sp_arm32.o
 .text          0x00000000        0x0 build/default/debug/_ext/1664057780/sp_arm64.o
 .data          0x00000000        0x0 build/default/debug/_ext/1664057780/sp_arm64.o
 .bss           0x00000000        0x0 build/default/debug/_ext/1664057780/sp_arm64.o
 .debug_info    0x00000000      0x393 build/default/debug/_ext/1664057780/sp_arm64.o
 .debug_abbrev  0x00000000       0x72 build/default/debug/_ext/1664057780/sp_arm64.o
 .debug_aranges
                0x00000000       0x18 build/default/debug/_ext/1664057780/sp_arm64.o
 .debug_line    0x00000000       0xe2 build/default/debug/_ext/1664057780/sp_arm64.o
 .debug_str     0x00000000        0x0 build/default/debug/_ext/1664057780/sp_arm64.o
 .comment       0x00000000       0x54 build/default/debug/_ext/1664057780/sp_arm64.o
 .ARM.attributes
                0x00000000       0x39 build/default/debug/_ext/1664057780/sp_arm64.o
 .text          0x00000000        0x0 build/default/debug/_ext/1664057780/sp_armthumb.o
 .data          0x00000000        0x0 build/default/debug/_ext/1664057780/sp_armthumb.o
 .bss           0x00000000        0x0 build/default/debug/_ext/1664057780/sp_armthumb.o
 .debug_info    0x00000000      0x396 build/default/debug/_ext/1664057780/sp_armthumb.o
 .debug_abbrev  0x00000000       0x72 build/default/debug/_ext/1664057780/sp_armthumb.o
 .debug_aranges
                0x00000000       0x18 build/default/debug/_ext/1664057780/sp_armthumb.o
 .debug_line    0x00000000       0xe2 build/default/debug/_ext/1664057780/sp_armthumb.o
 .debug_str     0x00000000        0x0 build/default/debug/_ext/1664057780/sp_armthumb.o
 .comment       0x00000000       0x54 build/default/debug/_ext/1664057780/sp_armthumb.o
 .ARM.attributes
                0x00000000       0x39 build/default/debug/_ext/1664057780/sp_armthumb.o
 .text          0x00000000        0x0 build/default/debug/_ext/1664057780/sp_c32.o
 .data          0x00000000        0x0 build/default/debug/_ext/1664057780/sp_c32.o
 .bss           0x00000000        0x0 build/default/debug/_ext/1664057780/sp_c32.o
 .debug_info    0x00000000      0x391 build/default/debug/_ext/1664057780/sp_c32.o
 .debug_abbrev  0x00000000       0x72 build/default/debug/_ext/1664057780/sp_c32.o
 .debug_aranges
                0x00000000       0x18 build/default/debug/_ext/1664057780/sp_c32.o
 .debug_line    0x00000000       0xe2 build/default/debug/_ext/1664057780/sp_c32.o
 .debug_str     0x00000000        0x0 build/default/debug/_ext/1664057780/sp_c32.o
 .comment       0x00000000       0x54 build/default/debug/_ext/1664057780/sp_c32.o
 .ARM.attributes
                0x00000000       0x39 build/default/debug/_ext/1664057780/sp_c32.o
 .text          0x00000000        0x0 build/default/debug/_ext/1664057780/sp_c64.o
 .data          0x00000000        0x0 build/default/debug/_ext/1664057780/sp_c64.o
 .bss           0x00000000        0x0 build/default/debug/_ext/1664057780/sp_c64.o
 .debug_info    0x00000000      0x391 build/default/debug/_ext/1664057780/sp_c64.o
 .debug_abbrev  0x00000000       0x72 build/default/debug/_ext/1664057780/sp_c64.o
 .debug_aranges
                0x00000000       0x18 build/default/debug/_ext/1664057780/sp_c64.o
 .debug_line    0x00000000       0xe2 build/default/debug/_ext/1664057780/sp_c64.o
 .debug_str     0x00000000        0x0 build/default/debug/_ext/1664057780/sp_c64.o
 .comment       0x00000000       0x54 build/default/debug/_ext/1664057780/sp_c64.o
 .ARM.attributes
                0x00000000       0x39 build/default/debug/_ext/1664057780/sp_c64.o
 .text          0x00000000        0x0 build/default/debug/_ext/1664057780/sp_cortexm.o
 .data          0x00000000        0x0 build/default/debug/_ext/1664057780/sp_cortexm.o
 .bss           0x00000000        0x0 build/default/debug/_ext/1664057780/sp_cortexm.o
 .debug_info    0x00000000      0x395 build/default/debug/_ext/1664057780/sp_cortexm.o
 .debug_abbrev  0x00000000       0x72 build/default/debug/_ext/1664057780/sp_cortexm.o
 .debug_aranges
                0x00000000       0x18 build/default/debug/_ext/1664057780/sp_cortexm.o
 .debug_line    0x00000000       0xe2 build/default/debug/_ext/1664057780/sp_cortexm.o
 .debug_str     0x00000000        0x0 build/default/debug/_ext/1664057780/sp_cortexm.o
 .comment       0x00000000       0x54 build/default/debug/_ext/1664057780/sp_cortexm.o
 .ARM.attributes
                0x00000000       0x39 build/default/debug/_ext/1664057780/sp_cortexm.o
 .text          0x00000000        0x0 build/default/debug/_ext/1664057780/sp_dsp32.o
 .data          0x00000000        0x0 build/default/debug/_ext/1664057780/sp_dsp32.o
 .bss           0x00000000        0x0 build/default/debug/_ext/1664057780/sp_dsp32.o
 .debug_info    0x00000000      0x393 build/default/debug/_ext/1664057780/sp_dsp32.o
 .debug_abbrev  0x00000000       0x72 build/default/debug/_ext/1664057780/sp_dsp32.o
 .debug_aranges
                0x00000000       0x18 build/default/debug/_ext/1664057780/sp_dsp32.o
 .debug_line    0x00000000       0xe2 build/default/debug/_ext/1664057780/sp_dsp32.o
 .debug_str     0x00000000        0x0 build/default/debug/_ext/1664057780/sp_dsp32.o
 .comment       0x00000000       0x54 build/default/debug/_ext/1664057780/sp_dsp32.o
 .ARM.attributes
                0x00000000       0x39 build/default/debug/_ext/1664057780/sp_dsp32.o
 .text          0x00000000        0x0 build/default/debug/_ext/1664057780/sp_int.o
 .data          0x00000000        0x0 build/default/debug/_ext/1664057780/sp_int.o
 .bss           0x00000000        0x0 build/default/debug/_ext/1664057780/sp_int.o
 .debug_info    0x00000000      0x391 build/default/debug/_ext/1664057780/sp_int.o
 .debug_abbrev  0x00000000       0x72 build/default/debug/_ext/1664057780/sp_int.o
 .debug_aranges
                0x00000000       0x18 build/default/debug/_ext/1664057780/sp_int.o
 .debug_line    0x00000000       0xe2 build/default/debug/_ext/1664057780/sp_int.o
 .debug_str     0x00000000        0x0 build/default/debug/_ext/1664057780/sp_int.o
 .comment       0x00000000       0x54 build/default/debug/_ext/1664057780/sp_int.o
 .ARM.attributes
                0x00000000       0x39 build/default/debug/_ext/1664057780/sp_int.o
 .text          0x00000000        0x0 build/default/debug/_ext/1664057780/sp_x86_64.o
 .data          0x00000000        0x0 build/default/debug/_ext/1664057780/sp_x86_64.o
 .bss           0x00000000        0x0 build/default/debug/_ext/1664057780/sp_x86_64.o
 .debug_info    0x00000000      0x394 build/default/debug/_ext/1664057780/sp_x86_64.o
 .debug_abbrev  0x00000000       0x72 build/default/debug/_ext/1664057780/sp_x86_64.o
 .debug_aranges
                0x00000000       0x18 build/default/debug/_ext/1664057780/sp_x86_64.o
 .debug_line    0x00000000       0xe2 build/default/debug/_ext/1664057780/sp_x86_64.o
 .debug_str     0x00000000        0x0 build/default/debug/_ext/1664057780/sp_x86_64.o
 .comment       0x00000000       0x54 build/default/debug/_ext/1664057780/sp_x86_64.o
 .ARM.attributes
                0x00000000       0x39 build/default/debug/_ext/1664057780/sp_x86_64.o
 .text          0x00000000        0x0 build/default/debug/_ext/1664057780/srp.o
 .data          0x00000000        0x0 build/default/debug/_ext/1664057780/srp.o
 .bss           0x00000000        0x0 build/default/debug/_ext/1664057780/srp.o
 .debug_info    0x00000000      0x32b build/default/debug/_ext/1664057780/srp.o
 .debug_abbrev  0x00000000       0x44 build/default/debug/_ext/1664057780/srp.o
 .debug_aranges
                0x00000000       0x18 build/default/debug/_ext/1664057780/srp.o
 .debug_line    0x00000000       0x9e build/default/debug/_ext/1664057780/srp.o
 .debug_str     0x00000000        0x0 build/default/debug/_ext/1664057780/srp.o
 .comment       0x00000000       0x54 build/default/debug/_ext/1664057780/srp.o
 .ARM.attributes
                0x00000000       0x39 build/default/debug/_ext/1664057780/srp.o
 .text          0x00000000        0x0 build/default/debug/_ext/1664057780/tfm.o
 .data          0x00000000        0x0 build/default/debug/_ext/1664057780/tfm.o
 .bss           0x00000000        0x0 build/default/debug/_ext/1664057780/tfm.o
 .text.fp_cmp_mag_ct
                0x00000000       0x60 build/default/debug/_ext/1664057780/tfm.o
 .text.fp_cond_swap_ct
                0x00000000       0xa4 build/default/debug/_ext/1664057780/tfm.o
 .text.CheckRunTimeSettings
                0x00000000        0x4 build/default/debug/_ext/1664057780/tfm.o
 .text.CheckRunTimeFastMath
                0x00000000        0x4 build/default/debug/_ext/1664057780/tfm.o
 .text.s_fp_add
                0x00000000       0xdc build/default/debug/_ext/1664057780/tfm.o
 .text.s_fp_sub
                0x00000000       0xda build/default/debug/_ext/1664057780/tfm.o
 .text.fp_mul_2
                0x00000000       0x80 build/default/debug/_ext/1664057780/tfm.o
 .text.fp_mul_d
                0x00000000       0xea build/default/debug/_ext/1664057780/tfm.o
 .text.fp_div_2
                0x00000000       0x8a build/default/debug/_ext/1664057780/tfm.o
 .text.fp_div_2_mod_ct
                0x00000000       0xc6 build/default/debug/_ext/1664057780/tfm.o
 .text.fp_submod_ct
                0x00000000       0xe6 build/default/debug/_ext/1664057780/tfm.o
 .text.fp_addmod_ct
                0x00000000       0xc0 build/default/debug/_ext/1664057780/tfm.o
 .text.fp_cmp_d
                0x00000000       0x38 build/default/debug/_ext/1664057780/tfm.o
 .text.fp_cmp_mag
                0x00000000       0x66 build/default/debug/_ext/1664057780/tfm.o
 .text.fp_add   0x00000000       0x4a build/default/debug/_ext/1664057780/tfm.o
 .text.fp_sub   0x00000000       0x48 build/default/debug/_ext/1664057780/tfm.o
 .text.fp_cmp   0x00000000       0x32 build/default/debug/_ext/1664057780/tfm.o
 .text.fp_montgomery_setup
                0x00000000       0x40 build/default/debug/_ext/1664057780/tfm.o
 .text.fp_montgomery_reduce_ex
                0x00000000      0x17a build/default/debug/_ext/1664057780/tfm.o
 .text.fp_montgomery_reduce
                0x00000000        0xa build/default/debug/_ext/1664057780/tfm.o
 .text.fp_to_unsigned_bin_at_pos
                0x00000000       0x58 build/default/debug/_ext/1664057780/tfm.o
 .text.fp_to_unsigned_bin_len
                0x00000000       0x56 build/default/debug/_ext/1664057780/tfm.o
 .text.fp_is_bit_set
                0x00000000       0x2c build/default/debug/_ext/1664057780/tfm.o
 .text.fp_set_bit
                0x00000000       0x36 build/default/debug/_ext/1664057780/tfm.o
 .text.fp_count_bits
                0x00000000       0x1a build/default/debug/_ext/1664057780/tfm.o
 .text.fp_unsigned_bin_size
                0x00000000       0x1c build/default/debug/_ext/1664057780/tfm.o
 .text.fp_leading_bit
                0x00000000       0x22 build/default/debug/_ext/1664057780/tfm.o
 .text.fp_lshd  0x00000000       0x8c build/default/debug/_ext/1664057780/tfm.o
 .text.fp_reverse
                0x00000000       0x32 build/default/debug/_ext/1664057780/tfm.o
 .text.fp_zero  0x00000000       0x14 build/default/debug/_ext/1664057780/tfm.o
 .text.fp_2expt
                0x00000000       0x3c build/default/debug/_ext/1664057780/tfm.o
 .text.fp_read_unsigned_bin
                0x00000000       0x70 build/default/debug/_ext/1664057780/tfm.o
 .text.fp_set   0x00000000       0x16 build/default/debug/_ext/1664057780/tfm.o
 .text.fp_montgomery_calc_normalization
                0x00000000       0x72 build/default/debug/_ext/1664057780/tfm.o
 .text.fp_rshd  0x00000000       0x70 build/default/debug/_ext/1664057780/tfm.o
 .text.fp_rshb  0x00000000       0xa0 build/default/debug/_ext/1664057780/tfm.o
 .text.fp_init  0x00000000        0x8 build/default/debug/_ext/1664057780/tfm.o
 .text.mp_init  0x00000000        0xc build/default/debug/_ext/1664057780/tfm.o
 .text.fp_sub_d
                0x00000000       0x2a build/default/debug/_ext/1664057780/tfm.o
 .text.fp_clear
                0x00000000       0x14 build/default/debug/_ext/1664057780/tfm.o
 .text.fp_forcezero
                0x00000000       0x1e build/default/debug/_ext/1664057780/tfm.o
 .text.mp_forcezero
                0x00000000        0x8 build/default/debug/_ext/1664057780/tfm.o
 .text.fp_free  0x00000000        0x2 build/default/debug/_ext/1664057780/tfm.o
 .text.mp_clear
                0x00000000        0xa build/default/debug/_ext/1664057780/tfm.o
 .text.mp_free  0x00000000        0x2 build/default/debug/_ext/1664057780/tfm.o
 .text.mp_init_multi
                0x00000000       0x3e build/default/debug/_ext/1664057780/tfm.o
 .text.mp_add   0x00000000        0x8 build/default/debug/_ext/1664057780/tfm.o
 .text.mp_sub   0x00000000        0x8 build/default/debug/_ext/1664057780/tfm.o
 .text.mp_mul_d
                0x00000000        0x8 build/default/debug/_ext/1664057780/tfm.o
 .text.mp_submod_ct
                0x00000000        0x8 build/default/debug/_ext/1664057780/tfm.o
 .text.mp_addmod_ct
                0x00000000        0x8 build/default/debug/_ext/1664057780/tfm.o
 .text.mp_cmp   0x00000000        0x8 build/default/debug/_ext/1664057780/tfm.o
 .text.mp_cmp_d
                0x00000000        0x8 build/default/debug/_ext/1664057780/tfm.o
 .text.mp_unsigned_bin_size
                0x00000000        0x8 build/default/debug/_ext/1664057780/tfm.o
 .text.mp_to_unsigned_bin_at_pos
                0x00000000        0x8 build/default/debug/_ext/1664057780/tfm.o
 .text.mp_to_unsigned_bin_len
                0x00000000        0x8 build/default/debug/_ext/1664057780/tfm.o
 .text.mp_read_unsigned_bin
                0x00000000        0x8 build/default/debug/_ext/1664057780/tfm.o
 .text.mp_sub_d
                0x00000000        0x8 build/default/debug/_ext/1664057780/tfm.o
 .text.mp_2expt
                0x00000000        0xa build/default/debug/_ext/1664057780/tfm.o
 .text.fp_copy  0x00000000       0x24 build/default/debug/_ext/1664057780/tfm.o
 .text.fp_mul_2d
                0x00000000       0xba build/default/debug/_ext/1664057780/tfm.o
 .text.fp_set_int
                0x00000000       0x74 build/default/debug/_ext/1664057780/tfm.o
 .text.mp_mul_2d
                0x00000000        0x8 build/default/debug/_ext/1664057780/tfm.o
 .text.fp_mul_comba
                0x00000000      0x148 build/default/debug/_ext/1664057780/tfm.o
 .text.fp_mul   0x00000000       0x48 build/default/debug/_ext/1664057780/tfm.o
 .text.mp_mul   0x00000000        0x8 build/default/debug/_ext/1664057780/tfm.o
 .text.fp_mod_2d
                0x00000000       0xbe build/default/debug/_ext/1664057780/tfm.o
 .text.fp_div_2d
                0x00000000       0xaa build/default/debug/_ext/1664057780/tfm.o
 .text.mp_div_2d
                0x00000000        0xa build/default/debug/_ext/1664057780/tfm.o
 .text.fp_sqr_comba
                0x00000000      0x196 build/default/debug/_ext/1664057780/tfm.o
 .text.fp_sqr   0x00000000       0x38 build/default/debug/_ext/1664057780/tfm.o
 .text.fp_invmod_mont_ct
                0x00000000      0x1a8 build/default/debug/_ext/1664057780/tfm.o
 .text.mp_invmod_mont_ct
                0x00000000        0x8 build/default/debug/_ext/1664057780/tfm.o
 .text.fp_div_d
                0x00000000      0x14c build/default/debug/_ext/1664057780/tfm.o
 .text.fp_init_copy
                0x00000000       0x1a build/default/debug/_ext/1664057780/tfm.o
 .text.fp_div   0x00000000      0x3be build/default/debug/_ext/1664057780/tfm.o
 .text.fp_mod   0x00000000       0x48 build/default/debug/_ext/1664057780/tfm.o
 .text.fp_mulmod
                0x00000000       0x38 build/default/debug/_ext/1664057780/tfm.o
 .text.mp_mulmod
                0x00000000        0x8 build/default/debug/_ext/1664057780/tfm.o
 .text.fp_submod
                0x00000000       0x38 build/default/debug/_ext/1664057780/tfm.o
 .text.mp_submod
                0x00000000        0x8 build/default/debug/_ext/1664057780/tfm.o
 .text.fp_addmod
                0x00000000       0x38 build/default/debug/_ext/1664057780/tfm.o
 .text.mp_addmod
                0x00000000        0x8 build/default/debug/_ext/1664057780/tfm.o
 .text._fp_exptmod_ct
                0x00000000      0x14c build/default/debug/_ext/1664057780/tfm.o
 .text._fp_exptmod_nct
                0x00000000      0x34a build/default/debug/_ext/1664057780/tfm.o
 .text.mp_mod   0x00000000        0x8 build/default/debug/_ext/1664057780/tfm.o
 .text.fp_invmod
                0x00000000      0x540 build/default/debug/_ext/1664057780/tfm.o
 .text.mp_invmod
                0x00000000        0x8 build/default/debug/_ext/1664057780/tfm.o
 .text.mp_div   0x00000000        0x8 build/default/debug/_ext/1664057780/tfm.o
 .text.fp_exptmod
                0x00000000      0x24c build/default/debug/_ext/1664057780/tfm.o
 .text.mp_exptmod
                0x00000000        0x8 build/default/debug/_ext/1664057780/tfm.o
 .text.fp_exptmod_ex
                0x00000000       0xa6 build/default/debug/_ext/1664057780/tfm.o
 .text.mp_exptmod_ex
                0x00000000       0x10 build/default/debug/_ext/1664057780/tfm.o
 .text.fp_exptmod_nct
                0x00000000       0x90 build/default/debug/_ext/1664057780/tfm.o
 .text.mp_exptmod_nct
                0x00000000        0x8 build/default/debug/_ext/1664057780/tfm.o
 .text.fp_to_unsigned_bin
                0x00000000       0x2a build/default/debug/_ext/1664057780/tfm.o
 .text.mp_to_unsigned_bin
                0x00000000        0x8 build/default/debug/_ext/1664057780/tfm.o
 .text.mp_init_copy
                0x00000000        0xa build/default/debug/_ext/1664057780/tfm.o
 .text.mp_copy  0x00000000        0xa build/default/debug/_ext/1664057780/tfm.o
 .text.mp_isodd
                0x00000000       0x10 build/default/debug/_ext/1664057780/tfm.o
 .text.mp_iszero
                0x00000000        0xa build/default/debug/_ext/1664057780/tfm.o
 .text.mp_count_bits
                0x00000000        0x8 build/default/debug/_ext/1664057780/tfm.o
 .text.mp_leading_bit
                0x00000000        0x8 build/default/debug/_ext/1664057780/tfm.o
 .text.mp_rshb  0x00000000        0x8 build/default/debug/_ext/1664057780/tfm.o
 .text.mp_rshd  0x00000000        0x8 build/default/debug/_ext/1664057780/tfm.o
 .text.mp_set_int
                0x00000000        0x8 build/default/debug/_ext/1664057780/tfm.o
 .text.mp_is_bit_set
                0x00000000        0x8 build/default/debug/_ext/1664057780/tfm.o
 .text.mp_set_bit
                0x00000000        0x8 build/default/debug/_ext/1664057780/tfm.o
 .text.fp_sqrmod
                0x00000000       0x34 build/default/debug/_ext/1664057780/tfm.o
 .text.mp_sqrmod
                0x00000000        0x8 build/default/debug/_ext/1664057780/tfm.o
 .text.mp_montgomery_calc_normalization
                0x00000000        0x8 build/default/debug/_ext/1664057780/tfm.o
 .text.fp_cnt_lsb
                0x00000000       0x5c build/default/debug/_ext/1664057780/tfm.o
 .text.fp_prime_miller_rabin_ex
                0x00000000       0xce build/default/debug/_ext/1664057780/tfm.o
 .text.fp_isprime_ex
                0x00000000      0x110 build/default/debug/_ext/1664057780/tfm.o
 .text.mp_mod_d
                0x00000000        0xc build/default/debug/_ext/1664057780/tfm.o
 .text.mp_prime_is_prime
                0x00000000        0x8 build/default/debug/_ext/1664057780/tfm.o
 .text.mp_prime_is_prime_ex
                0x00000000      0x1ac build/default/debug/_ext/1664057780/tfm.o
 .text.mp_cond_swap_ct
                0x00000000        0x8 build/default/debug/_ext/1664057780/tfm.o
 .text.fp_add_d
                0x00000000       0x2a build/default/debug/_ext/1664057780/tfm.o
 .text.mp_add_d
                0x00000000        0x8 build/default/debug/_ext/1664057780/tfm.o
 .text.mp_read_radix
                0x00000000      0x178 build/default/debug/_ext/1664057780/tfm.o
 .text.mp_sqr   0x00000000        0x8 build/default/debug/_ext/1664057780/tfm.o
 .text.mp_montgomery_reduce
                0x00000000        0x8 build/default/debug/_ext/1664057780/tfm.o
 .text.mp_montgomery_reduce_ex
                0x00000000        0x8 build/default/debug/_ext/1664057780/tfm.o
 .text.mp_montgomery_setup
                0x00000000        0x8 build/default/debug/_ext/1664057780/tfm.o
 .text.mp_div_2
                0x00000000        0xa build/default/debug/_ext/1664057780/tfm.o
 .text.mp_div_2_mod_ct
                0x00000000        0x8 build/default/debug/_ext/1664057780/tfm.o
 .text.mp_set   0x00000000        0xa build/default/debug/_ext/1664057780/tfm.o
 .text.mp_radix_size
                0x00000000       0xc8 build/default/debug/_ext/1664057780/tfm.o
 .text.mp_toradix
                0x00000000       0xcc build/default/debug/_ext/1664057780/tfm.o
 .text.mp_abs   0x00000000        0xe build/default/debug/_ext/1664057780/tfm.o
 .text.mp_lshd  0x00000000        0x8 build/default/debug/_ext/1664057780/tfm.o
 .rodata        0x00000000       0x44 build/default/debug/_ext/1664057780/tfm.o
 .rodata.lnz    0x00000000       0x40 build/default/debug/_ext/1664057780/tfm.o
 .rodata.primes
                0x00000000      0x400 build/default/debug/_ext/1664057780/tfm.o
 .debug_info    0x00000000     0x8aff build/default/debug/_ext/1664057780/tfm.o
 .debug_abbrev  0x00000000      0x53a build/default/debug/_ext/1664057780/tfm.o
 .debug_loc     0x00000000     0xad54 build/default/debug/_ext/1664057780/tfm.o
 .debug_aranges
                0x00000000      0x438 build/default/debug/_ext/1664057780/tfm.o
 .debug_ranges  0x00000000      0x5b8 build/default/debug/_ext/1664057780/tfm.o
 .debug_line    0x00000000     0x403b build/default/debug/_ext/1664057780/tfm.o
 .debug_str     0x00000000       0x44 build/default/debug/_ext/1664057780/tfm.o
 .comment       0x00000000       0x54 build/default/debug/_ext/1664057780/tfm.o
 .debug_frame   0x00000000      0xff0 build/default/debug/_ext/1664057780/tfm.o
 .ARM.attributes
                0x00000000       0x34 build/default/debug/_ext/1664057780/tfm.o
 .text          0x00000000        0x0 build/default/debug/_ext/1664057780/wc_dsp.o
 .data          0x00000000        0x0 build/default/debug/_ext/1664057780/wc_dsp.o
 .bss           0x00000000        0x0 build/default/debug/_ext/1664057780/wc_dsp.o
 .debug_info    0x00000000      0x391 build/default/debug/_ext/1664057780/wc_dsp.o
 .debug_abbrev  0x00000000       0x72 build/default/debug/_ext/1664057780/wc_dsp.o
 .debug_aranges
                0x00000000       0x18 build/default/debug/_ext/1664057780/wc_dsp.o
 .debug_line    0x00000000       0xe2 build/default/debug/_ext/1664057780/wc_dsp.o
 .debug_str     0x00000000        0x0 build/default/debug/_ext/1664057780/wc_dsp.o
 .comment       0x00000000       0x54 build/default/debug/_ext/1664057780/wc_dsp.o
 .ARM.attributes
                0x00000000       0x39 build/default/debug/_ext/1664057780/wc_dsp.o
 .text          0x00000000        0x0 build/default/debug/_ext/1664057780/wc_encrypt.o
 .data          0x00000000        0x0 build/default/debug/_ext/1664057780/wc_encrypt.o
 .bss           0x00000000        0x0 build/default/debug/_ext/1664057780/wc_encrypt.o
 .text.wc_AesCbcDecryptWithKey
                0x00000000       0x74 build/default/debug/_ext/1664057780/wc_encrypt.o
 .text.wc_AesCbcEncryptWithKey
                0x00000000       0x52 build/default/debug/_ext/1664057780/wc_encrypt.o
 .text.wc_Des_CbcEncryptWithKey
                0x00000000       0x30 build/default/debug/_ext/1664057780/wc_encrypt.o
 .text.wc_Des_CbcDecryptWithKey
                0x00000000       0x30 build/default/debug/_ext/1664057780/wc_encrypt.o
 .text.wc_Des3_CbcEncryptWithKey
                0x00000000       0x4e build/default/debug/_ext/1664057780/wc_encrypt.o
 .text.wc_Des3_CbcDecryptWithKey
                0x00000000       0x4e build/default/debug/_ext/1664057780/wc_encrypt.o
 .debug_info    0x00000000     0x1b2f build/default/debug/_ext/1664057780/wc_encrypt.o
 .debug_abbrev  0x00000000      0x1a1 build/default/debug/_ext/1664057780/wc_encrypt.o
 .debug_loc     0x00000000      0x97d build/default/debug/_ext/1664057780/wc_encrypt.o
 .debug_aranges
                0x00000000       0x48 build/default/debug/_ext/1664057780/wc_encrypt.o
 .debug_ranges  0x00000000       0x38 build/default/debug/_ext/1664057780/wc_encrypt.o
 .debug_line    0x00000000      0x39a build/default/debug/_ext/1664057780/wc_encrypt.o
 .debug_str     0x00000000       0xc4 build/default/debug/_ext/1664057780/wc_encrypt.o
 .comment       0x00000000       0x54 build/default/debug/_ext/1664057780/wc_encrypt.o
 .debug_frame   0x00000000      0x110 build/default/debug/_ext/1664057780/wc_encrypt.o
 .ARM.attributes
                0x00000000       0x34 build/default/debug/_ext/1664057780/wc_encrypt.o
 .text          0x00000000        0x0 build/default/debug/_ext/1664057780/wc_pkcs11.o
 .data          0x00000000        0x0 build/default/debug/_ext/1664057780/wc_pkcs11.o
 .bss           0x00000000        0x0 build/default/debug/_ext/1664057780/wc_pkcs11.o
 .debug_info    0x00000000      0x331 build/default/debug/_ext/1664057780/wc_pkcs11.o
 .debug_abbrev  0x00000000       0x44 build/default/debug/_ext/1664057780/wc_pkcs11.o
 .debug_aranges
                0x00000000       0x18 build/default/debug/_ext/1664057780/wc_pkcs11.o
 .debug_line    0x00000000       0x9e build/default/debug/_ext/1664057780/wc_pkcs11.o
 .debug_str     0x00000000        0x0 build/default/debug/_ext/1664057780/wc_pkcs11.o
 .comment       0x00000000       0x54 build/default/debug/_ext/1664057780/wc_pkcs11.o
 .ARM.attributes
                0x00000000       0x39 build/default/debug/_ext/1664057780/wc_pkcs11.o
 .text          0x00000000        0x0 build/default/debug/_ext/1664057780/wc_port.o
 .data          0x00000000        0x0 build/default/debug/_ext/1664057780/wc_port.o
 .bss           0x00000000        0x0 build/default/debug/_ext/1664057780/wc_port.o
 .text.wolfCrypt_Init
                0x00000000       0x20 build/default/debug/_ext/1664057780/wc_port.o
 .text.wolfCrypt_Cleanup
                0x00000000       0x24 build/default/debug/_ext/1664057780/wc_port.o
 .text.wc_InitAndAllocMutex
                0x00000000        0xa build/default/debug/_ext/1664057780/wc_port.o
 .text.wc_strtok
                0x00000000       0x84 build/default/debug/_ext/1664057780/wc_port.o
 .text.wc_strsep
                0x00000000       0x40 build/default/debug/_ext/1664057780/wc_port.o
 .text.wc_InitMutex
                0x00000000        0x4 build/default/debug/_ext/1664057780/wc_port.o
 .text.wc_FreeMutex
                0x00000000        0x4 build/default/debug/_ext/1664057780/wc_port.o
 .text.wc_LockMutex
                0x00000000        0x4 build/default/debug/_ext/1664057780/wc_port.o
 .text.wc_UnLockMutex
                0x00000000        0x4 build/default/debug/_ext/1664057780/wc_port.o
 .text.mystrnstr
                0x00000000       0x5c build/default/debug/_ext/1664057780/wc_port.o
 .bss.initRefCount
                0x00000000        0x4 build/default/debug/_ext/1664057780/wc_port.o
 .debug_info    0x00000000     0x1151 build/default/debug/_ext/1664057780/wc_port.o
 .debug_abbrev  0x00000000      0x285 build/default/debug/_ext/1664057780/wc_port.o
 .debug_loc     0x00000000      0x4f4 build/default/debug/_ext/1664057780/wc_port.o
 .debug_aranges
                0x00000000       0x68 build/default/debug/_ext/1664057780/wc_port.o
 .debug_ranges  0x00000000       0x58 build/default/debug/_ext/1664057780/wc_port.o
 .debug_line    0x00000000      0x4a4 build/default/debug/_ext/1664057780/wc_port.o
 .debug_str     0x00000000       0x1e build/default/debug/_ext/1664057780/wc_port.o
 .comment       0x00000000       0x54 build/default/debug/_ext/1664057780/wc_port.o
 .debug_frame   0x00000000      0x120 build/default/debug/_ext/1664057780/wc_port.o
 .ARM.attributes
                0x00000000       0x34 build/default/debug/_ext/1664057780/wc_port.o
 .text          0x00000000        0x0 build/default/debug/_ext/1664057780/wolfevent.o
 .data          0x00000000        0x0 build/default/debug/_ext/1664057780/wolfevent.o
 .bss           0x00000000        0x0 build/default/debug/_ext/1664057780/wolfevent.o
 .debug_info    0x00000000      0x331 build/default/debug/_ext/1664057780/wolfevent.o
 .debug_abbrev  0x00000000       0x44 build/default/debug/_ext/1664057780/wolfevent.o
 .debug_aranges
                0x00000000       0x18 build/default/debug/_ext/1664057780/wolfevent.o
 .debug_line    0x00000000       0x9e build/default/debug/_ext/1664057780/wolfevent.o
 .debug_str     0x00000000        0x0 build/default/debug/_ext/1664057780/wolfevent.o
 .comment       0x00000000       0x54 build/default/debug/_ext/1664057780/wolfevent.o
 .ARM.attributes
                0x00000000       0x39 build/default/debug/_ext/1664057780/wolfevent.o
 .text          0x00000000        0x0 build/default/debug/_ext/1664057780/wolfmath.o
 .data          0x00000000        0x0 build/default/debug/_ext/1664057780/wolfmath.o
 .bss           0x00000000        0x0 build/default/debug/_ext/1664057780/wolfmath.o
 .text.get_digit_count
                0x00000000        0xa build/default/debug/_ext/1664057780/wolfmath.o
 .text.get_digit
                0x00000000       0x20 build/default/debug/_ext/1664057780/wolfmath.o
 .text.mp_cond_copy
                0x00000000       0xb6 build/default/debug/_ext/1664057780/wolfmath.o
 .text.get_rand_digit
                0x00000000        0xa build/default/debug/_ext/1664057780/wolfmath.o
 .text.wc_export_int
                0x00000000       0x4e build/default/debug/_ext/1664057780/wolfmath.o
 .rodata.wc_off_on_addr
                0x00000000        0x8 build/default/debug/_ext/1664057780/wolfmath.o
 .debug_info    0x00000000     0x1620 build/default/debug/_ext/1664057780/wolfmath.o
 .debug_abbrev  0x00000000      0x1fe build/default/debug/_ext/1664057780/wolfmath.o
 .debug_loc     0x00000000      0x4a1 build/default/debug/_ext/1664057780/wolfmath.o
 .debug_aranges
                0x00000000       0x40 build/default/debug/_ext/1664057780/wolfmath.o
 .debug_ranges  0x00000000       0x30 build/default/debug/_ext/1664057780/wolfmath.o
 .debug_line    0x00000000      0x33b build/default/debug/_ext/1664057780/wolfmath.o
 .debug_str     0x00000000       0x48 build/default/debug/_ext/1664057780/wolfmath.o
 .comment       0x00000000       0x54 build/default/debug/_ext/1664057780/wolfmath.o
 .debug_frame   0x00000000       0xb0 build/default/debug/_ext/1664057780/wolfmath.o
 .ARM.attributes
                0x00000000       0x34 build/default/debug/_ext/1664057780/wolfmath.o
 .text          0x00000000        0x0 build/default/debug/_ext/1664057780/aes.o
 .data          0x00000000        0x0 build/default/debug/_ext/1664057780/aes.o
 .bss           0x00000000        0x0 build/default/debug/_ext/1664057780/aes.o
 .text.col_mul  0x00000000       0x3a build/default/debug/_ext/1664057780/aes.o
 .text.inv_col_mul
                0x00000000       0x66 build/default/debug/_ext/1664057780/aes.o
 .text.wc_AesEncrypt
                0x00000000      0x3a0 build/default/debug/_ext/1664057780/aes.o
 .text.wc_AesDecrypt
                0x00000000      0x390 build/default/debug/_ext/1664057780/aes.o
 .text.GMULT    0x00000000       0xb8 build/default/debug/_ext/1664057780/aes.o
 .text.roll_x   0x00000000       0xcc build/default/debug/_ext/1664057780/aes.o
 .text.roll_auth
                0x00000000       0xf0 build/default/debug/_ext/1664057780/aes.o
 .text.wc_AesSetIV
                0x00000000       0x40 build/default/debug/_ext/1664057780/aes.o
 .text.wc_AesSetKeyLocal
                0x00000000      0x2a8 build/default/debug/_ext/1664057780/aes.o
 .text.wc_AesSetKey
                0x00000000       0x26 build/default/debug/_ext/1664057780/aes.o
 .text.wc_AesSetKeyDirect
                0x00000000       0x26 build/default/debug/_ext/1664057780/aes.o
 .text.wc_AesEncryptDirect
                0x00000000        0xe build/default/debug/_ext/1664057780/aes.o
 .text.wc_AesDecryptDirect
                0x00000000        0xe build/default/debug/_ext/1664057780/aes.o
 .text.wc_AesCbcEncrypt
                0x00000000       0xca build/default/debug/_ext/1664057780/aes.o
 .text.wc_AesCbcDecrypt
                0x00000000       0xf2 build/default/debug/_ext/1664057780/aes.o
 .text.wc_AesCtrEncrypt
                0x00000000      0x1aa build/default/debug/_ext/1664057780/aes.o
 .text.wc_AesGcmSetKey
                0x00000000       0x5e build/default/debug/_ext/1664057780/aes.o
 .text.GHASH    0x00000000      0x38e build/default/debug/_ext/1664057780/aes.o
 .text.wc_AesGcmSetExtIV
                0x00000000       0x4a build/default/debug/_ext/1664057780/aes.o
 .text.wc_AesGcmSetIV
                0x00000000       0x86 build/default/debug/_ext/1664057780/aes.o
 .text.wc_GmacSetKey
                0x00000000       0x18 build/default/debug/_ext/1664057780/aes.o
 .text.wc_AesCcmSetKey
                0x00000000       0x24 build/default/debug/_ext/1664057780/aes.o
 .text.wc_AesCcmCheckTagSize
                0x00000000       0x24 build/default/debug/_ext/1664057780/aes.o
 .text.wc_AesCcmEncrypt
                0x00000000      0x308 build/default/debug/_ext/1664057780/aes.o
 .text.wc_AesCcmDecrypt
                0x00000000      0x3a0 build/default/debug/_ext/1664057780/aes.o
 .text.wc_AesCcmSetNonce
                0x00000000       0x3c build/default/debug/_ext/1664057780/aes.o
 .text.wc_AesCcmEncrypt_ex
                0x00000000       0xda build/default/debug/_ext/1664057780/aes.o
 .text.wc_AesInit
                0x00000000       0x1a build/default/debug/_ext/1664057780/aes.o
 .text.wc_AesFree
                0x00000000       0x1a build/default/debug/_ext/1664057780/aes.o
 .text.wc_AesGetKeySize
                0x00000000       0x42 build/default/debug/_ext/1664057780/aes.o
 .text.wc_AesEcbEncrypt
                0x00000000       0x40 build/default/debug/_ext/1664057780/aes.o
 .text.wc_AesGcmEncrypt
                0x00000000      0x34c build/default/debug/_ext/1664057780/aes.o
 .text.wc_AesGcmEncrypt_ex
                0x00000000       0xf4 build/default/debug/_ext/1664057780/aes.o
 .text.wc_Gmac  0x00000000       0xc4 build/default/debug/_ext/1664057780/aes.o
 .text.wc_GmacUpdate
                0x00000000       0x24 build/default/debug/_ext/1664057780/aes.o
 .text.wc_AesGcmDecrypt
                0x00000000      0x384 build/default/debug/_ext/1664057780/aes.o
 .text.wc_GmacVerify
                0x00000000       0xa4 build/default/debug/_ext/1664057780/aes.o
 .text.wc_AesEcbDecrypt
                0x00000000       0x40 build/default/debug/_ext/1664057780/aes.o
 .text.wc_AesOfbEncrypt
                0x00000000      0x17a build/default/debug/_ext/1664057780/aes.o
 .text.wc_AesOfbDecrypt
                0x00000000      0x184 build/default/debug/_ext/1664057780/aes.o
 .rodata.Td4    0x00000000      0x100 build/default/debug/_ext/1664057780/aes.o
 .rodata.Tsbox  0x00000000      0x100 build/default/debug/_ext/1664057780/aes.o
 .rodata.rcon   0x00000000       0x28 build/default/debug/_ext/1664057780/aes.o
 .debug_info    0x00000000     0x7a52 build/default/debug/_ext/1664057780/aes.o
 .debug_abbrev  0x00000000      0x5ae build/default/debug/_ext/1664057780/aes.o
 .debug_loc     0x00000000     0x9a74 build/default/debug/_ext/1664057780/aes.o
 .debug_aranges
                0x00000000      0x158 build/default/debug/_ext/1664057780/aes.o
 .debug_ranges  0x00000000      0xb50 build/default/debug/_ext/1664057780/aes.o
 .debug_line    0x00000000     0x323e build/default/debug/_ext/1664057780/aes.o
 .debug_str     0x00000000      0x107 build/default/debug/_ext/1664057780/aes.o
 .comment       0x00000000       0x54 build/default/debug/_ext/1664057780/aes.o
 .debug_frame   0x00000000      0x6b4 build/default/debug/_ext/1664057780/aes.o
 .ARM.attributes
                0x00000000       0x34 build/default/debug/_ext/1664057780/aes.o
 .text          0x00000000        0x0 build/default/debug/_ext/1664057780/des3.o
 .data          0x00000000        0x0 build/default/debug/_ext/1664057780/des3.o
 .bss           0x00000000        0x0 build/default/debug/_ext/1664057780/des3.o
 .text.DesRawProcessBlock
                0x00000000      0x130 build/default/debug/_ext/1664057780/des3.o
 .text.Des3ProcessBlock
                0x00000000      0x12a build/default/debug/_ext/1664057780/des3.o
 .text.DesSetKey
                0x00000000      0x16c build/default/debug/_ext/1664057780/des3.o
 .text.DesProcessBlock
                0x00000000      0x112 build/default/debug/_ext/1664057780/des3.o
 .text.wc_Des_CbcEncrypt
                0x00000000       0x78 build/default/debug/_ext/1664057780/des3.o
 .text.wc_Des_CbcDecrypt
                0x00000000       0x84 build/default/debug/_ext/1664057780/des3.o
 .text.wc_Des3_CbcEncrypt
                0x00000000       0xbe build/default/debug/_ext/1664057780/des3.o
 .text.wc_Des3_CbcDecrypt
                0x00000000       0xc6 build/default/debug/_ext/1664057780/des3.o
 .text.wc_Des_SetIV
                0x00000000       0x18 build/default/debug/_ext/1664057780/des3.o
 .text.wc_Des_SetKey
                0x00000000       0x1c build/default/debug/_ext/1664057780/des3.o
 .text.wc_Des3_SetIV
                0x00000000       0x28 build/default/debug/_ext/1664057780/des3.o
 .text.wc_Des3_SetKey
                0x00000000       0xb8 build/default/debug/_ext/1664057780/des3.o
 .text.wc_Des3Init
                0x00000000       0x1a build/default/debug/_ext/1664057780/des3.o
 .text.wc_Des3Free
                0x00000000       0x1a build/default/debug/_ext/1664057780/des3.o
 .rodata.Spbox  0x00000000      0x800 build/default/debug/_ext/1664057780/des3.o
 .rodata.bytebit
                0x00000000       0x20 build/default/debug/_ext/1664057780/des3.o
 .rodata.pc1    0x00000000       0x38 build/default/debug/_ext/1664057780/des3.o
 .rodata.pc2    0x00000000       0x30 build/default/debug/_ext/1664057780/des3.o
 .rodata.totrot
                0x00000000       0x10 build/default/debug/_ext/1664057780/des3.o
 .debug_info    0x00000000     0x310d build/default/debug/_ext/1664057780/des3.o
 .debug_abbrev  0x00000000      0x3a2 build/default/debug/_ext/1664057780/des3.o
 .debug_loc     0x00000000     0x74c8 build/default/debug/_ext/1664057780/des3.o
 .debug_aranges
                0x00000000       0x88 build/default/debug/_ext/1664057780/des3.o
 .debug_ranges  0x00000000      0x450 build/default/debug/_ext/1664057780/des3.o
 .debug_line    0x00000000      0xfb5 build/default/debug/_ext/1664057780/des3.o
 .debug_str     0x00000000       0x44 build/default/debug/_ext/1664057780/des3.o
 .comment       0x00000000       0x54 build/default/debug/_ext/1664057780/des3.o
 .debug_frame   0x00000000      0x1fc build/default/debug/_ext/1664057780/des3.o
 .ARM.attributes
                0x00000000       0x34 build/default/debug/_ext/1664057780/des3.o
 .text          0x00000000        0x0 build/default/debug/_ext/1664057780/random.o
 .data          0x00000000        0x0 build/default/debug/_ext/1664057780/random.o
 .bss           0x00000000        0x0 build/default/debug/_ext/1664057780/random.o
 .text.Hash_DRBG_Uninstantiate
                0x00000000       0x34 build/default/debug/_ext/1664057780/random.o
 .text.Hash_df  0x00000000      0x13e build/default/debug/_ext/1664057780/random.o
 .text.Hash_DRBG_Reseed
                0x00000000       0xaa build/default/debug/_ext/1664057780/random.o
 .text.Hash_DRBG_Instantiate
                0x00000000       0x72 build/default/debug/_ext/1664057780/random.o
 .text.Hash_DRBG_Generate
                0x00000000      0x2d0 build/default/debug/_ext/1664057780/random.o
 .text.wc_RNG_DRBG_Reseed
                0x00000000       0x1a build/default/debug/_ext/1664057780/random.o
 .text.wc_RNG_TestSeed
                0x00000000       0x68 build/default/debug/_ext/1664057780/random.o
 .text.wc_FreeRng
                0x00000000       0x34 build/default/debug/_ext/1664057780/random.o
 .text.wc_rng_free
                0x00000000       0x28 build/default/debug/_ext/1664057780/random.o
 .text.wc_RNG_HealthTest_ex
                0x00000000       0xa2 build/default/debug/_ext/1664057780/random.o
 .text.wc_RNG_HealthTest
                0x00000000       0x2c build/default/debug/_ext/1664057780/random.o
 .text.wc_GenerateSeed
                0x00000000       0x74 build/default/debug/_ext/1664057780/random.o
 .text._InitRng
                0x00000000      0x184 build/default/debug/_ext/1664057780/random.o
 .text.wc_rng_new
                0x00000000       0x36 build/default/debug/_ext/1664057780/random.o
 .text.wc_InitRng
                0x00000000       0x1a build/default/debug/_ext/1664057780/random.o
 .text.wc_InitRng_ex
                0x00000000       0x16 build/default/debug/_ext/1664057780/random.o
 .text.wc_InitRngNonce
                0x00000000       0x16 build/default/debug/_ext/1664057780/random.o
 .text.wc_InitRngNonce_ex
                0x00000000       0x10 build/default/debug/_ext/1664057780/random.o
 .text.wc_RNG_GenerateBlock
                0x00000000      0x11c build/default/debug/_ext/1664057780/random.o
 .text.wc_RNG_GenerateByte
                0x00000000        0xa build/default/debug/_ext/1664057780/random.o
 .rodata.outputA_data
                0x00000000       0x80 build/default/debug/_ext/1664057780/random.o
 .rodata.outputB_data
                0x00000000       0x80 build/default/debug/_ext/1664057780/random.o
 .rodata.reseedSeedA_data
                0x00000000       0x20 build/default/debug/_ext/1664057780/random.o
 .rodata.seedA_data
                0x00000000       0x30 build/default/debug/_ext/1664057780/random.o
 .rodata.seedB_data
                0x00000000       0x30 build/default/debug/_ext/1664057780/random.o
 .debug_info    0x00000000     0x3cff build/default/debug/_ext/1664057780/random.o
 .debug_abbrev  0x00000000      0x451 build/default/debug/_ext/1664057780/random.o
 .debug_loc     0x00000000     0x29ba build/default/debug/_ext/1664057780/random.o
 .debug_aranges
                0x00000000       0xb8 build/default/debug/_ext/1664057780/random.o
 .debug_ranges  0x00000000      0x1e8 build/default/debug/_ext/1664057780/random.o
 .debug_line    0x00000000     0x103f build/default/debug/_ext/1664057780/random.o
 .debug_str     0x00000000       0xec build/default/debug/_ext/1664057780/random.o
 .comment       0x00000000       0x54 build/default/debug/_ext/1664057780/random.o
 .debug_frame   0x00000000      0x2e8 build/default/debug/_ext/1664057780/random.o
 .ARM.attributes
                0x00000000       0x34 build/default/debug/_ext/1664057780/random.o
 .text          0x00000000        0x0 build/default/debug/_ext/1664057780/sha.o
 .data          0x00000000        0x0 build/default/debug/_ext/1664057780/sha.o
 .bss           0x00000000        0x0 build/default/debug/_ext/1664057780/sha.o
 .text.Transform
                0x00000000      0xdb8 build/default/debug/_ext/1664057780/sha.o
 .text.wc_InitSha_ex
                0x00000000       0x44 build/default/debug/_ext/1664057780/sha.o
 .text.wc_ShaUpdate
                0x00000000      0x15c build/default/debug/_ext/1664057780/sha.o
 .text.wc_ShaFinalRaw
                0x00000000       0x54 build/default/debug/_ext/1664057780/sha.o
 .text.wc_ShaFinal
                0x00000000      0x15c build/default/debug/_ext/1664057780/sha.o
 .text.wc_InitSha
                0x00000000        0xe build/default/debug/_ext/1664057780/sha.o
 .text.wc_ShaFree
                0x00000000        0x2 build/default/debug/_ext/1664057780/sha.o
 .text.wc_ShaCopy
                0x00000000       0x2a build/default/debug/_ext/1664057780/sha.o
 .text.wc_ShaGetHash
                0x00000000       0x34 build/default/debug/_ext/1664057780/sha.o
 .text.wc_ShaSetFlags
                0x00000000        0x8 build/default/debug/_ext/1664057780/sha.o
 .text.wc_ShaGetFlags
                0x00000000        0xc build/default/debug/_ext/1664057780/sha.o
 .debug_info    0x00000000     0x4d61 build/default/debug/_ext/1664057780/sha.o
 .debug_abbrev  0x00000000      0x365 build/default/debug/_ext/1664057780/sha.o
 .debug_loc     0x00000000     0x69a4 build/default/debug/_ext/1664057780/sha.o
 .debug_aranges
                0x00000000       0x70 build/default/debug/_ext/1664057780/sha.o
 .debug_ranges  0x00000000      0x6d8 build/default/debug/_ext/1664057780/sha.o
 .debug_line    0x00000000     0x1e7d build/default/debug/_ext/1664057780/sha.o
 .debug_str     0x00000000       0x21 build/default/debug/_ext/1664057780/sha.o
 .comment       0x00000000       0x54 build/default/debug/_ext/1664057780/sha.o
 .debug_frame   0x00000000      0x154 build/default/debug/_ext/1664057780/sha.o
 .ARM.attributes
                0x00000000       0x34 build/default/debug/_ext/1664057780/sha.o
 .text          0x00000000        0x0 build/default/debug/_ext/1664057780/sha256.o
 .data          0x00000000        0x0 build/default/debug/_ext/1664057780/sha256.o
 .bss           0x00000000        0x0 build/default/debug/_ext/1664057780/sha256.o
 .text.Transform_Sha256
                0x00000000      0x30c build/default/debug/_ext/1664057780/sha256.o
 .text.wc_InitSha256_ex
                0x00000000       0x64 build/default/debug/_ext/1664057780/sha256.o
 .text.wc_Sha256Update
                0x00000000      0x144 build/default/debug/_ext/1664057780/sha256.o
 .text.wc_Sha256FinalRaw
                0x00000000       0x5a build/default/debug/_ext/1664057780/sha256.o
 .text.wc_Sha256Final
                0x00000000      0x188 build/default/debug/_ext/1664057780/sha256.o
 .text.wc_InitSha224_ex
                0x00000000       0x64 build/default/debug/_ext/1664057780/sha256.o
 .text.wc_Sha224Update
                0x00000000      0x12c build/default/debug/_ext/1664057780/sha256.o
 .text.wc_Sha224Final
                0x00000000      0x16c build/default/debug/_ext/1664057780/sha256.o
 .text.wc_InitSha224
                0x00000000        0xe build/default/debug/_ext/1664057780/sha256.o
 .text.wc_Sha224Free
                0x00000000        0x2 build/default/debug/_ext/1664057780/sha256.o
 .text.wc_InitSha256
                0x00000000        0xe build/default/debug/_ext/1664057780/sha256.o
 .text.wc_Sha256Free
                0x00000000        0x2 build/default/debug/_ext/1664057780/sha256.o
 .text.wc_Sha224Copy
                0x00000000       0x2a build/default/debug/_ext/1664057780/sha256.o
 .text.wc_Sha224GetHash
                0x00000000       0x34 build/default/debug/_ext/1664057780/sha256.o
 .text.wc_Sha224SetFlags
                0x00000000        0x8 build/default/debug/_ext/1664057780/sha256.o
 .text.wc_Sha224GetFlags
                0x00000000        0xc build/default/debug/_ext/1664057780/sha256.o
 .text.wc_Sha256Copy
                0x00000000       0x2a build/default/debug/_ext/1664057780/sha256.o
 .text.wc_Sha256GetHash
                0x00000000       0x34 build/default/debug/_ext/1664057780/sha256.o
 .text.wc_Sha256SetFlags
                0x00000000        0x8 build/default/debug/_ext/1664057780/sha256.o
 .text.wc_Sha256GetFlags
                0x00000000        0xc build/default/debug/_ext/1664057780/sha256.o
 .rodata.K      0x00000000      0x100 build/default/debug/_ext/1664057780/sha256.o
 .debug_info    0x00000000     0x3d2f build/default/debug/_ext/1664057780/sha256.o
 .debug_abbrev  0x00000000      0x3f3 build/default/debug/_ext/1664057780/sha256.o
 .debug_loc     0x00000000     0x284a build/default/debug/_ext/1664057780/sha256.o
 .debug_aranges
                0x00000000       0xb8 build/default/debug/_ext/1664057780/sha256.o
 .debug_ranges  0x00000000      0x400 build/default/debug/_ext/1664057780/sha256.o
 .debug_line    0x00000000     0x12b7 build/default/debug/_ext/1664057780/sha256.o
 .debug_str     0x00000000       0x42 build/default/debug/_ext/1664057780/sha256.o
 .comment       0x00000000       0x54 build/default/debug/_ext/1664057780/sha256.o
 .debug_frame   0x00000000      0x23c build/default/debug/_ext/1664057780/sha256.o
 .ARM.attributes
                0x00000000       0x34 build/default/debug/_ext/1664057780/sha256.o
 .text          0x00000000        0x0 build/default/debug/_ext/1664057780/sha512.o
 .data          0x00000000        0x0 build/default/debug/_ext/1664057780/sha512.o
 .bss           0x00000000        0x0 build/default/debug/_ext/1664057780/sha512.o
 .debug_info    0x00000000      0x32e build/default/debug/_ext/1664057780/sha512.o
 .debug_abbrev  0x00000000       0x44 build/default/debug/_ext/1664057780/sha512.o
 .debug_aranges
                0x00000000       0x18 build/default/debug/_ext/1664057780/sha512.o
 .debug_line    0x00000000       0x9e build/default/debug/_ext/1664057780/sha512.o
 .debug_str     0x00000000        0x0 build/default/debug/_ext/1664057780/sha512.o
 .comment       0x00000000       0x54 build/default/debug/_ext/1664057780/sha512.o
 .ARM.attributes
                0x00000000       0x39 build/default/debug/_ext/1664057780/sha512.o
 .text          0x00000000        0x0 build/default/debug/_ext/1664057780/ecc.o
 .data          0x00000000        0x0 build/default/debug/_ext/1664057780/ecc.o
 .bss           0x00000000        0x0 build/default/debug/_ext/1664057780/ecc.o
 .text.ecc_point_to_mont
                0x00000000       0xa8 build/default/debug/_ext/1664057780/ecc.o
 .text.wc_ecc_cmp_param
                0x00000000       0x84 build/default/debug/_ext/1664057780/ecc.o
 .text.wc_ecc_curve_cache_load_item
                0x00000000       0x50 build/default/debug/_ext/1664057780/ecc.o
 .text.wc_ecc_curve_free
                0x00000000       0xa8 build/default/debug/_ext/1664057780/ecc.o
 .text.wc_ecc_curve_load
                0x00000000       0xbe build/default/debug/_ext/1664057780/ecc.o
 .text.wc_ecc_get_curve_order_bit_count
                0x00000000       0x46 build/default/debug/_ext/1664057780/ecc.o
 .text.wc_ecc_set_curve
                0x00000000       0x6c build/default/debug/_ext/1664057780/ecc.o
 .text.wc_ecc_import_raw_private
                0x00000000      0x142 build/default/debug/_ext/1664057780/ecc.o
 .text.ecc_projective_dbl_point
                0x00000000      0x27a build/default/debug/_ext/1664057780/ecc.o
 .text.ecc_projective_add_point
                0x00000000      0x46c build/default/debug/_ext/1664057780/ecc.o
 .text.ecc_map_ex
                0x00000000      0x13a build/default/debug/_ext/1664057780/ecc.o
 .text.ecc_map  0x00000000        0xa build/default/debug/_ext/1664057780/ecc.o
 .text.wc_ecc_new_point_h
                0x00000000       0x40 build/default/debug/_ext/1664057780/ecc.o
 .text.wc_ecc_new_point
                0x00000000        0xa build/default/debug/_ext/1664057780/ecc.o
 .text.wc_ecc_del_point_h
                0x00000000       0x24 build/default/debug/_ext/1664057780/ecc.o
 .text.wc_ecc_del_point
                0x00000000        0xa build/default/debug/_ext/1664057780/ecc.o
 .text.wc_ecc_copy_point
                0x00000000       0x44 build/default/debug/_ext/1664057780/ecc.o
 .text.wc_ecc_cmp_point
                0x00000000       0x44 build/default/debug/_ext/1664057780/ecc.o
 .text.wc_ecc_is_valid_idx
                0x00000000       0x14 build/default/debug/_ext/1664057780/ecc.o
 .text.wc_ecc_get_curve_idx
                0x00000000       0x28 build/default/debug/_ext/1664057780/ecc.o
 .text.wc_ecc_get_name
                0x00000000       0x20 build/default/debug/_ext/1664057780/ecc.o
 .text.wc_ecc_get_curve_id
                0x00000000       0x20 build/default/debug/_ext/1664057780/ecc.o
 .text.wc_ecc_get_curve_size_from_id
                0x00000000       0x24 build/default/debug/_ext/1664057780/ecc.o
 .text.wc_ecc_get_curve_idx_from_name
                0x00000000       0x50 build/default/debug/_ext/1664057780/ecc.o
 .text.wc_ecc_get_curve_size_from_name
                0x00000000       0x24 build/default/debug/_ext/1664057780/ecc.o
 .text.wc_ecc_get_curve_id_from_name
                0x00000000       0x24 build/default/debug/_ext/1664057780/ecc.o
 .text.wc_ecc_get_curve_id_from_params
                0x00000000       0xfc build/default/debug/_ext/1664057780/ecc.o
 .text.wc_ecc_get_curve_id_from_dp_params
                0x00000000      0x138 build/default/debug/_ext/1664057780/ecc.o
 .text.wc_ecc_get_curve_id_from_oid
                0x00000000       0x58 build/default/debug/_ext/1664057780/ecc.o
 .text.wc_ecc_get_curve_params
                0x00000000       0x14 build/default/debug/_ext/1664057780/ecc.o
 .text.wc_ecc_point_is_at_infinity
                0x00000000       0x26 build/default/debug/_ext/1664057780/ecc.o
 .text.wc_ecc_gen_k
                0x00000000       0x72 build/default/debug/_ext/1664057780/ecc.o
 .text.wc_ecc_init_ex
                0x00000000       0x4e build/default/debug/_ext/1664057780/ecc.o
 .text.wc_ecc_key_new
                0x00000000       0x2a build/default/debug/_ext/1664057780/ecc.o
 .text.wc_ecc_init
                0x00000000        0xe build/default/debug/_ext/1664057780/ecc.o
 .text.wc_ecc_init_id
                0x00000000       0x42 build/default/debug/_ext/1664057780/ecc.o
 .text.wc_ecc_init_label
                0x00000000       0x5a build/default/debug/_ext/1664057780/ecc.o
 .text.wc_ecc_set_flags
                0x00000000       0x12 build/default/debug/_ext/1664057780/ecc.o
 .text.wc_ecc_free
                0x00000000       0x2c build/default/debug/_ext/1664057780/ecc.o
 .text.wc_ecc_key_free
                0x00000000       0x28 build/default/debug/_ext/1664057780/ecc.o
 .text.ecc_projective_add_point_safe
                0x00000000      0x14c build/default/debug/_ext/1664057780/ecc.o
 .text.ecc_projective_dbl_point_safe
                0x00000000       0x3a build/default/debug/_ext/1664057780/ecc.o
 .text.ecc_mulmod
                0x00000000      0x270 build/default/debug/_ext/1664057780/ecc.o
 .text.wc_ecc_mulmod_ex
                0x00000000       0xfa build/default/debug/_ext/1664057780/ecc.o
 .text.wc_ecc_mulmod
                0x00000000       0x18 build/default/debug/_ext/1664057780/ecc.o
 .text.wc_ecc_mulmod_ex2
                0x00000000      0x100 build/default/debug/_ext/1664057780/ecc.o
 .text.wc_ecc_shared_secret_gen
                0x00000000      0x12a build/default/debug/_ext/1664057780/ecc.o
 .text.wc_ecc_shared_secret_ex
                0x00000000       0x94 build/default/debug/_ext/1664057780/ecc.o
 .text.wc_ecc_shared_secret
                0x00000000       0x90 build/default/debug/_ext/1664057780/ecc.o
 .text.ecc_make_pub_ex
                0x00000000      0x196 build/default/debug/_ext/1664057780/ecc.o
 .text.wc_ecc_make_pub
                0x00000000        0xe build/default/debug/_ext/1664057780/ecc.o
 .text.wc_ecc_make_pub_ex
                0x00000000        0xe build/default/debug/_ext/1664057780/ecc.o
 .text.wc_ecc_make_key_ex2
                0x00000000       0xd6 build/default/debug/_ext/1664057780/ecc.o
 .text.wc_ecc_make_key_ex
                0x00000000       0x10 build/default/debug/_ext/1664057780/ecc.o
 .text.wc_ecc_make_key
                0x00000000        0xa build/default/debug/_ext/1664057780/ecc.o
 .text.wc_ecc_sign_hash_ex
                0x00000000      0x2b6 build/default/debug/_ext/1664057780/ecc.o
 .text.wc_ecc_sign_hash
                0x00000000       0xe0 build/default/debug/_ext/1664057780/ecc.o
 .text.wc_ecc_verify_hash_ex
                0x00000000      0x494 build/default/debug/_ext/1664057780/ecc.o
 .text.wc_ecc_verify_hash
                0x00000000       0xee build/default/debug/_ext/1664057780/ecc.o
 .text.wc_ecc_import_point_der_ex
                0x00000000       0xcc build/default/debug/_ext/1664057780/ecc.o
 .text.wc_ecc_import_point_der
                0x00000000       0x10 build/default/debug/_ext/1664057780/ecc.o
 .text.wc_ecc_export_point_der
                0x00000000       0xe8 build/default/debug/_ext/1664057780/ecc.o
 .text.wc_ecc_export_point_der_ex
                0x00000000       0x12 build/default/debug/_ext/1664057780/ecc.o
 .text.wc_ecc_export_x963
                0x00000000      0x11c build/default/debug/_ext/1664057780/ecc.o
 .text.wc_ecc_export_x963_ex
                0x00000000       0x10 build/default/debug/_ext/1664057780/ecc.o
 .text.wc_ecc_is_point
                0x00000000      0x110 build/default/debug/_ext/1664057780/ecc.o
 .text.wc_ecc_check_key
                0x00000000      0x29a build/default/debug/_ext/1664057780/ecc.o
 .text.wc_ecc_import_x963_ex
                0x00000000       0xd6 build/default/debug/_ext/1664057780/ecc.o
 .text.wc_ecc_import_x963
                0x00000000        0xa build/default/debug/_ext/1664057780/ecc.o
 .text.wc_ecc_export_ex
                0x00000000       0xca build/default/debug/_ext/1664057780/ecc.o
 .text.wc_ecc_export_private_only
                0x00000000       0x30 build/default/debug/_ext/1664057780/ecc.o
 .text.wc_ecc_export_public_raw
                0x00000000       0x3a build/default/debug/_ext/1664057780/ecc.o
 .text.wc_ecc_export_private_raw
                0x00000000       0x1c build/default/debug/_ext/1664057780/ecc.o
 .text.wc_ecc_import_private_key_ex
                0x00000000       0x70 build/default/debug/_ext/1664057780/ecc.o
 .text.wc_ecc_import_private_key
                0x00000000       0x14 build/default/debug/_ext/1664057780/ecc.o
 .text.wc_ecc_rs_to_sig
                0x00000000       0xb2 build/default/debug/_ext/1664057780/ecc.o
 .text.wc_ecc_rs_raw_to_sig
                0x00000000       0x40 build/default/debug/_ext/1664057780/ecc.o
 .text.wc_ecc_sig_to_rs
                0x00000000       0x3c build/default/debug/_ext/1664057780/ecc.o
 .text.wc_ecc_import_raw_ex
                0x00000000       0x14 build/default/debug/_ext/1664057780/ecc.o
 .text.wc_ecc_import_unsigned
                0x00000000       0x14 build/default/debug/_ext/1664057780/ecc.o
 .text.wc_ecc_import_raw
                0x00000000       0x88 build/default/debug/_ext/1664057780/ecc.o
 .text.wc_ecc_size
                0x00000000        0xc build/default/debug/_ext/1664057780/ecc.o
 .text.wc_ecc_sig_size_calc
                0x00000000       0x10 build/default/debug/_ext/1664057780/ecc.o
 .text.wc_ecc_sig_size
                0x00000000       0x3a build/default/debug/_ext/1664057780/ecc.o
 .text.wc_ecc_get_oid
                0x00000000       0x5c build/default/debug/_ext/1664057780/ecc.o
 .rodata        0x00000000      0xa2c build/default/debug/_ext/1664057780/ecc.o
 .rodata.ecc_oid_prime239v1
                0x00000000        0x8 build/default/debug/_ext/1664057780/ecc.o
 .rodata.ecc_oid_secp224r1
                0x00000000        0x8 build/default/debug/_ext/1664057780/ecc.o
 .rodata.ecc_oid_secp256r1
                0x00000000        0x8 build/default/debug/_ext/1664057780/ecc.o
 .rodata.ecc_oid_secp384r1
                0x00000000        0x8 build/default/debug/_ext/1664057780/ecc.o
 .rodata.ecc_oid_secp521r1
                0x00000000        0x8 build/default/debug/_ext/1664057780/ecc.o
 .rodata.ecc_sets
                0x00000000      0x138 build/default/debug/_ext/1664057780/ecc.o
 .rodata.ecc_sets_count
                0x00000000        0x4 build/default/debug/_ext/1664057780/ecc.o
 .debug_info    0x00000000     0xa9c6 build/default/debug/_ext/1664057780/ecc.o
 .debug_abbrev  0x00000000      0x4b5 build/default/debug/_ext/1664057780/ecc.o
 .debug_loc     0x00000000     0x9dc3 build/default/debug/_ext/1664057780/ecc.o
 .debug_aranges
                0x00000000      0x2c0 build/default/debug/_ext/1664057780/ecc.o
 .debug_ranges  0x00000000      0x458 build/default/debug/_ext/1664057780/ecc.o
 .debug_line    0x00000000     0x3912 build/default/debug/_ext/1664057780/ecc.o
 .debug_str     0x00000000      0x318 build/default/debug/_ext/1664057780/ecc.o
 .comment       0x00000000       0x54 build/default/debug/_ext/1664057780/ecc.o
 .debug_frame   0x00000000      0xc24 build/default/debug/_ext/1664057780/ecc.o
 .ARM.attributes
                0x00000000       0x34 build/default/debug/_ext/1664057780/ecc.o
 .text          0x00000000        0x0 build/default/debug/_ext/1360937237/main.o
 .data          0x00000000        0x0 build/default/debug/_ext/1360937237/main.o
 .bss           0x00000000        0x0 build/default/debug/_ext/1360937237/main.o
 .text          0x00000000        0x0 build/default/debug/_ext/1360937237/app.o
 .data          0x00000000        0x0 build/default/debug/_ext/1360937237/app.o
 .bss           0x00000000        0x0 build/default/debug/_ext/1360937237/app.o
 .text          0x00000000        0x0 build/default/debug/_ext/1664057780/misc.o
 .data          0x00000000        0x0 build/default/debug/_ext/1664057780/misc.o
 .bss           0x00000000        0x0 build/default/debug/_ext/1664057780/misc.o
 .debug_info    0x00000000      0x38f build/default/debug/_ext/1664057780/misc.o
 .debug_abbrev  0x00000000       0x72 build/default/debug/_ext/1664057780/misc.o
 .debug_aranges
                0x00000000       0x18 build/default/debug/_ext/1664057780/misc.o
 .debug_line    0x00000000       0xe2 build/default/debug/_ext/1664057780/misc.o
 .debug_str     0x00000000        0x0 build/default/debug/_ext/1664057780/misc.o
 .comment       0x00000000       0x54 build/default/debug/_ext/1664057780/misc.o
 .ARM.attributes
                0x00000000       0x39 build/default/debug/_ext/1664057780/misc.o
 .text          0x00000000        0x0 build/default/debug/_ext/1664057780/evp.o
 .data          0x00000000        0x0 build/default/debug/_ext/1664057780/evp.o
 .bss           0x00000000        0x0 build/default/debug/_ext/1664057780/evp.o
 .debug_info    0x00000000      0x32b build/default/debug/_ext/1664057780/evp.o
 .debug_abbrev  0x00000000       0x44 build/default/debug/_ext/1664057780/evp.o
 .debug_aranges
                0x00000000       0x18 build/default/debug/_ext/1664057780/evp.o
 .debug_line    0x00000000       0x9e build/default/debug/_ext/1664057780/evp.o
 .debug_str     0x00000000        0x0 build/default/debug/_ext/1664057780/evp.o
 .comment       0x00000000       0x54 build/default/debug/_ext/1664057780/evp.o
 .ARM.attributes
                0x00000000       0x39 build/default/debug/_ext/1664057780/evp.o
 .text          0x00000000        0x0 build/default/debug/_ext/1033058136/berkeley_api.o
 .data          0x00000000        0x0 build/default/debug/_ext/1033058136/berkeley_api.o
 .bss           0x00000000        0x0 build/default/debug/_ext/1033058136/berkeley_api.o
 .text._BSD_SetIp4AddrInfo
                0x00000000       0xa0 build/default/debug/_ext/1033058136/berkeley_api.o
 .text._BSD_SetIp6AddrInfo
                0x00000000       0xb0 build/default/debug/_ext/1033058136/berkeley_api.o
 .text._BSD_StartAddrInfo
                0x00000000       0x62 build/default/debug/_ext/1033058136/berkeley_api.o
 .text.connect  0x00000000      0x258 build/default/debug/_ext/1033058136/berkeley_api.o
 .text.recvfrom
                0x00000000       0xe4 build/default/debug/_ext/1033058136/berkeley_api.o
 .text.gethostname
                0x00000000       0x58 build/default/debug/_ext/1033058136/berkeley_api.o
 .text._setsockopt_ip
                0x00000000       0x10 build/default/debug/_ext/1033058136/berkeley_api.o
 .text._setsockopt_socket
                0x00000000       0x98 build/default/debug/_ext/1033058136/berkeley_api.o
 .text._setsockopt_tcp
                0x00000000       0x40 build/default/debug/_ext/1033058136/berkeley_api.o
 .text._setsockopt_ipv6
                0x00000000       0x10 build/default/debug/_ext/1033058136/berkeley_api.o
 .text._setsockopt_icmp6
                0x00000000       0x10 build/default/debug/_ext/1033058136/berkeley_api.o
 .text.setsockopt
                0x00000000       0x80 build/default/debug/_ext/1033058136/berkeley_api.o
 .text._getsockopt_ip
                0x00000000       0x10 build/default/debug/_ext/1033058136/berkeley_api.o
 .text._getsockopt_socket
                0x00000000       0xec build/default/debug/_ext/1033058136/berkeley_api.o
 .text._getsockopt_tcp
                0x00000000       0x54 build/default/debug/_ext/1033058136/berkeley_api.o
 .text._getsockopt_ipv6
                0x00000000       0x10 build/default/debug/_ext/1033058136/berkeley_api.o
 .text._getsockopt_icmp6
                0x00000000       0x10 build/default/debug/_ext/1033058136/berkeley_api.o
 .text.getsockopt
                0x00000000       0x80 build/default/debug/_ext/1033058136/berkeley_api.o
 .text.gethostent
                0x00000000        0x8 build/default/debug/_ext/1033058136/berkeley_api.o
 .text.gethostbyname
                0x00000000       0xa0 build/default/debug/_ext/1033058136/berkeley_api.o
 .text.getsockname
                0x00000000       0x5c build/default/debug/_ext/1033058136/berkeley_api.o
 .text.TCPIP_BSD_Socket
                0x00000000       0x2c build/default/debug/_ext/1033058136/berkeley_api.o
 .text.TCPIP_BSD_PresSocket
                0x00000000       0x24 build/default/debug/_ext/1033058136/berkeley_api.o
 .text.getaddrinfo
                0x00000000      0x228 build/default/debug/_ext/1033058136/berkeley_api.o
 .text.freeaddrinfo
                0x00000000       0x22 build/default/debug/_ext/1033058136/berkeley_api.o
 .rodata        0x00000000       0x30 build/default/debug/_ext/1033058136/berkeley_api.o
 .bss.h_errno   0x00000000        0x4 build/default/debug/_ext/1033058136/berkeley_api.o
 .bss.sAddr     0x00000000        0x4 build/default/debug/_ext/1033058136/berkeley_api.o
 .bss.sHaveDnsToken
                0x00000000        0x1 build/default/debug/_ext/1033058136/berkeley_api.o
 .bss.sgaihash  0x00000000        0x4 build/default/debug/_ext/1033058136/berkeley_api.o
 .bss.sgaistate
                0x00000000        0x1 build/default/debug/_ext/1033058136/berkeley_api.o
 .data.sHostArray
                0x00000000        0x8 build/default/debug/_ext/1033058136/berkeley_api.o
 .data.sHostEnt
                0x00000000       0x14 build/default/debug/_ext/1033058136/berkeley_api.o
 .text          0x00000000        0x0 build/default/debug/_ext/1033058136/tcpip_announce.o
 .data          0x00000000        0x0 build/default/debug/_ext/1033058136/tcpip_announce.o
 .bss           0x00000000        0x0 build/default/debug/_ext/1033058136/tcpip_announce.o
 .text.TCPIP_ANNOUNCE_MessageRequest
                0x00000000       0x5c build/default/debug/_ext/1033058136/tcpip_announce.o
 .text.TCPIP_ANNOUNCE_CallbackRegister
                0x00000000       0x18 build/default/debug/_ext/1033058136/tcpip_announce.o
 .text          0x00000000        0x0 build/default/debug/_ext/1033058136/udp.o
 .data          0x00000000        0x0 build/default/debug/_ext/1033058136/udp.o
 .bss           0x00000000        0x0 build/default/debug/_ext/1033058136/udp.o
 .text.TCPIP_UDP_Put
                0x00000000       0x18 build/default/debug/_ext/1033058136/udp.o
 .text.TCPIP_UDP_StringPut
                0x00000000       0x2a build/default/debug/_ext/1033058136/udp.o
 .text.TCPIP_UDP_TxCountGet
                0x00000000       0x22 build/default/debug/_ext/1033058136/udp.o
 .text.TCPIP_UDP_RxOffsetSet
                0x00000000       0x34 build/default/debug/_ext/1033058136/udp.o
 .text.TCPIP_UDP_SocketNetGet
                0x00000000       0x10 build/default/debug/_ext/1033058136/udp.o
 .text.TCPIP_UDP_SetSplitPayload
                0x00000000       0x5e build/default/debug/_ext/1033058136/udp.o
 .text.TCPIP_UDP_SocketsNumberGet
                0x00000000        0xc build/default/debug/_ext/1033058136/udp.o
 .text          0x00000000        0x0 c:/program files/microchip/xc32/v4.00/bin/bin/../../lib/gcc/pic32c/8.3.1/../../../../pic32c/lib/thumb/v7e-m+fp/hard\libpic32c.a(data_init.o)
 .data          0x00000000        0x0 c:/program files/microchip/xc32/v4.00/bin/bin/../../lib/gcc/pic32c/8.3.1/../../../../pic32c/lib/thumb/v7e-m+fp/hard\libpic32c.a(data_init.o)
 .xc_stack_usage
                0x00000000       0x2a c:/program files/microchip/xc32/v4.00/bin/bin/../../lib/gcc/pic32c/8.3.1/../../../../pic32c/lib/thumb/v7e-m+fp/hard\libpic32c.a(data_init.o)
 .xc_stack_usage.hdr
                0x00000000        0xe c:/program files/microchip/xc32/v4.00/bin/bin/../../lib/gcc/pic32c/8.3.1/../../../../pic32c/lib/thumb/v7e-m+fp/hard\libpic32c.a(data_init.o)
 .text          0x00000000        0x0 c:/program files/microchip/xc32/v4.00/bin/bin/../../lib/gcc/pic32c/8.3.1/../../../../pic32c/lib/thumb/v7e-m+fp/hard\libg-musl.a(isxdigit.o)
 .data          0x00000000        0x0 c:/program files/microchip/xc32/v4.00/bin/bin/../../lib/gcc/pic32c/8.3.1/../../../../pic32c/lib/thumb/v7e-m+fp/hard\libg-musl.a(isxdigit.o)
 .bss           0x00000000        0x0 c:/program files/microchip/xc32/v4.00/bin/bin/../../lib/gcc/pic32c/8.3.1/../../../../pic32c/lib/thumb/v7e-m+fp/hard\libg-musl.a(isxdigit.o)
 .xc_stack_usage
                0x00000000       0x30 c:/program files/microchip/xc32/v4.00/bin/bin/../../lib/gcc/pic32c/8.3.1/../../../../pic32c/lib/thumb/v7e-m+fp/hard\libg-musl.a(isxdigit.o)
 .text.__isxdigit_l
                0x00000000        0x4 c:/program files/microchip/xc32/v4.00/bin/bin/../../lib/gcc/pic32c/8.3.1/../../../../pic32c/lib/thumb/v7e-m+fp/hard\libg-musl.a(isxdigit.o)
 .xc_stack_usage.hdr
                0x00000000        0xe c:/program files/microchip/xc32/v4.00/bin/bin/../../lib/gcc/pic32c/8.3.1/../../../../pic32c/lib/thumb/v7e-m+fp/hard\libg-musl.a(isxdigit.o)
 .text          0x00000000        0x0 c:/program files/microchip/xc32/v4.00/bin/bin/../../lib/gcc/pic32c/8.3.1/../../../../pic32c/lib/thumb/v7e-m+fp/hard\libg-musl.a(tolower.o)
 .data          0x00000000        0x0 c:/program files/microchip/xc32/v4.00/bin/bin/../../lib/gcc/pic32c/8.3.1/../../../../pic32c/lib/thumb/v7e-m+fp/hard\libg-musl.a(tolower.o)
 .bss           0x00000000        0x0 c:/program files/microchip/xc32/v4.00/bin/bin/../../lib/gcc/pic32c/8.3.1/../../../../pic32c/lib/thumb/v7e-m+fp/hard\libg-musl.a(tolower.o)
 .xc_stack_usage
                0x00000000       0x2e c:/program files/microchip/xc32/v4.00/bin/bin/../../lib/gcc/pic32c/8.3.1/../../../../pic32c/lib/thumb/v7e-m+fp/hard\libg-musl.a(tolower.o)
 .text.__tolower_l
                0x00000000        0x4 c:/program files/microchip/xc32/v4.00/bin/bin/../../lib/gcc/pic32c/8.3.1/../../../../pic32c/lib/thumb/v7e-m+fp/hard\libg-musl.a(tolower.o)
 .xc_stack_usage.hdr
                0x00000000        0xe c:/program files/microchip/xc32/v4.00/bin/bin/../../lib/gcc/pic32c/8.3.1/../../../../pic32c/lib/thumb/v7e-m+fp/hard\libg-musl.a(tolower.o)
 .text          0x00000000        0x0 c:/program files/microchip/xc32/v4.00/bin/bin/../../lib/gcc/pic32c/8.3.1/../../../../pic32c/lib/thumb/v7e-m+fp/hard\libg-musl.a(toupper.o)
 .data          0x00000000        0x0 c:/program files/microchip/xc32/v4.00/bin/bin/../../lib/gcc/pic32c/8.3.1/../../../../pic32c/lib/thumb/v7e-m+fp/hard\libg-musl.a(toupper.o)
 .bss           0x00000000        0x0 c:/program files/microchip/xc32/v4.00/bin/bin/../../lib/gcc/pic32c/8.3.1/../../../../pic32c/lib/thumb/v7e-m+fp/hard\libg-musl.a(toupper.o)
 .xc_stack_usage
                0x00000000       0x2e c:/program files/microchip/xc32/v4.00/bin/bin/../../lib/gcc/pic32c/8.3.1/../../../../pic32c/lib/thumb/v7e-m+fp/hard\libg-musl.a(toupper.o)
 .text.__toupper_l
                0x00000000        0x4 c:/program files/microchip/xc32/v4.00/bin/bin/../../lib/gcc/pic32c/8.3.1/../../../../pic32c/lib/thumb/v7e-m+fp/hard\libg-musl.a(toupper.o)
 .xc_stack_usage.hdr
                0x00000000        0xe c:/program files/microchip/xc32/v4.00/bin/bin/../../lib/gcc/pic32c/8.3.1/../../../../pic32c/lib/thumb/v7e-m+fp/hard\libg-musl.a(toupper.o)
 .text          0x00000000        0x0 c:/program files/microchip/xc32/v4.00/bin/bin/../../lib/gcc/pic32c/8.3.1/../../../../pic32c/lib/thumb/v7e-m+fp/hard\libg-musl.a(__libc_start_main.o)
 .data          0x00000000        0x0 c:/program files/microchip/xc32/v4.00/bin/bin/../../lib/gcc/pic32c/8.3.1/../../../../pic32c/lib/thumb/v7e-m+fp/hard\libg-musl.a(__libc_start_main.o)
 .bss           0x00000000        0x0 c:/program files/microchip/xc32/v4.00/bin/bin/../../lib/gcc/pic32c/8.3.1/../../../../pic32c/lib/thumb/v7e-m+fp/hard\libg-musl.a(__libc_start_main.o)
 .xc_stack_usage
                0x00000000       0x34 c:/program files/microchip/xc32/v4.00/bin/bin/../../lib/gcc/pic32c/8.3.1/../../../../pic32c/lib/thumb/v7e-m+fp/hard\libg-musl.a(__libc_start_main.o)
 .xc_stack_usage.hdr
                0x00000000        0xe c:/program files/microchip/xc32/v4.00/bin/bin/../../lib/gcc/pic32c/8.3.1/../../../../pic32c/lib/thumb/v7e-m+fp/hard\libg-musl.a(__libc_start_main.o)
 .text          0x00000000        0x0 c:/program files/microchip/xc32/v4.00/bin/bin/../../lib/gcc/pic32c/8.3.1/../../../../pic32c/lib/thumb/v7e-m+fp/hard\libg-musl.a(__errno_location.o)
 .data          0x00000000        0x0 c:/program files/microchip/xc32/v4.00/bin/bin/../../lib/gcc/pic32c/8.3.1/../../../../pic32c/lib/thumb/v7e-m+fp/hard\libg-musl.a(__errno_location.o)
 .xc_stack_usage.hdr
                0x00000000        0xe c:/program files/microchip/xc32/v4.00/bin/bin/../../lib/gcc/pic32c/8.3.1/../../../../pic32c/lib/thumb/v7e-m+fp/hard\libg-musl.a(__errno_location.o)
 .text          0x00000000        0x0 c:/program files/microchip/xc32/v4.00/bin/bin/../../lib/gcc/pic32c/8.3.1/../../../../pic32c/lib/thumb/v7e-m+fp/hard\libg-musl.a(libc.o)
 .data          0x00000000        0x0 c:/program files/microchip/xc32/v4.00/bin/bin/../../lib/gcc/pic32c/8.3.1/../../../../pic32c/lib/thumb/v7e-m+fp/hard\libg-musl.a(libc.o)
 .xc_stack_usage.hdr
                0x00000000        0xe c:/program files/microchip/xc32/v4.00/bin/bin/../../lib/gcc/pic32c/8.3.1/../../../../pic32c/lib/thumb/v7e-m+fp/hard\libg-musl.a(libc.o)
 .text          0x00000000        0x0 c:/program files/microchip/xc32/v4.00/bin/bin/../../lib/gcc/pic32c/8.3.1/../../../../pic32c/lib/thumb/v7e-m+fp/hard\libg-musl.a(calloc.o)
 .data          0x00000000        0x0 c:/program files/microchip/xc32/v4.00/bin/bin/../../lib/gcc/pic32c/8.3.1/../../../../pic32c/lib/thumb/v7e-m+fp/hard\libg-musl.a(calloc.o)
 .bss           0x00000000        0x0 c:/program files/microchip/xc32/v4.00/bin/bin/../../lib/gcc/pic32c/8.3.1/../../../../pic32c/lib/thumb/v7e-m+fp/hard\libg-musl.a(calloc.o)
 .xc_stack_usage
                0x00000000       0x14 c:/program files/microchip/xc32/v4.00/bin/bin/../../lib/gcc/pic32c/8.3.1/../../../../pic32c/lib/thumb/v7e-m+fp/hard\libg-musl.a(calloc.o)
 .xc_stack_usage.hdr
                0x00000000        0xe c:/program files/microchip/xc32/v4.00/bin/bin/../../lib/gcc/pic32c/8.3.1/../../../../pic32c/lib/thumb/v7e-m+fp/hard\libg-musl.a(calloc.o)
 .text          0x00000000        0x0 c:/program files/microchip/xc32/v4.00/bin/bin/../../lib/gcc/pic32c/8.3.1/../../../../pic32c/lib/thumb/v7e-m+fp/hard\libg-musl.a(malloc.o)
 .data          0x00000000        0x0 c:/program files/microchip/xc32/v4.00/bin/bin/../../lib/gcc/pic32c/8.3.1/../../../../pic32c/lib/thumb/v7e-m+fp/hard\libg-musl.a(malloc.o)
 .xc_stack_usage
                0x00000000       0xeb c:/program files/microchip/xc32/v4.00/bin/bin/../../lib/gcc/pic32c/8.3.1/../../../../pic32c/lib/thumb/v7e-m+fp/hard\libg-musl.a(malloc.o)
 .text.realloc  0x00000000       0x90 c:/program files/microchip/xc32/v4.00/bin/bin/../../lib/gcc/pic32c/8.3.1/../../../../pic32c/lib/thumb/v7e-m+fp/hard\libg-musl.a(malloc.o)
 .xc_stack_usage.hdr
                0x00000000        0xe c:/program files/microchip/xc32/v4.00/bin/bin/../../lib/gcc/pic32c/8.3.1/../../../../pic32c/lib/thumb/v7e-m+fp/hard\libg-musl.a(malloc.o)
 .text          0x00000000        0x0 c:/program files/microchip/xc32/v4.00/bin/bin/../../lib/gcc/pic32c/8.3.1/../../../../pic32c/lib/thumb/v7e-m+fp/hard\libg-musl.a(expand_heap.o)
 .data          0x00000000        0x0 c:/program files/microchip/xc32/v4.00/bin/bin/../../lib/gcc/pic32c/8.3.1/../../../../pic32c/lib/thumb/v7e-m+fp/hard\libg-musl.a(expand_heap.o)
 .bss           0x00000000        0x0 c:/program files/microchip/xc32/v4.00/bin/bin/../../lib/gcc/pic32c/8.3.1/../../../../pic32c/lib/thumb/v7e-m+fp/hard\libg-musl.a(expand_heap.o)
 .xc_stack_usage
                0x00000000       0x1b c:/program files/microchip/xc32/v4.00/bin/bin/../../lib/gcc/pic32c/8.3.1/../../../../pic32c/lib/thumb/v7e-m+fp/hard\libg-musl.a(expand_heap.o)
 .xc_stack_usage.hdr
                0x00000000        0xe c:/program files/microchip/xc32/v4.00/bin/bin/../../lib/gcc/pic32c/8.3.1/../../../../pic32c/lib/thumb/v7e-m+fp/hard\libg-musl.a(expand_heap.o)
 .text          0x00000000        0x0 c:/program files/microchip/xc32/v4.00/bin/bin/../../lib/gcc/pic32c/8.3.1/../../../../pic32c/lib/thumb/v7e-m+fp/hard\libg-musl.a(rand.o)
 .data          0x00000000        0x0 c:/program files/microchip/xc32/v4.00/bin/bin/../../lib/gcc/pic32c/8.3.1/../../../../pic32c/lib/thumb/v7e-m+fp/hard\libg-musl.a(rand.o)
 .xc_stack_usage
                0x00000000       0x25 c:/program files/microchip/xc32/v4.00/bin/bin/../../lib/gcc/pic32c/8.3.1/../../../../pic32c/lib/thumb/v7e-m+fp/hard\libg-musl.a(rand.o)
 .text.srand    0x00000000        0xc c:/program files/microchip/xc32/v4.00/bin/bin/../../lib/gcc/pic32c/8.3.1/../../../../pic32c/lib/thumb/v7e-m+fp/hard\libg-musl.a(rand.o)
 .xc_stack_usage.hdr
                0x00000000        0xe c:/program files/microchip/xc32/v4.00/bin/bin/../../lib/gcc/pic32c/8.3.1/../../../../pic32c/lib/thumb/v7e-m+fp/hard\libg-musl.a(rand.o)
 .text          0x00000000        0x0 c:/program files/microchip/xc32/v4.00/bin/bin/../../lib/gcc/pic32c/8.3.1/../../../../pic32c/lib/thumb/v7e-m+fp/hard\libg-musl.a(vsnprintf.o)
 .data          0x00000000        0x0 c:/program files/microchip/xc32/v4.00/bin/bin/../../lib/gcc/pic32c/8.3.1/../../../../pic32c/lib/thumb/v7e-m+fp/hard\libg-musl.a(vsnprintf.o)
 .bss           0x00000000        0x0 c:/program files/microchip/xc32/v4.00/bin/bin/../../lib/gcc/pic32c/8.3.1/../../../../pic32c/lib/thumb/v7e-m+fp/hard\libg-musl.a(vsnprintf.o)
 .xc_stack_usage
                0x00000000       0x17 c:/program files/microchip/xc32/v4.00/bin/bin/../../lib/gcc/pic32c/8.3.1/../../../../pic32c/lib/thumb/v7e-m+fp/hard\libg-musl.a(vsnprintf.o)
 .xc_stack_usage.hdr
                0x00000000        0xe c:/program files/microchip/xc32/v4.00/bin/bin/../../lib/gcc/pic32c/8.3.1/../../../../pic32c/lib/thumb/v7e-m+fp/hard\libg-musl.a(vsnprintf.o)
 .text          0x00000000        0x0 c:/program files/microchip/xc32/v4.00/bin/bin/../../lib/gcc/pic32c/8.3.1/../../../../pic32c/lib/thumb/v7e-m+fp/hard\libg-musl.a(snprintf.o)
 .data          0x00000000        0x0 c:/program files/microchip/xc32/v4.00/bin/bin/../../lib/gcc/pic32c/8.3.1/../../../../pic32c/lib/thumb/v7e-m+fp/hard\libg-musl.a(snprintf.o)
 .bss           0x00000000        0x0 c:/program files/microchip/xc32/v4.00/bin/bin/../../lib/gcc/pic32c/8.3.1/../../../../pic32c/lib/thumb/v7e-m+fp/hard\libg-musl.a(snprintf.o)
 .xc_stack_usage
                0x00000000       0x16 c:/program files/microchip/xc32/v4.00/bin/bin/../../lib/gcc/pic32c/8.3.1/../../../../pic32c/lib/thumb/v7e-m+fp/hard\libg-musl.a(snprintf.o)
 .xc_stack_usage.hdr
                0x00000000        0xe c:/program files/microchip/xc32/v4.00/bin/bin/../../lib/gcc/pic32c/8.3.1/../../../../pic32c/lib/thumb/v7e-m+fp/hard\libg-musl.a(snprintf.o)
 .text          0x00000000        0x0 c:/program files/microchip/xc32/v4.00/bin/bin/../../lib/gcc/pic32c/8.3.1/../../../../pic32c/lib/thumb/v7e-m+fp/hard\libg-musl.a(sprintf.o)
 .data          0x00000000        0x0 c:/program files/microchip/xc32/v4.00/bin/bin/../../lib/gcc/pic32c/8.3.1/../../../../pic32c/lib/thumb/v7e-m+fp/hard\libg-musl.a(sprintf.o)
 .bss           0x00000000        0x0 c:/program files/microchip/xc32/v4.00/bin/bin/../../lib/gcc/pic32c/8.3.1/../../../../pic32c/lib/thumb/v7e-m+fp/hard\libg-musl.a(sprintf.o)
 .xc_stack_usage
                0x00000000       0x15 c:/program files/microchip/xc32/v4.00/bin/bin/../../lib/gcc/pic32c/8.3.1/../../../../pic32c/lib/thumb/v7e-m+fp/hard\libg-musl.a(sprintf.o)
 .xc_stack_usage.hdr
                0x00000000        0xe c:/program files/microchip/xc32/v4.00/bin/bin/../../lib/gcc/pic32c/8.3.1/../../../../pic32c/lib/thumb/v7e-m+fp/hard\libg-musl.a(sprintf.o)
 .text          0x00000000        0x0 c:/program files/microchip/xc32/v4.00/bin/bin/../../lib/gcc/pic32c/8.3.1/../../../../pic32c/lib/thumb/v7e-m+fp/hard\libg-musl.a(vsprintf.o)
 .data          0x00000000        0x0 c:/program files/microchip/xc32/v4.00/bin/bin/../../lib/gcc/pic32c/8.3.1/../../../../pic32c/lib/thumb/v7e-m+fp/hard\libg-musl.a(vsprintf.o)
 .bss           0x00000000        0x0 c:/program files/microchip/xc32/v4.00/bin/bin/../../lib/gcc/pic32c/8.3.1/../../../../pic32c/lib/thumb/v7e-m+fp/hard\libg-musl.a(vsprintf.o)
 .xc_stack_usage
                0x00000000       0x16 c:/program files/microchip/xc32/v4.00/bin/bin/../../lib/gcc/pic32c/8.3.1/../../../../pic32c/lib/thumb/v7e-m+fp/hard\libg-musl.a(vsprintf.o)
 .xc_stack_usage.hdr
                0x00000000        0xe c:/program files/microchip/xc32/v4.00/bin/bin/../../lib/gcc/pic32c/8.3.1/../../../../pic32c/lib/thumb/v7e-m+fp/hard\libg-musl.a(vsprintf.o)
 .text          0x00000000        0x0 c:/program files/microchip/xc32/v4.00/bin/bin/../../lib/gcc/pic32c/8.3.1/../../../../pic32c/lib/thumb/v7e-m+fp/hard\libg-musl.a(atoi.o)
 .data          0x00000000        0x0 c:/program files/microchip/xc32/v4.00/bin/bin/../../lib/gcc/pic32c/8.3.1/../../../../pic32c/lib/thumb/v7e-m+fp/hard\libg-musl.a(atoi.o)
 .bss           0x00000000        0x0 c:/program files/microchip/xc32/v4.00/bin/bin/../../lib/gcc/pic32c/8.3.1/../../../../pic32c/lib/thumb/v7e-m+fp/hard\libg-musl.a(atoi.o)
 .xc_stack_usage
                0x00000000       0x12 c:/program files/microchip/xc32/v4.00/bin/bin/../../lib/gcc/pic32c/8.3.1/../../../../pic32c/lib/thumb/v7e-m+fp/hard\libg-musl.a(atoi.o)
 .xc_stack_usage.hdr
                0x00000000        0xe c:/program files/microchip/xc32/v4.00/bin/bin/../../lib/gcc/pic32c/8.3.1/../../../../pic32c/lib/thumb/v7e-m+fp/hard\libg-musl.a(atoi.o)
 .text          0x00000000        0x0 c:/program files/microchip/xc32/v4.00/bin/bin/../../lib/gcc/pic32c/8.3.1/../../../../pic32c/lib/thumb/v7e-m+fp/hard\libg-musl.a(strtol.o)
 .data          0x00000000        0x0 c:/program files/microchip/xc32/v4.00/bin/bin/../../lib/gcc/pic32c/8.3.1/../../../../pic32c/lib/thumb/v7e-m+fp/hard\libg-musl.a(strtol.o)
 .bss           0x00000000        0x0 c:/program files/microchip/xc32/v4.00/bin/bin/../../lib/gcc/pic32c/8.3.1/../../../../pic32c/lib/thumb/v7e-m+fp/hard\libg-musl.a(strtol.o)
 .xc_stack_usage
                0x00000000       0x96 c:/program files/microchip/xc32/v4.00/bin/bin/../../lib/gcc/pic32c/8.3.1/../../../../pic32c/lib/thumb/v7e-m+fp/hard\libg-musl.a(strtol.o)
 .text.strtox   0x00000000       0x54 c:/program files/microchip/xc32/v4.00/bin/bin/../../lib/gcc/pic32c/8.3.1/../../../../pic32c/lib/thumb/v7e-m+fp/hard\libg-musl.a(strtol.o)
 .text.strtoull
                0x00000000       0x16 c:/program files/microchip/xc32/v4.00/bin/bin/../../lib/gcc/pic32c/8.3.1/../../../../pic32c/lib/thumb/v7e-m+fp/hard\libg-musl.a(strtol.o)
 .text.strtoll  0x00000000       0x14 c:/program files/microchip/xc32/v4.00/bin/bin/../../lib/gcc/pic32c/8.3.1/../../../../pic32c/lib/thumb/v7e-m+fp/hard\libg-musl.a(strtol.o)
 .text.strtoul  0x00000000       0x14 c:/program files/microchip/xc32/v4.00/bin/bin/../../lib/gcc/pic32c/8.3.1/../../../../pic32c/lib/thumb/v7e-m+fp/hard\libg-musl.a(strtol.o)
 .text.strtol   0x00000000       0x14 c:/program files/microchip/xc32/v4.00/bin/bin/../../lib/gcc/pic32c/8.3.1/../../../../pic32c/lib/thumb/v7e-m+fp/hard\libg-musl.a(strtol.o)
 .text.strtoimax
                0x00000000        0x4 c:/program files/microchip/xc32/v4.00/bin/bin/../../lib/gcc/pic32c/8.3.1/../../../../pic32c/lib/thumb/v7e-m+fp/hard\libg-musl.a(strtol.o)
 .text.strtoumax
                0x00000000        0x4 c:/program files/microchip/xc32/v4.00/bin/bin/../../lib/gcc/pic32c/8.3.1/../../../../pic32c/lib/thumb/v7e-m+fp/hard\libg-musl.a(strtol.o)
 .xc_stack_usage.hdr
                0x00000000        0xe c:/program files/microchip/xc32/v4.00/bin/bin/../../lib/gcc/pic32c/8.3.1/../../../../pic32c/lib/thumb/v7e-m+fp/hard\libg-musl.a(strtol.o)
 .debug_info    0x00000000      0xc6d c:/program files/microchip/xc32/v4.00/bin/bin/../../lib/gcc/pic32c/8.3.1/../../../../pic32c/lib/thumb/v7e-m+fp/hard\libg-musl.a(strtol.o)
 .debug_abbrev  0x00000000      0x1da c:/program files/microchip/xc32/v4.00/bin/bin/../../lib/gcc/pic32c/8.3.1/../../../../pic32c/lib/thumb/v7e-m+fp/hard\libg-musl.a(strtol.o)
 .debug_loc     0x00000000      0x440 c:/program files/microchip/xc32/v4.00/bin/bin/../../lib/gcc/pic32c/8.3.1/../../../../pic32c/lib/thumb/v7e-m+fp/hard\libg-musl.a(strtol.o)
 .debug_aranges
                0x00000000       0x50 c:/program files/microchip/xc32/v4.00/bin/bin/../../lib/gcc/pic32c/8.3.1/../../../../pic32c/lib/thumb/v7e-m+fp/hard\libg-musl.a(strtol.o)
 .debug_ranges  0x00000000       0x40 c:/program files/microchip/xc32/v4.00/bin/bin/../../lib/gcc/pic32c/8.3.1/../../../../pic32c/lib/thumb/v7e-m+fp/hard\libg-musl.a(strtol.o)
 .debug_line    0x00000000      0x2fb c:/program files/microchip/xc32/v4.00/bin/bin/../../lib/gcc/pic32c/8.3.1/../../../../pic32c/lib/thumb/v7e-m+fp/hard\libg-musl.a(strtol.o)
 .debug_str     0x00000000        0xf c:/program files/microchip/xc32/v4.00/bin/bin/../../lib/gcc/pic32c/8.3.1/../../../../pic32c/lib/thumb/v7e-m+fp/hard\libg-musl.a(strtol.o)
 .comment       0x00000000       0x54 c:/program files/microchip/xc32/v4.00/bin/bin/../../lib/gcc/pic32c/8.3.1/../../../../pic32c/lib/thumb/v7e-m+fp/hard\libg-musl.a(strtol.o)
 .note.GNU-stack
                0x00000000        0x0 c:/program files/microchip/xc32/v4.00/bin/bin/../../lib/gcc/pic32c/8.3.1/../../../../pic32c/lib/thumb/v7e-m+fp/hard\libg-musl.a(strtol.o)
 .debug_frame   0x00000000       0xc4 c:/program files/microchip/xc32/v4.00/bin/bin/../../lib/gcc/pic32c/8.3.1/../../../../pic32c/lib/thumb/v7e-m+fp/hard\libg-musl.a(strtol.o)
 .ARM.attributes
                0x00000000       0x36 c:/program files/microchip/xc32/v4.00/bin/bin/../../lib/gcc/pic32c/8.3.1/../../../../pic32c/lib/thumb/v7e-m+fp/hard\libg-musl.a(strtol.o)
 .text          0x00000000        0x0 c:/program files/microchip/xc32/v4.00/bin/bin/../../lib/gcc/pic32c/8.3.1/../../../../pic32c/lib/thumb/v7e-m+fp/hard\libg-musl.a(memcmp.o)
 .data          0x00000000        0x0 c:/program files/microchip/xc32/v4.00/bin/bin/../../lib/gcc/pic32c/8.3.1/../../../../pic32c/lib/thumb/v7e-m+fp/hard\libg-musl.a(memcmp.o)
 .bss           0x00000000        0x0 c:/program files/microchip/xc32/v4.00/bin/bin/../../lib/gcc/pic32c/8.3.1/../../../../pic32c/lib/thumb/v7e-m+fp/hard\libg-musl.a(memcmp.o)
 .xc_stack_usage
                0x00000000       0x14 c:/program files/microchip/xc32/v4.00/bin/bin/../../lib/gcc/pic32c/8.3.1/../../../../pic32c/lib/thumb/v7e-m+fp/hard\libg-musl.a(memcmp.o)
 .xc_stack_usage.hdr
                0x00000000        0xe c:/program files/microchip/xc32/v4.00/bin/bin/../../lib/gcc/pic32c/8.3.1/../../../../pic32c/lib/thumb/v7e-m+fp/hard\libg-musl.a(memcmp.o)
 .text          0x00000000        0x0 c:/program files/microchip/xc32/v4.00/bin/bin/../../lib/gcc/pic32c/8.3.1/../../../../pic32c/lib/thumb/v7e-m+fp/hard\libg-musl.a(memcpy.o)
 .data          0x00000000        0x0 c:/program files/microchip/xc32/v4.00/bin/bin/../../lib/gcc/pic32c/8.3.1/../../../../pic32c/lib/thumb/v7e-m+fp/hard\libg-musl.a(memcpy.o)
 .bss           0x00000000        0x0 c:/program files/microchip/xc32/v4.00/bin/bin/../../lib/gcc/pic32c/8.3.1/../../../../pic32c/lib/thumb/v7e-m+fp/hard\libg-musl.a(memcpy.o)
 .xc_stack_usage
                0x00000000       0x14 c:/program files/microchip/xc32/v4.00/bin/bin/../../lib/gcc/pic32c/8.3.1/../../../../pic32c/lib/thumb/v7e-m+fp/hard\libg-musl.a(memcpy.o)
 .xc_stack_usage.hdr
                0x00000000        0xe c:/program files/microchip/xc32/v4.00/bin/bin/../../lib/gcc/pic32c/8.3.1/../../../../pic32c/lib/thumb/v7e-m+fp/hard\libg-musl.a(memcpy.o)
 .text          0x00000000        0x0 c:/program files/microchip/xc32/v4.00/bin/bin/../../lib/gcc/pic32c/8.3.1/../../../../pic32c/lib/thumb/v7e-m+fp/hard\libg-musl.a(memmove.o)
 .data          0x00000000        0x0 c:/program files/microchip/xc32/v4.00/bin/bin/../../lib/gcc/pic32c/8.3.1/../../../../pic32c/lib/thumb/v7e-m+fp/hard\libg-musl.a(memmove.o)
 .bss           0x00000000        0x0 c:/program files/microchip/xc32/v4.00/bin/bin/../../lib/gcc/pic32c/8.3.1/../../../../pic32c/lib/thumb/v7e-m+fp/hard\libg-musl.a(memmove.o)
 .xc_stack_usage
                0x00000000       0x15 c:/program files/microchip/xc32/v4.00/bin/bin/../../lib/gcc/pic32c/8.3.1/../../../../pic32c/lib/thumb/v7e-m+fp/hard\libg-musl.a(memmove.o)
 .text.memmove  0x00000000       0x34 c:/program files/microchip/xc32/v4.00/bin/bin/../../lib/gcc/pic32c/8.3.1/../../../../pic32c/lib/thumb/v7e-m+fp/hard\libg-musl.a(memmove.o)
 .xc_stack_usage.hdr
                0x00000000        0xe c:/program files/microchip/xc32/v4.00/bin/bin/../../lib/gcc/pic32c/8.3.1/../../../../pic32c/lib/thumb/v7e-m+fp/hard\libg-musl.a(memmove.o)
 .debug_info    0x00000000      0x320 c:/program files/microchip/xc32/v4.00/bin/bin/../../lib/gcc/pic32c/8.3.1/../../../../pic32c/lib/thumb/v7e-m+fp/hard\libg-musl.a(memmove.o)
 .debug_abbrev  0x00000000       0xa3 c:/program files/microchip/xc32/v4.00/bin/bin/../../lib/gcc/pic32c/8.3.1/../../../../pic32c/lib/thumb/v7e-m+fp/hard\libg-musl.a(memmove.o)
 .debug_loc     0x00000000      0x1af c:/program files/microchip/xc32/v4.00/bin/bin/../../lib/gcc/pic32c/8.3.1/../../../../pic32c/lib/thumb/v7e-m+fp/hard\libg-musl.a(memmove.o)
 .debug_aranges
                0x00000000       0x20 c:/program files/microchip/xc32/v4.00/bin/bin/../../lib/gcc/pic32c/8.3.1/../../../../pic32c/lib/thumb/v7e-m+fp/hard\libg-musl.a(memmove.o)
 .debug_ranges  0x00000000       0x10 c:/program files/microchip/xc32/v4.00/bin/bin/../../lib/gcc/pic32c/8.3.1/../../../../pic32c/lib/thumb/v7e-m+fp/hard\libg-musl.a(memmove.o)
 .debug_line    0x00000000      0x11f c:/program files/microchip/xc32/v4.00/bin/bin/../../lib/gcc/pic32c/8.3.1/../../../../pic32c/lib/thumb/v7e-m+fp/hard\libg-musl.a(memmove.o)
 .debug_str     0x00000000        0x0 c:/program files/microchip/xc32/v4.00/bin/bin/../../lib/gcc/pic32c/8.3.1/../../../../pic32c/lib/thumb/v7e-m+fp/hard\libg-musl.a(memmove.o)
 .comment       0x00000000       0x54 c:/program files/microchip/xc32/v4.00/bin/bin/../../lib/gcc/pic32c/8.3.1/../../../../pic32c/lib/thumb/v7e-m+fp/hard\libg-musl.a(memmove.o)
 .note.GNU-stack
                0x00000000        0x0 c:/program files/microchip/xc32/v4.00/bin/bin/../../lib/gcc/pic32c/8.3.1/../../../../pic32c/lib/thumb/v7e-m+fp/hard\libg-musl.a(memmove.o)
 .debug_frame   0x00000000       0x28 c:/program files/microchip/xc32/v4.00/bin/bin/../../lib/gcc/pic32c/8.3.1/../../../../pic32c/lib/thumb/v7e-m+fp/hard\libg-musl.a(memmove.o)
 .ARM.attributes
                0x00000000       0x36 c:/program files/microchip/xc32/v4.00/bin/bin/../../lib/gcc/pic32c/8.3.1/../../../../pic32c/lib/thumb/v7e-m+fp/hard\libg-musl.a(memmove.o)
 .text          0x00000000        0x0 c:/program files/microchip/xc32/v4.00/bin/bin/../../lib/gcc/pic32c/8.3.1/../../../../pic32c/lib/thumb/v7e-m+fp/hard\libg-musl.a(memset.o)
 .data          0x00000000        0x0 c:/program files/microchip/xc32/v4.00/bin/bin/../../lib/gcc/pic32c/8.3.1/../../../../pic32c/lib/thumb/v7e-m+fp/hard\libg-musl.a(memset.o)
 .bss           0x00000000        0x0 c:/program files/microchip/xc32/v4.00/bin/bin/../../lib/gcc/pic32c/8.3.1/../../../../pic32c/lib/thumb/v7e-m+fp/hard\libg-musl.a(memset.o)
 .xc_stack_usage
                0x00000000       0x14 c:/program files/microchip/xc32/v4.00/bin/bin/../../lib/gcc/pic32c/8.3.1/../../../../pic32c/lib/thumb/v7e-m+fp/hard\libg-musl.a(memset.o)
 .xc_stack_usage.hdr
                0x00000000        0xe c:/program files/microchip/xc32/v4.00/bin/bin/../../lib/gcc/pic32c/8.3.1/../../../../pic32c/lib/thumb/v7e-m+fp/hard\libg-musl.a(memset.o)
 .text          0x00000000        0x0 c:/program files/microchip/xc32/v4.00/bin/bin/../../lib/gcc/pic32c/8.3.1/../../../../pic32c/lib/thumb/v7e-m+fp/hard\libg-musl.a(strlen.o)
 .data          0x00000000        0x0 c:/program files/microchip/xc32/v4.00/bin/bin/../../lib/gcc/pic32c/8.3.1/../../../../pic32c/lib/thumb/v7e-m+fp/hard\libg-musl.a(strlen.o)
 .bss           0x00000000        0x0 c:/program files/microchip/xc32/v4.00/bin/bin/../../lib/gcc/pic32c/8.3.1/../../../../pic32c/lib/thumb/v7e-m+fp/hard\libg-musl.a(strlen.o)
 .xc_stack_usage
                0x00000000       0x14 c:/program files/microchip/xc32/v4.00/bin/bin/../../lib/gcc/pic32c/8.3.1/../../../../pic32c/lib/thumb/v7e-m+fp/hard\libg-musl.a(strlen.o)
 .xc_stack_usage.hdr
                0x00000000        0xe c:/program files/microchip/xc32/v4.00/bin/bin/../../lib/gcc/pic32c/8.3.1/../../../../pic32c/lib/thumb/v7e-m+fp/hard\libg-musl.a(strlen.o)
 .text          0x00000000        0x0 c:/program files/microchip/xc32/v4.00/bin/bin/../../lib/gcc/pic32c/8.3.1/../../../../pic32c/lib/thumb/v7e-m+fp/hard\libg-musl.a(strstr.o)
 .data          0x00000000        0x0 c:/program files/microchip/xc32/v4.00/bin/bin/../../lib/gcc/pic32c/8.3.1/../../../../pic32c/lib/thumb/v7e-m+fp/hard\libg-musl.a(strstr.o)
 .bss           0x00000000        0x0 c:/program files/microchip/xc32/v4.00/bin/bin/../../lib/gcc/pic32c/8.3.1/../../../../pic32c/lib/thumb/v7e-m+fp/hard\libg-musl.a(strstr.o)
 .xc_stack_usage
                0x00000000       0x14 c:/program files/microchip/xc32/v4.00/bin/bin/../../lib/gcc/pic32c/8.3.1/../../../../pic32c/lib/thumb/v7e-m+fp/hard\libg-musl.a(strstr.o)
 .xc_stack_usage.hdr
                0x00000000        0xe c:/program files/microchip/xc32/v4.00/bin/bin/../../lib/gcc/pic32c/8.3.1/../../../../pic32c/lib/thumb/v7e-m+fp/hard\libg-musl.a(strstr.o)
 .text          0x00000000        0x0 c:/program files/microchip/xc32/v4.00/bin/bin/../../lib/gcc/pic32c/8.3.1/../../../../pic32c/lib/thumb/v7e-m+fp/hard\libg-musl.a(strchr.o)
 .data          0x00000000        0x0 c:/program files/microchip/xc32/v4.00/bin/bin/../../lib/gcc/pic32c/8.3.1/../../../../pic32c/lib/thumb/v7e-m+fp/hard\libg-musl.a(strchr.o)
 .bss           0x00000000        0x0 c:/program files/microchip/xc32/v4.00/bin/bin/../../lib/gcc/pic32c/8.3.1/../../../../pic32c/lib/thumb/v7e-m+fp/hard\libg-musl.a(strchr.o)
 .xc_stack_usage
                0x00000000       0x14 c:/program files/microchip/xc32/v4.00/bin/bin/../../lib/gcc/pic32c/8.3.1/../../../../pic32c/lib/thumb/v7e-m+fp/hard\libg-musl.a(strchr.o)
 .xc_stack_usage.hdr
                0x00000000        0xe c:/program files/microchip/xc32/v4.00/bin/bin/../../lib/gcc/pic32c/8.3.1/../../../../pic32c/lib/thumb/v7e-m+fp/hard\libg-musl.a(strchr.o)
 .text          0x00000000        0x0 c:/program files/microchip/xc32/v4.00/bin/bin/../../lib/gcc/pic32c/8.3.1/../../../../pic32c/lib/thumb/v7e-m+fp/hard\libg-musl.a(strchrnul.o)
 .data          0x00000000        0x0 c:/program files/microchip/xc32/v4.00/bin/bin/../../lib/gcc/pic32c/8.3.1/../../../../pic32c/lib/thumb/v7e-m+fp/hard\libg-musl.a(strchrnul.o)
 .bss           0x00000000        0x0 c:/program files/microchip/xc32/v4.00/bin/bin/../../lib/gcc/pic32c/8.3.1/../../../../pic32c/lib/thumb/v7e-m+fp/hard\libg-musl.a(strchrnul.o)
 .xc_stack_usage
                0x00000000       0x19 c:/program files/microchip/xc32/v4.00/bin/bin/../../lib/gcc/pic32c/8.3.1/../../../../pic32c/lib/thumb/v7e-m+fp/hard\libg-musl.a(strchrnul.o)
 .xc_stack_usage.hdr
                0x00000000        0xe c:/program files/microchip/xc32/v4.00/bin/bin/../../lib/gcc/pic32c/8.3.1/../../../../pic32c/lib/thumb/v7e-m+fp/hard\libg-musl.a(strchrnul.o)
 .text          0x00000000        0x0 c:/program files/microchip/xc32/v4.00/bin/bin/../../lib/gcc/pic32c/8.3.1/../../../../pic32c/lib/thumb/v7e-m+fp/hard\libg-musl.a(strcmp.o)
 .data          0x00000000        0x0 c:/program files/microchip/xc32/v4.00/bin/bin/../../lib/gcc/pic32c/8.3.1/../../../../pic32c/lib/thumb/v7e-m+fp/hard\libg-musl.a(strcmp.o)
 .bss           0x00000000        0x0 c:/program files/microchip/xc32/v4.00/bin/bin/../../lib/gcc/pic32c/8.3.1/../../../../pic32c/lib/thumb/v7e-m+fp/hard\libg-musl.a(strcmp.o)
 .xc_stack_usage
                0x00000000       0x14 c:/program files/microchip/xc32/v4.00/bin/bin/../../lib/gcc/pic32c/8.3.1/../../../../pic32c/lib/thumb/v7e-m+fp/hard\libg-musl.a(strcmp.o)
 .xc_stack_usage.hdr
                0x00000000        0xe c:/program files/microchip/xc32/v4.00/bin/bin/../../lib/gcc/pic32c/8.3.1/../../../../pic32c/lib/thumb/v7e-m+fp/hard\libg-musl.a(strcmp.o)
 .text          0x00000000        0x0 c:/program files/microchip/xc32/v4.00/bin/bin/../../lib/gcc/pic32c/8.3.1/../../../../pic32c/lib/thumb/v7e-m+fp/hard\libg-musl.a(strcpy.o)
 .data          0x00000000        0x0 c:/program files/microchip/xc32/v4.00/bin/bin/../../lib/gcc/pic32c/8.3.1/../../../../pic32c/lib/thumb/v7e-m+fp/hard\libg-musl.a(strcpy.o)
 .bss           0x00000000        0x0 c:/program files/microchip/xc32/v4.00/bin/bin/../../lib/gcc/pic32c/8.3.1/../../../../pic32c/lib/thumb/v7e-m+fp/hard\libg-musl.a(strcpy.o)
 .xc_stack_usage
                0x00000000       0x14 c:/program files/microchip/xc32/v4.00/bin/bin/../../lib/gcc/pic32c/8.3.1/../../../../pic32c/lib/thumb/v7e-m+fp/hard\libg-musl.a(strcpy.o)
 .xc_stack_usage.hdr
                0x00000000        0xe c:/program files/microchip/xc32/v4.00/bin/bin/../../lib/gcc/pic32c/8.3.1/../../../../pic32c/lib/thumb/v7e-m+fp/hard\libg-musl.a(strcpy.o)
 .text          0x00000000        0x0 c:/program files/microchip/xc32/v4.00/bin/bin/../../lib/gcc/pic32c/8.3.1/../../../../pic32c/lib/thumb/v7e-m+fp/hard\libg-musl.a(strncmp.o)
 .data          0x00000000        0x0 c:/program files/microchip/xc32/v4.00/bin/bin/../../lib/gcc/pic32c/8.3.1/../../../../pic32c/lib/thumb/v7e-m+fp/hard\libg-musl.a(strncmp.o)
 .bss           0x00000000        0x0 c:/program files/microchip/xc32/v4.00/bin/bin/../../lib/gcc/pic32c/8.3.1/../../../../pic32c/lib/thumb/v7e-m+fp/hard\libg-musl.a(strncmp.o)
 .xc_stack_usage
                0x00000000       0x15 c:/program files/microchip/xc32/v4.00/bin/bin/../../lib/gcc/pic32c/8.3.1/../../../../pic32c/lib/thumb/v7e-m+fp/hard\libg-musl.a(strncmp.o)
 .xc_stack_usage.hdr
                0x00000000        0xe c:/program files/microchip/xc32/v4.00/bin/bin/../../lib/gcc/pic32c/8.3.1/../../../../pic32c/lib/thumb/v7e-m+fp/hard\libg-musl.a(strncmp.o)
 .text          0x00000000        0x0 c:/program files/microchip/xc32/v4.00/bin/bin/../../lib/gcc/pic32c/8.3.1/../../../../pic32c/lib/thumb/v7e-m+fp/hard\libg-musl.a(strncpy.o)
 .data          0x00000000        0x0 c:/program files/microchip/xc32/v4.00/bin/bin/../../lib/gcc/pic32c/8.3.1/../../../../pic32c/lib/thumb/v7e-m+fp/hard\libg-musl.a(strncpy.o)
 .bss           0x00000000        0x0 c:/program files/microchip/xc32/v4.00/bin/bin/../../lib/gcc/pic32c/8.3.1/../../../../pic32c/lib/thumb/v7e-m+fp/hard\libg-musl.a(strncpy.o)
 .xc_stack_usage
                0x00000000       0x15 c:/program files/microchip/xc32/v4.00/bin/bin/../../lib/gcc/pic32c/8.3.1/../../../../pic32c/lib/thumb/v7e-m+fp/hard\libg-musl.a(strncpy.o)
 .xc_stack_usage.hdr
                0x00000000        0xe c:/program files/microchip/xc32/v4.00/bin/bin/../../lib/gcc/pic32c/8.3.1/../../../../pic32c/lib/thumb/v7e-m+fp/hard\libg-musl.a(strncpy.o)
 .text          0x00000000        0x0 c:/program files/microchip/xc32/v4.00/bin/bin/../../lib/gcc/pic32c/8.3.1/../../../../pic32c/lib/thumb/v7e-m+fp/hard\libg-musl.a(gmtime.o)
 .data          0x00000000        0x0 c:/program files/microchip/xc32/v4.00/bin/bin/../../lib/gcc/pic32c/8.3.1/../../../../pic32c/lib/thumb/v7e-m+fp/hard\libg-musl.a(gmtime.o)
 .bss           0x00000000       0x2c c:/program files/microchip/xc32/v4.00/bin/bin/../../lib/gcc/pic32c/8.3.1/../../../../pic32c/lib/thumb/v7e-m+fp/hard\libg-musl.a(gmtime.o)
 .xc_stack_usage
                0x00000000       0x14 c:/program files/microchip/xc32/v4.00/bin/bin/../../lib/gcc/pic32c/8.3.1/../../../../pic32c/lib/thumb/v7e-m+fp/hard\libg-musl.a(gmtime.o)
 .text.gmtime   0x00000000        0xc c:/program files/microchip/xc32/v4.00/bin/bin/../../lib/gcc/pic32c/8.3.1/../../../../pic32c/lib/thumb/v7e-m+fp/hard\libg-musl.a(gmtime.o)
 .xc_stack_usage.hdr
                0x00000000        0xe c:/program files/microchip/xc32/v4.00/bin/bin/../../lib/gcc/pic32c/8.3.1/../../../../pic32c/lib/thumb/v7e-m+fp/hard\libg-musl.a(gmtime.o)
 .debug_info    0x00000000      0x473 c:/program files/microchip/xc32/v4.00/bin/bin/../../lib/gcc/pic32c/8.3.1/../../../../pic32c/lib/thumb/v7e-m+fp/hard\libg-musl.a(gmtime.o)
 .debug_abbrev  0x00000000       0xf8 c:/program files/microchip/xc32/v4.00/bin/bin/../../lib/gcc/pic32c/8.3.1/../../../../pic32c/lib/thumb/v7e-m+fp/hard\libg-musl.a(gmtime.o)
 .debug_loc     0x00000000       0x25 c:/program files/microchip/xc32/v4.00/bin/bin/../../lib/gcc/pic32c/8.3.1/../../../../pic32c/lib/thumb/v7e-m+fp/hard\libg-musl.a(gmtime.o)
 .debug_aranges
                0x00000000       0x20 c:/program files/microchip/xc32/v4.00/bin/bin/../../lib/gcc/pic32c/8.3.1/../../../../pic32c/lib/thumb/v7e-m+fp/hard\libg-musl.a(gmtime.o)
 .debug_ranges  0x00000000       0x10 c:/program files/microchip/xc32/v4.00/bin/bin/../../lib/gcc/pic32c/8.3.1/../../../../pic32c/lib/thumb/v7e-m+fp/hard\libg-musl.a(gmtime.o)
 .debug_line    0x00000000      0x1b0 c:/program files/microchip/xc32/v4.00/bin/bin/../../lib/gcc/pic32c/8.3.1/../../../../pic32c/lib/thumb/v7e-m+fp/hard\libg-musl.a(gmtime.o)
 .debug_str     0x00000000        0xb c:/program files/microchip/xc32/v4.00/bin/bin/../../lib/gcc/pic32c/8.3.1/../../../../pic32c/lib/thumb/v7e-m+fp/hard\libg-musl.a(gmtime.o)
 .comment       0x00000000       0x54 c:/program files/microchip/xc32/v4.00/bin/bin/../../lib/gcc/pic32c/8.3.1/../../../../pic32c/lib/thumb/v7e-m+fp/hard\libg-musl.a(gmtime.o)
 .note.GNU-stack
                0x00000000        0x0 c:/program files/microchip/xc32/v4.00/bin/bin/../../lib/gcc/pic32c/8.3.1/../../../../pic32c/lib/thumb/v7e-m+fp/hard\libg-musl.a(gmtime.o)
 .debug_frame   0x00000000       0x20 c:/program files/microchip/xc32/v4.00/bin/bin/../../lib/gcc/pic32c/8.3.1/../../../../pic32c/lib/thumb/v7e-m+fp/hard\libg-musl.a(gmtime.o)
 .ARM.attributes
                0x00000000       0x36 c:/program files/microchip/xc32/v4.00/bin/bin/../../lib/gcc/pic32c/8.3.1/../../../../pic32c/lib/thumb/v7e-m+fp/hard\libg-musl.a(gmtime.o)
 .text          0x00000000        0x0 c:/program files/microchip/xc32/v4.00/bin/bin/../../lib/gcc/pic32c/8.3.1/../../../../pic32c/lib/thumb/v7e-m+fp/hard\libg-musl.a(gmtime_r.o)
 .data          0x00000000        0x0 c:/program files/microchip/xc32/v4.00/bin/bin/../../lib/gcc/pic32c/8.3.1/../../../../pic32c/lib/thumb/v7e-m+fp/hard\libg-musl.a(gmtime_r.o)
 .bss           0x00000000        0x0 c:/program files/microchip/xc32/v4.00/bin/bin/../../lib/gcc/pic32c/8.3.1/../../../../pic32c/lib/thumb/v7e-m+fp/hard\libg-musl.a(gmtime_r.o)
 .xc_stack_usage
                0x00000000       0x18 c:/program files/microchip/xc32/v4.00/bin/bin/../../lib/gcc/pic32c/8.3.1/../../../../pic32c/lib/thumb/v7e-m+fp/hard\libg-musl.a(gmtime_r.o)
 .text.__gmtime_r
                0x00000000       0x34 c:/program files/microchip/xc32/v4.00/bin/bin/../../lib/gcc/pic32c/8.3.1/../../../../pic32c/lib/thumb/v7e-m+fp/hard\libg-musl.a(gmtime_r.o)
 .xc_stack_usage.hdr
                0x00000000        0xe c:/program files/microchip/xc32/v4.00/bin/bin/../../lib/gcc/pic32c/8.3.1/../../../../pic32c/lib/thumb/v7e-m+fp/hard\libg-musl.a(gmtime_r.o)
 .debug_info    0x00000000      0x77c c:/program files/microchip/xc32/v4.00/bin/bin/../../lib/gcc/pic32c/8.3.1/../../../../pic32c/lib/thumb/v7e-m+fp/hard\libg-musl.a(gmtime_r.o)
 .debug_abbrev  0x00000000      0x10f c:/program files/microchip/xc32/v4.00/bin/bin/../../lib/gcc/pic32c/8.3.1/../../../../pic32c/lib/thumb/v7e-m+fp/hard\libg-musl.a(gmtime_r.o)
 .debug_loc     0x00000000       0x84 c:/program files/microchip/xc32/v4.00/bin/bin/../../lib/gcc/pic32c/8.3.1/../../../../pic32c/lib/thumb/v7e-m+fp/hard\libg-musl.a(gmtime_r.o)
 .debug_aranges
                0x00000000       0x20 c:/program files/microchip/xc32/v4.00/bin/bin/../../lib/gcc/pic32c/8.3.1/../../../../pic32c/lib/thumb/v7e-m+fp/hard\libg-musl.a(gmtime_r.o)
 .debug_ranges  0x00000000       0x10 c:/program files/microchip/xc32/v4.00/bin/bin/../../lib/gcc/pic32c/8.3.1/../../../../pic32c/lib/thumb/v7e-m+fp/hard\libg-musl.a(gmtime_r.o)
 .debug_line    0x00000000      0x277 c:/program files/microchip/xc32/v4.00/bin/bin/../../lib/gcc/pic32c/8.3.1/../../../../pic32c/lib/thumb/v7e-m+fp/hard\libg-musl.a(gmtime_r.o)
 .debug_str     0x00000000        0xd c:/program files/microchip/xc32/v4.00/bin/bin/../../lib/gcc/pic32c/8.3.1/../../../../pic32c/lib/thumb/v7e-m+fp/hard\libg-musl.a(gmtime_r.o)
 .comment       0x00000000       0x54 c:/program files/microchip/xc32/v4.00/bin/bin/../../lib/gcc/pic32c/8.3.1/../../../../pic32c/lib/thumb/v7e-m+fp/hard\libg-musl.a(gmtime_r.o)
 .note.GNU-stack
                0x00000000        0x0 c:/program files/microchip/xc32/v4.00/bin/bin/../../lib/gcc/pic32c/8.3.1/../../../../pic32c/lib/thumb/v7e-m+fp/hard\libg-musl.a(gmtime_r.o)
 .debug_frame   0x00000000       0x2c c:/program files/microchip/xc32/v4.00/bin/bin/../../lib/gcc/pic32c/8.3.1/../../../../pic32c/lib/thumb/v7e-m+fp/hard\libg-musl.a(gmtime_r.o)
 .ARM.attributes
                0x00000000       0x36 c:/program files/microchip/xc32/v4.00/bin/bin/../../lib/gcc/pic32c/8.3.1/../../../../pic32c/lib/thumb/v7e-m+fp/hard\libg-musl.a(gmtime_r.o)
 .text          0x00000000        0x0 c:/program files/microchip/xc32/v4.00/bin/bin/../../lib/gcc/pic32c/8.3.1/../../../../pic32c/lib/thumb/v7e-m+fp/hard\libg-musl.a(__tz.o)
 .data          0x00000000        0x8 c:/program files/microchip/xc32/v4.00/bin/bin/../../lib/gcc/pic32c/8.3.1/../../../../pic32c/lib/thumb/v7e-m+fp/hard\libg-musl.a(__tz.o)
 .bss           0x00000000       0x50 c:/program files/microchip/xc32/v4.00/bin/bin/../../lib/gcc/pic32c/8.3.1/../../../../pic32c/lib/thumb/v7e-m+fp/hard\libg-musl.a(__tz.o)
 .xc_stack_usage
                0x00000000       0xcf c:/program files/microchip/xc32/v4.00/bin/bin/../../lib/gcc/pic32c/8.3.1/../../../../pic32c/lib/thumb/v7e-m+fp/hard\libg-musl.a(__tz.o)
 .text.getint   0x00000000       0x1e c:/program files/microchip/xc32/v4.00/bin/bin/../../lib/gcc/pic32c/8.3.1/../../../../pic32c/lib/thumb/v7e-m+fp/hard\libg-musl.a(__tz.o)
 .text.getoff   0x00000000       0x60 c:/program files/microchip/xc32/v4.00/bin/bin/../../lib/gcc/pic32c/8.3.1/../../../../pic32c/lib/thumb/v7e-m+fp/hard\libg-musl.a(__tz.o)
 .text.getrule  0x00000000       0x68 c:/program files/microchip/xc32/v4.00/bin/bin/../../lib/gcc/pic32c/8.3.1/../../../../pic32c/lib/thumb/v7e-m+fp/hard\libg-musl.a(__tz.o)
 .text.getname  0x00000000       0x4e c:/program files/microchip/xc32/v4.00/bin/bin/../../lib/gcc/pic32c/8.3.1/../../../../pic32c/lib/thumb/v7e-m+fp/hard\libg-musl.a(__tz.o)
 .text.do_tzset
                0x00000000       0xd0 c:/program files/microchip/xc32/v4.00/bin/bin/../../lib/gcc/pic32c/8.3.1/../../../../pic32c/lib/thumb/v7e-m+fp/hard\libg-musl.a(__tz.o)
 .text.rule_to_secs
                0x00000000       0xe0 c:/program files/microchip/xc32/v4.00/bin/bin/../../lib/gcc/pic32c/8.3.1/../../../../pic32c/lib/thumb/v7e-m+fp/hard\libg-musl.a(__tz.o)
 .text.__secs_to_zone
                0x00000000      0x114 c:/program files/microchip/xc32/v4.00/bin/bin/../../lib/gcc/pic32c/8.3.1/../../../../pic32c/lib/thumb/v7e-m+fp/hard\libg-musl.a(__tz.o)
 .text.__tzset  0x00000000        0x4 c:/program files/microchip/xc32/v4.00/bin/bin/../../lib/gcc/pic32c/8.3.1/../../../../pic32c/lib/thumb/v7e-m+fp/hard\libg-musl.a(__tz.o)
 .text.__tm_to_tzname
                0x00000000        0xc c:/program files/microchip/xc32/v4.00/bin/bin/../../lib/gcc/pic32c/8.3.1/../../../../pic32c/lib/thumb/v7e-m+fp/hard\libg-musl.a(__tz.o)
 .rodata        0x00000000        0x4 c:/program files/microchip/xc32/v4.00/bin/bin/../../lib/gcc/pic32c/8.3.1/../../../../pic32c/lib/thumb/v7e-m+fp/hard\libg-musl.a(__tz.o)
 .xc_stack_usage.hdr
                0x00000000        0xe c:/program files/microchip/xc32/v4.00/bin/bin/../../lib/gcc/pic32c/8.3.1/../../../../pic32c/lib/thumb/v7e-m+fp/hard\libg-musl.a(__tz.o)
 .debug_info    0x00000000      0xf2f c:/program files/microchip/xc32/v4.00/bin/bin/../../lib/gcc/pic32c/8.3.1/../../../../pic32c/lib/thumb/v7e-m+fp/hard\libg-musl.a(__tz.o)
 .debug_abbrev  0x00000000      0x2bf c:/program files/microchip/xc32/v4.00/bin/bin/../../lib/gcc/pic32c/8.3.1/../../../../pic32c/lib/thumb/v7e-m+fp/hard\libg-musl.a(__tz.o)
 .debug_loc     0x00000000      0x6c1 c:/program files/microchip/xc32/v4.00/bin/bin/../../lib/gcc/pic32c/8.3.1/../../../../pic32c/lib/thumb/v7e-m+fp/hard\libg-musl.a(__tz.o)
 .debug_aranges
                0x00000000       0x60 c:/program files/microchip/xc32/v4.00/bin/bin/../../lib/gcc/pic32c/8.3.1/../../../../pic32c/lib/thumb/v7e-m+fp/hard\libg-musl.a(__tz.o)
 .debug_ranges  0x00000000       0x70 c:/program files/microchip/xc32/v4.00/bin/bin/../../lib/gcc/pic32c/8.3.1/../../../../pic32c/lib/thumb/v7e-m+fp/hard\libg-musl.a(__tz.o)
 .debug_line    0x00000000      0x7f5 c:/program files/microchip/xc32/v4.00/bin/bin/../../lib/gcc/pic32c/8.3.1/../../../../pic32c/lib/thumb/v7e-m+fp/hard\libg-musl.a(__tz.o)
 .debug_str     0x00000000       0x1f c:/program files/microchip/xc32/v4.00/bin/bin/../../lib/gcc/pic32c/8.3.1/../../../../pic32c/lib/thumb/v7e-m+fp/hard\libg-musl.a(__tz.o)
 .comment       0x00000000       0x54 c:/program files/microchip/xc32/v4.00/bin/bin/../../lib/gcc/pic32c/8.3.1/../../../../pic32c/lib/thumb/v7e-m+fp/hard\libg-musl.a(__tz.o)
 .note.GNU-stack
                0x00000000        0x0 c:/program files/microchip/xc32/v4.00/bin/bin/../../lib/gcc/pic32c/8.3.1/../../../../pic32c/lib/thumb/v7e-m+fp/hard\libg-musl.a(__tz.o)
 .debug_frame   0x00000000      0x118 c:/program files/microchip/xc32/v4.00/bin/bin/../../lib/gcc/pic32c/8.3.1/../../../../pic32c/lib/thumb/v7e-m+fp/hard\libg-musl.a(__tz.o)
 .ARM.attributes
                0x00000000       0x36 c:/program files/microchip/xc32/v4.00/bin/bin/../../lib/gcc/pic32c/8.3.1/../../../../pic32c/lib/thumb/v7e-m+fp/hard\libg-musl.a(__tz.o)
 .text          0x00000000        0x0 c:/program files/microchip/xc32/v4.00/bin/bin/../../lib/gcc/pic32c/8.3.1/../../../../pic32c/lib/thumb/v7e-m+fp/hard\libg-musl.a(time.o)
 .data          0x00000000        0x0 c:/program files/microchip/xc32/v4.00/bin/bin/../../lib/gcc/pic32c/8.3.1/../../../../pic32c/lib/thumb/v7e-m+fp/hard\libg-musl.a(time.o)
 .bss           0x00000000        0x0 c:/program files/microchip/xc32/v4.00/bin/bin/../../lib/gcc/pic32c/8.3.1/../../../../pic32c/lib/thumb/v7e-m+fp/hard\libg-musl.a(time.o)
 .xc_stack_usage
                0x00000000       0x12 c:/program files/microchip/xc32/v4.00/bin/bin/../../lib/gcc/pic32c/8.3.1/../../../../pic32c/lib/thumb/v7e-m+fp/hard\libg-musl.a(time.o)
 .text.time     0x00000000       0x16 c:/program files/microchip/xc32/v4.00/bin/bin/../../lib/gcc/pic32c/8.3.1/../../../../pic32c/lib/thumb/v7e-m+fp/hard\libg-musl.a(time.o)
 .xc_stack_usage.hdr
                0x00000000        0xe c:/program files/microchip/xc32/v4.00/bin/bin/../../lib/gcc/pic32c/8.3.1/../../../../pic32c/lib/thumb/v7e-m+fp/hard\libg-musl.a(time.o)
 .debug_info    0x00000000      0x67f c:/program files/microchip/xc32/v4.00/bin/bin/../../lib/gcc/pic32c/8.3.1/../../../../pic32c/lib/thumb/v7e-m+fp/hard\libg-musl.a(time.o)
 .debug_abbrev  0x00000000      0x13d c:/program files/microchip/xc32/v4.00/bin/bin/../../lib/gcc/pic32c/8.3.1/../../../../pic32c/lib/thumb/v7e-m+fp/hard\libg-musl.a(time.o)
 .debug_loc     0x00000000       0x4e c:/program files/microchip/xc32/v4.00/bin/bin/../../lib/gcc/pic32c/8.3.1/../../../../pic32c/lib/thumb/v7e-m+fp/hard\libg-musl.a(time.o)
 .debug_aranges
                0x00000000       0x20 c:/program files/microchip/xc32/v4.00/bin/bin/../../lib/gcc/pic32c/8.3.1/../../../../pic32c/lib/thumb/v7e-m+fp/hard\libg-musl.a(time.o)
 .debug_ranges  0x00000000       0x10 c:/program files/microchip/xc32/v4.00/bin/bin/../../lib/gcc/pic32c/8.3.1/../../../../pic32c/lib/thumb/v7e-m+fp/hard\libg-musl.a(time.o)
 .debug_line    0x00000000      0x240 c:/program files/microchip/xc32/v4.00/bin/bin/../../lib/gcc/pic32c/8.3.1/../../../../pic32c/lib/thumb/v7e-m+fp/hard\libg-musl.a(time.o)
 .debug_str     0x00000000       0x10 c:/program files/microchip/xc32/v4.00/bin/bin/../../lib/gcc/pic32c/8.3.1/../../../../pic32c/lib/thumb/v7e-m+fp/hard\libg-musl.a(time.o)
 .comment       0x00000000       0x54 c:/program files/microchip/xc32/v4.00/bin/bin/../../lib/gcc/pic32c/8.3.1/../../../../pic32c/lib/thumb/v7e-m+fp/hard\libg-musl.a(time.o)
 .note.GNU-stack
                0x00000000        0x0 c:/program files/microchip/xc32/v4.00/bin/bin/../../lib/gcc/pic32c/8.3.1/../../../../pic32c/lib/thumb/v7e-m+fp/hard\libg-musl.a(time.o)
 .debug_frame   0x00000000       0x2c c:/program files/microchip/xc32/v4.00/bin/bin/../../lib/gcc/pic32c/8.3.1/../../../../pic32c/lib/thumb/v7e-m+fp/hard\libg-musl.a(time.o)
 .ARM.attributes
                0x00000000       0x36 c:/program files/microchip/xc32/v4.00/bin/bin/../../lib/gcc/pic32c/8.3.1/../../../../pic32c/lib/thumb/v7e-m+fp/hard\libg-musl.a(time.o)
 .text          0x00000000        0x0 c:/program files/microchip/xc32/v4.00/bin/bin/../../lib/gcc/pic32c/8.3.1/../../../../pic32c/lib/thumb/v7e-m+fp/hard\libg-musl.a(__environ.o)
 .data          0x00000000        0x0 c:/program files/microchip/xc32/v4.00/bin/bin/../../lib/gcc/pic32c/8.3.1/../../../../pic32c/lib/thumb/v7e-m+fp/hard\libg-musl.a(__environ.o)
 .xc_stack_usage.hdr
                0x00000000        0xe c:/program files/microchip/xc32/v4.00/bin/bin/../../lib/gcc/pic32c/8.3.1/../../../../pic32c/lib/thumb/v7e-m+fp/hard\libg-musl.a(__environ.o)
 .text          0x00000000        0x0 c:/program files/microchip/xc32/v4.00/bin/bin/../../lib/gcc/pic32c/8.3.1/../../../../pic32c/lib/thumb/v7e-m+fp/hard\libg-musl.a(intscan.o)
 .data          0x00000000        0x0 c:/program files/microchip/xc32/v4.00/bin/bin/../../lib/gcc/pic32c/8.3.1/../../../../pic32c/lib/thumb/v7e-m+fp/hard\libg-musl.a(intscan.o)
 .bss           0x00000000        0x0 c:/program files/microchip/xc32/v4.00/bin/bin/../../lib/gcc/pic32c/8.3.1/../../../../pic32c/lib/thumb/v7e-m+fp/hard\libg-musl.a(intscan.o)
 .xc_stack_usage
                0x00000000       0x17 c:/program files/microchip/xc32/v4.00/bin/bin/../../lib/gcc/pic32c/8.3.1/../../../../pic32c/lib/thumb/v7e-m+fp/hard\libg-musl.a(intscan.o)
 .text.__intscan
                0x00000000      0x408 c:/program files/microchip/xc32/v4.00/bin/bin/../../lib/gcc/pic32c/8.3.1/../../../../pic32c/lib/thumb/v7e-m+fp/hard\libg-musl.a(intscan.o)
 .rodata        0x00000000      0x10a c:/program files/microchip/xc32/v4.00/bin/bin/../../lib/gcc/pic32c/8.3.1/../../../../pic32c/lib/thumb/v7e-m+fp/hard\libg-musl.a(intscan.o)
 .xc_stack_usage.hdr
                0x00000000        0xe c:/program files/microchip/xc32/v4.00/bin/bin/../../lib/gcc/pic32c/8.3.1/../../../../pic32c/lib/thumb/v7e-m+fp/hard\libg-musl.a(intscan.o)
 .debug_info    0x00000000      0xacf c:/program files/microchip/xc32/v4.00/bin/bin/../../lib/gcc/pic32c/8.3.1/../../../../pic32c/lib/thumb/v7e-m+fp/hard\libg-musl.a(intscan.o)
 .debug_abbrev  0x00000000      0x1cb c:/program files/microchip/xc32/v4.00/bin/bin/../../lib/gcc/pic32c/8.3.1/../../../../pic32c/lib/thumb/v7e-m+fp/hard\libg-musl.a(intscan.o)
 .debug_loc     0x00000000      0x5f2 c:/program files/microchip/xc32/v4.00/bin/bin/../../lib/gcc/pic32c/8.3.1/../../../../pic32c/lib/thumb/v7e-m+fp/hard\libg-musl.a(intscan.o)
 .debug_aranges
                0x00000000       0x20 c:/program files/microchip/xc32/v4.00/bin/bin/../../lib/gcc/pic32c/8.3.1/../../../../pic32c/lib/thumb/v7e-m+fp/hard\libg-musl.a(intscan.o)
 .debug_ranges  0x00000000       0x28 c:/program files/microchip/xc32/v4.00/bin/bin/../../lib/gcc/pic32c/8.3.1/../../../../pic32c/lib/thumb/v7e-m+fp/hard\libg-musl.a(intscan.o)
 .debug_line    0x00000000      0x4d1 c:/program files/microchip/xc32/v4.00/bin/bin/../../lib/gcc/pic32c/8.3.1/../../../../pic32c/lib/thumb/v7e-m+fp/hard\libg-musl.a(intscan.o)
 .debug_str     0x00000000        0x9 c:/program files/microchip/xc32/v4.00/bin/bin/../../lib/gcc/pic32c/8.3.1/../../../../pic32c/lib/thumb/v7e-m+fp/hard\libg-musl.a(intscan.o)
 .comment       0x00000000       0x54 c:/program files/microchip/xc32/v4.00/bin/bin/../../lib/gcc/pic32c/8.3.1/../../../../pic32c/lib/thumb/v7e-m+fp/hard\libg-musl.a(intscan.o)
 .note.GNU-stack
                0x00000000        0x0 c:/program files/microchip/xc32/v4.00/bin/bin/../../lib/gcc/pic32c/8.3.1/../../../../pic32c/lib/thumb/v7e-m+fp/hard\libg-musl.a(intscan.o)
 .debug_frame   0x00000000       0x40 c:/program files/microchip/xc32/v4.00/bin/bin/../../lib/gcc/pic32c/8.3.1/../../../../pic32c/lib/thumb/v7e-m+fp/hard\libg-musl.a(intscan.o)
 .ARM.attributes
                0x00000000       0x36 c:/program files/microchip/xc32/v4.00/bin/bin/../../lib/gcc/pic32c/8.3.1/../../../../pic32c/lib/thumb/v7e-m+fp/hard\libg-musl.a(intscan.o)
 .text          0x00000000        0x0 c:/program files/microchip/xc32/v4.00/bin/bin/../../lib/gcc/pic32c/8.3.1/../../../../pic32c/lib/thumb/v7e-m+fp/hard\libg-musl.a(shgetc.o)
 .data          0x00000000        0x0 c:/program files/microchip/xc32/v4.00/bin/bin/../../lib/gcc/pic32c/8.3.1/../../../../pic32c/lib/thumb/v7e-m+fp/hard\libg-musl.a(shgetc.o)
 .bss           0x00000000        0x0 c:/program files/microchip/xc32/v4.00/bin/bin/../../lib/gcc/pic32c/8.3.1/../../../../pic32c/lib/thumb/v7e-m+fp/hard\libg-musl.a(shgetc.o)
 .xc_stack_usage
                0x00000000       0x2b c:/program files/microchip/xc32/v4.00/bin/bin/../../lib/gcc/pic32c/8.3.1/../../../../pic32c/lib/thumb/v7e-m+fp/hard\libg-musl.a(shgetc.o)
 .text.__shlim  0x00000000       0x26 c:/program files/microchip/xc32/v4.00/bin/bin/../../lib/gcc/pic32c/8.3.1/../../../../pic32c/lib/thumb/v7e-m+fp/hard\libg-musl.a(shgetc.o)
 .text.__shgetc
                0x00000000       0x92 c:/program files/microchip/xc32/v4.00/bin/bin/../../lib/gcc/pic32c/8.3.1/../../../../pic32c/lib/thumb/v7e-m+fp/hard\libg-musl.a(shgetc.o)
 .xc_stack_usage.hdr
                0x00000000        0xe c:/program files/microchip/xc32/v4.00/bin/bin/../../lib/gcc/pic32c/8.3.1/../../../../pic32c/lib/thumb/v7e-m+fp/hard\libg-musl.a(shgetc.o)
 .debug_info    0x00000000      0x8d4 c:/program files/microchip/xc32/v4.00/bin/bin/../../lib/gcc/pic32c/8.3.1/../../../../pic32c/lib/thumb/v7e-m+fp/hard\libg-musl.a(shgetc.o)
 .debug_abbrev  0x00000000      0x15d c:/program files/microchip/xc32/v4.00/bin/bin/../../lib/gcc/pic32c/8.3.1/../../../../pic32c/lib/thumb/v7e-m+fp/hard\libg-musl.a(shgetc.o)
 .debug_loc     0x00000000       0x77 c:/program files/microchip/xc32/v4.00/bin/bin/../../lib/gcc/pic32c/8.3.1/../../../../pic32c/lib/thumb/v7e-m+fp/hard\libg-musl.a(shgetc.o)
 .debug_aranges
                0x00000000       0x28 c:/program files/microchip/xc32/v4.00/bin/bin/../../lib/gcc/pic32c/8.3.1/../../../../pic32c/lib/thumb/v7e-m+fp/hard\libg-musl.a(shgetc.o)
 .debug_ranges  0x00000000       0x18 c:/program files/microchip/xc32/v4.00/bin/bin/../../lib/gcc/pic32c/8.3.1/../../../../pic32c/lib/thumb/v7e-m+fp/hard\libg-musl.a(shgetc.o)
 .debug_line    0x00000000      0x217 c:/program files/microchip/xc32/v4.00/bin/bin/../../lib/gcc/pic32c/8.3.1/../../../../pic32c/lib/thumb/v7e-m+fp/hard\libg-musl.a(shgetc.o)
 .debug_str     0x00000000        0x0 c:/program files/microchip/xc32/v4.00/bin/bin/../../lib/gcc/pic32c/8.3.1/../../../../pic32c/lib/thumb/v7e-m+fp/hard\libg-musl.a(shgetc.o)
 .comment       0x00000000       0x54 c:/program files/microchip/xc32/v4.00/bin/bin/../../lib/gcc/pic32c/8.3.1/../../../../pic32c/lib/thumb/v7e-m+fp/hard\libg-musl.a(shgetc.o)
 .note.GNU-stack
                0x00000000        0x0 c:/program files/microchip/xc32/v4.00/bin/bin/../../lib/gcc/pic32c/8.3.1/../../../../pic32c/lib/thumb/v7e-m+fp/hard\libg-musl.a(shgetc.o)
 .debug_frame   0x00000000       0x54 c:/program files/microchip/xc32/v4.00/bin/bin/../../lib/gcc/pic32c/8.3.1/../../../../pic32c/lib/thumb/v7e-m+fp/hard\libg-musl.a(shgetc.o)
 .ARM.attributes
                0x00000000       0x36 c:/program files/microchip/xc32/v4.00/bin/bin/../../lib/gcc/pic32c/8.3.1/../../../../pic32c/lib/thumb/v7e-m+fp/hard\libg-musl.a(shgetc.o)
 .text          0x00000000        0x0 c:/program files/microchip/xc32/v4.00/bin/bin/../../lib/gcc/pic32c/8.3.1/../../../../pic32c/lib/thumb/v7e-m+fp/hard\libg-musl.a(__uflow.o)
 .data          0x00000000        0x0 c:/program files/microchip/xc32/v4.00/bin/bin/../../lib/gcc/pic32c/8.3.1/../../../../pic32c/lib/thumb/v7e-m+fp/hard\libg-musl.a(__uflow.o)
 .bss           0x00000000        0x0 c:/program files/microchip/xc32/v4.00/bin/bin/../../lib/gcc/pic32c/8.3.1/../../../../pic32c/lib/thumb/v7e-m+fp/hard\libg-musl.a(__uflow.o)
 .xc_stack_usage
                0x00000000       0x15 c:/program files/microchip/xc32/v4.00/bin/bin/../../lib/gcc/pic32c/8.3.1/../../../../pic32c/lib/thumb/v7e-m+fp/hard\libg-musl.a(__uflow.o)
 .text.__uflow  0x00000000       0x28 c:/program files/microchip/xc32/v4.00/bin/bin/../../lib/gcc/pic32c/8.3.1/../../../../pic32c/lib/thumb/v7e-m+fp/hard\libg-musl.a(__uflow.o)
 .xc_stack_usage.hdr
                0x00000000        0xe c:/program files/microchip/xc32/v4.00/bin/bin/../../lib/gcc/pic32c/8.3.1/../../../../pic32c/lib/thumb/v7e-m+fp/hard\libg-musl.a(__uflow.o)
 .debug_info    0x00000000      0x8a0 c:/program files/microchip/xc32/v4.00/bin/bin/../../lib/gcc/pic32c/8.3.1/../../../../pic32c/lib/thumb/v7e-m+fp/hard\libg-musl.a(__uflow.o)
 .debug_abbrev  0x00000000      0x138 c:/program files/microchip/xc32/v4.00/bin/bin/../../lib/gcc/pic32c/8.3.1/../../../../pic32c/lib/thumb/v7e-m+fp/hard\libg-musl.a(__uflow.o)
 .debug_loc     0x00000000       0x5a c:/program files/microchip/xc32/v4.00/bin/bin/../../lib/gcc/pic32c/8.3.1/../../../../pic32c/lib/thumb/v7e-m+fp/hard\libg-musl.a(__uflow.o)
 .debug_aranges
                0x00000000       0x20 c:/program files/microchip/xc32/v4.00/bin/bin/../../lib/gcc/pic32c/8.3.1/../../../../pic32c/lib/thumb/v7e-m+fp/hard\libg-musl.a(__uflow.o)
 .debug_ranges  0x00000000       0x10 c:/program files/microchip/xc32/v4.00/bin/bin/../../lib/gcc/pic32c/8.3.1/../../../../pic32c/lib/thumb/v7e-m+fp/hard\libg-musl.a(__uflow.o)
 .debug_line    0x00000000      0x1e1 c:/program files/microchip/xc32/v4.00/bin/bin/../../lib/gcc/pic32c/8.3.1/../../../../pic32c/lib/thumb/v7e-m+fp/hard\libg-musl.a(__uflow.o)
 .debug_str     0x00000000        0x9 c:/program files/microchip/xc32/v4.00/bin/bin/../../lib/gcc/pic32c/8.3.1/../../../../pic32c/lib/thumb/v7e-m+fp/hard\libg-musl.a(__uflow.o)
 .comment       0x00000000       0x54 c:/program files/microchip/xc32/v4.00/bin/bin/../../lib/gcc/pic32c/8.3.1/../../../../pic32c/lib/thumb/v7e-m+fp/hard\libg-musl.a(__uflow.o)
 .note.GNU-stack
                0x00000000        0x0 c:/program files/microchip/xc32/v4.00/bin/bin/../../lib/gcc/pic32c/8.3.1/../../../../pic32c/lib/thumb/v7e-m+fp/hard\libg-musl.a(__uflow.o)
 .debug_frame   0x00000000       0x30 c:/program files/microchip/xc32/v4.00/bin/bin/../../lib/gcc/pic32c/8.3.1/../../../../pic32c/lib/thumb/v7e-m+fp/hard\libg-musl.a(__uflow.o)
 .ARM.attributes
                0x00000000       0x36 c:/program files/microchip/xc32/v4.00/bin/bin/../../lib/gcc/pic32c/8.3.1/../../../../pic32c/lib/thumb/v7e-m+fp/hard\libg-musl.a(__uflow.o)
 .text          0x00000000        0x0 c:/program files/microchip/xc32/v4.00/bin/bin/../../lib/gcc/pic32c/8.3.1/../../../../pic32c/lib/thumb/v7e-m+fp/hard\libg-musl.a(vfprintf.o)
 .data          0x00000000        0x0 c:/program files/microchip/xc32/v4.00/bin/bin/../../lib/gcc/pic32c/8.3.1/../../../../pic32c/lib/thumb/v7e-m+fp/hard\libg-musl.a(vfprintf.o)
 .bss           0x00000000        0x0 c:/program files/microchip/xc32/v4.00/bin/bin/../../lib/gcc/pic32c/8.3.1/../../../../pic32c/lib/thumb/v7e-m+fp/hard\libg-musl.a(vfprintf.o)
 .xc_stack_usage
                0x00000000       0x38 c:/program files/microchip/xc32/v4.00/bin/bin/../../lib/gcc/pic32c/8.3.1/../../../../pic32c/lib/thumb/v7e-m+fp/hard\libg-musl.a(vfprintf.o)
 .xc_stack_usage.hdr
                0x00000000        0xe c:/program files/microchip/xc32/v4.00/bin/bin/../../lib/gcc/pic32c/8.3.1/../../../../pic32c/lib/thumb/v7e-m+fp/hard\libg-musl.a(vfprintf.o)
 .text          0x00000000        0x0 c:/program files/microchip/xc32/v4.00/bin/bin/../../lib/gcc/pic32c/8.3.1/../../../../pic32c/lib/thumb/v7e-m+fp/hard\libg-musl.a(stpcpy.o)
 .data          0x00000000        0x0 c:/program files/microchip/xc32/v4.00/bin/bin/../../lib/gcc/pic32c/8.3.1/../../../../pic32c/lib/thumb/v7e-m+fp/hard\libg-musl.a(stpcpy.o)
 .bss           0x00000000        0x0 c:/program files/microchip/xc32/v4.00/bin/bin/../../lib/gcc/pic32c/8.3.1/../../../../pic32c/lib/thumb/v7e-m+fp/hard\libg-musl.a(stpcpy.o)
 .xc_stack_usage
                0x00000000       0x14 c:/program files/microchip/xc32/v4.00/bin/bin/../../lib/gcc/pic32c/8.3.1/../../../../pic32c/lib/thumb/v7e-m+fp/hard\libg-musl.a(stpcpy.o)
 .xc_stack_usage.hdr
                0x00000000        0xe c:/program files/microchip/xc32/v4.00/bin/bin/../../lib/gcc/pic32c/8.3.1/../../../../pic32c/lib/thumb/v7e-m+fp/hard\libg-musl.a(stpcpy.o)
 .text          0x00000000        0x0 c:/program files/microchip/xc32/v4.00/bin/bin/../../lib/gcc/pic32c/8.3.1/../../../../pic32c/lib/thumb/v7e-m+fp/hard\libg-musl.a(stpncpy.o)
 .data          0x00000000        0x0 c:/program files/microchip/xc32/v4.00/bin/bin/../../lib/gcc/pic32c/8.3.1/../../../../pic32c/lib/thumb/v7e-m+fp/hard\libg-musl.a(stpncpy.o)
 .bss           0x00000000        0x0 c:/program files/microchip/xc32/v4.00/bin/bin/../../lib/gcc/pic32c/8.3.1/../../../../pic32c/lib/thumb/v7e-m+fp/hard\libg-musl.a(stpncpy.o)
 .xc_stack_usage
                0x00000000       0x15 c:/program files/microchip/xc32/v4.00/bin/bin/../../lib/gcc/pic32c/8.3.1/../../../../pic32c/lib/thumb/v7e-m+fp/hard\libg-musl.a(stpncpy.o)
 .xc_stack_usage.hdr
                0x00000000        0xe c:/program files/microchip/xc32/v4.00/bin/bin/../../lib/gcc/pic32c/8.3.1/../../../../pic32c/lib/thumb/v7e-m+fp/hard\libg-musl.a(stpncpy.o)
 .text          0x00000000        0x0 c:/program files/microchip/xc32/v4.00/bin/bin/../../lib/gcc/pic32c/8.3.1/../../../../pic32c/lib/thumb/v7e-m+fp/hard\libg-musl.a(__month_to_secs.o)
 .data          0x00000000        0x0 c:/program files/microchip/xc32/v4.00/bin/bin/../../lib/gcc/pic32c/8.3.1/../../../../pic32c/lib/thumb/v7e-m+fp/hard\libg-musl.a(__month_to_secs.o)
 .bss           0x00000000        0x0 c:/program files/microchip/xc32/v4.00/bin/bin/../../lib/gcc/pic32c/8.3.1/../../../../pic32c/lib/thumb/v7e-m+fp/hard\libg-musl.a(__month_to_secs.o)
 .xc_stack_usage
                0x00000000       0x1d c:/program files/microchip/xc32/v4.00/bin/bin/../../lib/gcc/pic32c/8.3.1/../../../../pic32c/lib/thumb/v7e-m+fp/hard\libg-musl.a(__month_to_secs.o)
 .text.__month_to_secs
                0x00000000       0x1c c:/program files/microchip/xc32/v4.00/bin/bin/../../lib/gcc/pic32c/8.3.1/../../../../pic32c/lib/thumb/v7e-m+fp/hard\libg-musl.a(__month_to_secs.o)
 .rodata        0x00000000       0x30 c:/program files/microchip/xc32/v4.00/bin/bin/../../lib/gcc/pic32c/8.3.1/../../../../pic32c/lib/thumb/v7e-m+fp/hard\libg-musl.a(__month_to_secs.o)
 .xc_stack_usage.hdr
                0x00000000        0xe c:/program files/microchip/xc32/v4.00/bin/bin/../../lib/gcc/pic32c/8.3.1/../../../../pic32c/lib/thumb/v7e-m+fp/hard\libg-musl.a(__month_to_secs.o)
 .debug_info    0x00000000      0x30b c:/program files/microchip/xc32/v4.00/bin/bin/../../lib/gcc/pic32c/8.3.1/../../../../pic32c/lib/thumb/v7e-m+fp/hard\libg-musl.a(__month_to_secs.o)
 .debug_abbrev  0x00000000       0xa2 c:/program files/microchip/xc32/v4.00/bin/bin/../../lib/gcc/pic32c/8.3.1/../../../../pic32c/lib/thumb/v7e-m+fp/hard\libg-musl.a(__month_to_secs.o)
 .debug_loc     0x00000000       0x5d c:/program files/microchip/xc32/v4.00/bin/bin/../../lib/gcc/pic32c/8.3.1/../../../../pic32c/lib/thumb/v7e-m+fp/hard\libg-musl.a(__month_to_secs.o)
 .debug_aranges
                0x00000000       0x20 c:/program files/microchip/xc32/v4.00/bin/bin/../../lib/gcc/pic32c/8.3.1/../../../../pic32c/lib/thumb/v7e-m+fp/hard\libg-musl.a(__month_to_secs.o)
 .debug_ranges  0x00000000       0x10 c:/program files/microchip/xc32/v4.00/bin/bin/../../lib/gcc/pic32c/8.3.1/../../../../pic32c/lib/thumb/v7e-m+fp/hard\libg-musl.a(__month_to_secs.o)
 .debug_line    0x00000000       0xcf c:/program files/microchip/xc32/v4.00/bin/bin/../../lib/gcc/pic32c/8.3.1/../../../../pic32c/lib/thumb/v7e-m+fp/hard\libg-musl.a(__month_to_secs.o)
 .debug_str     0x00000000        0x0 c:/program files/microchip/xc32/v4.00/bin/bin/../../lib/gcc/pic32c/8.3.1/../../../../pic32c/lib/thumb/v7e-m+fp/hard\libg-musl.a(__month_to_secs.o)
 .comment       0x00000000       0x54 c:/program files/microchip/xc32/v4.00/bin/bin/../../lib/gcc/pic32c/8.3.1/../../../../pic32c/lib/thumb/v7e-m+fp/hard\libg-musl.a(__month_to_secs.o)
 .note.GNU-stack
                0x00000000        0x0 c:/program files/microchip/xc32/v4.00/bin/bin/../../lib/gcc/pic32c/8.3.1/../../../../pic32c/lib/thumb/v7e-m+fp/hard\libg-musl.a(__month_to_secs.o)
 .debug_frame   0x00000000       0x20 c:/program files/microchip/xc32/v4.00/bin/bin/../../lib/gcc/pic32c/8.3.1/../../../../pic32c/lib/thumb/v7e-m+fp/hard\libg-musl.a(__month_to_secs.o)
 .ARM.attributes
                0x00000000       0x36 c:/program files/microchip/xc32/v4.00/bin/bin/../../lib/gcc/pic32c/8.3.1/../../../../pic32c/lib/thumb/v7e-m+fp/hard\libg-musl.a(__month_to_secs.o)
 .text          0x00000000        0x0 c:/program files/microchip/xc32/v4.00/bin/bin/../../lib/gcc/pic32c/8.3.1/../../../../pic32c/lib/thumb/v7e-m+fp/hard\libg-musl.a(__secs_to_tm.o)
 .data          0x00000000        0x0 c:/program files/microchip/xc32/v4.00/bin/bin/../../lib/gcc/pic32c/8.3.1/../../../../pic32c/lib/thumb/v7e-m+fp/hard\libg-musl.a(__secs_to_tm.o)
 .bss           0x00000000        0x0 c:/program files/microchip/xc32/v4.00/bin/bin/../../lib/gcc/pic32c/8.3.1/../../../../pic32c/lib/thumb/v7e-m+fp/hard\libg-musl.a(__secs_to_tm.o)
 .xc_stack_usage
                0x00000000       0x1a c:/program files/microchip/xc32/v4.00/bin/bin/../../lib/gcc/pic32c/8.3.1/../../../../pic32c/lib/thumb/v7e-m+fp/hard\libg-musl.a(__secs_to_tm.o)
 .text.__secs_to_tm
                0x00000000      0x1c8 c:/program files/microchip/xc32/v4.00/bin/bin/../../lib/gcc/pic32c/8.3.1/../../../../pic32c/lib/thumb/v7e-m+fp/hard\libg-musl.a(__secs_to_tm.o)
 .rodata        0x00000000        0xc c:/program files/microchip/xc32/v4.00/bin/bin/../../lib/gcc/pic32c/8.3.1/../../../../pic32c/lib/thumb/v7e-m+fp/hard\libg-musl.a(__secs_to_tm.o)
 .xc_stack_usage.hdr
                0x00000000        0xe c:/program files/microchip/xc32/v4.00/bin/bin/../../lib/gcc/pic32c/8.3.1/../../../../pic32c/lib/thumb/v7e-m+fp/hard\libg-musl.a(__secs_to_tm.o)
 .debug_info    0x00000000      0x5b0 c:/program files/microchip/xc32/v4.00/bin/bin/../../lib/gcc/pic32c/8.3.1/../../../../pic32c/lib/thumb/v7e-m+fp/hard\libg-musl.a(__secs_to_tm.o)
 .debug_abbrev  0x00000000       0xcf c:/program files/microchip/xc32/v4.00/bin/bin/../../lib/gcc/pic32c/8.3.1/../../../../pic32c/lib/thumb/v7e-m+fp/hard\libg-musl.a(__secs_to_tm.o)
 .debug_loc     0x00000000      0x301 c:/program files/microchip/xc32/v4.00/bin/bin/../../lib/gcc/pic32c/8.3.1/../../../../pic32c/lib/thumb/v7e-m+fp/hard\libg-musl.a(__secs_to_tm.o)
 .debug_aranges
                0x00000000       0x20 c:/program files/microchip/xc32/v4.00/bin/bin/../../lib/gcc/pic32c/8.3.1/../../../../pic32c/lib/thumb/v7e-m+fp/hard\libg-musl.a(__secs_to_tm.o)
 .debug_ranges  0x00000000       0x10 c:/program files/microchip/xc32/v4.00/bin/bin/../../lib/gcc/pic32c/8.3.1/../../../../pic32c/lib/thumb/v7e-m+fp/hard\libg-musl.a(__secs_to_tm.o)
 .debug_line    0x00000000      0x2f0 c:/program files/microchip/xc32/v4.00/bin/bin/../../lib/gcc/pic32c/8.3.1/../../../../pic32c/lib/thumb/v7e-m+fp/hard\libg-musl.a(__secs_to_tm.o)
 .debug_str     0x00000000        0x0 c:/program files/microchip/xc32/v4.00/bin/bin/../../lib/gcc/pic32c/8.3.1/../../../../pic32c/lib/thumb/v7e-m+fp/hard\libg-musl.a(__secs_to_tm.o)
 .comment       0x00000000       0x54 c:/program files/microchip/xc32/v4.00/bin/bin/../../lib/gcc/pic32c/8.3.1/../../../../pic32c/lib/thumb/v7e-m+fp/hard\libg-musl.a(__secs_to_tm.o)
 .note.GNU-stack
                0x00000000        0x0 c:/program files/microchip/xc32/v4.00/bin/bin/../../lib/gcc/pic32c/8.3.1/../../../../pic32c/lib/thumb/v7e-m+fp/hard\libg-musl.a(__secs_to_tm.o)
 .debug_frame   0x00000000       0x38 c:/program files/microchip/xc32/v4.00/bin/bin/../../lib/gcc/pic32c/8.3.1/../../../../pic32c/lib/thumb/v7e-m+fp/hard\libg-musl.a(__secs_to_tm.o)
 .ARM.attributes
                0x00000000       0x36 c:/program files/microchip/xc32/v4.00/bin/bin/../../lib/gcc/pic32c/8.3.1/../../../../pic32c/lib/thumb/v7e-m+fp/hard\libg-musl.a(__secs_to_tm.o)
 .text          0x00000000        0x0 c:/program files/microchip/xc32/v4.00/bin/bin/../../lib/gcc/pic32c/8.3.1/../../../../pic32c/lib/thumb/v7e-m+fp/hard\libg-musl.a(__year_to_secs.o)
 .data          0x00000000        0x0 c:/program files/microchip/xc32/v4.00/bin/bin/../../lib/gcc/pic32c/8.3.1/../../../../pic32c/lib/thumb/v7e-m+fp/hard\libg-musl.a(__year_to_secs.o)
 .bss           0x00000000        0x0 c:/program files/microchip/xc32/v4.00/bin/bin/../../lib/gcc/pic32c/8.3.1/../../../../pic32c/lib/thumb/v7e-m+fp/hard\libg-musl.a(__year_to_secs.o)
 .xc_stack_usage
                0x00000000       0x1c c:/program files/microchip/xc32/v4.00/bin/bin/../../lib/gcc/pic32c/8.3.1/../../../../pic32c/lib/thumb/v7e-m+fp/hard\libg-musl.a(__year_to_secs.o)
 .text.__year_to_secs
                0x00000000       0xe8 c:/program files/microchip/xc32/v4.00/bin/bin/../../lib/gcc/pic32c/8.3.1/../../../../pic32c/lib/thumb/v7e-m+fp/hard\libg-musl.a(__year_to_secs.o)
 .xc_stack_usage.hdr
                0x00000000        0xe c:/program files/microchip/xc32/v4.00/bin/bin/../../lib/gcc/pic32c/8.3.1/../../../../pic32c/lib/thumb/v7e-m+fp/hard\libg-musl.a(__year_to_secs.o)
 .debug_info    0x00000000      0x360 c:/program files/microchip/xc32/v4.00/bin/bin/../../lib/gcc/pic32c/8.3.1/../../../../pic32c/lib/thumb/v7e-m+fp/hard\libg-musl.a(__year_to_secs.o)
 .debug_abbrev  0x00000000       0x77 c:/program files/microchip/xc32/v4.00/bin/bin/../../lib/gcc/pic32c/8.3.1/../../../../pic32c/lib/thumb/v7e-m+fp/hard\libg-musl.a(__year_to_secs.o)
 .debug_loc     0x00000000      0x261 c:/program files/microchip/xc32/v4.00/bin/bin/../../lib/gcc/pic32c/8.3.1/../../../../pic32c/lib/thumb/v7e-m+fp/hard\libg-musl.a(__year_to_secs.o)
 .debug_aranges
                0x00000000       0x20 c:/program files/microchip/xc32/v4.00/bin/bin/../../lib/gcc/pic32c/8.3.1/../../../../pic32c/lib/thumb/v7e-m+fp/hard\libg-musl.a(__year_to_secs.o)
 .debug_ranges  0x00000000       0x28 c:/program files/microchip/xc32/v4.00/bin/bin/../../lib/gcc/pic32c/8.3.1/../../../../pic32c/lib/thumb/v7e-m+fp/hard\libg-musl.a(__year_to_secs.o)
 .debug_line    0x00000000      0x1f4 c:/program files/microchip/xc32/v4.00/bin/bin/../../lib/gcc/pic32c/8.3.1/../../../../pic32c/lib/thumb/v7e-m+fp/hard\libg-musl.a(__year_to_secs.o)
 .debug_str     0x00000000        0x0 c:/program files/microchip/xc32/v4.00/bin/bin/../../lib/gcc/pic32c/8.3.1/../../../../pic32c/lib/thumb/v7e-m+fp/hard\libg-musl.a(__year_to_secs.o)
 .comment       0x00000000       0x54 c:/program files/microchip/xc32/v4.00/bin/bin/../../lib/gcc/pic32c/8.3.1/../../../../pic32c/lib/thumb/v7e-m+fp/hard\libg-musl.a(__year_to_secs.o)
 .note.GNU-stack
                0x00000000        0x0 c:/program files/microchip/xc32/v4.00/bin/bin/../../lib/gcc/pic32c/8.3.1/../../../../pic32c/lib/thumb/v7e-m+fp/hard\libg-musl.a(__year_to_secs.o)
 .debug_frame   0x00000000       0x3c c:/program files/microchip/xc32/v4.00/bin/bin/../../lib/gcc/pic32c/8.3.1/../../../../pic32c/lib/thumb/v7e-m+fp/hard\libg-musl.a(__year_to_secs.o)
 .ARM.attributes
                0x00000000       0x36 c:/program files/microchip/xc32/v4.00/bin/bin/../../lib/gcc/pic32c/8.3.1/../../../../pic32c/lib/thumb/v7e-m+fp/hard\libg-musl.a(__year_to_secs.o)
 .text          0x00000000        0x0 c:/program files/microchip/xc32/v4.00/bin/bin/../../lib/gcc/pic32c/8.3.1/../../../../pic32c/lib/thumb/v7e-m+fp/hard\libg-musl.a(clock_gettime.o)
 .data          0x00000000        0x0 c:/program files/microchip/xc32/v4.00/bin/bin/../../lib/gcc/pic32c/8.3.1/../../../../pic32c/lib/thumb/v7e-m+fp/hard\libg-musl.a(clock_gettime.o)
 .bss           0x00000000        0x0 c:/program files/microchip/xc32/v4.00/bin/bin/../../lib/gcc/pic32c/8.3.1/../../../../pic32c/lib/thumb/v7e-m+fp/hard\libg-musl.a(clock_gettime.o)
 .xc_stack_usage
                0x00000000       0x1d c:/program files/microchip/xc32/v4.00/bin/bin/../../lib/gcc/pic32c/8.3.1/../../../../pic32c/lib/thumb/v7e-m+fp/hard\libg-musl.a(clock_gettime.o)
 .text.__clock_gettime
                0x00000000       0x2c c:/program files/microchip/xc32/v4.00/bin/bin/../../lib/gcc/pic32c/8.3.1/../../../../pic32c/lib/thumb/v7e-m+fp/hard\libg-musl.a(clock_gettime.o)
 .xc_stack_usage.hdr
                0x00000000        0xe c:/program files/microchip/xc32/v4.00/bin/bin/../../lib/gcc/pic32c/8.3.1/../../../../pic32c/lib/thumb/v7e-m+fp/hard\libg-musl.a(clock_gettime.o)
 .debug_info    0x00000000      0x81e c:/program files/microchip/xc32/v4.00/bin/bin/../../lib/gcc/pic32c/8.3.1/../../../../pic32c/lib/thumb/v7e-m+fp/hard\libg-musl.a(clock_gettime.o)
 .debug_abbrev  0x00000000      0x1a5 c:/program files/microchip/xc32/v4.00/bin/bin/../../lib/gcc/pic32c/8.3.1/../../../../pic32c/lib/thumb/v7e-m+fp/hard\libg-musl.a(clock_gettime.o)
 .debug_loc     0x00000000       0xe6 c:/program files/microchip/xc32/v4.00/bin/bin/../../lib/gcc/pic32c/8.3.1/../../../../pic32c/lib/thumb/v7e-m+fp/hard\libg-musl.a(clock_gettime.o)
 .debug_aranges
                0x00000000       0x20 c:/program files/microchip/xc32/v4.00/bin/bin/../../lib/gcc/pic32c/8.3.1/../../../../pic32c/lib/thumb/v7e-m+fp/hard\libg-musl.a(clock_gettime.o)
 .debug_ranges  0x00000000       0x10 c:/program files/microchip/xc32/v4.00/bin/bin/../../lib/gcc/pic32c/8.3.1/../../../../pic32c/lib/thumb/v7e-m+fp/hard\libg-musl.a(clock_gettime.o)
 .debug_line    0x00000000      0x303 c:/program files/microchip/xc32/v4.00/bin/bin/../../lib/gcc/pic32c/8.3.1/../../../../pic32c/lib/thumb/v7e-m+fp/hard\libg-musl.a(clock_gettime.o)
 .debug_str     0x00000000       0x1b c:/program files/microchip/xc32/v4.00/bin/bin/../../lib/gcc/pic32c/8.3.1/../../../../pic32c/lib/thumb/v7e-m+fp/hard\libg-musl.a(clock_gettime.o)
 .comment       0x00000000       0x54 c:/program files/microchip/xc32/v4.00/bin/bin/../../lib/gcc/pic32c/8.3.1/../../../../pic32c/lib/thumb/v7e-m+fp/hard\libg-musl.a(clock_gettime.o)
 .note.GNU-stack
                0x00000000        0x0 c:/program files/microchip/xc32/v4.00/bin/bin/../../lib/gcc/pic32c/8.3.1/../../../../pic32c/lib/thumb/v7e-m+fp/hard\libg-musl.a(clock_gettime.o)
 .debug_frame   0x00000000       0x30 c:/program files/microchip/xc32/v4.00/bin/bin/../../lib/gcc/pic32c/8.3.1/../../../../pic32c/lib/thumb/v7e-m+fp/hard\libg-musl.a(clock_gettime.o)
 .ARM.attributes
                0x00000000       0x36 c:/program files/microchip/xc32/v4.00/bin/bin/../../lib/gcc/pic32c/8.3.1/../../../../pic32c/lib/thumb/v7e-m+fp/hard\libg-musl.a(clock_gettime.o)
 .text          0x00000000        0x0 c:/program files/microchip/xc32/v4.00/bin/bin/../../lib/gcc/pic32c/8.3.1/../../../../pic32c/lib/thumb/v7e-m+fp/hard\libg-musl.a(gettimeofday.o)
 .data          0x00000000        0x0 c:/program files/microchip/xc32/v4.00/bin/bin/../../lib/gcc/pic32c/8.3.1/../../../../pic32c/lib/thumb/v7e-m+fp/hard\libg-musl.a(gettimeofday.o)
 .bss           0x00000000        0x0 c:/program files/microchip/xc32/v4.00/bin/bin/../../lib/gcc/pic32c/8.3.1/../../../../pic32c/lib/thumb/v7e-m+fp/hard\libg-musl.a(gettimeofday.o)
 .xc_stack_usage
                0x00000000       0x1c c:/program files/microchip/xc32/v4.00/bin/bin/../../lib/gcc/pic32c/8.3.1/../../../../pic32c/lib/thumb/v7e-m+fp/hard\libg-musl.a(gettimeofday.o)
 .text.__gettimeofday
                0x00000000        0x6 c:/program files/microchip/xc32/v4.00/bin/bin/../../lib/gcc/pic32c/8.3.1/../../../../pic32c/lib/thumb/v7e-m+fp/hard\libg-musl.a(gettimeofday.o)
 .xc_stack_usage.hdr
                0x00000000        0xe c:/program files/microchip/xc32/v4.00/bin/bin/../../lib/gcc/pic32c/8.3.1/../../../../pic32c/lib/thumb/v7e-m+fp/hard\libg-musl.a(gettimeofday.o)
 .debug_info    0x00000000      0x684 c:/program files/microchip/xc32/v4.00/bin/bin/../../lib/gcc/pic32c/8.3.1/../../../../pic32c/lib/thumb/v7e-m+fp/hard\libg-musl.a(gettimeofday.o)
 .debug_abbrev  0x00000000      0x110 c:/program files/microchip/xc32/v4.00/bin/bin/../../lib/gcc/pic32c/8.3.1/../../../../pic32c/lib/thumb/v7e-m+fp/hard\libg-musl.a(gettimeofday.o)
 .debug_loc     0x00000000       0x25 c:/program files/microchip/xc32/v4.00/bin/bin/../../lib/gcc/pic32c/8.3.1/../../../../pic32c/lib/thumb/v7e-m+fp/hard\libg-musl.a(gettimeofday.o)
 .debug_aranges
                0x00000000       0x20 c:/program files/microchip/xc32/v4.00/bin/bin/../../lib/gcc/pic32c/8.3.1/../../../../pic32c/lib/thumb/v7e-m+fp/hard\libg-musl.a(gettimeofday.o)
 .debug_ranges  0x00000000       0x10 c:/program files/microchip/xc32/v4.00/bin/bin/../../lib/gcc/pic32c/8.3.1/../../../../pic32c/lib/thumb/v7e-m+fp/hard\libg-musl.a(gettimeofday.o)
 .debug_line    0x00000000      0x231 c:/program files/microchip/xc32/v4.00/bin/bin/../../lib/gcc/pic32c/8.3.1/../../../../pic32c/lib/thumb/v7e-m+fp/hard\libg-musl.a(gettimeofday.o)
 .debug_str     0x00000000        0x0 c:/program files/microchip/xc32/v4.00/bin/bin/../../lib/gcc/pic32c/8.3.1/../../../../pic32c/lib/thumb/v7e-m+fp/hard\libg-musl.a(gettimeofday.o)
 .comment       0x00000000       0x54 c:/program files/microchip/xc32/v4.00/bin/bin/../../lib/gcc/pic32c/8.3.1/../../../../pic32c/lib/thumb/v7e-m+fp/hard\libg-musl.a(gettimeofday.o)
 .note.GNU-stack
                0x00000000        0x0 c:/program files/microchip/xc32/v4.00/bin/bin/../../lib/gcc/pic32c/8.3.1/../../../../pic32c/lib/thumb/v7e-m+fp/hard\libg-musl.a(gettimeofday.o)
 .debug_frame   0x00000000       0x20 c:/program files/microchip/xc32/v4.00/bin/bin/../../lib/gcc/pic32c/8.3.1/../../../../pic32c/lib/thumb/v7e-m+fp/hard\libg-musl.a(gettimeofday.o)
 .ARM.attributes
                0x00000000       0x36 c:/program files/microchip/xc32/v4.00/bin/bin/../../lib/gcc/pic32c/8.3.1/../../../../pic32c/lib/thumb/v7e-m+fp/hard\libg-musl.a(gettimeofday.o)
 .text          0x00000000        0x0 c:/program files/microchip/xc32/v4.00/bin/bin/../../lib/gcc/pic32c/8.3.1/../../../../pic32c/lib/thumb/v7e-m+fp/hard\libg-musl.a(syscall_ret.o)
 .data          0x00000000        0x0 c:/program files/microchip/xc32/v4.00/bin/bin/../../lib/gcc/pic32c/8.3.1/../../../../pic32c/lib/thumb/v7e-m+fp/hard\libg-musl.a(syscall_ret.o)
 .bss           0x00000000        0x0 c:/program files/microchip/xc32/v4.00/bin/bin/../../lib/gcc/pic32c/8.3.1/../../../../pic32c/lib/thumb/v7e-m+fp/hard\libg-musl.a(syscall_ret.o)
 .xc_stack_usage
                0x00000000       0x1b c:/program files/microchip/xc32/v4.00/bin/bin/../../lib/gcc/pic32c/8.3.1/../../../../pic32c/lib/thumb/v7e-m+fp/hard\libg-musl.a(syscall_ret.o)
 .text.__syscall_ret
                0x00000000       0x18 c:/program files/microchip/xc32/v4.00/bin/bin/../../lib/gcc/pic32c/8.3.1/../../../../pic32c/lib/thumb/v7e-m+fp/hard\libg-musl.a(syscall_ret.o)
 .xc_stack_usage.hdr
                0x00000000        0xe c:/program files/microchip/xc32/v4.00/bin/bin/../../lib/gcc/pic32c/8.3.1/../../../../pic32c/lib/thumb/v7e-m+fp/hard\libg-musl.a(syscall_ret.o)
 .debug_info    0x00000000      0x5d1 c:/program files/microchip/xc32/v4.00/bin/bin/../../lib/gcc/pic32c/8.3.1/../../../../pic32c/lib/thumb/v7e-m+fp/hard\libg-musl.a(syscall_ret.o)
 .debug_abbrev  0x00000000       0xdf c:/program files/microchip/xc32/v4.00/bin/bin/../../lib/gcc/pic32c/8.3.1/../../../../pic32c/lib/thumb/v7e-m+fp/hard\libg-musl.a(syscall_ret.o)
 .debug_loc     0x00000000       0x25 c:/program files/microchip/xc32/v4.00/bin/bin/../../lib/gcc/pic32c/8.3.1/../../../../pic32c/lib/thumb/v7e-m+fp/hard\libg-musl.a(syscall_ret.o)
 .debug_aranges
                0x00000000       0x20 c:/program files/microchip/xc32/v4.00/bin/bin/../../lib/gcc/pic32c/8.3.1/../../../../pic32c/lib/thumb/v7e-m+fp/hard\libg-musl.a(syscall_ret.o)
 .debug_ranges  0x00000000       0x10 c:/program files/microchip/xc32/v4.00/bin/bin/../../lib/gcc/pic32c/8.3.1/../../../../pic32c/lib/thumb/v7e-m+fp/hard\libg-musl.a(syscall_ret.o)
 .debug_line    0x00000000      0x1e7 c:/program files/microchip/xc32/v4.00/bin/bin/../../lib/gcc/pic32c/8.3.1/../../../../pic32c/lib/thumb/v7e-m+fp/hard\libg-musl.a(syscall_ret.o)
 .debug_str     0x00000000        0x0 c:/program files/microchip/xc32/v4.00/bin/bin/../../lib/gcc/pic32c/8.3.1/../../../../pic32c/lib/thumb/v7e-m+fp/hard\libg-musl.a(syscall_ret.o)
 .comment       0x00000000       0x54 c:/program files/microchip/xc32/v4.00/bin/bin/../../lib/gcc/pic32c/8.3.1/../../../../pic32c/lib/thumb/v7e-m+fp/hard\libg-musl.a(syscall_ret.o)
 .note.GNU-stack
                0x00000000        0x0 c:/program files/microchip/xc32/v4.00/bin/bin/../../lib/gcc/pic32c/8.3.1/../../../../pic32c/lib/thumb/v7e-m+fp/hard\libg-musl.a(syscall_ret.o)
 .debug_frame   0x00000000       0x20 c:/program files/microchip/xc32/v4.00/bin/bin/../../lib/gcc/pic32c/8.3.1/../../../../pic32c/lib/thumb/v7e-m+fp/hard\libg-musl.a(syscall_ret.o)
 .ARM.attributes
                0x00000000       0x36 c:/program files/microchip/xc32/v4.00/bin/bin/../../lib/gcc/pic32c/8.3.1/../../../../pic32c/lib/thumb/v7e-m+fp/hard\libg-musl.a(syscall_ret.o)
 .text          0x00000000        0x0 c:/program files/microchip/xc32/v4.00/bin/bin/../../lib/gcc/pic32c/8.3.1/../../../../pic32c/lib/thumb/v7e-m+fp/hard\libg-musl.a(__toread.o)
 .data          0x00000000        0x0 c:/program files/microchip/xc32/v4.00/bin/bin/../../lib/gcc/pic32c/8.3.1/../../../../pic32c/lib/thumb/v7e-m+fp/hard\libg-musl.a(__toread.o)
 .bss           0x00000000        0x0 c:/program files/microchip/xc32/v4.00/bin/bin/../../lib/gcc/pic32c/8.3.1/../../../../pic32c/lib/thumb/v7e-m+fp/hard\libg-musl.a(__toread.o)
 .xc_stack_usage
                0x00000000       0x3d c:/program files/microchip/xc32/v4.00/bin/bin/../../lib/gcc/pic32c/8.3.1/../../../../pic32c/lib/thumb/v7e-m+fp/hard\libg-musl.a(__toread.o)
 .text.__toread
                0x00000000       0x4a c:/program files/microchip/xc32/v4.00/bin/bin/../../lib/gcc/pic32c/8.3.1/../../../../pic32c/lib/thumb/v7e-m+fp/hard\libg-musl.a(__toread.o)
 .text.__toread_needs_stdio_exit
                0x00000000        0x4 c:/program files/microchip/xc32/v4.00/bin/bin/../../lib/gcc/pic32c/8.3.1/../../../../pic32c/lib/thumb/v7e-m+fp/hard\libg-musl.a(__toread.o)
 .xc_stack_usage.hdr
                0x00000000        0xe c:/program files/microchip/xc32/v4.00/bin/bin/../../lib/gcc/pic32c/8.3.1/../../../../pic32c/lib/thumb/v7e-m+fp/hard\libg-musl.a(__toread.o)
 .debug_info    0x00000000      0x8ba c:/program files/microchip/xc32/v4.00/bin/bin/../../lib/gcc/pic32c/8.3.1/../../../../pic32c/lib/thumb/v7e-m+fp/hard\libg-musl.a(__toread.o)
 .debug_abbrev  0x00000000      0x142 c:/program files/microchip/xc32/v4.00/bin/bin/../../lib/gcc/pic32c/8.3.1/../../../../pic32c/lib/thumb/v7e-m+fp/hard\libg-musl.a(__toread.o)
 .debug_loc     0x00000000       0x42 c:/program files/microchip/xc32/v4.00/bin/bin/../../lib/gcc/pic32c/8.3.1/../../../../pic32c/lib/thumb/v7e-m+fp/hard\libg-musl.a(__toread.o)
 .debug_aranges
                0x00000000       0x28 c:/program files/microchip/xc32/v4.00/bin/bin/../../lib/gcc/pic32c/8.3.1/../../../../pic32c/lib/thumb/v7e-m+fp/hard\libg-musl.a(__toread.o)
 .debug_ranges  0x00000000       0x18 c:/program files/microchip/xc32/v4.00/bin/bin/../../lib/gcc/pic32c/8.3.1/../../../../pic32c/lib/thumb/v7e-m+fp/hard\libg-musl.a(__toread.o)
 .debug_line    0x00000000      0x231 c:/program files/microchip/xc32/v4.00/bin/bin/../../lib/gcc/pic32c/8.3.1/../../../../pic32c/lib/thumb/v7e-m+fp/hard\libg-musl.a(__toread.o)
 .debug_str     0x00000000       0x14 c:/program files/microchip/xc32/v4.00/bin/bin/../../lib/gcc/pic32c/8.3.1/../../../../pic32c/lib/thumb/v7e-m+fp/hard\libg-musl.a(__toread.o)
 .comment       0x00000000       0x54 c:/program files/microchip/xc32/v4.00/bin/bin/../../lib/gcc/pic32c/8.3.1/../../../../pic32c/lib/thumb/v7e-m+fp/hard\libg-musl.a(__toread.o)
 .note.GNU-stack
                0x00000000        0x0 c:/program files/microchip/xc32/v4.00/bin/bin/../../lib/gcc/pic32c/8.3.1/../../../../pic32c/lib/thumb/v7e-m+fp/hard\libg-musl.a(__toread.o)
 .debug_frame   0x00000000       0x38 c:/program files/microchip/xc32/v4.00/bin/bin/../../lib/gcc/pic32c/8.3.1/../../../../pic32c/lib/thumb/v7e-m+fp/hard\libg-musl.a(__toread.o)
 .ARM.attributes
                0x00000000       0x36 c:/program files/microchip/xc32/v4.00/bin/bin/../../lib/gcc/pic32c/8.3.1/../../../../pic32c/lib/thumb/v7e-m+fp/hard\libg-musl.a(__toread.o)
 .text          0x00000000        0x0 c:/program files/microchip/xc32/v4.00/bin/bin/../../lib/gcc/pic32c/8.3.1/../../../../pic32c/lib/thumb/v7e-m+fp/hard\libg-musl.a(__io_fmt_needed.o)
 .data          0x00000000        0x0 c:/program files/microchip/xc32/v4.00/bin/bin/../../lib/gcc/pic32c/8.3.1/../../../../pic32c/lib/thumb/v7e-m+fp/hard\libg-musl.a(__io_fmt_needed.o)
 .bss           0x00000000        0x0 c:/program files/microchip/xc32/v4.00/bin/bin/../../lib/gcc/pic32c/8.3.1/../../../../pic32c/lib/thumb/v7e-m+fp/hard\libg-musl.a(__io_fmt_needed.o)
 .xc_stack_usage
                0x00000000       0x1d c:/program files/microchip/xc32/v4.00/bin/bin/../../lib/gcc/pic32c/8.3.1/../../../../pic32c/lib/thumb/v7e-m+fp/hard\libg-musl.a(__io_fmt_needed.o)
 .xc_stack_usage.hdr
                0x00000000        0xe c:/program files/microchip/xc32/v4.00/bin/bin/../../lib/gcc/pic32c/8.3.1/../../../../pic32c/lib/thumb/v7e-m+fp/hard\libg-musl.a(__io_fmt_needed.o)
 .debug_info    0x00000000      0x8fb c:/program files/microchip/xc32/v4.00/bin/bin/../../lib/gcc/pic32c/8.3.1/../../../../pic32c/lib/thumb/v7e-m+fp/hard\libg-musl.a(__io_fmt_needed.o)
 .debug_abbrev  0x00000000      0x108 c:/program files/microchip/xc32/v4.00/bin/bin/../../lib/gcc/pic32c/8.3.1/../../../../pic32c/lib/thumb/v7e-m+fp/hard\libg-musl.a(__io_fmt_needed.o)
 .debug_loc     0x00000000       0x2c c:/program files/microchip/xc32/v4.00/bin/bin/../../lib/gcc/pic32c/8.3.1/../../../../pic32c/lib/thumb/v7e-m+fp/hard\libg-musl.a(__io_fmt_needed.o)
 .debug_aranges
                0x00000000       0x20 c:/program files/microchip/xc32/v4.00/bin/bin/../../lib/gcc/pic32c/8.3.1/../../../../pic32c/lib/thumb/v7e-m+fp/hard\libg-musl.a(__io_fmt_needed.o)
 .debug_ranges  0x00000000       0x10 c:/program files/microchip/xc32/v4.00/bin/bin/../../lib/gcc/pic32c/8.3.1/../../../../pic32c/lib/thumb/v7e-m+fp/hard\libg-musl.a(__io_fmt_needed.o)
 .debug_line    0x00000000      0x1e5 c:/program files/microchip/xc32/v4.00/bin/bin/../../lib/gcc/pic32c/8.3.1/../../../../pic32c/lib/thumb/v7e-m+fp/hard\libg-musl.a(__io_fmt_needed.o)
 .debug_str     0x00000000       0x69 c:/program files/microchip/xc32/v4.00/bin/bin/../../lib/gcc/pic32c/8.3.1/../../../../pic32c/lib/thumb/v7e-m+fp/hard\libg-musl.a(__io_fmt_needed.o)
 .comment       0x00000000       0x54 c:/program files/microchip/xc32/v4.00/bin/bin/../../lib/gcc/pic32c/8.3.1/../../../../pic32c/lib/thumb/v7e-m+fp/hard\libg-musl.a(__io_fmt_needed.o)
 .note.GNU-stack
                0x00000000        0x0 c:/program files/microchip/xc32/v4.00/bin/bin/../../lib/gcc/pic32c/8.3.1/../../../../pic32c/lib/thumb/v7e-m+fp/hard\libg-musl.a(__io_fmt_needed.o)
 .debug_frame   0x00000000       0x2c c:/program files/microchip/xc32/v4.00/bin/bin/../../lib/gcc/pic32c/8.3.1/../../../../pic32c/lib/thumb/v7e-m+fp/hard\libg-musl.a(__io_fmt_needed.o)
 .ARM.attributes
                0x00000000       0x36 c:/program files/microchip/xc32/v4.00/bin/bin/../../lib/gcc/pic32c/8.3.1/../../../../pic32c/lib/thumb/v7e-m+fp/hard\libg-musl.a(__io_fmt_needed.o)
 .text          0x00000000        0x0 c:/program files/microchip/xc32/v4.00/bin/bin/../../lib/gcc/pic32c/8.3.1/../../../../pic32c/lib/thumb/v7e-m+fp/hard\libg-musl.a(__printf_core.o)
 .data          0x00000000        0x0 c:/program files/microchip/xc32/v4.00/bin/bin/../../lib/gcc/pic32c/8.3.1/../../../../pic32c/lib/thumb/v7e-m+fp/hard\libg-musl.a(__printf_core.o)
 .bss           0x00000000        0x0 c:/program files/microchip/xc32/v4.00/bin/bin/../../lib/gcc/pic32c/8.3.1/../../../../pic32c/lib/thumb/v7e-m+fp/hard\libg-musl.a(__printf_core.o)
 .xc_stack_usage
                0x00000000       0xaf c:/program files/microchip/xc32/v4.00/bin/bin/../../lib/gcc/pic32c/8.3.1/../../../../pic32c/lib/thumb/v7e-m+fp/hard\libg-musl.a(__printf_core.o)
 .text.__dummy_fmt3
                0x00000000        0x4 c:/program files/microchip/xc32/v4.00/bin/bin/../../lib/gcc/pic32c/8.3.1/../../../../pic32c/lib/thumb/v7e-m+fp/hard\libg-musl.a(__printf_core.o)
 .text.__dummy_fmt4
                0x00000000        0x4 c:/program files/microchip/xc32/v4.00/bin/bin/../../lib/gcc/pic32c/8.3.1/../../../../pic32c/lib/thumb/v7e-m+fp/hard\libg-musl.a(__printf_core.o)
 .text.__dummy_fmts
                0x00000000        0x4 c:/program files/microchip/xc32/v4.00/bin/bin/../../lib/gcc/pic32c/8.3.1/../../../../pic32c/lib/thumb/v7e-m+fp/hard\libg-musl.a(__printf_core.o)
 .xc_stack_usage.hdr
                0x00000000        0xe c:/program files/microchip/xc32/v4.00/bin/bin/../../lib/gcc/pic32c/8.3.1/../../../../pic32c/lib/thumb/v7e-m+fp/hard\libg-musl.a(__printf_core.o)
 .text          0x00000000        0x0 c:/program files/microchip/xc32/v4.00/bin/bin/../../lib/gcc/pic32c/8.3.1/../../../../pic32c/lib/thumb/v7e-m+fp/hard\libg-musl.a(__stdio_exit.o)
 .data          0x00000000        0x0 c:/program files/microchip/xc32/v4.00/bin/bin/../../lib/gcc/pic32c/8.3.1/../../../../pic32c/lib/thumb/v7e-m+fp/hard\libg-musl.a(__stdio_exit.o)
 .bss           0x00000000        0x4 c:/program files/microchip/xc32/v4.00/bin/bin/../../lib/gcc/pic32c/8.3.1/../../../../pic32c/lib/thumb/v7e-m+fp/hard\libg-musl.a(__stdio_exit.o)
 .xc_stack_usage
                0x00000000       0x45 c:/program files/microchip/xc32/v4.00/bin/bin/../../lib/gcc/pic32c/8.3.1/../../../../pic32c/lib/thumb/v7e-m+fp/hard\libg-musl.a(__stdio_exit.o)
 .text.__dummy  0x00000000        0x2 c:/program files/microchip/xc32/v4.00/bin/bin/../../lib/gcc/pic32c/8.3.1/../../../../pic32c/lib/thumb/v7e-m+fp/hard\libg-musl.a(__stdio_exit.o)
 .text.__dummy1
                0x00000000        0x4 c:/program files/microchip/xc32/v4.00/bin/bin/../../lib/gcc/pic32c/8.3.1/../../../../pic32c/lib/thumb/v7e-m+fp/hard\libg-musl.a(__stdio_exit.o)
 .text.__stdio_exit
                0x00000000       0x34 c:/program files/microchip/xc32/v4.00/bin/bin/../../lib/gcc/pic32c/8.3.1/../../../../pic32c/lib/thumb/v7e-m+fp/hard\libg-musl.a(__stdio_exit.o)
 .xc_stack_usage.hdr
                0x00000000        0xe c:/program files/microchip/xc32/v4.00/bin/bin/../../lib/gcc/pic32c/8.3.1/../../../../pic32c/lib/thumb/v7e-m+fp/hard\libg-musl.a(__stdio_exit.o)
 .debug_info    0x00000000      0x87d c:/program files/microchip/xc32/v4.00/bin/bin/../../lib/gcc/pic32c/8.3.1/../../../../pic32c/lib/thumb/v7e-m+fp/hard\libg-musl.a(__stdio_exit.o)
 .debug_abbrev  0x00000000      0x18c c:/program files/microchip/xc32/v4.00/bin/bin/../../lib/gcc/pic32c/8.3.1/../../../../pic32c/lib/thumb/v7e-m+fp/hard\libg-musl.a(__stdio_exit.o)
 .debug_loc     0x00000000       0x45 c:/program files/microchip/xc32/v4.00/bin/bin/../../lib/gcc/pic32c/8.3.1/../../../../pic32c/lib/thumb/v7e-m+fp/hard\libg-musl.a(__stdio_exit.o)
 .debug_aranges
                0x00000000       0x30 c:/program files/microchip/xc32/v4.00/bin/bin/../../lib/gcc/pic32c/8.3.1/../../../../pic32c/lib/thumb/v7e-m+fp/hard\libg-musl.a(__stdio_exit.o)
 .debug_ranges  0x00000000       0x20 c:/program files/microchip/xc32/v4.00/bin/bin/../../lib/gcc/pic32c/8.3.1/../../../../pic32c/lib/thumb/v7e-m+fp/hard\libg-musl.a(__stdio_exit.o)
 .debug_line    0x00000000      0x20a c:/program files/microchip/xc32/v4.00/bin/bin/../../lib/gcc/pic32c/8.3.1/../../../../pic32c/lib/thumb/v7e-m+fp/hard\libg-musl.a(__stdio_exit.o)
 .debug_str     0x00000000        0x0 c:/program files/microchip/xc32/v4.00/bin/bin/../../lib/gcc/pic32c/8.3.1/../../../../pic32c/lib/thumb/v7e-m+fp/hard\libg-musl.a(__stdio_exit.o)
 .comment       0x00000000       0x54 c:/program files/microchip/xc32/v4.00/bin/bin/../../lib/gcc/pic32c/8.3.1/../../../../pic32c/lib/thumb/v7e-m+fp/hard\libg-musl.a(__stdio_exit.o)
 .note.GNU-stack
                0x00000000        0x0 c:/program files/microchip/xc32/v4.00/bin/bin/../../lib/gcc/pic32c/8.3.1/../../../../pic32c/lib/thumb/v7e-m+fp/hard\libg-musl.a(__stdio_exit.o)
 .debug_frame   0x00000000       0x48 c:/program files/microchip/xc32/v4.00/bin/bin/../../lib/gcc/pic32c/8.3.1/../../../../pic32c/lib/thumb/v7e-m+fp/hard\libg-musl.a(__stdio_exit.o)
 .ARM.attributes
                0x00000000       0x36 c:/program files/microchip/xc32/v4.00/bin/bin/../../lib/gcc/pic32c/8.3.1/../../../../pic32c/lib/thumb/v7e-m+fp/hard\libg-musl.a(__stdio_exit.o)
 .text          0x00000000        0x0 c:/program files/microchip/xc32/v4.00/bin/bin/../../lib/gcc/pic32c/8.3.1/../../../../pic32c/lib/thumb/v7e-m+fp/hard\libg-musl.a(__fmt_a.o)
 .data          0x00000000        0x0 c:/program files/microchip/xc32/v4.00/bin/bin/../../lib/gcc/pic32c/8.3.1/../../../../pic32c/lib/thumb/v7e-m+fp/hard\libg-musl.a(__fmt_a.o)
 .bss           0x00000000        0x0 c:/program files/microchip/xc32/v4.00/bin/bin/../../lib/gcc/pic32c/8.3.1/../../../../pic32c/lib/thumb/v7e-m+fp/hard\libg-musl.a(__fmt_a.o)
 .xc_stack_usage
                0x00000000       0x15 c:/program files/microchip/xc32/v4.00/bin/bin/../../lib/gcc/pic32c/8.3.1/../../../../pic32c/lib/thumb/v7e-m+fp/hard\libg-musl.a(__fmt_a.o)
 .xc_stack_usage.hdr
                0x00000000        0xe c:/program files/microchip/xc32/v4.00/bin/bin/../../lib/gcc/pic32c/8.3.1/../../../../pic32c/lib/thumb/v7e-m+fp/hard\libg-musl.a(__fmt_a.o)
 .text          0x00000000        0x0 c:/program files/microchip/xc32/v4.00/bin/bin/../../lib/gcc/pic32c/8.3.1/../../../../pic32c/lib/thumb/v7e-m+fp/hard\libg-musl.a(__fmt_d.o)
 .data          0x00000000        0x0 c:/program files/microchip/xc32/v4.00/bin/bin/../../lib/gcc/pic32c/8.3.1/../../../../pic32c/lib/thumb/v7e-m+fp/hard\libg-musl.a(__fmt_d.o)
 .bss           0x00000000        0x0 c:/program files/microchip/xc32/v4.00/bin/bin/../../lib/gcc/pic32c/8.3.1/../../../../pic32c/lib/thumb/v7e-m+fp/hard\libg-musl.a(__fmt_d.o)
 .xc_stack_usage
                0x00000000       0x15 c:/program files/microchip/xc32/v4.00/bin/bin/../../lib/gcc/pic32c/8.3.1/../../../../pic32c/lib/thumb/v7e-m+fp/hard\libg-musl.a(__fmt_d.o)
 .xc_stack_usage.hdr
                0x00000000        0xe c:/program files/microchip/xc32/v4.00/bin/bin/../../lib/gcc/pic32c/8.3.1/../../../../pic32c/lib/thumb/v7e-m+fp/hard\libg-musl.a(__fmt_d.o)
 .text          0x00000000        0x0 c:/program files/microchip/xc32/v4.00/bin/bin/../../lib/gcc/pic32c/8.3.1/../../../../pic32c/lib/thumb/v7e-m+fp/hard\libg-musl.a(__fmt_fp.o)
 .data          0x00000000        0x0 c:/program files/microchip/xc32/v4.00/bin/bin/../../lib/gcc/pic32c/8.3.1/../../../../pic32c/lib/thumb/v7e-m+fp/hard\libg-musl.a(__fmt_fp.o)
 .bss           0x00000000        0x0 c:/program files/microchip/xc32/v4.00/bin/bin/../../lib/gcc/pic32c/8.3.1/../../../../pic32c/lib/thumb/v7e-m+fp/hard\libg-musl.a(__fmt_fp.o)
 .xc_stack_usage
                0x00000000       0x16 c:/program files/microchip/xc32/v4.00/bin/bin/../../lib/gcc/pic32c/8.3.1/../../../../pic32c/lib/thumb/v7e-m+fp/hard\libg-musl.a(__fmt_fp.o)
 .xc_stack_usage.hdr
                0x00000000        0xe c:/program files/microchip/xc32/v4.00/bin/bin/../../lib/gcc/pic32c/8.3.1/../../../../pic32c/lib/thumb/v7e-m+fp/hard\libg-musl.a(__fmt_fp.o)
 .text          0x00000000        0x0 c:/program files/microchip/xc32/v4.00/bin/bin/../../lib/gcc/pic32c/8.3.1/../../../../pic32c/lib/thumb/v7e-m+fp/hard\libg-musl.a(__fmt_o.o)
 .data          0x00000000        0x0 c:/program files/microchip/xc32/v4.00/bin/bin/../../lib/gcc/pic32c/8.3.1/../../../../pic32c/lib/thumb/v7e-m+fp/hard\libg-musl.a(__fmt_o.o)
 .bss           0x00000000        0x0 c:/program files/microchip/xc32/v4.00/bin/bin/../../lib/gcc/pic32c/8.3.1/../../../../pic32c/lib/thumb/v7e-m+fp/hard\libg-musl.a(__fmt_o.o)
 .xc_stack_usage
                0x00000000       0x15 c:/program files/microchip/xc32/v4.00/bin/bin/../../lib/gcc/pic32c/8.3.1/../../../../pic32c/lib/thumb/v7e-m+fp/hard\libg-musl.a(__fmt_o.o)
 .xc_stack_usage.hdr
                0x00000000        0xe c:/program files/microchip/xc32/v4.00/bin/bin/../../lib/gcc/pic32c/8.3.1/../../../../pic32c/lib/thumb/v7e-m+fp/hard\libg-musl.a(__fmt_o.o)
 .text          0x00000000        0x0 c:/program files/microchip/xc32/v4.00/bin/bin/../../lib/gcc/pic32c/8.3.1/../../../../pic32c/lib/thumb/v7e-m+fp/hard\libg-musl.a(__fmt_s.o)
 .data          0x00000000        0x0 c:/program files/microchip/xc32/v4.00/bin/bin/../../lib/gcc/pic32c/8.3.1/../../../../pic32c/lib/thumb/v7e-m+fp/hard\libg-musl.a(__fmt_s.o)
 .bss           0x00000000        0x0 c:/program files/microchip/xc32/v4.00/bin/bin/../../lib/gcc/pic32c/8.3.1/../../../../pic32c/lib/thumb/v7e-m+fp/hard\libg-musl.a(__fmt_s.o)
 .xc_stack_usage
                0x00000000       0x15 c:/program files/microchip/xc32/v4.00/bin/bin/../../lib/gcc/pic32c/8.3.1/../../../../pic32c/lib/thumb/v7e-m+fp/hard\libg-musl.a(__fmt_s.o)
 .xc_stack_usage.hdr
                0x00000000        0xe c:/program files/microchip/xc32/v4.00/bin/bin/../../lib/gcc/pic32c/8.3.1/../../../../pic32c/lib/thumb/v7e-m+fp/hard\libg-musl.a(__fmt_s.o)
 .text          0x00000000        0x0 c:/program files/microchip/xc32/v4.00/bin/bin/../../lib/gcc/pic32c/8.3.1/../../../../pic32c/lib/thumb/v7e-m+fp/hard\libg-musl.a(__fmt_u.o)
 .data          0x00000000        0x0 c:/program files/microchip/xc32/v4.00/bin/bin/../../lib/gcc/pic32c/8.3.1/../../../../pic32c/lib/thumb/v7e-m+fp/hard\libg-musl.a(__fmt_u.o)
 .bss           0x00000000        0x0 c:/program files/microchip/xc32/v4.00/bin/bin/../../lib/gcc/pic32c/8.3.1/../../../../pic32c/lib/thumb/v7e-m+fp/hard\libg-musl.a(__fmt_u.o)
 .xc_stack_usage
                0x00000000       0x2a c:/program files/microchip/xc32/v4.00/bin/bin/../../lib/gcc/pic32c/8.3.1/../../../../pic32c/lib/thumb/v7e-m+fp/hard\libg-musl.a(__fmt_u.o)
 .xc_stack_usage.hdr
                0x00000000        0xe c:/program files/microchip/xc32/v4.00/bin/bin/../../lib/gcc/pic32c/8.3.1/../../../../pic32c/lib/thumb/v7e-m+fp/hard\libg-musl.a(__fmt_u.o)
 .text          0x00000000        0x0 c:/program files/microchip/xc32/v4.00/bin/bin/../../lib/gcc/pic32c/8.3.1/../../../../pic32c/lib/thumb/v7e-m+fp/hard\libg-musl.a(__fmt_x.o)
 .data          0x00000000        0x0 c:/program files/microchip/xc32/v4.00/bin/bin/../../lib/gcc/pic32c/8.3.1/../../../../pic32c/lib/thumb/v7e-m+fp/hard\libg-musl.a(__fmt_x.o)
 .bss           0x00000000        0x0 c:/program files/microchip/xc32/v4.00/bin/bin/../../lib/gcc/pic32c/8.3.1/../../../../pic32c/lib/thumb/v7e-m+fp/hard\libg-musl.a(__fmt_x.o)
 .xc_stack_usage
                0x00000000       0x15 c:/program files/microchip/xc32/v4.00/bin/bin/../../lib/gcc/pic32c/8.3.1/../../../../pic32c/lib/thumb/v7e-m+fp/hard\libg-musl.a(__fmt_x.o)
 .xc_stack_usage.hdr
                0x00000000        0xe c:/program files/microchip/xc32/v4.00/bin/bin/../../lib/gcc/pic32c/8.3.1/../../../../pic32c/lib/thumb/v7e-m+fp/hard\libg-musl.a(__fmt_x.o)
 .text          0x00000000        0x0 c:/program files/microchip/xc32/v4.00/bin/bin/../../lib/gcc/pic32c/8.3.1/../../../../pic32c/lib/thumb/v7e-m+fp/hard\libg-musl.a(__pop_float.o)
 .data          0x00000000        0x0 c:/program files/microchip/xc32/v4.00/bin/bin/../../lib/gcc/pic32c/8.3.1/../../../../pic32c/lib/thumb/v7e-m+fp/hard\libg-musl.a(__pop_float.o)
 .bss           0x00000000        0x0 c:/program files/microchip/xc32/v4.00/bin/bin/../../lib/gcc/pic32c/8.3.1/../../../../pic32c/lib/thumb/v7e-m+fp/hard\libg-musl.a(__pop_float.o)
 .xc_stack_usage
                0x00000000       0x19 c:/program files/microchip/xc32/v4.00/bin/bin/../../lib/gcc/pic32c/8.3.1/../../../../pic32c/lib/thumb/v7e-m+fp/hard\libg-musl.a(__pop_float.o)
 .xc_stack_usage.hdr
                0x00000000        0xe c:/program files/microchip/xc32/v4.00/bin/bin/../../lib/gcc/pic32c/8.3.1/../../../../pic32c/lib/thumb/v7e-m+fp/hard\libg-musl.a(__pop_float.o)
 .text          0x00000000        0x0 c:/program files/microchip/xc32/v4.00/bin/bin/../../lib/gcc/pic32c/8.3.1/../../../../pic32c/lib/thumb/v7e-m+fp/hard\libg-musl.a(__pop_int.o)
 .data          0x00000000        0x0 c:/program files/microchip/xc32/v4.00/bin/bin/../../lib/gcc/pic32c/8.3.1/../../../../pic32c/lib/thumb/v7e-m+fp/hard\libg-musl.a(__pop_int.o)
 .bss           0x00000000        0x0 c:/program files/microchip/xc32/v4.00/bin/bin/../../lib/gcc/pic32c/8.3.1/../../../../pic32c/lib/thumb/v7e-m+fp/hard\libg-musl.a(__pop_int.o)
 .xc_stack_usage
                0x00000000       0x17 c:/program files/microchip/xc32/v4.00/bin/bin/../../lib/gcc/pic32c/8.3.1/../../../../pic32c/lib/thumb/v7e-m+fp/hard\libg-musl.a(__pop_int.o)
 .xc_stack_usage.hdr
                0x00000000        0xe c:/program files/microchip/xc32/v4.00/bin/bin/../../lib/gcc/pic32c/8.3.1/../../../../pic32c/lib/thumb/v7e-m+fp/hard\libg-musl.a(__pop_int.o)
 .text          0x00000000        0x0 c:/program files/microchip/xc32/v4.00/bin/bin/../../lib/gcc/pic32c/8.3.1/../../../../pic32c/lib/thumb/v7e-m+fp/hard\libg-musl.a(__pop_ptr.o)
 .data          0x00000000        0x0 c:/program files/microchip/xc32/v4.00/bin/bin/../../lib/gcc/pic32c/8.3.1/../../../../pic32c/lib/thumb/v7e-m+fp/hard\libg-musl.a(__pop_ptr.o)
 .bss           0x00000000        0x0 c:/program files/microchip/xc32/v4.00/bin/bin/../../lib/gcc/pic32c/8.3.1/../../../../pic32c/lib/thumb/v7e-m+fp/hard\libg-musl.a(__pop_ptr.o)
 .xc_stack_usage
                0x00000000       0x17 c:/program files/microchip/xc32/v4.00/bin/bin/../../lib/gcc/pic32c/8.3.1/../../../../pic32c/lib/thumb/v7e-m+fp/hard\libg-musl.a(__pop_ptr.o)
 .xc_stack_usage.hdr
                0x00000000        0xe c:/program files/microchip/xc32/v4.00/bin/bin/../../lib/gcc/pic32c/8.3.1/../../../../pic32c/lib/thumb/v7e-m+fp/hard\libg-musl.a(__pop_ptr.o)
 .text          0x00000000        0x0 c:/program files/microchip/xc32/v4.00/bin/bin/../../lib/gcc/pic32c/8.3.1/../../../../pic32c/lib/thumb/v7e-m+fp/hard\libm-emfloat.a(lib_a-_FLOOR.o)
 .data          0x00000000        0x0 c:/program files/microchip/xc32/v4.00/bin/bin/../../lib/gcc/pic32c/8.3.1/../../../../pic32c/lib/thumb/v7e-m+fp/hard\libm-emfloat.a(lib_a-_FLOOR.o)
 .bss           0x00000000        0x0 c:/program files/microchip/xc32/v4.00/bin/bin/../../lib/gcc/pic32c/8.3.1/../../../../pic32c/lib/thumb/v7e-m+fp/hard\libm-emfloat.a(lib_a-_FLOOR.o)
 .xc_stack_usage
                0x00000000      0x298 c:/program files/microchip/xc32/v4.00/bin/bin/../../lib/gcc/pic32c/8.3.1/../../../../pic32c/lib/thumb/v7e-m+fp/hard\libm-emfloat.a(lib_a-_FLOOR.o)
 .text.__SEGGER_RTL_float64_cdiv
                0x00000000      0x334 c:/program files/microchip/xc32/v4.00/bin/bin/../../lib/gcc/pic32c/8.3.1/../../../../pic32c/lib/thumb/v7e-m+fp/hard\libm-emfloat.a(lib_a-_FLOOR.o)
 .text.__SEGGER_RTL_float64_cmplx
                0x00000000       0x28 c:/program files/microchip/xc32/v4.00/bin/bin/../../lib/gcc/pic32c/8.3.1/../../../../pic32c/lib/thumb/v7e-m+fp/hard\libm-emfloat.a(lib_a-_FLOOR.o)
 .text.__mulsc3
                0x00000000      0x2b0 c:/program files/microchip/xc32/v4.00/bin/bin/../../lib/gcc/pic32c/8.3.1/../../../../pic32c/lib/thumb/v7e-m+fp/hard\libm-emfloat.a(lib_a-_FLOOR.o)
 .text.__divdc3
                0x00000000       0x2c c:/program files/microchip/xc32/v4.00/bin/bin/../../lib/gcc/pic32c/8.3.1/../../../../pic32c/lib/thumb/v7e-m+fp/hard\libm-emfloat.a(lib_a-_FLOOR.o)
 .text.__SEGGER_RTL_float32_isnan
                0x00000000       0x10 c:/program files/microchip/xc32/v4.00/bin/bin/../../lib/gcc/pic32c/8.3.1/../../../../pic32c/lib/thumb/v7e-m+fp/hard\libm-emfloat.a(lib_a-_FLOOR.o)
 .text.__SEGGER_RTL_float32_isinf
                0x00000000       0x14 c:/program files/microchip/xc32/v4.00/bin/bin/../../lib/gcc/pic32c/8.3.1/../../../../pic32c/lib/thumb/v7e-m+fp/hard\libm-emfloat.a(lib_a-_FLOOR.o)
 .text.__SEGGER_RTL_float32_isfinite
                0x00000000       0x14 c:/program files/microchip/xc32/v4.00/bin/bin/../../lib/gcc/pic32c/8.3.1/../../../../pic32c/lib/thumb/v7e-m+fp/hard\libm-emfloat.a(lib_a-_FLOOR.o)
 .text.__SEGGER_RTL_float32_isnormal
                0x00000000       0x18 c:/program files/microchip/xc32/v4.00/bin/bin/../../lib/gcc/pic32c/8.3.1/../../../../pic32c/lib/thumb/v7e-m+fp/hard\libm-emfloat.a(lib_a-_FLOOR.o)
 .text.__SEGGER_RTL_float32_signbit
                0x00000000        0x8 c:/program files/microchip/xc32/v4.00/bin/bin/../../lib/gcc/pic32c/8.3.1/../../../../pic32c/lib/thumb/v7e-m+fp/hard\libm-emfloat.a(lib_a-_FLOOR.o)
 .text.__SEGGER_RTL_float32_classify
                0x00000000       0x3c c:/program files/microchip/xc32/v4.00/bin/bin/../../lib/gcc/pic32c/8.3.1/../../../../pic32c/lib/thumb/v7e-m+fp/hard\libm-emfloat.a(lib_a-_FLOOR.o)
 .text.__SEGGER_RTL_float64_isnan
                0x00000000       0x28 c:/program files/microchip/xc32/v4.00/bin/bin/../../lib/gcc/pic32c/8.3.1/../../../../pic32c/lib/thumb/v7e-m+fp/hard\libm-emfloat.a(lib_a-_FLOOR.o)
 .text.__SEGGER_RTL_float64_isinf
                0x00000000       0x20 c:/program files/microchip/xc32/v4.00/bin/bin/../../lib/gcc/pic32c/8.3.1/../../../../pic32c/lib/thumb/v7e-m+fp/hard\libm-emfloat.a(lib_a-_FLOOR.o)
 .text.__SEGGER_RTL_float64_isfinite
                0x00000000       0x14 c:/program files/microchip/xc32/v4.00/bin/bin/../../lib/gcc/pic32c/8.3.1/../../../../pic32c/lib/thumb/v7e-m+fp/hard\libm-emfloat.a(lib_a-_FLOOR.o)
 .text.__SEGGER_RTL_float64_isnormal
                0x00000000       0x34 c:/program files/microchip/xc32/v4.00/bin/bin/../../lib/gcc/pic32c/8.3.1/../../../../pic32c/lib/thumb/v7e-m+fp/hard\libm-emfloat.a(lib_a-_FLOOR.o)
 .text.__SEGGER_RTL_float64_signbit
                0x00000000        0x8 c:/program files/microchip/xc32/v4.00/bin/bin/../../lib/gcc/pic32c/8.3.1/../../../../pic32c/lib/thumb/v7e-m+fp/hard\libm-emfloat.a(lib_a-_FLOOR.o)
 .text.__SEGGER_RTL_float64_classify
                0x00000000       0x70 c:/program files/microchip/xc32/v4.00/bin/bin/../../lib/gcc/pic32c/8.3.1/../../../../pic32c/lib/thumb/v7e-m+fp/hard\libm-emfloat.a(lib_a-_FLOOR.o)
 .text.floorl   0x00000000        0x8 c:/program files/microchip/xc32/v4.00/bin/bin/../../lib/gcc/pic32c/8.3.1/../../../../pic32c/lib/thumb/v7e-m+fp/hard\libm-emfloat.a(lib_a-_FLOOR.o)
 .xc_stack_usage.hdr
                0x00000000        0xe c:/program files/microchip/xc32/v4.00/bin/bin/../../lib/gcc/pic32c/8.3.1/../../../../pic32c/lib/thumb/v7e-m+fp/hard\libm-emfloat.a(lib_a-_FLOOR.o)
 .text          0x00000000        0x0 c:/program files/microchip/xc32/v4.00/bin/bin/../../lib/gcc/pic32c/8.3.1/../../../../pic32c/lib/thumb/v7e-m+fp/hard\libm-emfloat.a(lib_a-_FMA.o)
 .data          0x00000000        0x0 c:/program files/microchip/xc32/v4.00/bin/bin/../../lib/gcc/pic32c/8.3.1/../../../../pic32c/lib/thumb/v7e-m+fp/hard\libm-emfloat.a(lib_a-_FMA.o)
 .bss           0x00000000        0x0 c:/program files/microchip/xc32/v4.00/bin/bin/../../lib/gcc/pic32c/8.3.1/../../../../pic32c/lib/thumb/v7e-m+fp/hard\libm-emfloat.a(lib_a-_FMA.o)
 .xc_stack_usage
                0x00000000      0x294 c:/program files/microchip/xc32/v4.00/bin/bin/../../lib/gcc/pic32c/8.3.1/../../../../pic32c/lib/thumb/v7e-m+fp/hard\libm-emfloat.a(lib_a-_FMA.o)
 .text.__SEGGER_RTL_float64_cdiv
                0x00000000      0x334 c:/program files/microchip/xc32/v4.00/bin/bin/../../lib/gcc/pic32c/8.3.1/../../../../pic32c/lib/thumb/v7e-m+fp/hard\libm-emfloat.a(lib_a-_FMA.o)
 .text.__SEGGER_RTL_float64_cmplx
                0x00000000       0x28 c:/program files/microchip/xc32/v4.00/bin/bin/../../lib/gcc/pic32c/8.3.1/../../../../pic32c/lib/thumb/v7e-m+fp/hard\libm-emfloat.a(lib_a-_FMA.o)
 .text.__mulsc3
                0x00000000      0x2b0 c:/program files/microchip/xc32/v4.00/bin/bin/../../lib/gcc/pic32c/8.3.1/../../../../pic32c/lib/thumb/v7e-m+fp/hard\libm-emfloat.a(lib_a-_FMA.o)
 .text.__divdc3
                0x00000000       0x2c c:/program files/microchip/xc32/v4.00/bin/bin/../../lib/gcc/pic32c/8.3.1/../../../../pic32c/lib/thumb/v7e-m+fp/hard\libm-emfloat.a(lib_a-_FMA.o)
 .text.__SEGGER_RTL_float32_isnan
                0x00000000       0x10 c:/program files/microchip/xc32/v4.00/bin/bin/../../lib/gcc/pic32c/8.3.1/../../../../pic32c/lib/thumb/v7e-m+fp/hard\libm-emfloat.a(lib_a-_FMA.o)
 .text.__SEGGER_RTL_float32_isinf
                0x00000000       0x14 c:/program files/microchip/xc32/v4.00/bin/bin/../../lib/gcc/pic32c/8.3.1/../../../../pic32c/lib/thumb/v7e-m+fp/hard\libm-emfloat.a(lib_a-_FMA.o)
 .text.__SEGGER_RTL_float32_isfinite
                0x00000000       0x14 c:/program files/microchip/xc32/v4.00/bin/bin/../../lib/gcc/pic32c/8.3.1/../../../../pic32c/lib/thumb/v7e-m+fp/hard\libm-emfloat.a(lib_a-_FMA.o)
 .text.__SEGGER_RTL_float32_isnormal
                0x00000000       0x18 c:/program files/microchip/xc32/v4.00/bin/bin/../../lib/gcc/pic32c/8.3.1/../../../../pic32c/lib/thumb/v7e-m+fp/hard\libm-emfloat.a(lib_a-_FMA.o)
 .text.__SEGGER_RTL_float32_signbit
                0x00000000        0x8 c:/program files/microchip/xc32/v4.00/bin/bin/../../lib/gcc/pic32c/8.3.1/../../../../pic32c/lib/thumb/v7e-m+fp/hard\libm-emfloat.a(lib_a-_FMA.o)
 .text.__SEGGER_RTL_float32_classify
                0x00000000       0x3c c:/program files/microchip/xc32/v4.00/bin/bin/../../lib/gcc/pic32c/8.3.1/../../../../pic32c/lib/thumb/v7e-m+fp/hard\libm-emfloat.a(lib_a-_FMA.o)
 .text.__SEGGER_RTL_float64_isnan
                0x00000000       0x28 c:/program files/microchip/xc32/v4.00/bin/bin/../../lib/gcc/pic32c/8.3.1/../../../../pic32c/lib/thumb/v7e-m+fp/hard\libm-emfloat.a(lib_a-_FMA.o)
 .text.__SEGGER_RTL_float64_isinf
                0x00000000       0x20 c:/program files/microchip/xc32/v4.00/bin/bin/../../lib/gcc/pic32c/8.3.1/../../../../pic32c/lib/thumb/v7e-m+fp/hard\libm-emfloat.a(lib_a-_FMA.o)
 .text.__SEGGER_RTL_float64_isfinite
                0x00000000       0x14 c:/program files/microchip/xc32/v4.00/bin/bin/../../lib/gcc/pic32c/8.3.1/../../../../pic32c/lib/thumb/v7e-m+fp/hard\libm-emfloat.a(lib_a-_FMA.o)
 .text.__SEGGER_RTL_float64_isnormal
                0x00000000       0x34 c:/program files/microchip/xc32/v4.00/bin/bin/../../lib/gcc/pic32c/8.3.1/../../../../pic32c/lib/thumb/v7e-m+fp/hard\libm-emfloat.a(lib_a-_FMA.o)
 .text.__SEGGER_RTL_float64_signbit
                0x00000000        0x8 c:/program files/microchip/xc32/v4.00/bin/bin/../../lib/gcc/pic32c/8.3.1/../../../../pic32c/lib/thumb/v7e-m+fp/hard\libm-emfloat.a(lib_a-_FMA.o)
 .text.__SEGGER_RTL_float64_classify
                0x00000000       0x70 c:/program files/microchip/xc32/v4.00/bin/bin/../../lib/gcc/pic32c/8.3.1/../../../../pic32c/lib/thumb/v7e-m+fp/hard\libm-emfloat.a(lib_a-_FMA.o)
 .text.fmal     0x00000000        0x8 c:/program files/microchip/xc32/v4.00/bin/bin/../../lib/gcc/pic32c/8.3.1/../../../../pic32c/lib/thumb/v7e-m+fp/hard\libm-emfloat.a(lib_a-_FMA.o)
 .xc_stack_usage.hdr
                0x00000000        0xe c:/program files/microchip/xc32/v4.00/bin/bin/../../lib/gcc/pic32c/8.3.1/../../../../pic32c/lib/thumb/v7e-m+fp/hard\libm-emfloat.a(lib_a-_FMA.o)
 .text          0x00000000        0x0 c:/program files/microchip/xc32/v4.00/bin/bin/../../lib/gcc/pic32c/8.3.1/../../../../pic32c/lib/thumb/v7e-m+fp/hard\libm-emfloat.a(floatasmops_arm.o)
 .data          0x00000000        0x0 c:/program files/microchip/xc32/v4.00/bin/bin/../../lib/gcc/pic32c/8.3.1/../../../../pic32c/lib/thumb/v7e-m+fp/hard\libm-emfloat.a(floatasmops_arm.o)
 .bss           0x00000000        0x0 c:/program files/microchip/xc32/v4.00/bin/bin/../../lib/gcc/pic32c/8.3.1/../../../../pic32c/lib/thumb/v7e-m+fp/hard\libm-emfloat.a(floatasmops_arm.o)
 .rodata.__aeabi_ddiv_reciprocal_table
                0x00000000      0x180 c:/program files/microchip/xc32/v4.00/bin/bin/../../lib/gcc/pic32c/8.3.1/../../../../pic32c/lib/thumb/v7e-m+fp/hard\libm-emfloat.a(floatasmops_arm.o)
 .text.__aeabi_fadd
                0x00000000       0x14 c:/program files/microchip/xc32/v4.00/bin/bin/../../lib/gcc/pic32c/8.3.1/../../../../pic32c/lib/thumb/v7e-m+fp/hard\libm-emfloat.a(floatasmops_arm.o)
 .text.__aeabi_fsub
                0x00000000       0x14 c:/program files/microchip/xc32/v4.00/bin/bin/../../lib/gcc/pic32c/8.3.1/../../../../pic32c/lib/thumb/v7e-m+fp/hard\libm-emfloat.a(floatasmops_arm.o)
 .text.__aeabi_frsub
                0x00000000       0x14 c:/program files/microchip/xc32/v4.00/bin/bin/../../lib/gcc/pic32c/8.3.1/../../../../pic32c/lib/thumb/v7e-m+fp/hard\libm-emfloat.a(floatasmops_arm.o)
 .text.__aeabi_drsub
                0x00000000        0x8 c:/program files/microchip/xc32/v4.00/bin/bin/../../lib/gcc/pic32c/8.3.1/../../../../pic32c/lib/thumb/v7e-m+fp/hard\libm-emfloat.a(floatasmops_arm.o)
 .text.__aeabi_fmul
                0x00000000       0x14 c:/program files/microchip/xc32/v4.00/bin/bin/../../lib/gcc/pic32c/8.3.1/../../../../pic32c/lib/thumb/v7e-m+fp/hard\libm-emfloat.a(floatasmops_arm.o)
 .text.__aeabi_fdiv
                0x00000000       0x14 c:/program files/microchip/xc32/v4.00/bin/bin/../../lib/gcc/pic32c/8.3.1/../../../../pic32c/lib/thumb/v7e-m+fp/hard\libm-emfloat.a(floatasmops_arm.o)
 .text.__aeabi_fcmple
                0x00000000       0x18 c:/program files/microchip/xc32/v4.00/bin/bin/../../lib/gcc/pic32c/8.3.1/../../../../pic32c/lib/thumb/v7e-m+fp/hard\libm-emfloat.a(floatasmops_arm.o)
 .text.__aeabi_dcmple
                0x00000000       0x3c c:/program files/microchip/xc32/v4.00/bin/bin/../../lib/gcc/pic32c/8.3.1/../../../../pic32c/lib/thumb/v7e-m+fp/hard\libm-emfloat.a(floatasmops_arm.o)
 .text.__aeabi_fcmpeq
                0x00000000       0x18 c:/program files/microchip/xc32/v4.00/bin/bin/../../lib/gcc/pic32c/8.3.1/../../../../pic32c/lib/thumb/v7e-m+fp/hard\libm-emfloat.a(floatasmops_arm.o)
 .text.__aeabi_fcmpge
                0x00000000       0x18 c:/program files/microchip/xc32/v4.00/bin/bin/../../lib/gcc/pic32c/8.3.1/../../../../pic32c/lib/thumb/v7e-m+fp/hard\libm-emfloat.a(floatasmops_arm.o)
 .text.__aeabi_dcmpge
                0x00000000       0x3c c:/program files/microchip/xc32/v4.00/bin/bin/../../lib/gcc/pic32c/8.3.1/../../../../pic32c/lib/thumb/v7e-m+fp/hard\libm-emfloat.a(floatasmops_arm.o)
 .text.__aeabi_fcmpgt
                0x00000000       0x18 c:/program files/microchip/xc32/v4.00/bin/bin/../../lib/gcc/pic32c/8.3.1/../../../../pic32c/lib/thumb/v7e-m+fp/hard\libm-emfloat.a(floatasmops_arm.o)
 .text.__aeabi_fcmplt
                0x00000000       0x18 c:/program files/microchip/xc32/v4.00/bin/bin/../../lib/gcc/pic32c/8.3.1/../../../../pic32c/lib/thumb/v7e-m+fp/hard\libm-emfloat.a(floatasmops_arm.o)
 .text.__aeabi_fcmpun
                0x00000000       0x18 c:/program files/microchip/xc32/v4.00/bin/bin/../../lib/gcc/pic32c/8.3.1/../../../../pic32c/lib/thumb/v7e-m+fp/hard\libm-emfloat.a(floatasmops_arm.o)
 .text.__aeabi_dcmpun
                0x00000000       0x28 c:/program files/microchip/xc32/v4.00/bin/bin/../../lib/gcc/pic32c/8.3.1/../../../../pic32c/lib/thumb/v7e-m+fp/hard\libm-emfloat.a(floatasmops_arm.o)
 .text.__aeabi_cfcmpeq
                0x00000000       0x28 c:/program files/microchip/xc32/v4.00/bin/bin/../../lib/gcc/pic32c/8.3.1/../../../../pic32c/lib/thumb/v7e-m+fp/hard\libm-emfloat.a(floatasmops_arm.o)
 .text.__aeabi_cdcmpeq
                0x00000000       0x10 c:/program files/microchip/xc32/v4.00/bin/bin/../../lib/gcc/pic32c/8.3.1/../../../../pic32c/lib/thumb/v7e-m+fp/hard\libm-emfloat.a(floatasmops_arm.o)
 .text.__aeabi_cfcmple
                0x00000000       0x14 c:/program files/microchip/xc32/v4.00/bin/bin/../../lib/gcc/pic32c/8.3.1/../../../../pic32c/lib/thumb/v7e-m+fp/hard\libm-emfloat.a(floatasmops_arm.o)
 .text.__aeabi_cdcmple
                0x00000000       0x10 c:/program files/microchip/xc32/v4.00/bin/bin/../../lib/gcc/pic32c/8.3.1/../../../../pic32c/lib/thumb/v7e-m+fp/hard\libm-emfloat.a(floatasmops_arm.o)
 .text.__aeabi_cfrcmple
                0x00000000       0x14 c:/program files/microchip/xc32/v4.00/bin/bin/../../lib/gcc/pic32c/8.3.1/../../../../pic32c/lib/thumb/v7e-m+fp/hard\libm-emfloat.a(floatasmops_arm.o)
 .text.__aeabi_cdrcmple
                0x00000000       0x1c c:/program files/microchip/xc32/v4.00/bin/bin/../../lib/gcc/pic32c/8.3.1/../../../../pic32c/lib/thumb/v7e-m+fp/hard\libm-emfloat.a(floatasmops_arm.o)
 .text.__aeabi_cfcmp_impl
                0x00000000       0x22 c:/program files/microchip/xc32/v4.00/bin/bin/../../lib/gcc/pic32c/8.3.1/../../../../pic32c/lib/thumb/v7e-m+fp/hard\libm-emfloat.a(floatasmops_arm.o)
 .text.__aeabi_cdcmp_impl
                0x00000000       0x64 c:/program files/microchip/xc32/v4.00/bin/bin/../../lib/gcc/pic32c/8.3.1/../../../../pic32c/lib/thumb/v7e-m+fp/hard\libm-emfloat.a(floatasmops_arm.o)
 .text.__aeabi_f2iz
                0x00000000       0x10 c:/program files/microchip/xc32/v4.00/bin/bin/../../lib/gcc/pic32c/8.3.1/../../../../pic32c/lib/thumb/v7e-m+fp/hard\libm-emfloat.a(floatasmops_arm.o)
 .text.__aeabi_f2lz
                0x00000000       0x74 c:/program files/microchip/xc32/v4.00/bin/bin/../../lib/gcc/pic32c/8.3.1/../../../../pic32c/lib/thumb/v7e-m+fp/hard\libm-emfloat.a(floatasmops_arm.o)
 .text.__aeabi_d2lz
                0x00000000       0x80 c:/program files/microchip/xc32/v4.00/bin/bin/../../lib/gcc/pic32c/8.3.1/../../../../pic32c/lib/thumb/v7e-m+fp/hard\libm-emfloat.a(floatasmops_arm.o)
 .text.__aeabi_f2uiz
                0x00000000       0x10 c:/program files/microchip/xc32/v4.00/bin/bin/../../lib/gcc/pic32c/8.3.1/../../../../pic32c/lib/thumb/v7e-m+fp/hard\libm-emfloat.a(floatasmops_arm.o)
 .text.__aeabi_d2uiz
                0x00000000       0x24 c:/program files/microchip/xc32/v4.00/bin/bin/../../lib/gcc/pic32c/8.3.1/../../../../pic32c/lib/thumb/v7e-m+fp/hard\libm-emfloat.a(floatasmops_arm.o)
 .text.__aeabi_f2ulz
                0x00000000       0x40 c:/program files/microchip/xc32/v4.00/bin/bin/../../lib/gcc/pic32c/8.3.1/../../../../pic32c/lib/thumb/v7e-m+fp/hard\libm-emfloat.a(floatasmops_arm.o)
 .text.__aeabi_d2ulz
                0x00000000       0x40 c:/program files/microchip/xc32/v4.00/bin/bin/../../lib/gcc/pic32c/8.3.1/../../../../pic32c/lib/thumb/v7e-m+fp/hard\libm-emfloat.a(floatasmops_arm.o)
 .text.__aeabi_i2f
                0x00000000       0x10 c:/program files/microchip/xc32/v4.00/bin/bin/../../lib/gcc/pic32c/8.3.1/../../../../pic32c/lib/thumb/v7e-m+fp/hard\libm-emfloat.a(floatasmops_arm.o)
 .text.__aeabi_i2d
                0x00000000       0x28 c:/program files/microchip/xc32/v4.00/bin/bin/../../lib/gcc/pic32c/8.3.1/../../../../pic32c/lib/thumb/v7e-m+fp/hard\libm-emfloat.a(floatasmops_arm.o)
 .text.__aeabi_l2f
                0x00000000       0x64 c:/program files/microchip/xc32/v4.00/bin/bin/../../lib/gcc/pic32c/8.3.1/../../../../pic32c/lib/thumb/v7e-m+fp/hard\libm-emfloat.a(floatasmops_arm.o)
 .text.__aeabi_l2d
                0x00000000       0x68 c:/program files/microchip/xc32/v4.00/bin/bin/../../lib/gcc/pic32c/8.3.1/../../../../pic32c/lib/thumb/v7e-m+fp/hard\libm-emfloat.a(floatasmops_arm.o)
 .text.__aeabi_ui2f
                0x00000000       0x10 c:/program files/microchip/xc32/v4.00/bin/bin/../../lib/gcc/pic32c/8.3.1/../../../../pic32c/lib/thumb/v7e-m+fp/hard\libm-emfloat.a(floatasmops_arm.o)
 .text.__aeabi_ui2d
                0x00000000       0x1c c:/program files/microchip/xc32/v4.00/bin/bin/../../lib/gcc/pic32c/8.3.1/../../../../pic32c/lib/thumb/v7e-m+fp/hard\libm-emfloat.a(floatasmops_arm.o)
 .text.__aeabi_ul2f
                0x00000000       0x54 c:/program files/microchip/xc32/v4.00/bin/bin/../../lib/gcc/pic32c/8.3.1/../../../../pic32c/lib/thumb/v7e-m+fp/hard\libm-emfloat.a(floatasmops_arm.o)
 .text.__aeabi_ul2d
                0x00000000       0x5c c:/program files/microchip/xc32/v4.00/bin/bin/../../lib/gcc/pic32c/8.3.1/../../../../pic32c/lib/thumb/v7e-m+fp/hard\libm-emfloat.a(floatasmops_arm.o)
 .text.__aeabi_f2d
                0x00000000       0x34 c:/program files/microchip/xc32/v4.00/bin/bin/../../lib/gcc/pic32c/8.3.1/../../../../pic32c/lib/thumb/v7e-m+fp/hard\libm-emfloat.a(floatasmops_arm.o)
 .text.__aeabi_d2f
                0x00000000       0x4c c:/program files/microchip/xc32/v4.00/bin/bin/../../lib/gcc/pic32c/8.3.1/../../../../pic32c/lib/thumb/v7e-m+fp/hard\libm-emfloat.a(floatasmops_arm.o)
 .xc_stack_usage.hdr
                0x00000000        0xe c:/program files/microchip/xc32/v4.00/bin/bin/../../lib/gcc/pic32c/8.3.1/../../../../pic32c/lib/thumb/v7e-m+fp/hard\libm-emfloat.a(floatasmops_arm.o)
 .xc_stack_usage
                0x00000000      0x518 c:/program files/microchip/xc32/v4.00/bin/bin/../../lib/gcc/pic32c/8.3.1/../../../../pic32c/lib/thumb/v7e-m+fp/hard\libm-emfloat.a(floatasmops_arm.o)
 .text          0x00000000        0x0 c:/program files/microchip/xc32/v4.00/bin/bin/../../lib/gcc/pic32c/8.3.1/../../../../pic32c/lib/thumb/v7e-m+fp/hard\libm-emfloat.a(lib_a-_ILOGB.o)
 .data          0x00000000        0x0 c:/program files/microchip/xc32/v4.00/bin/bin/../../lib/gcc/pic32c/8.3.1/../../../../pic32c/lib/thumb/v7e-m+fp/hard\libm-emfloat.a(lib_a-_ILOGB.o)
 .bss           0x00000000        0x0 c:/program files/microchip/xc32/v4.00/bin/bin/../../lib/gcc/pic32c/8.3.1/../../../../pic32c/lib/thumb/v7e-m+fp/hard\libm-emfloat.a(lib_a-_ILOGB.o)
 .xc_stack_usage
                0x00000000      0x298 c:/program files/microchip/xc32/v4.00/bin/bin/../../lib/gcc/pic32c/8.3.1/../../../../pic32c/lib/thumb/v7e-m+fp/hard\libm-emfloat.a(lib_a-_ILOGB.o)
 .text.__SEGGER_RTL_float64_cmplx
                0x00000000       0x28 c:/program files/microchip/xc32/v4.00/bin/bin/../../lib/gcc/pic32c/8.3.1/../../../../pic32c/lib/thumb/v7e-m+fp/hard\libm-emfloat.a(lib_a-_ILOGB.o)
 .text.__mulsc3
                0x00000000      0x2b0 c:/program files/microchip/xc32/v4.00/bin/bin/../../lib/gcc/pic32c/8.3.1/../../../../pic32c/lib/thumb/v7e-m+fp/hard\libm-emfloat.a(lib_a-_ILOGB.o)
 .text.__SEGGER_RTL_float32_isnan
                0x00000000       0x10 c:/program files/microchip/xc32/v4.00/bin/bin/../../lib/gcc/pic32c/8.3.1/../../../../pic32c/lib/thumb/v7e-m+fp/hard\libm-emfloat.a(lib_a-_ILOGB.o)
 .text.__SEGGER_RTL_float32_isinf
                0x00000000       0x14 c:/program files/microchip/xc32/v4.00/bin/bin/../../lib/gcc/pic32c/8.3.1/../../../../pic32c/lib/thumb/v7e-m+fp/hard\libm-emfloat.a(lib_a-_ILOGB.o)
 .text.__SEGGER_RTL_float32_isfinite
                0x00000000       0x14 c:/program files/microchip/xc32/v4.00/bin/bin/../../lib/gcc/pic32c/8.3.1/../../../../pic32c/lib/thumb/v7e-m+fp/hard\libm-emfloat.a(lib_a-_ILOGB.o)
 .text.__SEGGER_RTL_float32_isnormal
                0x00000000       0x18 c:/program files/microchip/xc32/v4.00/bin/bin/../../lib/gcc/pic32c/8.3.1/../../../../pic32c/lib/thumb/v7e-m+fp/hard\libm-emfloat.a(lib_a-_ILOGB.o)
 .text.__SEGGER_RTL_float32_signbit
                0x00000000        0x8 c:/program files/microchip/xc32/v4.00/bin/bin/../../lib/gcc/pic32c/8.3.1/../../../../pic32c/lib/thumb/v7e-m+fp/hard\libm-emfloat.a(lib_a-_ILOGB.o)
 .text.__SEGGER_RTL_float32_classify
                0x00000000       0x3c c:/program files/microchip/xc32/v4.00/bin/bin/../../lib/gcc/pic32c/8.3.1/../../../../pic32c/lib/thumb/v7e-m+fp/hard\libm-emfloat.a(lib_a-_ILOGB.o)
 .text.__SEGGER_RTL_float64_isnan
                0x00000000       0x28 c:/program files/microchip/xc32/v4.00/bin/bin/../../lib/gcc/pic32c/8.3.1/../../../../pic32c/lib/thumb/v7e-m+fp/hard\libm-emfloat.a(lib_a-_ILOGB.o)
 .text.__SEGGER_RTL_float64_isinf
                0x00000000       0x20 c:/program files/microchip/xc32/v4.00/bin/bin/../../lib/gcc/pic32c/8.3.1/../../../../pic32c/lib/thumb/v7e-m+fp/hard\libm-emfloat.a(lib_a-_ILOGB.o)
 .text.__SEGGER_RTL_float64_isfinite
                0x00000000       0x14 c:/program files/microchip/xc32/v4.00/bin/bin/../../lib/gcc/pic32c/8.3.1/../../../../pic32c/lib/thumb/v7e-m+fp/hard\libm-emfloat.a(lib_a-_ILOGB.o)
 .text.__SEGGER_RTL_float64_isnormal
                0x00000000       0x34 c:/program files/microchip/xc32/v4.00/bin/bin/../../lib/gcc/pic32c/8.3.1/../../../../pic32c/lib/thumb/v7e-m+fp/hard\libm-emfloat.a(lib_a-_ILOGB.o)
 .text.__SEGGER_RTL_float64_signbit
                0x00000000        0x8 c:/program files/microchip/xc32/v4.00/bin/bin/../../lib/gcc/pic32c/8.3.1/../../../../pic32c/lib/thumb/v7e-m+fp/hard\libm-emfloat.a(lib_a-_ILOGB.o)
 .text.__SEGGER_RTL_float64_classify
                0x00000000       0x70 c:/program files/microchip/xc32/v4.00/bin/bin/../../lib/gcc/pic32c/8.3.1/../../../../pic32c/lib/thumb/v7e-m+fp/hard\libm-emfloat.a(lib_a-_ILOGB.o)
 .text.ilogb    0x00000000       0x58 c:/program files/microchip/xc32/v4.00/bin/bin/../../lib/gcc/pic32c/8.3.1/../../../../pic32c/lib/thumb/v7e-m+fp/hard\libm-emfloat.a(lib_a-_ILOGB.o)
 .text.__SEGGER_RTL_float64_cdiv
                0x00000000      0x334 c:/program files/microchip/xc32/v4.00/bin/bin/../../lib/gcc/pic32c/8.3.1/../../../../pic32c/lib/thumb/v7e-m+fp/hard\libm-emfloat.a(lib_a-_ILOGB.o)
 .text.__divdc3
                0x00000000       0x2c c:/program files/microchip/xc32/v4.00/bin/bin/../../lib/gcc/pic32c/8.3.1/../../../../pic32c/lib/thumb/v7e-m+fp/hard\libm-emfloat.a(lib_a-_ILOGB.o)
 .text.ilogbl   0x00000000        0x8 c:/program files/microchip/xc32/v4.00/bin/bin/../../lib/gcc/pic32c/8.3.1/../../../../pic32c/lib/thumb/v7e-m+fp/hard\libm-emfloat.a(lib_a-_ILOGB.o)
 .xc_stack_usage.hdr
                0x00000000        0xe c:/program files/microchip/xc32/v4.00/bin/bin/../../lib/gcc/pic32c/8.3.1/../../../../pic32c/lib/thumb/v7e-m+fp/hard\libm-emfloat.a(lib_a-_ILOGB.o)
 .comment       0x00000000       0x54 c:/program files/microchip/xc32/v4.00/bin/bin/../../lib/gcc/pic32c/8.3.1/../../../../pic32c/lib/thumb/v7e-m+fp/hard\libm-emfloat.a(lib_a-_ILOGB.o)
 .ARM.attributes
                0x00000000       0x34 c:/program files/microchip/xc32/v4.00/bin/bin/../../lib/gcc/pic32c/8.3.1/../../../../pic32c/lib/thumb/v7e-m+fp/hard\libm-emfloat.a(lib_a-_ILOGB.o)
 .text          0x00000000        0x0 c:/program files/microchip/xc32/v4.00/bin/bin/../../lib/gcc/pic32c/8.3.1/../../../../pic32c/lib/thumb/v7e-m+fp/hard\libm-emfloat.a(lib_a-_LDEXP.o)
 .data          0x00000000        0x0 c:/program files/microchip/xc32/v4.00/bin/bin/../../lib/gcc/pic32c/8.3.1/../../../../pic32c/lib/thumb/v7e-m+fp/hard\libm-emfloat.a(lib_a-_LDEXP.o)
 .bss           0x00000000        0x0 c:/program files/microchip/xc32/v4.00/bin/bin/../../lib/gcc/pic32c/8.3.1/../../../../pic32c/lib/thumb/v7e-m+fp/hard\libm-emfloat.a(lib_a-_LDEXP.o)
 .xc_stack_usage
                0x00000000      0x298 c:/program files/microchip/xc32/v4.00/bin/bin/../../lib/gcc/pic32c/8.3.1/../../../../pic32c/lib/thumb/v7e-m+fp/hard\libm-emfloat.a(lib_a-_LDEXP.o)
 .text.__SEGGER_RTL_float64_cmplx
                0x00000000       0x28 c:/program files/microchip/xc32/v4.00/bin/bin/../../lib/gcc/pic32c/8.3.1/../../../../pic32c/lib/thumb/v7e-m+fp/hard\libm-emfloat.a(lib_a-_LDEXP.o)
 .text.__mulsc3
                0x00000000      0x2b0 c:/program files/microchip/xc32/v4.00/bin/bin/../../lib/gcc/pic32c/8.3.1/../../../../pic32c/lib/thumb/v7e-m+fp/hard\libm-emfloat.a(lib_a-_LDEXP.o)
 .text.__SEGGER_RTL_float32_isnan
                0x00000000       0x10 c:/program files/microchip/xc32/v4.00/bin/bin/../../lib/gcc/pic32c/8.3.1/../../../../pic32c/lib/thumb/v7e-m+fp/hard\libm-emfloat.a(lib_a-_LDEXP.o)
 .text.__SEGGER_RTL_float32_isinf
                0x00000000       0x14 c:/program files/microchip/xc32/v4.00/bin/bin/../../lib/gcc/pic32c/8.3.1/../../../../pic32c/lib/thumb/v7e-m+fp/hard\libm-emfloat.a(lib_a-_LDEXP.o)
 .text.__SEGGER_RTL_float32_isfinite
                0x00000000       0x14 c:/program files/microchip/xc32/v4.00/bin/bin/../../lib/gcc/pic32c/8.3.1/../../../../pic32c/lib/thumb/v7e-m+fp/hard\libm-emfloat.a(lib_a-_LDEXP.o)
 .text.__SEGGER_RTL_float32_isnormal
                0x00000000       0x18 c:/program files/microchip/xc32/v4.00/bin/bin/../../lib/gcc/pic32c/8.3.1/../../../../pic32c/lib/thumb/v7e-m+fp/hard\libm-emfloat.a(lib_a-_LDEXP.o)
 .text.__SEGGER_RTL_float32_signbit
                0x00000000        0x8 c:/program files/microchip/xc32/v4.00/bin/bin/../../lib/gcc/pic32c/8.3.1/../../../../pic32c/lib/thumb/v7e-m+fp/hard\libm-emfloat.a(lib_a-_LDEXP.o)
 .text.__SEGGER_RTL_float32_classify
                0x00000000       0x3c c:/program files/microchip/xc32/v4.00/bin/bin/../../lib/gcc/pic32c/8.3.1/../../../../pic32c/lib/thumb/v7e-m+fp/hard\libm-emfloat.a(lib_a-_LDEXP.o)
 .text.__SEGGER_RTL_float64_isnan
                0x00000000       0x28 c:/program files/microchip/xc32/v4.00/bin/bin/../../lib/gcc/pic32c/8.3.1/../../../../pic32c/lib/thumb/v7e-m+fp/hard\libm-emfloat.a(lib_a-_LDEXP.o)
 .text.__SEGGER_RTL_float64_isinf
                0x00000000       0x20 c:/program files/microchip/xc32/v4.00/bin/bin/../../lib/gcc/pic32c/8.3.1/../../../../pic32c/lib/thumb/v7e-m+fp/hard\libm-emfloat.a(lib_a-_LDEXP.o)
 .text.__SEGGER_RTL_float64_isfinite
                0x00000000       0x14 c:/program files/microchip/xc32/v4.00/bin/bin/../../lib/gcc/pic32c/8.3.1/../../../../pic32c/lib/thumb/v7e-m+fp/hard\libm-emfloat.a(lib_a-_LDEXP.o)
 .text.__SEGGER_RTL_float64_isnormal
                0x00000000       0x34 c:/program files/microchip/xc32/v4.00/bin/bin/../../lib/gcc/pic32c/8.3.1/../../../../pic32c/lib/thumb/v7e-m+fp/hard\libm-emfloat.a(lib_a-_LDEXP.o)
 .text.__SEGGER_RTL_float64_signbit
                0x00000000        0x8 c:/program files/microchip/xc32/v4.00/bin/bin/../../lib/gcc/pic32c/8.3.1/../../../../pic32c/lib/thumb/v7e-m+fp/hard\libm-emfloat.a(lib_a-_LDEXP.o)
 .text.__SEGGER_RTL_float64_classify
                0x00000000       0x70 c:/program files/microchip/xc32/v4.00/bin/bin/../../lib/gcc/pic32c/8.3.1/../../../../pic32c/lib/thumb/v7e-m+fp/hard\libm-emfloat.a(lib_a-_LDEXP.o)
 .text.ldexp    0x00000000       0x54 c:/program files/microchip/xc32/v4.00/bin/bin/../../lib/gcc/pic32c/8.3.1/../../../../pic32c/lib/thumb/v7e-m+fp/hard\libm-emfloat.a(lib_a-_LDEXP.o)
 .text.__SEGGER_RTL_float64_cdiv
                0x00000000      0x334 c:/program files/microchip/xc32/v4.00/bin/bin/../../lib/gcc/pic32c/8.3.1/../../../../pic32c/lib/thumb/v7e-m+fp/hard\libm-emfloat.a(lib_a-_LDEXP.o)
 .text.__divdc3
                0x00000000       0x2c c:/program files/microchip/xc32/v4.00/bin/bin/../../lib/gcc/pic32c/8.3.1/../../../../pic32c/lib/thumb/v7e-m+fp/hard\libm-emfloat.a(lib_a-_LDEXP.o)
 .text.ldexpl   0x00000000        0x8 c:/program files/microchip/xc32/v4.00/bin/bin/../../lib/gcc/pic32c/8.3.1/../../../../pic32c/lib/thumb/v7e-m+fp/hard\libm-emfloat.a(lib_a-_LDEXP.o)
 .xc_stack_usage.hdr
                0x00000000        0xe c:/program files/microchip/xc32/v4.00/bin/bin/../../lib/gcc/pic32c/8.3.1/../../../../pic32c/lib/thumb/v7e-m+fp/hard\libm-emfloat.a(lib_a-_LDEXP.o)
 .comment       0x00000000       0x54 c:/program files/microchip/xc32/v4.00/bin/bin/../../lib/gcc/pic32c/8.3.1/../../../../pic32c/lib/thumb/v7e-m+fp/hard\libm-emfloat.a(lib_a-_LDEXP.o)
 .ARM.attributes
                0x00000000       0x34 c:/program files/microchip/xc32/v4.00/bin/bin/../../lib/gcc/pic32c/8.3.1/../../../../pic32c/lib/thumb/v7e-m+fp/hard\libm-emfloat.a(lib_a-_LDEXP.o)
 .text          0x00000000       0xa0 c:/program files/microchip/xc32/v4.00/bin/bin/../../lib/gcc/pic32c/8.3.1/thumb/v7e-m+fp/hard\libgcc.a(_aeabi_ldivmod.o)
 .data          0x00000000        0x0 c:/program files/microchip/xc32/v4.00/bin/bin/../../lib/gcc/pic32c/8.3.1/thumb/v7e-m+fp/hard\libgcc.a(_aeabi_ldivmod.o)
 .bss           0x00000000        0x0 c:/program files/microchip/xc32/v4.00/bin/bin/../../lib/gcc/pic32c/8.3.1/thumb/v7e-m+fp/hard\libgcc.a(_aeabi_ldivmod.o)
 .xc_stack_usage.hdr
                0x00000000        0xe c:/program files/microchip/xc32/v4.00/bin/bin/../../lib/gcc/pic32c/8.3.1/thumb/v7e-m+fp/hard\libgcc.a(_aeabi_ldivmod.o)
 .xc_stack_usage
                0x00000000       0x1d c:/program files/microchip/xc32/v4.00/bin/bin/../../lib/gcc/pic32c/8.3.1/thumb/v7e-m+fp/hard\libgcc.a(_aeabi_ldivmod.o)
 .debug_line    0x00000000       0xba c:/program files/microchip/xc32/v4.00/bin/bin/../../lib/gcc/pic32c/8.3.1/thumb/v7e-m+fp/hard\libgcc.a(_aeabi_ldivmod.o)
 .debug_info    0x00000000       0x26 c:/program files/microchip/xc32/v4.00/bin/bin/../../lib/gcc/pic32c/8.3.1/thumb/v7e-m+fp/hard\libgcc.a(_aeabi_ldivmod.o)
 .debug_abbrev  0x00000000       0x14 c:/program files/microchip/xc32/v4.00/bin/bin/../../lib/gcc/pic32c/8.3.1/thumb/v7e-m+fp/hard\libgcc.a(_aeabi_ldivmod.o)
 .debug_aranges
                0x00000000       0x20 c:/program files/microchip/xc32/v4.00/bin/bin/../../lib/gcc/pic32c/8.3.1/thumb/v7e-m+fp/hard\libgcc.a(_aeabi_ldivmod.o)
 .debug_str     0x00000000       0xee c:/program files/microchip/xc32/v4.00/bin/bin/../../lib/gcc/pic32c/8.3.1/thumb/v7e-m+fp/hard\libgcc.a(_aeabi_ldivmod.o)
 .debug_frame   0x00000000       0x44 c:/program files/microchip/xc32/v4.00/bin/bin/../../lib/gcc/pic32c/8.3.1/thumb/v7e-m+fp/hard\libgcc.a(_aeabi_ldivmod.o)
 .ARM.attributes
                0x00000000       0x1e c:/program files/microchip/xc32/v4.00/bin/bin/../../lib/gcc/pic32c/8.3.1/thumb/v7e-m+fp/hard\libgcc.a(_aeabi_ldivmod.o)
 .data          0x00000000        0x0 c:/program files/microchip/xc32/v4.00/bin/bin/../../lib/gcc/pic32c/8.3.1/thumb/v7e-m+fp/hard\libgcc.a(_aeabi_uldivmod.o)
 .bss           0x00000000        0x0 c:/program files/microchip/xc32/v4.00/bin/bin/../../lib/gcc/pic32c/8.3.1/thumb/v7e-m+fp/hard\libgcc.a(_aeabi_uldivmod.o)
 .xc_stack_usage.hdr
                0x00000000        0xe c:/program files/microchip/xc32/v4.00/bin/bin/../../lib/gcc/pic32c/8.3.1/thumb/v7e-m+fp/hard\libgcc.a(_aeabi_uldivmod.o)
 .xc_stack_usage
                0x00000000       0x1e c:/program files/microchip/xc32/v4.00/bin/bin/../../lib/gcc/pic32c/8.3.1/thumb/v7e-m+fp/hard\libgcc.a(_aeabi_uldivmod.o)
 .data          0x00000000        0x0 c:/program files/microchip/xc32/v4.00/bin/bin/../../lib/gcc/pic32c/8.3.1/thumb/v7e-m+fp/hard\libgcc.a(_udivmoddi4.o)
 .bss           0x00000000        0x0 c:/program files/microchip/xc32/v4.00/bin/bin/../../lib/gcc/pic32c/8.3.1/thumb/v7e-m+fp/hard\libgcc.a(_udivmoddi4.o)
 .xc_stack_usage
                0x00000000       0x1a c:/program files/microchip/xc32/v4.00/bin/bin/../../lib/gcc/pic32c/8.3.1/thumb/v7e-m+fp/hard\libgcc.a(_udivmoddi4.o)
 .ARM.extab     0x00000000        0x0 c:/program files/microchip/xc32/v4.00/bin/bin/../../lib/gcc/pic32c/8.3.1/thumb/v7e-m+fp/hard\libgcc.a(_udivmoddi4.o)
 .xc_stack_usage.hdr
                0x00000000        0xe c:/program files/microchip/xc32/v4.00/bin/bin/../../lib/gcc/pic32c/8.3.1/thumb/v7e-m+fp/hard\libgcc.a(_udivmoddi4.o)
 .data          0x00000000        0x0 c:/program files/microchip/xc32/v4.00/bin/bin/../../lib/gcc/pic32c/8.3.1/thumb/v7e-m+fp/hard\libgcc.a(_dvmd_tls.o)
 .bss           0x00000000        0x0 c:/program files/microchip/xc32/v4.00/bin/bin/../../lib/gcc/pic32c/8.3.1/thumb/v7e-m+fp/hard\libgcc.a(_dvmd_tls.o)
 .xc_stack_usage.hdr
                0x00000000        0xe c:/program files/microchip/xc32/v4.00/bin/bin/../../lib/gcc/pic32c/8.3.1/thumb/v7e-m+fp/hard\libgcc.a(_dvmd_tls.o)
 .xc_stack_usage
                0x00000000       0x36 c:/program files/microchip/xc32/v4.00/bin/bin/../../lib/gcc/pic32c/8.3.1/thumb/v7e-m+fp/hard\libgcc.a(_dvmd_tls.o)
 .text          0x00000000        0x0 c:/program files/microchip/xc32/v4.00/bin/bin/../../lib/gcc/pic32c/8.3.1/../../../../pic32c/lib/thumb/v7e-m+fp/hard\libpic32c.a(sbrk.o)
 .data          0x00000000        0x0 c:/program files/microchip/xc32/v4.00/bin/bin/../../lib/gcc/pic32c/8.3.1/../../../../pic32c/lib/thumb/v7e-m+fp/hard\libpic32c.a(sbrk.o)
 .xc_stack_usage
                0x00000000       0x13 c:/program files/microchip/xc32/v4.00/bin/bin/../../lib/gcc/pic32c/8.3.1/../../../../pic32c/lib/thumb/v7e-m+fp/hard\libpic32c.a(sbrk.o)
 .xc_stack_usage.hdr
                0x00000000        0xe c:/program files/microchip/xc32/v4.00/bin/bin/../../lib/gcc/pic32c/8.3.1/../../../../pic32c/lib/thumb/v7e-m+fp/hard\libpic32c.a(sbrk.o)
 .text          0x00000000        0x0 c:/program files/microchip/xc32/v4.00/bin/bin/../../lib/gcc/pic32c/8.3.1/thumb/v7e-m+fp/hard/crtend.o
 .data          0x00000000        0x0 c:/program files/microchip/xc32/v4.00/bin/bin/../../lib/gcc/pic32c/8.3.1/thumb/v7e-m+fp/hard/crtend.o
 .bss           0x00000000        0x0 c:/program files/microchip/xc32/v4.00/bin/bin/../../lib/gcc/pic32c/8.3.1/thumb/v7e-m+fp/hard/crtend.o
 .eh_frame      0x00000000        0x4 c:/program files/microchip/xc32/v4.00/bin/bin/../../lib/gcc/pic32c/8.3.1/thumb/v7e-m+fp/hard/crtend.o
 .xc_stack_usage.hdr
                0x00000000        0xe c:/program files/microchip/xc32/v4.00/bin/bin/../../lib/gcc/pic32c/8.3.1/thumb/v7e-m+fp/hard/crtend.o
 .comment       0x00000000       0x54 c:/program files/microchip/xc32/v4.00/bin/bin/../../lib/gcc/pic32c/8.3.1/thumb/v7e-m+fp/hard/crtend.o
 .ARM.attributes
                0x00000000       0x32 c:/program files/microchip/xc32/v4.00/bin/bin/../../lib/gcc/pic32c/8.3.1/thumb/v7e-m+fp/hard/crtend.o
 .text          0x00000000        0x0 c:/program files/microchip/xc32/v4.00/bin/bin/../../lib/gcc/pic32c/8.3.1/thumb/v7e-m+fp/hard/crtn.o
 .data          0x00000000        0x0 c:/program files/microchip/xc32/v4.00/bin/bin/../../lib/gcc/pic32c/8.3.1/thumb/v7e-m+fp/hard/crtn.o
 .bss           0x00000000        0x0 c:/program files/microchip/xc32/v4.00/bin/bin/../../lib/gcc/pic32c/8.3.1/thumb/v7e-m+fp/hard/crtn.o
 .xc_stack_usage.hdr
                0x00000000        0xe c:/program files/microchip/xc32/v4.00/bin/bin/../../lib/gcc/pic32c/8.3.1/thumb/v7e-m+fp/hard/crtn.o

Memory Configuration

Name             Origin             Length             Attributes
rom              0x00000000         0x00100000         xrl
ram              0x20000000         0x00040000         xw !r
tcm              0x03000000         0x00000000         xw
bkupram          0x47000000         0x00002000
config_00804000  0x00804000         0x00000004
config_00804008  0x00804008         0x00000004
config_00804004  0x00804004         0x00000004
*default*        0x00000000         0xffffffff

Linker script and memory map

LOAD c:/program files/microchip/xc32/v4.00/bin/bin/../../lib/gcc/pic32c/8.3.1/thumb/v7e-m+fp/hard/crti.o
LOAD c:/program files/microchip/xc32/v4.00/bin/bin/../../lib/gcc/pic32c/8.3.1/thumb/v7e-m+fp/hard/crtbegin.o
LOAD build/default/debug/_ext/1645245335/crypto.o
LOAD build/default/debug/_ext/444070925/drv_ethphy.o
LOAD build/default/debug/_ext/444070925/drv_extphy_ksz8061.o
LOAD build/default/debug/_ext/1546807373/drv_gmac.o
LOAD build/default/debug/_ext/1546807373/drv_gmac_lib_samE5x.o
LOAD build/default/debug/_ext/438849557/drv_miim.o
LOAD build/default/debug/_ext/20954303/drv_sdmmc_file_system.o
LOAD build/default/debug/_ext/20954303/drv_sdmmc.o
LOAD build/default/debug/_ext/1751889202/sys_fs_shell.o
LOAD build/default/debug/_ext/1033058136/helpers.o
LOAD build/default/debug/_ext/1033058136/tcp.o
LOAD build/default/debug/_ext/1033058136/arp.o
LOAD build/default/debug/_ext/1033058136/ipv4.o
LOAD build/default/debug/_ext/1033058136/tcpip_heap_alloc.o
LOAD build/default/debug/_ext/1033058136/tcpip_heap_internal.o
LOAD build/default/debug/_ext/1033058136/dhcp.o
LOAD build/default/debug/_ext/1033058136/dns.o
LOAD build/default/debug/_ext/1033058136/hash_fnv.o
LOAD build/default/debug/_ext/1033058136/oahash.o
LOAD build/default/debug/_ext/1033058136/tcpip_helpers.o
LOAD build/default/debug/_ext/1033058136/tcpip_manager.o
LOAD build/default/debug/_ext/1033058136/tcpip_notify.o
LOAD build/default/debug/_ext/1033058136/tcpip_packet.o
LOAD build/default/debug/_ext/1033058136/ftp.o
LOAD build/default/debug/_ext/1033058136/icmp.o
LOAD build/default/debug/_ext/1508031553/net_pres.o
LOAD build/default/debug/_ext/1640433940/net_pres_enc_glue.o
LOAD build/default/debug/_ext/1640433940/net_pres_cert_store.o
LOAD build/default/debug/_ext/1984496892/plib_clock.o
LOAD build/default/debug/_ext/1865131932/plib_cmcc.o
LOAD build/default/debug/_ext/1986646378/plib_evsys.o
LOAD build/default/debug/_ext/1865468468/plib_nvic.o
LOAD build/default/debug/_ext/1593096446/plib_nvmctrl.o
LOAD build/default/debug/_ext/1865521619/plib_port.o
LOAD build/default/debug/_ext/1865600094/plib_sdhc1.o
LOAD build/default/debug/_ext/504274921/plib_sercom1_usart.o
LOAD build/default/debug/_ext/829342655/plib_tc0.o
LOAD build/default/debug/_ext/163028504/xc32_monitor.o
LOAD build/default/debug/_ext/1014039709/sys_cache.o
LOAD build/default/debug/_ext/1832805299/sys_console.o
LOAD build/default/debug/_ext/1832805299/sys_console_uart.o
LOAD build/default/debug/_ext/944882569/sys_debug.o
LOAD build/default/debug/_ext/411819097/ff.o
LOAD build/default/debug/_ext/411819097/ffunicode.o
LOAD build/default/debug/_ext/565198302/diskio.o
LOAD build/default/debug/_ext/1269487135/sys_fs.o
LOAD build/default/debug/_ext/1269487135/sys_fs_media_manager.o
LOAD build/default/debug/_ext/1269487135/sys_fs_fat_interface.o
LOAD build/default/debug/_ext/1881668453/sys_int.o
LOAD build/default/debug/_ext/101884895/sys_time.o
LOAD build/default/debug/_ext/753841488/sys_time_h2_adapter.o
LOAD build/default/debug/_ext/753841488/sys_random_h2_adapter.o
LOAD build/default/debug/_ext/1171490990/initialization.o
LOAD build/default/debug/_ext/1171490990/interrupts.o
LOAD build/default/debug/_ext/1171490990/exceptions.o
LOAD build/default/debug/_ext/1171490990/startup_xc32.o
LOAD build/default/debug/_ext/1171490990/libc_syscalls.o
LOAD build/default/debug/_ext/1171490990/tasks.o
LOAD build/default/debug/_ext/172253694/pic32mz-crypt.o
LOAD build/default/debug/_ext/172253694/crypt_aes_sam6149.o
LOAD build/default/debug/_ext/172253694/crypt_aes_u2238.o
LOAD build/default/debug/_ext/172253694/crypt_ecc_ba414e.o
LOAD build/default/debug/_ext/172253694/crypt_ecc_pukcl.o
LOAD build/default/debug/_ext/172253694/crypt_pukcl_functions.o
LOAD build/default/debug/_ext/172253694/crypt_rng_sam6334.o
LOAD build/default/debug/_ext/172253694/crypt_rng_u2242.o
LOAD build/default/debug/_ext/172253694/crypt_rsa_pukcl.o
LOAD build/default/debug/_ext/172253694/crypt_sam_u2803.o
LOAD build/default/debug/_ext/172253694/crypt_sha1_sam11105.o
LOAD build/default/debug/_ext/172253694/crypt_sha1_sam6156.o
LOAD build/default/debug/_ext/172253694/crypt_sha224_sam11105.o
LOAD build/default/debug/_ext/172253694/crypt_sha224_sam6156.o
LOAD build/default/debug/_ext/172253694/crypt_sha256_sam11105.o
LOAD build/default/debug/_ext/172253694/crypt_sha256_sam6156.o
LOAD build/default/debug/_ext/172253694/crypt_sha384_sam6156.o
LOAD build/default/debug/_ext/172253694/crypt_sha512_sam6156.o
LOAD build/default/debug/_ext/172253694/crypt_tdes_sam6150.o
LOAD build/default/debug/_ext/172253694/crypt_wolfcryptcb.o
LOAD build/default/debug/_ext/1664057780/arc4.o
LOAD build/default/debug/_ext/1664057780/asm.o
LOAD build/default/debug/_ext/1664057780/asn.o
LOAD build/default/debug/_ext/1664057780/blake2b.o
LOAD build/default/debug/_ext/1664057780/blake2s.o
LOAD build/default/debug/_ext/1664057780/camellia.o
LOAD build/default/debug/_ext/1664057780/chacha.o
LOAD build/default/debug/_ext/1664057780/chacha20_poly1305.o
LOAD build/default/debug/_ext/1664057780/cmac.o
LOAD build/default/debug/_ext/1664057780/coding.o
LOAD build/default/debug/_ext/1664057780/compress.o
LOAD build/default/debug/_ext/1664057780/cpuid.o
LOAD build/default/debug/_ext/1664057780/cryptocb.o
LOAD build/default/debug/_ext/1664057780/curve25519.o
LOAD build/default/debug/_ext/1664057780/curve448.o
LOAD build/default/debug/_ext/1664057780/dh.o
LOAD build/default/debug/_ext/1664057780/dsa.o
LOAD build/default/debug/_ext/1664057780/ecc_fp.o
LOAD build/default/debug/_ext/1664057780/ed25519.o
LOAD build/default/debug/_ext/1664057780/ed448.o
LOAD build/default/debug/_ext/1664057780/error.o
LOAD build/default/debug/_ext/1664057780/fe_448.o
LOAD build/default/debug/_ext/1664057780/fe_low_mem.o
LOAD build/default/debug/_ext/1664057780/fe_operations.o
LOAD build/default/debug/_ext/1664057780/ge_448.o
LOAD build/default/debug/_ext/1664057780/ge_low_mem.o
LOAD build/default/debug/_ext/1664057780/ge_operations.o
LOAD build/default/debug/_ext/1664057780/hash.o
LOAD build/default/debug/_ext/1664057780/hc128.o
LOAD build/default/debug/_ext/1664057780/hmac.o
LOAD build/default/debug/_ext/1664057780/idea.o
LOAD build/default/debug/_ext/1664057780/integer.o
LOAD build/default/debug/_ext/1664057780/logging.o
LOAD build/default/debug/_ext/1664057780/md2.o
LOAD build/default/debug/_ext/1664057780/md4.o
LOAD build/default/debug/_ext/1664057780/md5.o
LOAD build/default/debug/_ext/1664057780/memory.o
LOAD build/default/debug/_ext/1664057780/pkcs12.o
LOAD build/default/debug/_ext/1664057780/pkcs7.o
LOAD build/default/debug/_ext/1664057780/poly1305.o
LOAD build/default/debug/_ext/1664057780/pwdbased.o
LOAD build/default/debug/_ext/1664057780/rabbit.o
LOAD build/default/debug/_ext/1664057780/rc2.o
LOAD build/default/debug/_ext/1664057780/ripemd.o
LOAD build/default/debug/_ext/1664057780/rsa.o
LOAD build/default/debug/_ext/1664057780/sha3.o
LOAD build/default/debug/_ext/1664057780/signature.o
LOAD build/default/debug/_ext/1664057780/sp_arm32.o
LOAD build/default/debug/_ext/1664057780/sp_arm64.o
LOAD build/default/debug/_ext/1664057780/sp_armthumb.o
LOAD build/default/debug/_ext/1664057780/sp_c32.o
LOAD build/default/debug/_ext/1664057780/sp_c64.o
LOAD build/default/debug/_ext/1664057780/sp_cortexm.o
LOAD build/default/debug/_ext/1664057780/sp_dsp32.o
LOAD build/default/debug/_ext/1664057780/sp_int.o
LOAD build/default/debug/_ext/1664057780/sp_x86_64.o
LOAD build/default/debug/_ext/1664057780/srp.o
LOAD build/default/debug/_ext/1664057780/tfm.o
LOAD build/default/debug/_ext/1664057780/wc_dsp.o
LOAD build/default/debug/_ext/1664057780/wc_encrypt.o
LOAD build/default/debug/_ext/1664057780/wc_pkcs11.o
LOAD build/default/debug/_ext/1664057780/wc_port.o
LOAD build/default/debug/_ext/1664057780/wolfevent.o
LOAD build/default/debug/_ext/1664057780/wolfmath.o
LOAD build/default/debug/_ext/1664057780/aes.o
LOAD build/default/debug/_ext/1664057780/des3.o
LOAD build/default/debug/_ext/1664057780/random.o
LOAD build/default/debug/_ext/1664057780/sha.o
LOAD build/default/debug/_ext/1664057780/sha256.o
LOAD build/default/debug/_ext/1664057780/sha512.o
LOAD build/default/debug/_ext/1664057780/ecc.o
LOAD build/default/debug/_ext/1360937237/main.o
LOAD build/default/debug/_ext/1360937237/app.o
LOAD build/default/debug/_ext/1664057780/misc.o
LOAD build/default/debug/_ext/1664057780/evp.o
LOAD build/default/debug/_ext/1033058136/berkeley_api.o
LOAD build/default/debug/_ext/1033058136/tcpip_announce.o
LOAD build/default/debug/_ext/1033058136/udp.o
                0x00000001                __MPLAB_BUILD = 0x1
                0x00100000                __rom_end = (ORIGIN (rom) + LENGTH (rom))
                0x20040000                __ram_end = (ORIGIN (ram) + LENGTH (ram))

.config_00804000
 *(.config_00804000)

.config_00804008
 *(.config_00804008)

.config_00804004
 *(.config_00804004)

.vectors        0x00000000      0x264
                0x00000000                . = ALIGN (0x4)
                0x00000000                _sfixed = .
 *(.vectors .vectors.* .vectors_default .vectors_default.*)
 .vectors.exception_table
                0x00000000      0x264 build/default/debug/_ext/1171490990/interrupts.o
                0x00000000                exception_table
 *(.isr_vector)
 *(.reset*)
 *(.after_vectors)

.text           0x00000264       0x20
                0x00000264                . = ALIGN (0x4)
 *(.glue_7t)
 .glue_7t       0x00000264        0x0 linker stubs
 *(.glue_7)
 .glue_7        0x00000264        0x0 linker stubs
 *(.gnu.linkonce.r.*)
 *(.ARM.extab* .gnu.linkonce.armextab.*)
                0x00000264                . = ALIGN (0x4)
 *(.init)
 .init          0x00000264        0x4 c:/program files/microchip/xc32/v4.00/bin/bin/../../lib/gcc/pic32c/8.3.1/thumb/v7e-m+fp/hard/crti.o
                0x00000264                _init
 .init          0x00000268        0x8 c:/program files/microchip/xc32/v4.00/bin/bin/../../lib/gcc/pic32c/8.3.1/thumb/v7e-m+fp/hard/crtn.o
                0x00000270                . = ALIGN (0x4)
                0x00000270                __preinit_array_start = .
 *(.preinit_array)
                0x00000270                __preinit_array_end = .
                0x00000270                . = ALIGN (0x4)
                0x00000270                __init_array_start = .
 *(SORT_BY_NAME(.init_array.*))
 *(.init_array)
 .init_array    0x00000270        0x4 c:/program files/microchip/xc32/v4.00/bin/bin/../../lib/gcc/pic32c/8.3.1/thumb/v7e-m+fp/hard/crtbegin.o
                0x00000274                __init_array_end = .
                0x00000274                . = ALIGN (0x4)
 *crtbegin.o(.ctors)
 *(EXCLUDE_FILE(*crtend.o) .ctors)
 *(SORT_BY_NAME(.ctors.*))
 *crtend.o(.ctors)
                0x00000274                . = ALIGN (0x4)
 *(.fini)
 .fini          0x00000274        0x4 c:/program files/microchip/xc32/v4.00/bin/bin/../../lib/gcc/pic32c/8.3.1/thumb/v7e-m+fp/hard/crti.o
                0x00000274                _fini
 .fini          0x00000278        0x8 c:/program files/microchip/xc32/v4.00/bin/bin/../../lib/gcc/pic32c/8.3.1/thumb/v7e-m+fp/hard/crtn.o
                0x00000280                . = ALIGN (0x4)
                0x00000280                __fini_array_start = .
 *(.fini_array)
 .fini_array    0x00000280        0x4 c:/program files/microchip/xc32/v4.00/bin/bin/../../lib/gcc/pic32c/8.3.1/thumb/v7e-m+fp/hard/crtbegin.o
 *(SORT_BY_NAME(.fini_array.*))
                0x00000284                __fini_array_end = .
 *crtbegin.o(.dtors)
 *(EXCLUDE_FILE(*crtend.o) .dtors)
 *(SORT_BY_NAME(.dtors.*))
 *crtend.o(.dtors)
                0x00000284                . = ALIGN (0x4)
                0x00000284                _efixed = .
                [!provide]                PROVIDE (__exidx_start = .)

.ARM.exidx      0x00000284        0x8
 *(.ARM.exidx* .gnu.linkonce.armexidx.*)
 .ARM.exidx     0x00000284        0x8 c:/program files/microchip/xc32/v4.00/bin/bin/../../lib/gcc/pic32c/8.3.1/thumb/v7e-m+fp/hard\libgcc.a(_udivmoddi4.o)
                [!provide]                PROVIDE (__exidx_end = .)
                0x0000028c                . = ALIGN (0x4)
                0x0000028c                _etext = .

.bss            0x20000000        0x0
                0x20000000                . = ALIGN (0x4)
                0x20000000                __bss_start__ = .
                0x20000000                _sbss = .
                0x20000000                _szero = .
 *(COMMON)
                0x20000000                . = ALIGN (0x4)
                0x20000000                __bss_end__ = .
                0x20000000                _ebss = .
                0x20000000                _ezero = .
                0x20000000                . = ALIGN (0x4)
                0x20000000                _end = .
                0x2003ffff                _ram_end_ = ((ORIGIN (ram) + LENGTH (ram)) - 0x1)

.bkupram_bss
 *(.bkupram_bss .bkupram_bss.*)
 *(.pbss .pbss.*)
                0x00000001                __ICD2RAM = 0x1
                0x00000001                __MPLAB_DEBUG = 0x1
                0x00000001                __DEBUG = 0x1
                0x000186a0                _min_heap_size = 0x186a0
START GROUP
LOAD c:/program files/microchip/xc32/v4.00/bin/bin/../../lib/gcc/pic32c/8.3.1/../../../../pic32c/lib/thumb/v7e-m+fp/hard\libpic32c.a
LOAD c:/program files/microchip/xc32/v4.00/bin/bin/../../lib/gcc/pic32c/8.3.1/../../../../pic32c/lib/thumb/v7e-m+fp/hard\libm-emfloat.a
LOAD c:/program files/microchip/xc32/v4.00/bin/bin/../../lib/gcc/pic32c/8.3.1/../../../../pic32c/lib/thumb/v7e-m+fp/hard\libg-musl.a
LOAD c:/program files/microchip/xc32/v4.00/bin/bin/../../lib/gcc/pic32c/8.3.1/../../../../pic32c/lib/thumb/v7e-m+fp/hard\libc-musl.a
LOAD c:/program files/microchip/xc32/v4.00/bin/bin/../../lib/gcc/pic32c/8.3.1/../../../../pic32c/lib/thumb/v7e-m+fp/hard\libm-emfloat.a
LOAD c:/program files/microchip/xc32/v4.00/bin/bin/../../lib/gcc/pic32c/8.3.1/thumb/v7e-m+fp/hard\libgcc.a
END GROUP
LOAD c:/program files/microchip/xc32/v4.00/bin/bin/../../lib/gcc/pic32c/8.3.1/thumb/v7e-m+fp/hard/crtend.o
LOAD c:/program files/microchip/xc32/v4.00/bin/bin/../../lib/gcc/pic32c/8.3.1/thumb/v7e-m+fp/hard/crtn.o
OUTPUT(dist/default/debug/same54_cu_tcpip.X.debug.elf elf32-littlearm)
LOAD stack
LOAD data_init

.ARM.attributes
                0x00000000       0x32
 .ARM.attributes
                0x00000000       0x1e c:/program files/microchip/xc32/v4.00/bin/bin/../../lib/gcc/pic32c/8.3.1/thumb/v7e-m+fp/hard/crti.o
 .ARM.attributes
                0x0000001e       0x34 c:/program files/microchip/xc32/v4.00/bin/bin/../../lib/gcc/pic32c/8.3.1/thumb/v7e-m+fp/hard/crtbegin.o
 .ARM.attributes
                0x00000052       0x34 build/default/debug/_ext/444070925/drv_ethphy.o
 .ARM.attributes
                0x00000086       0x34 build/default/debug/_ext/444070925/drv_extphy_ksz8061.o
 .ARM.attributes
                0x000000ba       0x34 build/default/debug/_ext/1546807373/drv_gmac.o
 .ARM.attributes
                0x000000ee       0x34 build/default/debug/_ext/1546807373/drv_gmac_lib_samE5x.o
 .ARM.attributes
                0x00000122       0x34 build/default/debug/_ext/438849557/drv_miim.o
 .ARM.attributes
                0x00000156       0x34 build/default/debug/_ext/20954303/drv_sdmmc_file_system.o
 .ARM.attributes
                0x0000018a       0x34 build/default/debug/_ext/20954303/drv_sdmmc.o
 .ARM.attributes
                0x000001be       0x34 build/default/debug/_ext/1751889202/sys_fs_shell.o
 .ARM.attributes
                0x000001f2       0x34 build/default/debug/_ext/1033058136/helpers.o
 .ARM.attributes
                0x00000226       0x34 build/default/debug/_ext/1033058136/tcp.o
 .ARM.attributes
                0x0000025a       0x34 build/default/debug/_ext/1033058136/arp.o
 .ARM.attributes
                0x0000028e       0x34 build/default/debug/_ext/1033058136/ipv4.o
 .ARM.attributes
                0x000002c2       0x34 build/default/debug/_ext/1033058136/tcpip_heap_alloc.o
 .ARM.attributes
                0x000002f6       0x34 build/default/debug/_ext/1033058136/tcpip_heap_internal.o
 .ARM.attributes
                0x0000032a       0x34 build/default/debug/_ext/1033058136/dns.o
 .ARM.attributes
                0x0000035e       0x34 build/default/debug/_ext/1033058136/hash_fnv.o
 .ARM.attributes
                0x00000392       0x34 build/default/debug/_ext/1033058136/oahash.o
 .ARM.attributes
                0x000003c6       0x34 build/default/debug/_ext/1033058136/tcpip_helpers.o
 .ARM.attributes
                0x000003fa       0x34 build/default/debug/_ext/1033058136/tcpip_manager.o
 .ARM.attributes
                0x0000042e       0x34 build/default/debug/_ext/1033058136/tcpip_notify.o
 .ARM.attributes
                0x00000462       0x34 build/default/debug/_ext/1033058136/tcpip_packet.o
 .ARM.attributes
                0x00000496       0x34 build/default/debug/_ext/1033058136/ftp.o
 .ARM.attributes
                0x000004ca       0x34 build/default/debug/_ext/1033058136/icmp.o
 .ARM.attributes
                0x000004fe       0x34 build/default/debug/_ext/1508031553/net_pres.o
 .ARM.attributes
                0x00000532       0x34 build/default/debug/_ext/1984496892/plib_clock.o
 .ARM.attributes
                0x00000566       0x34 build/default/debug/_ext/1986646378/plib_evsys.o
 .ARM.attributes
                0x0000059a       0x34 build/default/debug/_ext/1865468468/plib_nvic.o
 .ARM.attributes
                0x000005ce       0x34 build/default/debug/_ext/1593096446/plib_nvmctrl.o
 .ARM.attributes
                0x00000602       0x34 build/default/debug/_ext/1865521619/plib_port.o
 .ARM.attributes
                0x00000636       0x34 build/default/debug/_ext/1865600094/plib_sdhc1.o
 .ARM.attributes
                0x0000066a       0x34 build/default/debug/_ext/504274921/plib_sercom1_usart.o
 .ARM.attributes
                0x0000069e       0x34 build/default/debug/_ext/829342655/plib_tc0.o
 .ARM.attributes
                0x000006d2       0x34 build/default/debug/_ext/1832805299/sys_console.o
 .ARM.attributes
                0x00000706       0x34 build/default/debug/_ext/1832805299/sys_console_uart.o
 .ARM.attributes
                0x0000073a       0x34 build/default/debug/_ext/944882569/sys_debug.o
 .ARM.attributes
                0x0000076e       0x34 build/default/debug/_ext/411819097/ff.o
 .ARM.attributes
                0x000007a2       0x34 build/default/debug/_ext/411819097/ffunicode.o
 .ARM.attributes
                0x000007d6       0x34 build/default/debug/_ext/565198302/diskio.o
 .ARM.attributes
                0x0000080a       0x34 build/default/debug/_ext/1269487135/sys_fs.o
 .ARM.attributes
                0x0000083e       0x34 build/default/debug/_ext/1269487135/sys_fs_media_manager.o
 .ARM.attributes
                0x00000872       0x34 build/default/debug/_ext/1269487135/sys_fs_fat_interface.o
 .ARM.attributes
                0x000008a6       0x34 build/default/debug/_ext/1881668453/sys_int.o
 .ARM.attributes
                0x000008da       0x34 build/default/debug/_ext/101884895/sys_time.o
 .ARM.attributes
                0x0000090e       0x34 build/default/debug/_ext/753841488/sys_time_h2_adapter.o
 .ARM.attributes
                0x00000942       0x34 build/default/debug/_ext/1171490990/initialization.o
 .ARM.attributes
                0x00000976       0x34 build/default/debug/_ext/1171490990/interrupts.o
 .ARM.attributes
                0x000009aa       0x34 build/default/debug/_ext/1171490990/exceptions.o
 .ARM.attributes
                0x000009de       0x34 build/default/debug/_ext/1171490990/startup_xc32.o
 .ARM.attributes
                0x00000a12       0x34 build/default/debug/_ext/1171490990/tasks.o
 .ARM.attributes
                0x00000a46       0x34 build/default/debug/_ext/172253694/crypt_wolfcryptcb.o
 .ARM.attributes
                0x00000a7a       0x34 build/default/debug/_ext/1664057780/cryptocb.o
 .ARM.attributes
                0x00000aae       0x34 build/default/debug/_ext/1360937237/main.o
 .ARM.attributes
                0x00000ae2       0x34 build/default/debug/_ext/1360937237/app.o
 .ARM.attributes
                0x00000b16       0x34 build/default/debug/_ext/1033058136/berkeley_api.o
 .ARM.attributes
                0x00000b4a       0x34 build/default/debug/_ext/1033058136/tcpip_announce.o
 .ARM.attributes
                0x00000b7e       0x34 build/default/debug/_ext/1033058136/udp.o
 .ARM.attributes
                0x00000bb2       0x34 c:/program files/microchip/xc32/v4.00/bin/bin/../../lib/gcc/pic32c/8.3.1/../../../../pic32c/lib/thumb/v7e-m+fp/hard\libpic32c.a(data_init.o)
 .ARM.attributes
                0x00000be6       0x36 c:/program files/microchip/xc32/v4.00/bin/bin/../../lib/gcc/pic32c/8.3.1/../../../../pic32c/lib/thumb/v7e-m+fp/hard\libg-musl.a(isxdigit.o)
 .ARM.attributes
                0x00000c1c       0x36 c:/program files/microchip/xc32/v4.00/bin/bin/../../lib/gcc/pic32c/8.3.1/../../../../pic32c/lib/thumb/v7e-m+fp/hard\libg-musl.a(tolower.o)
 .ARM.attributes
                0x00000c52       0x36 c:/program files/microchip/xc32/v4.00/bin/bin/../../lib/gcc/pic32c/8.3.1/../../../../pic32c/lib/thumb/v7e-m+fp/hard\libg-musl.a(toupper.o)
 .ARM.attributes
                0x00000c88       0x36 c:/program files/microchip/xc32/v4.00/bin/bin/../../lib/gcc/pic32c/8.3.1/../../../../pic32c/lib/thumb/v7e-m+fp/hard\libg-musl.a(__libc_start_main.o)
 .ARM.attributes
                0x00000cbe       0x34 c:/program files/microchip/xc32/v4.00/bin/bin/../../lib/gcc/pic32c/8.3.1/../../../../pic32c/lib/thumb/v7e-m+fp/hard\libg-musl.a(__errno_location.o)
 .ARM.attributes
                0x00000cf2       0x34 c:/program files/microchip/xc32/v4.00/bin/bin/../../lib/gcc/pic32c/8.3.1/../../../../pic32c/lib/thumb/v7e-m+fp/hard\libg-musl.a(libc.o)
 .ARM.attributes
                0x00000d26       0x36 c:/program files/microchip/xc32/v4.00/bin/bin/../../lib/gcc/pic32c/8.3.1/../../../../pic32c/lib/thumb/v7e-m+fp/hard\libg-musl.a(calloc.o)
 .ARM.attributes
                0x00000d5c       0x36 c:/program files/microchip/xc32/v4.00/bin/bin/../../lib/gcc/pic32c/8.3.1/../../../../pic32c/lib/thumb/v7e-m+fp/hard\libg-musl.a(malloc.o)
 .ARM.attributes
                0x00000d92       0x36 c:/program files/microchip/xc32/v4.00/bin/bin/../../lib/gcc/pic32c/8.3.1/../../../../pic32c/lib/thumb/v7e-m+fp/hard\libg-musl.a(expand_heap.o)
 .ARM.attributes
                0x00000dc8       0x36 c:/program files/microchip/xc32/v4.00/bin/bin/../../lib/gcc/pic32c/8.3.1/../../../../pic32c/lib/thumb/v7e-m+fp/hard\libg-musl.a(rand.o)
 .ARM.attributes
                0x00000dfe       0x36 c:/program files/microchip/xc32/v4.00/bin/bin/../../lib/gcc/pic32c/8.3.1/../../../../pic32c/lib/thumb/v7e-m+fp/hard\libg-musl.a(vsnprintf.o)
 .ARM.attributes
                0x00000e34       0x36 c:/program files/microchip/xc32/v4.00/bin/bin/../../lib/gcc/pic32c/8.3.1/../../../../pic32c/lib/thumb/v7e-m+fp/hard\libg-musl.a(snprintf.o)
 .ARM.attributes
                0x00000e6a       0x36 c:/program files/microchip/xc32/v4.00/bin/bin/../../lib/gcc/pic32c/8.3.1/../../../../pic32c/lib/thumb/v7e-m+fp/hard\libg-musl.a(sprintf.o)
 .ARM.attributes
                0x00000ea0       0x36 c:/program files/microchip/xc32/v4.00/bin/bin/../../lib/gcc/pic32c/8.3.1/../../../../pic32c/lib/thumb/v7e-m+fp/hard\libg-musl.a(vsprintf.o)
 .ARM.attributes
                0x00000ed6       0x36 c:/program files/microchip/xc32/v4.00/bin/bin/../../lib/gcc/pic32c/8.3.1/../../../../pic32c/lib/thumb/v7e-m+fp/hard\libg-musl.a(atoi.o)
 .ARM.attributes
                0x00000f0c       0x36 c:/program files/microchip/xc32/v4.00/bin/bin/../../lib/gcc/pic32c/8.3.1/../../../../pic32c/lib/thumb/v7e-m+fp/hard\libg-musl.a(memcmp.o)
 .ARM.attributes
                0x00000f42       0x36 c:/program files/microchip/xc32/v4.00/bin/bin/../../lib/gcc/pic32c/8.3.1/../../../../pic32c/lib/thumb/v7e-m+fp/hard\libg-musl.a(memcpy.o)
 .ARM.attributes
                0x00000f78       0x36 c:/program files/microchip/xc32/v4.00/bin/bin/../../lib/gcc/pic32c/8.3.1/../../../../pic32c/lib/thumb/v7e-m+fp/hard\libg-musl.a(memset.o)
 .ARM.attributes
                0x00000fae       0x36 c:/program files/microchip/xc32/v4.00/bin/bin/../../lib/gcc/pic32c/8.3.1/../../../../pic32c/lib/thumb/v7e-m+fp/hard\libg-musl.a(strlen.o)
 .ARM.attributes
                0x00000fe4       0x36 c:/program files/microchip/xc32/v4.00/bin/bin/../../lib/gcc/pic32c/8.3.1/../../../../pic32c/lib/thumb/v7e-m+fp/hard\libg-musl.a(strstr.o)
 .ARM.attributes
                0x0000101a       0x36 c:/program files/microchip/xc32/v4.00/bin/bin/../../lib/gcc/pic32c/8.3.1/../../../../pic32c/lib/thumb/v7e-m+fp/hard\libg-musl.a(strchr.o)
 .ARM.attributes
                0x00001050       0x36 c:/program files/microchip/xc32/v4.00/bin/bin/../../lib/gcc/pic32c/8.3.1/../../../../pic32c/lib/thumb/v7e-m+fp/hard\libg-musl.a(strchrnul.o)
 .ARM.attributes
                0x00001086       0x36 c:/program files/microchip/xc32/v4.00/bin/bin/../../lib/gcc/pic32c/8.3.1/../../../../pic32c/lib/thumb/v7e-m+fp/hard\libg-musl.a(strcmp.o)
 .ARM.attributes
                0x000010bc       0x36 c:/program files/microchip/xc32/v4.00/bin/bin/../../lib/gcc/pic32c/8.3.1/../../../../pic32c/lib/thumb/v7e-m+fp/hard\libg-musl.a(strcpy.o)
 .ARM.attributes
                0x000010f2       0x36 c:/program files/microchip/xc32/v4.00/bin/bin/../../lib/gcc/pic32c/8.3.1/../../../../pic32c/lib/thumb/v7e-m+fp/hard\libg-musl.a(strncmp.o)
 .ARM.attributes
                0x00001128       0x36 c:/program files/microchip/xc32/v4.00/bin/bin/../../lib/gcc/pic32c/8.3.1/../../../../pic32c/lib/thumb/v7e-m+fp/hard\libg-musl.a(strncpy.o)
 .ARM.attributes
                0x0000115e       0x34 c:/program files/microchip/xc32/v4.00/bin/bin/../../lib/gcc/pic32c/8.3.1/../../../../pic32c/lib/thumb/v7e-m+fp/hard\libg-musl.a(__environ.o)
 .ARM.attributes
                0x00001192       0x36 c:/program files/microchip/xc32/v4.00/bin/bin/../../lib/gcc/pic32c/8.3.1/../../../../pic32c/lib/thumb/v7e-m+fp/hard\libg-musl.a(vfprintf.o)
 .ARM.attributes
                0x000011c8       0x36 c:/program files/microchip/xc32/v4.00/bin/bin/../../lib/gcc/pic32c/8.3.1/../../../../pic32c/lib/thumb/v7e-m+fp/hard\libg-musl.a(stpcpy.o)
 .ARM.attributes
                0x000011fe       0x36 c:/program files/microchip/xc32/v4.00/bin/bin/../../lib/gcc/pic32c/8.3.1/../../../../pic32c/lib/thumb/v7e-m+fp/hard\libg-musl.a(stpncpy.o)
 .ARM.attributes
                0x00001234       0x36 c:/program files/microchip/xc32/v4.00/bin/bin/../../lib/gcc/pic32c/8.3.1/../../../../pic32c/lib/thumb/v7e-m+fp/hard\libg-musl.a(__printf_core.o)
 .ARM.attributes
                0x0000126a       0x36 c:/program files/microchip/xc32/v4.00/bin/bin/../../lib/gcc/pic32c/8.3.1/../../../../pic32c/lib/thumb/v7e-m+fp/hard\libg-musl.a(__fmt_a.o)
 .ARM.attributes
                0x000012a0       0x36 c:/program files/microchip/xc32/v4.00/bin/bin/../../lib/gcc/pic32c/8.3.1/../../../../pic32c/lib/thumb/v7e-m+fp/hard\libg-musl.a(__fmt_d.o)
 .ARM.attributes
                0x000012d6       0x36 c:/program files/microchip/xc32/v4.00/bin/bin/../../lib/gcc/pic32c/8.3.1/../../../../pic32c/lib/thumb/v7e-m+fp/hard\libg-musl.a(__fmt_fp.o)
 .ARM.attributes
                0x0000130c       0x36 c:/program files/microchip/xc32/v4.00/bin/bin/../../lib/gcc/pic32c/8.3.1/../../../../pic32c/lib/thumb/v7e-m+fp/hard\libg-musl.a(__fmt_o.o)
 .ARM.attributes
                0x00001342       0x36 c:/program files/microchip/xc32/v4.00/bin/bin/../../lib/gcc/pic32c/8.3.1/../../../../pic32c/lib/thumb/v7e-m+fp/hard\libg-musl.a(__fmt_s.o)
 .ARM.attributes
                0x00001378       0x36 c:/program files/microchip/xc32/v4.00/bin/bin/../../lib/gcc/pic32c/8.3.1/../../../../pic32c/lib/thumb/v7e-m+fp/hard\libg-musl.a(__fmt_u.o)
 .ARM.attributes
                0x000013ae       0x36 c:/program files/microchip/xc32/v4.00/bin/bin/../../lib/gcc/pic32c/8.3.1/../../../../pic32c/lib/thumb/v7e-m+fp/hard\libg-musl.a(__fmt_x.o)
 .ARM.attributes
                0x000013e4       0x36 c:/program files/microchip/xc32/v4.00/bin/bin/../../lib/gcc/pic32c/8.3.1/../../../../pic32c/lib/thumb/v7e-m+fp/hard\libg-musl.a(__pop_float.o)
 .ARM.attributes
                0x0000141a       0x36 c:/program files/microchip/xc32/v4.00/bin/bin/../../lib/gcc/pic32c/8.3.1/../../../../pic32c/lib/thumb/v7e-m+fp/hard\libg-musl.a(__pop_int.o)
 .ARM.attributes
                0x00001450       0x36 c:/program files/microchip/xc32/v4.00/bin/bin/../../lib/gcc/pic32c/8.3.1/../../../../pic32c/lib/thumb/v7e-m+fp/hard\libg-musl.a(__pop_ptr.o)
 .ARM.attributes
                0x00001486       0x34 c:/program files/microchip/xc32/v4.00/bin/bin/../../lib/gcc/pic32c/8.3.1/../../../../pic32c/lib/thumb/v7e-m+fp/hard\libm-emfloat.a(lib_a-_FLOOR.o)
 .ARM.attributes
                0x000014ba       0x34 c:/program files/microchip/xc32/v4.00/bin/bin/../../lib/gcc/pic32c/8.3.1/../../../../pic32c/lib/thumb/v7e-m+fp/hard\libm-emfloat.a(lib_a-_FMA.o)
 .ARM.attributes
                0x000014ee       0x20 c:/program files/microchip/xc32/v4.00/bin/bin/../../lib/gcc/pic32c/8.3.1/../../../../pic32c/lib/thumb/v7e-m+fp/hard\libm-emfloat.a(floatasmops_arm.o)
 .ARM.attributes
                0x0000150e       0x1e c:/program files/microchip/xc32/v4.00/bin/bin/../../lib/gcc/pic32c/8.3.1/thumb/v7e-m+fp/hard\libgcc.a(_aeabi_uldivmod.o)
 .ARM.attributes
                0x0000152c       0x34 c:/program files/microchip/xc32/v4.00/bin/bin/../../lib/gcc/pic32c/8.3.1/thumb/v7e-m+fp/hard\libgcc.a(_udivmoddi4.o)
 .ARM.attributes
                0x00001560       0x1e c:/program files/microchip/xc32/v4.00/bin/bin/../../lib/gcc/pic32c/8.3.1/thumb/v7e-m+fp/hard\libgcc.a(_dvmd_tls.o)
 .ARM.attributes
                0x0000157e       0x34 c:/program files/microchip/xc32/v4.00/bin/bin/../../lib/gcc/pic32c/8.3.1/../../../../pic32c/lib/thumb/v7e-m+fp/hard\libpic32c.a(sbrk.o)
 .ARM.attributes
                0x000015b2       0x1e c:/program files/microchip/xc32/v4.00/bin/bin/../../lib/gcc/pic32c/8.3.1/thumb/v7e-m+fp/hard/crtn.o

.comment        0x00000000       0x53
 .comment       0x00000000       0x53 c:/program files/microchip/xc32/v4.00/bin/bin/../../lib/gcc/pic32c/8.3.1/thumb/v7e-m+fp/hard/crtbegin.o
                                 0x54 (size before relaxing)
 .comment       0x00000053       0x54 build/default/debug/_ext/444070925/drv_ethphy.o
 .comment       0x00000053       0x54 build/default/debug/_ext/444070925/drv_extphy_ksz8061.o
 .comment       0x00000053       0x54 build/default/debug/_ext/1546807373/drv_gmac.o
 .comment       0x00000053       0x54 build/default/debug/_ext/1546807373/drv_gmac_lib_samE5x.o
 .comment       0x00000053       0x54 build/default/debug/_ext/438849557/drv_miim.o
 .comment       0x00000053       0x54 build/default/debug/_ext/20954303/drv_sdmmc_file_system.o
 .comment       0x00000053       0x54 build/default/debug/_ext/20954303/drv_sdmmc.o
 .comment       0x00000053       0x54 build/default/debug/_ext/1751889202/sys_fs_shell.o
 .comment       0x00000053       0x54 build/default/debug/_ext/1033058136/helpers.o
 .comment       0x00000053       0x54 build/default/debug/_ext/1033058136/tcp.o
 .comment       0x00000053       0x54 build/default/debug/_ext/1033058136/arp.o
 .comment       0x00000053       0x54 build/default/debug/_ext/1033058136/ipv4.o
 .comment       0x00000053       0x54 build/default/debug/_ext/1033058136/tcpip_heap_alloc.o
 .comment       0x00000053       0x54 build/default/debug/_ext/1033058136/tcpip_heap_internal.o
 .comment       0x00000053       0x54 build/default/debug/_ext/1033058136/dns.o
 .comment       0x00000053       0x54 build/default/debug/_ext/1033058136/hash_fnv.o
 .comment       0x00000053       0x54 build/default/debug/_ext/1033058136/oahash.o
 .comment       0x00000053       0x54 build/default/debug/_ext/1033058136/tcpip_helpers.o
 .comment       0x00000053       0x54 build/default/debug/_ext/1033058136/tcpip_manager.o
 .comment       0x00000053       0x54 build/default/debug/_ext/1033058136/tcpip_notify.o
 .comment       0x00000053       0x54 build/default/debug/_ext/1033058136/tcpip_packet.o
 .comment       0x00000053       0x54 build/default/debug/_ext/1033058136/ftp.o
 .comment       0x00000053       0x54 build/default/debug/_ext/1033058136/icmp.o
 .comment       0x00000053       0x54 build/default/debug/_ext/1508031553/net_pres.o
 .comment       0x00000053       0x54 build/default/debug/_ext/1984496892/plib_clock.o
 .comment       0x00000053       0x54 build/default/debug/_ext/1986646378/plib_evsys.o
 .comment       0x00000053       0x54 build/default/debug/_ext/1865468468/plib_nvic.o
 .comment       0x00000053       0x54 build/default/debug/_ext/1593096446/plib_nvmctrl.o
 .comment       0x00000053       0x54 build/default/debug/_ext/1865521619/plib_port.o
 .comment       0x00000053       0x54 build/default/debug/_ext/1865600094/plib_sdhc1.o
 .comment       0x00000053       0x54 build/default/debug/_ext/504274921/plib_sercom1_usart.o
 .comment       0x00000053       0x54 build/default/debug/_ext/829342655/plib_tc0.o
 .comment       0x00000053       0x54 build/default/debug/_ext/1832805299/sys_console.o
 .comment       0x00000053       0x54 build/default/debug/_ext/1832805299/sys_console_uart.o
 .comment       0x00000053       0x54 build/default/debug/_ext/944882569/sys_debug.o
 .comment       0x00000053       0x54 build/default/debug/_ext/411819097/ff.o
 .comment       0x00000053       0x54 build/default/debug/_ext/411819097/ffunicode.o
 .comment       0x00000053       0x54 build/default/debug/_ext/565198302/diskio.o
 .comment       0x00000053       0x54 build/default/debug/_ext/1269487135/sys_fs.o
 .comment       0x00000053       0x54 build/default/debug/_ext/1269487135/sys_fs_media_manager.o
 .comment       0x00000053       0x54 build/default/debug/_ext/1269487135/sys_fs_fat_interface.o
 .comment       0x00000053       0x54 build/default/debug/_ext/1881668453/sys_int.o
 .comment       0x00000053       0x54 build/default/debug/_ext/101884895/sys_time.o
 .comment       0x00000053       0x54 build/default/debug/_ext/753841488/sys_time_h2_adapter.o
 .comment       0x00000053       0x54 build/default/debug/_ext/1171490990/initialization.o
 .comment       0x00000053       0x54 build/default/debug/_ext/1171490990/interrupts.o
 .comment       0x00000053       0x54 build/default/debug/_ext/1171490990/exceptions.o
 .comment       0x00000053       0x54 build/default/debug/_ext/1171490990/startup_xc32.o
 .comment       0x00000053       0x54 build/default/debug/_ext/1171490990/tasks.o
 .comment       0x00000053       0x54 build/default/debug/_ext/172253694/crypt_wolfcryptcb.o
 .comment       0x00000053       0x54 build/default/debug/_ext/1664057780/cryptocb.o
 .comment       0x00000053       0x54 build/default/debug/_ext/1360937237/main.o
 .comment       0x00000053       0x54 build/default/debug/_ext/1360937237/app.o
 .comment       0x00000053       0x54 build/default/debug/_ext/1033058136/berkeley_api.o
 .comment       0x00000053       0x54 build/default/debug/_ext/1033058136/tcpip_announce.o
 .comment       0x00000053       0x54 build/default/debug/_ext/1033058136/udp.o
 .comment       0x00000053       0x54 c:/program files/microchip/xc32/v4.00/bin/bin/../../lib/gcc/pic32c/8.3.1/../../../../pic32c/lib/thumb/v7e-m+fp/hard\libpic32c.a(data_init.o)
 .comment       0x00000053       0x54 c:/program files/microchip/xc32/v4.00/bin/bin/../../lib/gcc/pic32c/8.3.1/../../../../pic32c/lib/thumb/v7e-m+fp/hard\libg-musl.a(isxdigit.o)
 .comment       0x00000053       0x54 c:/program files/microchip/xc32/v4.00/bin/bin/../../lib/gcc/pic32c/8.3.1/../../../../pic32c/lib/thumb/v7e-m+fp/hard\libg-musl.a(tolower.o)
 .comment       0x00000053       0x54 c:/program files/microchip/xc32/v4.00/bin/bin/../../lib/gcc/pic32c/8.3.1/../../../../pic32c/lib/thumb/v7e-m+fp/hard\libg-musl.a(toupper.o)
 .comment       0x00000053       0x54 c:/program files/microchip/xc32/v4.00/bin/bin/../../lib/gcc/pic32c/8.3.1/../../../../pic32c/lib/thumb/v7e-m+fp/hard\libg-musl.a(__libc_start_main.o)
 .comment       0x00000053       0x54 c:/program files/microchip/xc32/v4.00/bin/bin/../../lib/gcc/pic32c/8.3.1/../../../../pic32c/lib/thumb/v7e-m+fp/hard\libg-musl.a(__errno_location.o)
 .comment       0x00000053       0x54 c:/program files/microchip/xc32/v4.00/bin/bin/../../lib/gcc/pic32c/8.3.1/../../../../pic32c/lib/thumb/v7e-m+fp/hard\libg-musl.a(libc.o)
 .comment       0x00000053       0x54 c:/program files/microchip/xc32/v4.00/bin/bin/../../lib/gcc/pic32c/8.3.1/../../../../pic32c/lib/thumb/v7e-m+fp/hard\libg-musl.a(calloc.o)
 .comment       0x00000053       0x54 c:/program files/microchip/xc32/v4.00/bin/bin/../../lib/gcc/pic32c/8.3.1/../../../../pic32c/lib/thumb/v7e-m+fp/hard\libg-musl.a(malloc.o)
 .comment       0x00000053       0x54 c:/program files/microchip/xc32/v4.00/bin/bin/../../lib/gcc/pic32c/8.3.1/../../../../pic32c/lib/thumb/v7e-m+fp/hard\libg-musl.a(expand_heap.o)
 .comment       0x00000053       0x54 c:/program files/microchip/xc32/v4.00/bin/bin/../../lib/gcc/pic32c/8.3.1/../../../../pic32c/lib/thumb/v7e-m+fp/hard\libg-musl.a(rand.o)
 .comment       0x00000053       0x54 c:/program files/microchip/xc32/v4.00/bin/bin/../../lib/gcc/pic32c/8.3.1/../../../../pic32c/lib/thumb/v7e-m+fp/hard\libg-musl.a(vsnprintf.o)
 .comment       0x00000053       0x54 c:/program files/microchip/xc32/v4.00/bin/bin/../../lib/gcc/pic32c/8.3.1/../../../../pic32c/lib/thumb/v7e-m+fp/hard\libg-musl.a(snprintf.o)
 .comment       0x00000053       0x54 c:/program files/microchip/xc32/v4.00/bin/bin/../../lib/gcc/pic32c/8.3.1/../../../../pic32c/lib/thumb/v7e-m+fp/hard\libg-musl.a(sprintf.o)
 .comment       0x00000053       0x54 c:/program files/microchip/xc32/v4.00/bin/bin/../../lib/gcc/pic32c/8.3.1/../../../../pic32c/lib/thumb/v7e-m+fp/hard\libg-musl.a(vsprintf.o)
 .comment       0x00000053       0x54 c:/program files/microchip/xc32/v4.00/bin/bin/../../lib/gcc/pic32c/8.3.1/../../../../pic32c/lib/thumb/v7e-m+fp/hard\libg-musl.a(atoi.o)
 .comment       0x00000053       0x54 c:/program files/microchip/xc32/v4.00/bin/bin/../../lib/gcc/pic32c/8.3.1/../../../../pic32c/lib/thumb/v7e-m+fp/hard\libg-musl.a(memcmp.o)
 .comment       0x00000053       0x54 c:/program files/microchip/xc32/v4.00/bin/bin/../../lib/gcc/pic32c/8.3.1/../../../../pic32c/lib/thumb/v7e-m+fp/hard\libg-musl.a(memcpy.o)
 .comment       0x00000053       0x54 c:/program files/microchip/xc32/v4.00/bin/bin/../../lib/gcc/pic32c/8.3.1/../../../../pic32c/lib/thumb/v7e-m+fp/hard\libg-musl.a(memset.o)
 .comment       0x00000053       0x54 c:/program files/microchip/xc32/v4.00/bin/bin/../../lib/gcc/pic32c/8.3.1/../../../../pic32c/lib/thumb/v7e-m+fp/hard\libg-musl.a(strlen.o)
 .comment       0x00000053       0x54 c:/program files/microchip/xc32/v4.00/bin/bin/../../lib/gcc/pic32c/8.3.1/../../../../pic32c/lib/thumb/v7e-m+fp/hard\libg-musl.a(strstr.o)
 .comment       0x00000053       0x54 c:/program files/microchip/xc32/v4.00/bin/bin/../../lib/gcc/pic32c/8.3.1/../../../../pic32c/lib/thumb/v7e-m+fp/hard\libg-musl.a(strchr.o)
 .comment       0x00000053       0x54 c:/program files/microchip/xc32/v4.00/bin/bin/../../lib/gcc/pic32c/8.3.1/../../../../pic32c/lib/thumb/v7e-m+fp/hard\libg-musl.a(strchrnul.o)
 .comment       0x00000053       0x54 c:/program files/microchip/xc32/v4.00/bin/bin/../../lib/gcc/pic32c/8.3.1/../../../../pic32c/lib/thumb/v7e-m+fp/hard\libg-musl.a(strcmp.o)
 .comment       0x00000053       0x54 c:/program files/microchip/xc32/v4.00/bin/bin/../../lib/gcc/pic32c/8.3.1/../../../../pic32c/lib/thumb/v7e-m+fp/hard\libg-musl.a(strcpy.o)
 .comment       0x00000053       0x54 c:/program files/microchip/xc32/v4.00/bin/bin/../../lib/gcc/pic32c/8.3.1/../../../../pic32c/lib/thumb/v7e-m+fp/hard\libg-musl.a(strncmp.o)
 .comment       0x00000053       0x54 c:/program files/microchip/xc32/v4.00/bin/bin/../../lib/gcc/pic32c/8.3.1/../../../../pic32c/lib/thumb/v7e-m+fp/hard\libg-musl.a(strncpy.o)
 .comment       0x00000053       0x54 c:/program files/microchip/xc32/v4.00/bin/bin/../../lib/gcc/pic32c/8.3.1/../../../../pic32c/lib/thumb/v7e-m+fp/hard\libg-musl.a(__environ.o)
 .comment       0x00000053       0x54 c:/program files/microchip/xc32/v4.00/bin/bin/../../lib/gcc/pic32c/8.3.1/../../../../pic32c/lib/thumb/v7e-m+fp/hard\libg-musl.a(vfprintf.o)
 .comment       0x00000053       0x54 c:/program files/microchip/xc32/v4.00/bin/bin/../../lib/gcc/pic32c/8.3.1/../../../../pic32c/lib/thumb/v7e-m+fp/hard\libg-musl.a(stpcpy.o)
 .comment       0x00000053       0x54 c:/program files/microchip/xc32/v4.00/bin/bin/../../lib/gcc/pic32c/8.3.1/../../../../pic32c/lib/thumb/v7e-m+fp/hard\libg-musl.a(stpncpy.o)
 .comment       0x00000053       0x54 c:/program files/microchip/xc32/v4.00/bin/bin/../../lib/gcc/pic32c/8.3.1/../../../../pic32c/lib/thumb/v7e-m+fp/hard\libg-musl.a(__printf_core.o)
 .comment       0x00000053       0x54 c:/program files/microchip/xc32/v4.00/bin/bin/../../lib/gcc/pic32c/8.3.1/../../../../pic32c/lib/thumb/v7e-m+fp/hard\libg-musl.a(__fmt_a.o)
 .comment       0x00000053       0x54 c:/program files/microchip/xc32/v4.00/bin/bin/../../lib/gcc/pic32c/8.3.1/../../../../pic32c/lib/thumb/v7e-m+fp/hard\libg-musl.a(__fmt_d.o)
 .comment       0x00000053       0x54 c:/program files/microchip/xc32/v4.00/bin/bin/../../lib/gcc/pic32c/8.3.1/../../../../pic32c/lib/thumb/v7e-m+fp/hard\libg-musl.a(__fmt_fp.o)
 .comment       0x00000053       0x54 c:/program files/microchip/xc32/v4.00/bin/bin/../../lib/gcc/pic32c/8.3.1/../../../../pic32c/lib/thumb/v7e-m+fp/hard\libg-musl.a(__fmt_o.o)
 .comment       0x00000053       0x54 c:/program files/microchip/xc32/v4.00/bin/bin/../../lib/gcc/pic32c/8.3.1/../../../../pic32c/lib/thumb/v7e-m+fp/hard\libg-musl.a(__fmt_s.o)
 .comment       0x00000053       0x54 c:/program files/microchip/xc32/v4.00/bin/bin/../../lib/gcc/pic32c/8.3.1/../../../../pic32c/lib/thumb/v7e-m+fp/hard\libg-musl.a(__fmt_u.o)
 .comment       0x00000053       0x54 c:/program files/microchip/xc32/v4.00/bin/bin/../../lib/gcc/pic32c/8.3.1/../../../../pic32c/lib/thumb/v7e-m+fp/hard\libg-musl.a(__fmt_x.o)
 .comment       0x00000053       0x54 c:/program files/microchip/xc32/v4.00/bin/bin/../../lib/gcc/pic32c/8.3.1/../../../../pic32c/lib/thumb/v7e-m+fp/hard\libg-musl.a(__pop_float.o)
 .comment       0x00000053       0x54 c:/program files/microchip/xc32/v4.00/bin/bin/../../lib/gcc/pic32c/8.3.1/../../../../pic32c/lib/thumb/v7e-m+fp/hard\libg-musl.a(__pop_int.o)
 .comment       0x00000053       0x54 c:/program files/microchip/xc32/v4.00/bin/bin/../../lib/gcc/pic32c/8.3.1/../../../../pic32c/lib/thumb/v7e-m+fp/hard\libg-musl.a(__pop_ptr.o)
 .comment       0x00000053       0x54 c:/program files/microchip/xc32/v4.00/bin/bin/../../lib/gcc/pic32c/8.3.1/../../../../pic32c/lib/thumb/v7e-m+fp/hard\libm-emfloat.a(lib_a-_FLOOR.o)
 .comment       0x00000053       0x54 c:/program files/microchip/xc32/v4.00/bin/bin/../../lib/gcc/pic32c/8.3.1/../../../../pic32c/lib/thumb/v7e-m+fp/hard\libm-emfloat.a(lib_a-_FMA.o)
 .comment       0x00000053       0x54 c:/program files/microchip/xc32/v4.00/bin/bin/../../lib/gcc/pic32c/8.3.1/thumb/v7e-m+fp/hard\libgcc.a(_udivmoddi4.o)
 .comment       0x00000053       0x54 c:/program files/microchip/xc32/v4.00/bin/bin/../../lib/gcc/pic32c/8.3.1/../../../../pic32c/lib/thumb/v7e-m+fp/hard\libpic32c.a(sbrk.o)

.debug_info     0x00000000    0xf440b
 .debug_info    0x00000000     0x7fbc build/default/debug/_ext/444070925/drv_ethphy.o
 .debug_info    0x00007fbc     0x2333 build/default/debug/_ext/444070925/drv_extphy_ksz8061.o
 .debug_info    0x0000a2ef     0xa31c build/default/debug/_ext/1546807373/drv_gmac.o
 .debug_info    0x0001460b     0x8d6f build/default/debug/_ext/1546807373/drv_gmac_lib_samE5x.o
 .debug_info    0x0001d37a     0x4db9 build/default/debug/_ext/438849557/drv_miim.o
 .debug_info    0x00022133      0xc64 build/default/debug/_ext/20954303/drv_sdmmc_file_system.o
 .debug_info    0x00022d97     0x4dd3 build/default/debug/_ext/20954303/drv_sdmmc.o
 .debug_info    0x00027b6a     0x2194 build/default/debug/_ext/1751889202/sys_fs_shell.o
 .debug_info    0x00029cfe      0x6e2 build/default/debug/_ext/1033058136/helpers.o
 .debug_info    0x0002a3e0     0xc1d2 build/default/debug/_ext/1033058136/tcp.o
 .debug_info    0x000365b2     0x72c9 build/default/debug/_ext/1033058136/arp.o
 .debug_info    0x0003d87b     0x7f1d build/default/debug/_ext/1033058136/ipv4.o
 .debug_info    0x00045798     0x2a9e build/default/debug/_ext/1033058136/tcpip_heap_alloc.o
 .debug_info    0x00048236     0x3c37 build/default/debug/_ext/1033058136/tcpip_heap_internal.o
 .debug_info    0x0004be6d     0x825f build/default/debug/_ext/1033058136/dns.o
 .debug_info    0x000540cc      0x440 build/default/debug/_ext/1033058136/hash_fnv.o
 .debug_info    0x0005450c      0xc6a build/default/debug/_ext/1033058136/oahash.o
 .debug_info    0x00055176     0x7525 build/default/debug/_ext/1033058136/tcpip_helpers.o
 .debug_info    0x0005c69b     0xcbc0 build/default/debug/_ext/1033058136/tcpip_manager.o
 .debug_info    0x0006925b     0x2af5 build/default/debug/_ext/1033058136/tcpip_notify.o
 .debug_info    0x0006bd50     0x3ba5 build/default/debug/_ext/1033058136/tcpip_packet.o
 .debug_info    0x0006f8f5     0x91be build/default/debug/_ext/1033058136/ftp.o
 .debug_info    0x00078ab3     0x3c21 build/default/debug/_ext/1033058136/icmp.o
 .debug_info    0x0007c6d4     0x38d0 build/default/debug/_ext/1508031553/net_pres.o
 .debug_info    0x0007ffa4      0xb9a build/default/debug/_ext/1984496892/plib_clock.o
 .debug_info    0x00080b3e      0x357 build/default/debug/_ext/1986646378/plib_evsys.o
 .debug_info    0x00080e95     0x163a build/default/debug/_ext/1865468468/plib_nvic.o
 .debug_info    0x000824cf      0xe95 build/default/debug/_ext/1593096446/plib_nvmctrl.o
 .debug_info    0x00083364     0x1101 build/default/debug/_ext/1865521619/plib_port.o
 .debug_info    0x00084465     0x1421 build/default/debug/_ext/1865600094/plib_sdhc1.o
 .debug_info    0x00085886     0x2132 build/default/debug/_ext/504274921/plib_sercom1_usart.o
 .debug_info    0x000879b8      0xcbc build/default/debug/_ext/829342655/plib_tc0.o
 .debug_info    0x00088674     0x151f build/default/debug/_ext/1832805299/sys_console.o
 .debug_info    0x00089b93     0x502c build/default/debug/_ext/1832805299/sys_console_uart.o
 .debug_info    0x0008ebbf      0x82a build/default/debug/_ext/944882569/sys_debug.o
 .debug_info    0x0008f3e9     0x673c build/default/debug/_ext/411819097/ff.o
 .debug_info    0x00095b25      0x5f4 build/default/debug/_ext/411819097/ffunicode.o
 .debug_info    0x00096119      0xfc3 build/default/debug/_ext/565198302/diskio.o
 .debug_info    0x000970dc     0x4a54 build/default/debug/_ext/1269487135/sys_fs.o
 .debug_info    0x0009bb30     0x2503 build/default/debug/_ext/1269487135/sys_fs_media_manager.o
 .debug_info    0x0009e033     0x24c1 build/default/debug/_ext/1269487135/sys_fs_fat_interface.o
 .debug_info    0x000a04f4     0x11d9 build/default/debug/_ext/1881668453/sys_int.o
 .debug_info    0x000a16cd     0x30de build/default/debug/_ext/101884895/sys_time.o
 .debug_info    0x000a47ab      0x694 build/default/debug/_ext/753841488/sys_time_h2_adapter.o
 .debug_info    0x000a4e3f     0x9b6e build/default/debug/_ext/1171490990/initialization.o
 .debug_info    0x000ae9ad     0x52be build/default/debug/_ext/1171490990/interrupts.o
 .debug_info    0x000b3c6b     0x3d4c build/default/debug/_ext/1171490990/exceptions.o
 .debug_info    0x000b79b7      0x8d2 build/default/debug/_ext/1171490990/startup_xc32.o
 .debug_info    0x000b8289     0x3d0b build/default/debug/_ext/1171490990/tasks.o
 .debug_info    0x000bbf94     0x22de build/default/debug/_ext/172253694/crypt_wolfcryptcb.o
 .debug_info    0x000be272     0x454e build/default/debug/_ext/1664057780/cryptocb.o
 .debug_info    0x000c27c0     0x3ca3 build/default/debug/_ext/1360937237/main.o
 .debug_info    0x000c6463     0x4729 build/default/debug/_ext/1360937237/app.o
 .debug_info    0x000cab8c     0x7c7e build/default/debug/_ext/1033058136/berkeley_api.o
 .debug_info    0x000d280a     0x53c4 build/default/debug/_ext/1033058136/tcpip_announce.o
 .debug_info    0x000d7bce     0x9b55 build/default/debug/_ext/1033058136/udp.o
 .debug_info    0x000e1723      0x2db c:/program files/microchip/xc32/v4.00/bin/bin/../../lib/gcc/pic32c/8.3.1/../../../../pic32c/lib/thumb/v7e-m+fp/hard\libpic32c.a(data_init.o)
 .debug_info    0x000e19fe      0x600 c:/program files/microchip/xc32/v4.00/bin/bin/../../lib/gcc/pic32c/8.3.1/../../../../pic32c/lib/thumb/v7e-m+fp/hard\libg-musl.a(isxdigit.o)
 .debug_info    0x000e1ffe      0x5fd c:/program files/microchip/xc32/v4.00/bin/bin/../../lib/gcc/pic32c/8.3.1/../../../../pic32c/lib/thumb/v7e-m+fp/hard\libg-musl.a(tolower.o)
 .debug_info    0x000e25fb      0x5fd c:/program files/microchip/xc32/v4.00/bin/bin/../../lib/gcc/pic32c/8.3.1/../../../../pic32c/lib/thumb/v7e-m+fp/hard\libg-musl.a(toupper.o)
 .debug_info    0x000e2bf8      0x6b3 c:/program files/microchip/xc32/v4.00/bin/bin/../../lib/gcc/pic32c/8.3.1/../../../../pic32c/lib/thumb/v7e-m+fp/hard\libg-musl.a(__libc_start_main.o)
 .debug_info    0x000e32ab      0x57a c:/program files/microchip/xc32/v4.00/bin/bin/../../lib/gcc/pic32c/8.3.1/../../../../pic32c/lib/thumb/v7e-m+fp/hard\libg-musl.a(__errno_location.o)
 .debug_info    0x000e3825      0x5df c:/program files/microchip/xc32/v4.00/bin/bin/../../lib/gcc/pic32c/8.3.1/../../../../pic32c/lib/thumb/v7e-m+fp/hard\libg-musl.a(libc.o)
 .debug_info    0x000e3e04      0x306 c:/program files/microchip/xc32/v4.00/bin/bin/../../lib/gcc/pic32c/8.3.1/../../../../pic32c/lib/thumb/v7e-m+fp/hard\libg-musl.a(calloc.o)
 .debug_info    0x000e410a     0x14aa c:/program files/microchip/xc32/v4.00/bin/bin/../../lib/gcc/pic32c/8.3.1/../../../../pic32c/lib/thumb/v7e-m+fp/hard\libg-musl.a(malloc.o)
 .debug_info    0x000e55b4      0x682 c:/program files/microchip/xc32/v4.00/bin/bin/../../lib/gcc/pic32c/8.3.1/../../../../pic32c/lib/thumb/v7e-m+fp/hard\libg-musl.a(expand_heap.o)
 .debug_info    0x000e5c36      0x353 c:/program files/microchip/xc32/v4.00/bin/bin/../../lib/gcc/pic32c/8.3.1/../../../../pic32c/lib/thumb/v7e-m+fp/hard\libg-musl.a(rand.o)
 .debug_info    0x000e5f89      0x986 c:/program files/microchip/xc32/v4.00/bin/bin/../../lib/gcc/pic32c/8.3.1/../../../../pic32c/lib/thumb/v7e-m+fp/hard\libg-musl.a(vsnprintf.o)
 .debug_info    0x000e690f      0x3dc c:/program files/microchip/xc32/v4.00/bin/bin/../../lib/gcc/pic32c/8.3.1/../../../../pic32c/lib/thumb/v7e-m+fp/hard\libg-musl.a(snprintf.o)
 .debug_info    0x000e6ceb      0x3b2 c:/program files/microchip/xc32/v4.00/bin/bin/../../lib/gcc/pic32c/8.3.1/../../../../pic32c/lib/thumb/v7e-m+fp/hard\libg-musl.a(sprintf.o)
 .debug_info    0x000e709d      0x3ac c:/program files/microchip/xc32/v4.00/bin/bin/../../lib/gcc/pic32c/8.3.1/../../../../pic32c/lib/thumb/v7e-m+fp/hard\libg-musl.a(vsprintf.o)
 .debug_info    0x000e7449      0x322 c:/program files/microchip/xc32/v4.00/bin/bin/../../lib/gcc/pic32c/8.3.1/../../../../pic32c/lib/thumb/v7e-m+fp/hard\libg-musl.a(atoi.o)
 .debug_info    0x000e776b      0x309 c:/program files/microchip/xc32/v4.00/bin/bin/../../lib/gcc/pic32c/8.3.1/../../../../pic32c/lib/thumb/v7e-m+fp/hard\libg-musl.a(memcmp.o)
 .debug_info    0x000e7a74      0x31e c:/program files/microchip/xc32/v4.00/bin/bin/../../lib/gcc/pic32c/8.3.1/../../../../pic32c/lib/thumb/v7e-m+fp/hard\libg-musl.a(memcpy.o)
 .debug_info    0x000e7d92      0x2dc c:/program files/microchip/xc32/v4.00/bin/bin/../../lib/gcc/pic32c/8.3.1/../../../../pic32c/lib/thumb/v7e-m+fp/hard\libg-musl.a(memset.o)
 .debug_info    0x000e806e      0x2cd c:/program files/microchip/xc32/v4.00/bin/bin/../../lib/gcc/pic32c/8.3.1/../../../../pic32c/lib/thumb/v7e-m+fp/hard\libg-musl.a(strlen.o)
 .debug_info    0x000e833b      0x2e6 c:/program files/microchip/xc32/v4.00/bin/bin/../../lib/gcc/pic32c/8.3.1/../../../../pic32c/lib/thumb/v7e-m+fp/hard\libg-musl.a(strstr.o)
 .debug_info    0x000e8621      0x2ef c:/program files/microchip/xc32/v4.00/bin/bin/../../lib/gcc/pic32c/8.3.1/../../../../pic32c/lib/thumb/v7e-m+fp/hard\libg-musl.a(strchr.o)
 .debug_info    0x000e8910      0x6d7 c:/program files/microchip/xc32/v4.00/bin/bin/../../lib/gcc/pic32c/8.3.1/../../../../pic32c/lib/thumb/v7e-m+fp/hard\libg-musl.a(strchrnul.o)
 .debug_info    0x000e8fe7      0x2b1 c:/program files/microchip/xc32/v4.00/bin/bin/../../lib/gcc/pic32c/8.3.1/../../../../pic32c/lib/thumb/v7e-m+fp/hard\libg-musl.a(strcmp.o)
 .debug_info    0x000e9298      0x2db c:/program files/microchip/xc32/v4.00/bin/bin/../../lib/gcc/pic32c/8.3.1/../../../../pic32c/lib/thumb/v7e-m+fp/hard\libg-musl.a(strcpy.o)
 .debug_info    0x000e9573      0x317 c:/program files/microchip/xc32/v4.00/bin/bin/../../lib/gcc/pic32c/8.3.1/../../../../pic32c/lib/thumb/v7e-m+fp/hard\libg-musl.a(strncmp.o)
 .debug_info    0x000e988a      0x300 c:/program files/microchip/xc32/v4.00/bin/bin/../../lib/gcc/pic32c/8.3.1/../../../../pic32c/lib/thumb/v7e-m+fp/hard\libg-musl.a(strncpy.o)
 .debug_info    0x000e9b8a      0x596 c:/program files/microchip/xc32/v4.00/bin/bin/../../lib/gcc/pic32c/8.3.1/../../../../pic32c/lib/thumb/v7e-m+fp/hard\libg-musl.a(__environ.o)
 .debug_info    0x000ea120      0x94d c:/program files/microchip/xc32/v4.00/bin/bin/../../lib/gcc/pic32c/8.3.1/../../../../pic32c/lib/thumb/v7e-m+fp/hard\libg-musl.a(vfprintf.o)
 .debug_info    0x000eaa6d      0x5b9 c:/program files/microchip/xc32/v4.00/bin/bin/../../lib/gcc/pic32c/8.3.1/../../../../pic32c/lib/thumb/v7e-m+fp/hard\libg-musl.a(stpcpy.o)
 .debug_info    0x000eb026      0x5e6 c:/program files/microchip/xc32/v4.00/bin/bin/../../lib/gcc/pic32c/8.3.1/../../../../pic32c/lib/thumb/v7e-m+fp/hard\libg-musl.a(stpncpy.o)
 .debug_info    0x000eb60c     0x1017 c:/program files/microchip/xc32/v4.00/bin/bin/../../lib/gcc/pic32c/8.3.1/../../../../pic32c/lib/thumb/v7e-m+fp/hard\libg-musl.a(__printf_core.o)
 .debug_info    0x000ec623      0xbf2 c:/program files/microchip/xc32/v4.00/bin/bin/../../lib/gcc/pic32c/8.3.1/../../../../pic32c/lib/thumb/v7e-m+fp/hard\libg-musl.a(__fmt_a.o)
 .debug_info    0x000ed215      0x8bc c:/program files/microchip/xc32/v4.00/bin/bin/../../lib/gcc/pic32c/8.3.1/../../../../pic32c/lib/thumb/v7e-m+fp/hard\libg-musl.a(__fmt_d.o)
 .debug_info    0x000edad1      0xcda c:/program files/microchip/xc32/v4.00/bin/bin/../../lib/gcc/pic32c/8.3.1/../../../../pic32c/lib/thumb/v7e-m+fp/hard\libg-musl.a(__fmt_fp.o)
 .debug_info    0x000ee7ab      0x88d c:/program files/microchip/xc32/v4.00/bin/bin/../../lib/gcc/pic32c/8.3.1/../../../../pic32c/lib/thumb/v7e-m+fp/hard\libg-musl.a(__fmt_o.o)
 .debug_info    0x000ef038      0x833 c:/program files/microchip/xc32/v4.00/bin/bin/../../lib/gcc/pic32c/8.3.1/../../../../pic32c/lib/thumb/v7e-m+fp/hard\libg-musl.a(__fmt_s.o)
 .debug_info    0x000ef86b      0x95a c:/program files/microchip/xc32/v4.00/bin/bin/../../lib/gcc/pic32c/8.3.1/../../../../pic32c/lib/thumb/v7e-m+fp/hard\libg-musl.a(__fmt_u.o)
 .debug_info    0x000f01c5      0x8f3 c:/program files/microchip/xc32/v4.00/bin/bin/../../lib/gcc/pic32c/8.3.1/../../../../pic32c/lib/thumb/v7e-m+fp/hard\libg-musl.a(__fmt_x.o)
 .debug_info    0x000f0ab8      0x760 c:/program files/microchip/xc32/v4.00/bin/bin/../../lib/gcc/pic32c/8.3.1/../../../../pic32c/lib/thumb/v7e-m+fp/hard\libg-musl.a(__pop_float.o)
 .debug_info    0x000f1218      0x784 c:/program files/microchip/xc32/v4.00/bin/bin/../../lib/gcc/pic32c/8.3.1/../../../../pic32c/lib/thumb/v7e-m+fp/hard\libg-musl.a(__pop_int.o)
 .debug_info    0x000f199c      0x77b c:/program files/microchip/xc32/v4.00/bin/bin/../../lib/gcc/pic32c/8.3.1/../../../../pic32c/lib/thumb/v7e-m+fp/hard\libg-musl.a(__pop_ptr.o)
 .debug_info    0x000f2117       0x26 c:/program files/microchip/xc32/v4.00/bin/bin/../../lib/gcc/pic32c/8.3.1/thumb/v7e-m+fp/hard\libgcc.a(_aeabi_uldivmod.o)
 .debug_info    0x000f213d     0x1fea c:/program files/microchip/xc32/v4.00/bin/bin/../../lib/gcc/pic32c/8.3.1/thumb/v7e-m+fp/hard\libgcc.a(_udivmoddi4.o)
 .debug_info    0x000f4127       0x26 c:/program files/microchip/xc32/v4.00/bin/bin/../../lib/gcc/pic32c/8.3.1/thumb/v7e-m+fp/hard\libgcc.a(_dvmd_tls.o)
 .debug_info    0x000f414d      0x2be c:/program files/microchip/xc32/v4.00/bin/bin/../../lib/gcc/pic32c/8.3.1/../../../../pic32c/lib/thumb/v7e-m+fp/hard\libpic32c.a(sbrk.o)

.debug_abbrev   0x00000000    0x10a7c
 .debug_abbrev  0x00000000      0x551 build/default/debug/_ext/444070925/drv_ethphy.o
 .debug_abbrev  0x00000551      0x1ee build/default/debug/_ext/444070925/drv_extphy_ksz8061.o
 .debug_abbrev  0x0000073f      0x669 build/default/debug/_ext/1546807373/drv_gmac.o
 .debug_abbrev  0x00000da8      0x60c build/default/debug/_ext/1546807373/drv_gmac_lib_samE5x.o
 .debug_abbrev  0x000013b4      0x694 build/default/debug/_ext/438849557/drv_miim.o
 .debug_abbrev  0x00001a48      0x176 build/default/debug/_ext/20954303/drv_sdmmc_file_system.o
 .debug_abbrev  0x00001bbe      0x63b build/default/debug/_ext/20954303/drv_sdmmc.o
 .debug_abbrev  0x000021f9      0x38d build/default/debug/_ext/1751889202/sys_fs_shell.o
 .debug_abbrev  0x00002586      0x1b2 build/default/debug/_ext/1033058136/helpers.o
 .debug_abbrev  0x00002738      0x721 build/default/debug/_ext/1033058136/tcp.o
 .debug_abbrev  0x00002e59      0x61d build/default/debug/_ext/1033058136/arp.o
 .debug_abbrev  0x00003476      0x603 build/default/debug/_ext/1033058136/ipv4.o
 .debug_abbrev  0x00003a79      0x2c7 build/default/debug/_ext/1033058136/tcpip_heap_alloc.o
 .debug_abbrev  0x00003d40      0x535 build/default/debug/_ext/1033058136/tcpip_heap_internal.o
 .debug_abbrev  0x00004275      0x5cf build/default/debug/_ext/1033058136/dns.o
 .debug_abbrev  0x00004844       0xc7 build/default/debug/_ext/1033058136/hash_fnv.o
 .debug_abbrev  0x0000490b      0x2ea build/default/debug/_ext/1033058136/oahash.o
 .debug_abbrev  0x00004bf5      0x646 build/default/debug/_ext/1033058136/tcpip_helpers.o
 .debug_abbrev  0x0000523b      0x7e0 build/default/debug/_ext/1033058136/tcpip_manager.o
 .debug_abbrev  0x00005a1b      0x35b build/default/debug/_ext/1033058136/tcpip_notify.o
 .debug_abbrev  0x00005d76      0x53e build/default/debug/_ext/1033058136/tcpip_packet.o
 .debug_abbrev  0x000062b4      0x6db build/default/debug/_ext/1033058136/ftp.o
 .debug_abbrev  0x0000698f      0x462 build/default/debug/_ext/1033058136/icmp.o
 .debug_abbrev  0x00006df1      0x4de build/default/debug/_ext/1508031553/net_pres.o
 .debug_abbrev  0x000072cf      0x135 build/default/debug/_ext/1984496892/plib_clock.o
 .debug_abbrev  0x00007404       0x64 build/default/debug/_ext/1986646378/plib_evsys.o
 .debug_abbrev  0x00007468      0x222 build/default/debug/_ext/1865468468/plib_nvic.o
 .debug_abbrev  0x0000768a      0x258 build/default/debug/_ext/1593096446/plib_nvmctrl.o
 .debug_abbrev  0x000078e2      0x1e9 build/default/debug/_ext/1865521619/plib_port.o
 .debug_abbrev  0x00007acb      0x332 build/default/debug/_ext/1865600094/plib_sdhc1.o
 .debug_abbrev  0x00007dfd      0x489 build/default/debug/_ext/504274921/plib_sercom1_usart.o
 .debug_abbrev  0x00008286      0x1f9 build/default/debug/_ext/829342655/plib_tc0.o
 .debug_abbrev  0x0000847f      0x437 build/default/debug/_ext/1832805299/sys_console.o
 .debug_abbrev  0x000088b6      0x4e1 build/default/debug/_ext/1832805299/sys_console_uart.o
 .debug_abbrev  0x00008d97      0x1ae build/default/debug/_ext/944882569/sys_debug.o
 .debug_abbrev  0x00008f45      0x412 build/default/debug/_ext/411819097/ff.o
 .debug_abbrev  0x00009357      0x155 build/default/debug/_ext/411819097/ffunicode.o
 .debug_abbrev  0x000094ac      0x315 build/default/debug/_ext/565198302/diskio.o
 .debug_abbrev  0x000097c1      0x51f build/default/debug/_ext/1269487135/sys_fs.o
 .debug_abbrev  0x00009ce0      0x500 build/default/debug/_ext/1269487135/sys_fs_media_manager.o
 .debug_abbrev  0x0000a1e0      0x337 build/default/debug/_ext/1269487135/sys_fs_fat_interface.o
 .debug_abbrev  0x0000a517      0x253 build/default/debug/_ext/1881668453/sys_int.o
 .debug_abbrev  0x0000a76a      0x5c0 build/default/debug/_ext/101884895/sys_time.o
 .debug_abbrev  0x0000ad2a      0x17e build/default/debug/_ext/753841488/sys_time_h2_adapter.o
 .debug_abbrev  0x0000aea8      0x394 build/default/debug/_ext/1171490990/initialization.o
 .debug_abbrev  0x0000b23c      0x288 build/default/debug/_ext/1171490990/interrupts.o
 .debug_abbrev  0x0000b4c4      0x263 build/default/debug/_ext/1171490990/exceptions.o
 .debug_abbrev  0x0000b727      0x1ee build/default/debug/_ext/1171490990/startup_xc32.o
 .debug_abbrev  0x0000b915      0x295 build/default/debug/_ext/1171490990/tasks.o
 .debug_abbrev  0x0000bbaa      0x243 build/default/debug/_ext/172253694/crypt_wolfcryptcb.o
 .debug_abbrev  0x0000bded      0x3fd build/default/debug/_ext/1664057780/cryptocb.o
 .debug_abbrev  0x0000c1ea      0x29c build/default/debug/_ext/1360937237/main.o
 .debug_abbrev  0x0000c486      0x339 build/default/debug/_ext/1360937237/app.o
 .debug_abbrev  0x0000c7bf      0x68d build/default/debug/_ext/1033058136/berkeley_api.o
 .debug_abbrev  0x0000ce4c      0x520 build/default/debug/_ext/1033058136/tcpip_announce.o
 .debug_abbrev  0x0000d36c      0x6ad build/default/debug/_ext/1033058136/udp.o
 .debug_abbrev  0x0000da19       0x2e c:/program files/microchip/xc32/v4.00/bin/bin/../../lib/gcc/pic32c/8.3.1/../../../../pic32c/lib/thumb/v7e-m+fp/hard\libpic32c.a(data_init.o)
 .debug_abbrev  0x0000da47      0x126 c:/program files/microchip/xc32/v4.00/bin/bin/../../lib/gcc/pic32c/8.3.1/../../../../pic32c/lib/thumb/v7e-m+fp/hard\libg-musl.a(isxdigit.o)
 .debug_abbrev  0x0000db6d      0x126 c:/program files/microchip/xc32/v4.00/bin/bin/../../lib/gcc/pic32c/8.3.1/../../../../pic32c/lib/thumb/v7e-m+fp/hard\libg-musl.a(tolower.o)
 .debug_abbrev  0x0000dc93      0x126 c:/program files/microchip/xc32/v4.00/bin/bin/../../lib/gcc/pic32c/8.3.1/../../../../pic32c/lib/thumb/v7e-m+fp/hard\libg-musl.a(toupper.o)
 .debug_abbrev  0x0000ddb9      0x126 c:/program files/microchip/xc32/v4.00/bin/bin/../../lib/gcc/pic32c/8.3.1/../../../../pic32c/lib/thumb/v7e-m+fp/hard\libg-musl.a(__libc_start_main.o)
 .debug_abbrev  0x0000dedf       0xba c:/program files/microchip/xc32/v4.00/bin/bin/../../lib/gcc/pic32c/8.3.1/../../../../pic32c/lib/thumb/v7e-m+fp/hard\libg-musl.a(__errno_location.o)
 .debug_abbrev  0x0000df99       0xc7 c:/program files/microchip/xc32/v4.00/bin/bin/../../lib/gcc/pic32c/8.3.1/../../../../pic32c/lib/thumb/v7e-m+fp/hard\libg-musl.a(libc.o)
 .debug_abbrev  0x0000e060       0xaa c:/program files/microchip/xc32/v4.00/bin/bin/../../lib/gcc/pic32c/8.3.1/../../../../pic32c/lib/thumb/v7e-m+fp/hard\libg-musl.a(calloc.o)
 .debug_abbrev  0x0000e10a      0x413 c:/program files/microchip/xc32/v4.00/bin/bin/../../lib/gcc/pic32c/8.3.1/../../../../pic32c/lib/thumb/v7e-m+fp/hard\libg-musl.a(malloc.o)
 .debug_abbrev  0x0000e51d      0x112 c:/program files/microchip/xc32/v4.00/bin/bin/../../lib/gcc/pic32c/8.3.1/../../../../pic32c/lib/thumb/v7e-m+fp/hard\libg-musl.a(expand_heap.o)
 .debug_abbrev  0x0000e62f       0x8b c:/program files/microchip/xc32/v4.00/bin/bin/../../lib/gcc/pic32c/8.3.1/../../../../pic32c/lib/thumb/v7e-m+fp/hard\libg-musl.a(rand.o)
 .debug_abbrev  0x0000e6ba      0x168 c:/program files/microchip/xc32/v4.00/bin/bin/../../lib/gcc/pic32c/8.3.1/../../../../pic32c/lib/thumb/v7e-m+fp/hard\libg-musl.a(vsnprintf.o)
 .debug_abbrev  0x0000e822      0x126 c:/program files/microchip/xc32/v4.00/bin/bin/../../lib/gcc/pic32c/8.3.1/../../../../pic32c/lib/thumb/v7e-m+fp/hard\libg-musl.a(snprintf.o)
 .debug_abbrev  0x0000e948      0x126 c:/program files/microchip/xc32/v4.00/bin/bin/../../lib/gcc/pic32c/8.3.1/../../../../pic32c/lib/thumb/v7e-m+fp/hard\libg-musl.a(sprintf.o)
 .debug_abbrev  0x0000ea6e       0xee c:/program files/microchip/xc32/v4.00/bin/bin/../../lib/gcc/pic32c/8.3.1/../../../../pic32c/lib/thumb/v7e-m+fp/hard\libg-musl.a(vsprintf.o)
 .debug_abbrev  0x0000eb5c       0xbb c:/program files/microchip/xc32/v4.00/bin/bin/../../lib/gcc/pic32c/8.3.1/../../../../pic32c/lib/thumb/v7e-m+fp/hard\libg-musl.a(atoi.o)
 .debug_abbrev  0x0000ec17       0x8b c:/program files/microchip/xc32/v4.00/bin/bin/../../lib/gcc/pic32c/8.3.1/../../../../pic32c/lib/thumb/v7e-m+fp/hard\libg-musl.a(memcmp.o)
 .debug_abbrev  0x0000eca2       0x9c c:/program files/microchip/xc32/v4.00/bin/bin/../../lib/gcc/pic32c/8.3.1/../../../../pic32c/lib/thumb/v7e-m+fp/hard\libg-musl.a(memcpy.o)
 .debug_abbrev  0x0000ed3e       0x97 c:/program files/microchip/xc32/v4.00/bin/bin/../../lib/gcc/pic32c/8.3.1/../../../../pic32c/lib/thumb/v7e-m+fp/hard\libg-musl.a(memset.o)
 .debug_abbrev  0x0000edd5       0x86 c:/program files/microchip/xc32/v4.00/bin/bin/../../lib/gcc/pic32c/8.3.1/../../../../pic32c/lib/thumb/v7e-m+fp/hard\libg-musl.a(strlen.o)
 .debug_abbrev  0x0000ee5b       0xa6 c:/program files/microchip/xc32/v4.00/bin/bin/../../lib/gcc/pic32c/8.3.1/../../../../pic32c/lib/thumb/v7e-m+fp/hard\libg-musl.a(strstr.o)
 .debug_abbrev  0x0000ef01       0xa2 c:/program files/microchip/xc32/v4.00/bin/bin/../../lib/gcc/pic32c/8.3.1/../../../../pic32c/lib/thumb/v7e-m+fp/hard\libg-musl.a(strchr.o)
 .debug_abbrev  0x0000efa3      0x158 c:/program files/microchip/xc32/v4.00/bin/bin/../../lib/gcc/pic32c/8.3.1/../../../../pic32c/lib/thumb/v7e-m+fp/hard\libg-musl.a(strchrnul.o)
 .debug_abbrev  0x0000f0fb       0x63 c:/program files/microchip/xc32/v4.00/bin/bin/../../lib/gcc/pic32c/8.3.1/../../../../pic32c/lib/thumb/v7e-m+fp/hard\libg-musl.a(strcmp.o)
 .debug_abbrev  0x0000f15e       0x8e c:/program files/microchip/xc32/v4.00/bin/bin/../../lib/gcc/pic32c/8.3.1/../../../../pic32c/lib/thumb/v7e-m+fp/hard\libg-musl.a(strcpy.o)
 .debug_abbrev  0x0000f1ec       0x86 c:/program files/microchip/xc32/v4.00/bin/bin/../../lib/gcc/pic32c/8.3.1/../../../../pic32c/lib/thumb/v7e-m+fp/hard\libg-musl.a(strncmp.o)
 .debug_abbrev  0x0000f272       0x9d c:/program files/microchip/xc32/v4.00/bin/bin/../../lib/gcc/pic32c/8.3.1/../../../../pic32c/lib/thumb/v7e-m+fp/hard\libg-musl.a(strncpy.o)
 .debug_abbrev  0x0000f30f       0xc7 c:/program files/microchip/xc32/v4.00/bin/bin/../../lib/gcc/pic32c/8.3.1/../../../../pic32c/lib/thumb/v7e-m+fp/hard\libg-musl.a(__environ.o)
 .debug_abbrev  0x0000f3d6      0x180 c:/program files/microchip/xc32/v4.00/bin/bin/../../lib/gcc/pic32c/8.3.1/../../../../pic32c/lib/thumb/v7e-m+fp/hard\libg-musl.a(vfprintf.o)
 .debug_abbrev  0x0000f556       0xdf c:/program files/microchip/xc32/v4.00/bin/bin/../../lib/gcc/pic32c/8.3.1/../../../../pic32c/lib/thumb/v7e-m+fp/hard\libg-musl.a(stpcpy.o)
 .debug_abbrev  0x0000f635       0xf3 c:/program files/microchip/xc32/v4.00/bin/bin/../../lib/gcc/pic32c/8.3.1/../../../../pic32c/lib/thumb/v7e-m+fp/hard\libg-musl.a(stpncpy.o)
 .debug_abbrev  0x0000f728      0x2e8 c:/program files/microchip/xc32/v4.00/bin/bin/../../lib/gcc/pic32c/8.3.1/../../../../pic32c/lib/thumb/v7e-m+fp/hard\libg-musl.a(__printf_core.o)
 .debug_abbrev  0x0000fa10      0x1e3 c:/program files/microchip/xc32/v4.00/bin/bin/../../lib/gcc/pic32c/8.3.1/../../../../pic32c/lib/thumb/v7e-m+fp/hard\libg-musl.a(__fmt_a.o)
 .debug_abbrev  0x0000fbf3      0x16f c:/program files/microchip/xc32/v4.00/bin/bin/../../lib/gcc/pic32c/8.3.1/../../../../pic32c/lib/thumb/v7e-m+fp/hard\libg-musl.a(__fmt_d.o)
 .debug_abbrev  0x0000fd62      0x202 c:/program files/microchip/xc32/v4.00/bin/bin/../../lib/gcc/pic32c/8.3.1/../../../../pic32c/lib/thumb/v7e-m+fp/hard\libg-musl.a(__fmt_fp.o)
 .debug_abbrev  0x0000ff64      0x16f c:/program files/microchip/xc32/v4.00/bin/bin/../../lib/gcc/pic32c/8.3.1/../../../../pic32c/lib/thumb/v7e-m+fp/hard\libg-musl.a(__fmt_o.o)
 .debug_abbrev  0x000100d3      0x14f c:/program files/microchip/xc32/v4.00/bin/bin/../../lib/gcc/pic32c/8.3.1/../../../../pic32c/lib/thumb/v7e-m+fp/hard\libg-musl.a(__fmt_s.o)
 .debug_abbrev  0x00010222      0x1b2 c:/program files/microchip/xc32/v4.00/bin/bin/../../lib/gcc/pic32c/8.3.1/../../../../pic32c/lib/thumb/v7e-m+fp/hard\libg-musl.a(__fmt_u.o)
 .debug_abbrev  0x000103d4      0x15e c:/program files/microchip/xc32/v4.00/bin/bin/../../lib/gcc/pic32c/8.3.1/../../../../pic32c/lib/thumb/v7e-m+fp/hard\libg-musl.a(__fmt_x.o)
 .debug_abbrev  0x00010532      0x11b c:/program files/microchip/xc32/v4.00/bin/bin/../../lib/gcc/pic32c/8.3.1/../../../../pic32c/lib/thumb/v7e-m+fp/hard\libg-musl.a(__pop_float.o)
 .debug_abbrev  0x0001064d      0x11b c:/program files/microchip/xc32/v4.00/bin/bin/../../lib/gcc/pic32c/8.3.1/../../../../pic32c/lib/thumb/v7e-m+fp/hard\libg-musl.a(__pop_int.o)
 .debug_abbrev  0x00010768      0x12c c:/program files/microchip/xc32/v4.00/bin/bin/../../lib/gcc/pic32c/8.3.1/../../../../pic32c/lib/thumb/v7e-m+fp/hard\libg-musl.a(__pop_ptr.o)
 .debug_abbrev  0x00010894       0x14 c:/program files/microchip/xc32/v4.00/bin/bin/../../lib/gcc/pic32c/8.3.1/thumb/v7e-m+fp/hard\libgcc.a(_aeabi_uldivmod.o)
 .debug_abbrev  0x000108a8      0x192 c:/program files/microchip/xc32/v4.00/bin/bin/../../lib/gcc/pic32c/8.3.1/thumb/v7e-m+fp/hard\libgcc.a(_udivmoddi4.o)
 .debug_abbrev  0x00010a3a       0x14 c:/program files/microchip/xc32/v4.00/bin/bin/../../lib/gcc/pic32c/8.3.1/thumb/v7e-m+fp/hard\libgcc.a(_dvmd_tls.o)
 .debug_abbrev  0x00010a4e       0x2e c:/program files/microchip/xc32/v4.00/bin/bin/../../lib/gcc/pic32c/8.3.1/../../../../pic32c/lib/thumb/v7e-m+fp/hard\libpic32c.a(sbrk.o)

.debug_loc      0x00000000    0x651a9
 .debug_loc     0x00000000     0x4a04 build/default/debug/_ext/444070925/drv_ethphy.o
 .debug_loc     0x00004a04       0x94 build/default/debug/_ext/444070925/drv_extphy_ksz8061.o
 .debug_loc     0x00004a98     0x3014 build/default/debug/_ext/1546807373/drv_gmac.o
 .debug_loc     0x00007aac     0x2a14 build/default/debug/_ext/1546807373/drv_gmac_lib_samE5x.o
 .debug_loc     0x0000a4c0     0x2baa build/default/debug/_ext/438849557/drv_miim.o
 .debug_loc     0x0000d06a       0x45 build/default/debug/_ext/20954303/drv_sdmmc_file_system.o
 .debug_loc     0x0000d0af     0x30ed build/default/debug/_ext/20954303/drv_sdmmc.o
 .debug_loc     0x0001019c     0x1b0d build/default/debug/_ext/1751889202/sys_fs_shell.o
 .debug_loc     0x00011ca9      0x568 build/default/debug/_ext/1033058136/helpers.o
 .debug_loc     0x00012211     0x80a5 build/default/debug/_ext/1033058136/tcp.o
 .debug_loc     0x0001a2b6     0x3b6e build/default/debug/_ext/1033058136/arp.o
 .debug_loc     0x0001de24     0x2e6d build/default/debug/_ext/1033058136/ipv4.o
 .debug_loc     0x00020c91      0x207 build/default/debug/_ext/1033058136/tcpip_heap_alloc.o
 .debug_loc     0x00020e98     0x1568 build/default/debug/_ext/1033058136/tcpip_heap_internal.o
 .debug_loc     0x00022400     0x40ae build/default/debug/_ext/1033058136/dns.o
 .debug_loc     0x000264ae      0x21b build/default/debug/_ext/1033058136/hash_fnv.o
 .debug_loc     0x000266c9      0x5f3 build/default/debug/_ext/1033058136/oahash.o
 .debug_loc     0x00026cbc     0x53a5 build/default/debug/_ext/1033058136/tcpip_helpers.o
 .debug_loc     0x0002c061     0x7ca9 build/default/debug/_ext/1033058136/tcpip_manager.o
 .debug_loc     0x00033d0a      0x458 build/default/debug/_ext/1033058136/tcpip_notify.o
 .debug_loc     0x00034162      0xbe0 build/default/debug/_ext/1033058136/tcpip_packet.o
 .debug_loc     0x00034d42     0x23c5 build/default/debug/_ext/1033058136/ftp.o
 .debug_loc     0x00037107      0x3ec build/default/debug/_ext/1033058136/icmp.o
 .debug_loc     0x000374f3     0x301a build/default/debug/_ext/1508031553/net_pres.o
 .debug_loc     0x0003a50d      0x27b build/default/debug/_ext/1865468468/plib_nvic.o
 .debug_loc     0x0003a788      0x868 build/default/debug/_ext/1593096446/plib_nvmctrl.o
 .debug_loc     0x0003aff0      0x1bc build/default/debug/_ext/1865521619/plib_port.o
 .debug_loc     0x0003b1ac      0x5af build/default/debug/_ext/1865600094/plib_sdhc1.o
 .debug_loc     0x0003b75b      0xd41 build/default/debug/_ext/504274921/plib_sercom1_usart.o
 .debug_loc     0x0003c49c       0x5f build/default/debug/_ext/829342655/plib_tc0.o
 .debug_loc     0x0003c4fb      0xd24 build/default/debug/_ext/1832805299/sys_console.o
 .debug_loc     0x0003d21f      0x9f9 build/default/debug/_ext/1832805299/sys_console_uart.o
 .debug_loc     0x0003dc18       0xa1 build/default/debug/_ext/944882569/sys_debug.o
 .debug_loc     0x0003dcb9     0x9fe9 build/default/debug/_ext/411819097/ff.o
 .debug_loc     0x00047ca2      0x575 build/default/debug/_ext/411819097/ffunicode.o
 .debug_loc     0x00048217      0x58b build/default/debug/_ext/565198302/diskio.o
 .debug_loc     0x000487a2     0x5a22 build/default/debug/_ext/1269487135/sys_fs.o
 .debug_loc     0x0004e1c4     0x1696 build/default/debug/_ext/1269487135/sys_fs_media_manager.o
 .debug_loc     0x0004f85a     0x1c60 build/default/debug/_ext/1269487135/sys_fs_fat_interface.o
 .debug_loc     0x000514ba      0x182 build/default/debug/_ext/1881668453/sys_int.o
 .debug_loc     0x0005163c     0x2341 build/default/debug/_ext/101884895/sys_time.o
 .debug_loc     0x0005397d      0x152 build/default/debug/_ext/753841488/sys_time_h2_adapter.o
 .debug_loc     0x00053acf       0x7d build/default/debug/_ext/1171490990/initialization.o
 .debug_loc     0x00053b4c       0x4a build/default/debug/_ext/1171490990/startup_xc32.o
 .debug_loc     0x00053b96       0x20 build/default/debug/_ext/1171490990/tasks.o
 .debug_loc     0x00053bb6       0x45 build/default/debug/_ext/172253694/crypt_wolfcryptcb.o
 .debug_loc     0x00053bfb     0x27ea build/default/debug/_ext/1664057780/cryptocb.o
 .debug_loc     0x000563e5       0x20 build/default/debug/_ext/1360937237/main.o
 .debug_loc     0x00056405      0x1e8 build/default/debug/_ext/1360937237/app.o
 .debug_loc     0x000565ed     0x3628 build/default/debug/_ext/1033058136/berkeley_api.o
 .debug_loc     0x00059c15      0xc61 build/default/debug/_ext/1033058136/tcpip_announce.o
 .debug_loc     0x0005a876     0x5233 build/default/debug/_ext/1033058136/udp.o
 .debug_loc     0x0005faa9       0x14 c:/program files/microchip/xc32/v4.00/bin/bin/../../lib/gcc/pic32c/8.3.1/../../../../pic32c/lib/thumb/v7e-m+fp/hard\libpic32c.a(data_init.o)
 .debug_loc     0x0005fabd       0x65 c:/program files/microchip/xc32/v4.00/bin/bin/../../lib/gcc/pic32c/8.3.1/../../../../pic32c/lib/thumb/v7e-m+fp/hard\libg-musl.a(isxdigit.o)
 .debug_loc     0x0005fb22       0x4a c:/program files/microchip/xc32/v4.00/bin/bin/../../lib/gcc/pic32c/8.3.1/../../../../pic32c/lib/thumb/v7e-m+fp/hard\libg-musl.a(tolower.o)
 .debug_loc     0x0005fb6c       0x4a c:/program files/microchip/xc32/v4.00/bin/bin/../../lib/gcc/pic32c/8.3.1/../../../../pic32c/lib/thumb/v7e-m+fp/hard\libg-musl.a(toupper.o)
 .debug_loc     0x0005fbb6       0x51 c:/program files/microchip/xc32/v4.00/bin/bin/../../lib/gcc/pic32c/8.3.1/../../../../pic32c/lib/thumb/v7e-m+fp/hard\libg-musl.a(__libc_start_main.o)
 .debug_loc     0x0005fc07       0x74 c:/program files/microchip/xc32/v4.00/bin/bin/../../lib/gcc/pic32c/8.3.1/../../../../pic32c/lib/thumb/v7e-m+fp/hard\libg-musl.a(calloc.o)
 .debug_loc     0x0005fc7b      0xccc c:/program files/microchip/xc32/v4.00/bin/bin/../../lib/gcc/pic32c/8.3.1/../../../../pic32c/lib/thumb/v7e-m+fp/hard\libg-musl.a(malloc.o)
 .debug_loc     0x00060947       0x7c c:/program files/microchip/xc32/v4.00/bin/bin/../../lib/gcc/pic32c/8.3.1/../../../../pic32c/lib/thumb/v7e-m+fp/hard\libg-musl.a(expand_heap.o)
 .debug_loc     0x000609c3       0x24 c:/program files/microchip/xc32/v4.00/bin/bin/../../lib/gcc/pic32c/8.3.1/../../../../pic32c/lib/thumb/v7e-m+fp/hard\libg-musl.a(rand.o)
 .debug_loc     0x000609e7       0xeb c:/program files/microchip/xc32/v4.00/bin/bin/../../lib/gcc/pic32c/8.3.1/../../../../pic32c/lib/thumb/v7e-m+fp/hard\libg-musl.a(vsnprintf.o)
 .debug_loc     0x00060ad2       0xaf c:/program files/microchip/xc32/v4.00/bin/bin/../../lib/gcc/pic32c/8.3.1/../../../../pic32c/lib/thumb/v7e-m+fp/hard\libg-musl.a(snprintf.o)
 .debug_loc     0x00060b81       0x8a c:/program files/microchip/xc32/v4.00/bin/bin/../../lib/gcc/pic32c/8.3.1/../../../../pic32c/lib/thumb/v7e-m+fp/hard\libg-musl.a(sprintf.o)
 .debug_loc     0x00060c0b       0x6c c:/program files/microchip/xc32/v4.00/bin/bin/../../lib/gcc/pic32c/8.3.1/../../../../pic32c/lib/thumb/v7e-m+fp/hard\libg-musl.a(vsprintf.o)
 .debug_loc     0x00060c77       0xd8 c:/program files/microchip/xc32/v4.00/bin/bin/../../lib/gcc/pic32c/8.3.1/../../../../pic32c/lib/thumb/v7e-m+fp/hard\libg-musl.a(atoi.o)
 .debug_loc     0x00060d4f      0x10c c:/program files/microchip/xc32/v4.00/bin/bin/../../lib/gcc/pic32c/8.3.1/../../../../pic32c/lib/thumb/v7e-m+fp/hard\libg-musl.a(memcmp.o)
 .debug_loc     0x00060e5b       0xba c:/program files/microchip/xc32/v4.00/bin/bin/../../lib/gcc/pic32c/8.3.1/../../../../pic32c/lib/thumb/v7e-m+fp/hard\libg-musl.a(memcpy.o)
 .debug_loc     0x00060f15       0x56 c:/program files/microchip/xc32/v4.00/bin/bin/../../lib/gcc/pic32c/8.3.1/../../../../pic32c/lib/thumb/v7e-m+fp/hard\libg-musl.a(memset.o)
 .debug_loc     0x00060f6b       0x47 c:/program files/microchip/xc32/v4.00/bin/bin/../../lib/gcc/pic32c/8.3.1/../../../../pic32c/lib/thumb/v7e-m+fp/hard\libg-musl.a(strlen.o)
 .debug_loc     0x00060fb2       0x83 c:/program files/microchip/xc32/v4.00/bin/bin/../../lib/gcc/pic32c/8.3.1/../../../../pic32c/lib/thumb/v7e-m+fp/hard\libg-musl.a(strstr.o)
 .debug_loc     0x00061035       0x8c c:/program files/microchip/xc32/v4.00/bin/bin/../../lib/gcc/pic32c/8.3.1/../../../../pic32c/lib/thumb/v7e-m+fp/hard\libg-musl.a(strchr.o)
 .debug_loc     0x000610c1      0x14c c:/program files/microchip/xc32/v4.00/bin/bin/../../lib/gcc/pic32c/8.3.1/../../../../pic32c/lib/thumb/v7e-m+fp/hard\libg-musl.a(strchrnul.o)
 .debug_loc     0x0006120d       0x76 c:/program files/microchip/xc32/v4.00/bin/bin/../../lib/gcc/pic32c/8.3.1/../../../../pic32c/lib/thumb/v7e-m+fp/hard\libg-musl.a(strcmp.o)
 .debug_loc     0x00061283       0x67 c:/program files/microchip/xc32/v4.00/bin/bin/../../lib/gcc/pic32c/8.3.1/../../../../pic32c/lib/thumb/v7e-m+fp/hard\libg-musl.a(strcpy.o)
 .debug_loc     0x000612ea      0x1a6 c:/program files/microchip/xc32/v4.00/bin/bin/../../lib/gcc/pic32c/8.3.1/../../../../pic32c/lib/thumb/v7e-m+fp/hard\libg-musl.a(strncmp.o)
 .debug_loc     0x00061490       0x8c c:/program files/microchip/xc32/v4.00/bin/bin/../../lib/gcc/pic32c/8.3.1/../../../../pic32c/lib/thumb/v7e-m+fp/hard\libg-musl.a(strncpy.o)
 .debug_loc     0x0006151c       0x88 c:/program files/microchip/xc32/v4.00/bin/bin/../../lib/gcc/pic32c/8.3.1/../../../../pic32c/lib/thumb/v7e-m+fp/hard\libg-musl.a(vfprintf.o)
 .debug_loc     0x000615a4       0x60 c:/program files/microchip/xc32/v4.00/bin/bin/../../lib/gcc/pic32c/8.3.1/../../../../pic32c/lib/thumb/v7e-m+fp/hard\libg-musl.a(stpcpy.o)
 .debug_loc     0x00061604      0x15b c:/program files/microchip/xc32/v4.00/bin/bin/../../lib/gcc/pic32c/8.3.1/../../../../pic32c/lib/thumb/v7e-m+fp/hard\libg-musl.a(stpncpy.o)
 .debug_loc     0x0006175f      0x638 c:/program files/microchip/xc32/v4.00/bin/bin/../../lib/gcc/pic32c/8.3.1/../../../../pic32c/lib/thumb/v7e-m+fp/hard\libg-musl.a(__printf_core.o)
 .debug_loc     0x00061d97      0xac1 c:/program files/microchip/xc32/v4.00/bin/bin/../../lib/gcc/pic32c/8.3.1/../../../../pic32c/lib/thumb/v7e-m+fp/hard\libg-musl.a(__fmt_a.o)
 .debug_loc     0x00062858      0x1ef c:/program files/microchip/xc32/v4.00/bin/bin/../../lib/gcc/pic32c/8.3.1/../../../../pic32c/lib/thumb/v7e-m+fp/hard\libg-musl.a(__fmt_d.o)
 .debug_loc     0x00062a47      0x9e3 c:/program files/microchip/xc32/v4.00/bin/bin/../../lib/gcc/pic32c/8.3.1/../../../../pic32c/lib/thumb/v7e-m+fp/hard\libg-musl.a(__fmt_fp.o)
 .debug_loc     0x0006342a      0x10a c:/program files/microchip/xc32/v4.00/bin/bin/../../lib/gcc/pic32c/8.3.1/../../../../pic32c/lib/thumb/v7e-m+fp/hard\libg-musl.a(__fmt_o.o)
 .debug_loc     0x00063534      0x157 c:/program files/microchip/xc32/v4.00/bin/bin/../../lib/gcc/pic32c/8.3.1/../../../../pic32c/lib/thumb/v7e-m+fp/hard\libg-musl.a(__fmt_s.o)
 .debug_loc     0x0006368b      0x2a2 c:/program files/microchip/xc32/v4.00/bin/bin/../../lib/gcc/pic32c/8.3.1/../../../../pic32c/lib/thumb/v7e-m+fp/hard\libg-musl.a(__fmt_u.o)
 .debug_loc     0x0006392d      0x2a8 c:/program files/microchip/xc32/v4.00/bin/bin/../../lib/gcc/pic32c/8.3.1/../../../../pic32c/lib/thumb/v7e-m+fp/hard\libg-musl.a(__fmt_x.o)
 .debug_loc     0x00063bd5       0xa6 c:/program files/microchip/xc32/v4.00/bin/bin/../../lib/gcc/pic32c/8.3.1/../../../../pic32c/lib/thumb/v7e-m+fp/hard\libg-musl.a(__pop_float.o)
 .debug_loc     0x00063c7b      0x312 c:/program files/microchip/xc32/v4.00/bin/bin/../../lib/gcc/pic32c/8.3.1/../../../../pic32c/lib/thumb/v7e-m+fp/hard\libg-musl.a(__pop_int.o)
 .debug_loc     0x00063f8d      0x1db c:/program files/microchip/xc32/v4.00/bin/bin/../../lib/gcc/pic32c/8.3.1/../../../../pic32c/lib/thumb/v7e-m+fp/hard\libg-musl.a(__pop_ptr.o)
 .debug_loc     0x00064168     0x1041 c:/program files/microchip/xc32/v4.00/bin/bin/../../lib/gcc/pic32c/8.3.1/thumb/v7e-m+fp/hard\libgcc.a(_udivmoddi4.o)

.debug_aranges  0x00000000     0x3048
 .debug_aranges
                0x00000000      0x248 build/default/debug/_ext/444070925/drv_ethphy.o
 .debug_aranges
                0x00000248       0x30 build/default/debug/_ext/444070925/drv_extphy_ksz8061.o
 .debug_aranges
                0x00000278      0x280 build/default/debug/_ext/1546807373/drv_gmac.o
 .debug_aranges
                0x000004f8      0x140 build/default/debug/_ext/1546807373/drv_gmac_lib_samE5x.o
 .debug_aranges
                0x00000638       0xe0 build/default/debug/_ext/438849557/drv_miim.o
 .debug_aranges
                0x00000718       0x20 build/default/debug/_ext/20954303/drv_sdmmc_file_system.o
 .debug_aranges
                0x00000738       0xb0 build/default/debug/_ext/20954303/drv_sdmmc.o
 .debug_aranges
                0x000007e8       0xc0 build/default/debug/_ext/1751889202/sys_fs_shell.o
 .debug_aranges
                0x000008a8       0x48 build/default/debug/_ext/1033058136/helpers.o
 .debug_aranges
                0x000008f0      0x228 build/default/debug/_ext/1033058136/tcp.o
 .debug_aranges
                0x00000b18      0x110 build/default/debug/_ext/1033058136/arp.o
 .debug_aranges
                0x00000c28       0xf0 build/default/debug/_ext/1033058136/ipv4.o
 .debug_aranges
                0x00000d18       0x48 build/default/debug/_ext/1033058136/tcpip_heap_alloc.o
 .debug_aranges
                0x00000d60       0x68 build/default/debug/_ext/1033058136/tcpip_heap_internal.o
 .debug_aranges
                0x00000dc8      0x130 build/default/debug/_ext/1033058136/dns.o
 .debug_aranges
                0x00000ef8       0x28 build/default/debug/_ext/1033058136/hash_fnv.o
 .debug_aranges
                0x00000f20       0x58 build/default/debug/_ext/1033058136/oahash.o
 .debug_aranges
                0x00000f78      0x218 build/default/debug/_ext/1033058136/tcpip_helpers.o
 .debug_aranges
                0x00001190      0x398 build/default/debug/_ext/1033058136/tcpip_manager.o
 .debug_aranges
                0x00001528       0x48 build/default/debug/_ext/1033058136/tcpip_notify.o
 .debug_aranges
                0x00001570       0x88 build/default/debug/_ext/1033058136/tcpip_packet.o
 .debug_aranges
                0x000015f8       0x70 build/default/debug/_ext/1033058136/ftp.o
 .debug_aranges
                0x00001668       0x38 build/default/debug/_ext/1033058136/icmp.o
 .debug_aranges
                0x000016a0      0x120 build/default/debug/_ext/1508031553/net_pres.o
 .debug_aranges
                0x000017c0       0x20 build/default/debug/_ext/1984496892/plib_clock.o
 .debug_aranges
                0x000017e0       0x20 build/default/debug/_ext/1986646378/plib_evsys.o
 .debug_aranges
                0x00001800       0x38 build/default/debug/_ext/1865468468/plib_nvic.o
 .debug_aranges
                0x00001838       0xd8 build/default/debug/_ext/1593096446/plib_nvmctrl.o
 .debug_aranges
                0x00001910       0x70 build/default/debug/_ext/1865521619/plib_port.o
 .debug_aranges
                0x00001980       0xc0 build/default/debug/_ext/1865600094/plib_sdhc1.o
 .debug_aranges
                0x00001a40       0xc0 build/default/debug/_ext/504274921/plib_sercom1_usart.o
 .debug_aranges
                0x00001b00       0x78 build/default/debug/_ext/829342655/plib_tc0.o
 .debug_aranges
                0x00001b78       0x88 build/default/debug/_ext/1832805299/sys_console.o
 .debug_aranges
                0x00001c00       0x68 build/default/debug/_ext/1832805299/sys_console_uart.o
 .debug_aranges
                0x00001c68       0x48 build/default/debug/_ext/944882569/sys_debug.o
 .debug_aranges
                0x00001cb0      0x210 build/default/debug/_ext/411819097/ff.o
 .debug_aranges
                0x00001ec0       0x30 build/default/debug/_ext/411819097/ffunicode.o
 .debug_aranges
                0x00001ef0       0x58 build/default/debug/_ext/565198302/diskio.o
 .debug_aranges
                0x00001f48      0x170 build/default/debug/_ext/1269487135/sys_fs.o
 .debug_aranges
                0x000020b8       0x98 build/default/debug/_ext/1269487135/sys_fs_media_manager.o
 .debug_aranges
                0x00002150      0x130 build/default/debug/_ext/1269487135/sys_fs_fat_interface.o
 .debug_aranges
                0x00002280       0x40 build/default/debug/_ext/1881668453/sys_int.o
 .debug_aranges
                0x000022c0      0x128 build/default/debug/_ext/101884895/sys_time.o
 .debug_aranges
                0x000023e8       0x40 build/default/debug/_ext/753841488/sys_time_h2_adapter.o
 .debug_aranges
                0x00002428       0x28 build/default/debug/_ext/1171490990/initialization.o
 .debug_aranges
                0x00002450       0x20 build/default/debug/_ext/1171490990/interrupts.o
 .debug_aranges
                0x00002470       0x48 build/default/debug/_ext/1171490990/exceptions.o
 .debug_aranges
                0x000024b8       0x28 build/default/debug/_ext/1171490990/startup_xc32.o
 .debug_aranges
                0x000024e0       0x20 build/default/debug/_ext/1171490990/tasks.o
 .debug_aranges
                0x00002500       0x28 build/default/debug/_ext/172253694/crypt_wolfcryptcb.o
 .debug_aranges
                0x00002528       0xd8 build/default/debug/_ext/1664057780/cryptocb.o
 .debug_aranges
                0x00002600       0x20 build/default/debug/_ext/1360937237/main.o
 .debug_aranges
                0x00002620       0x28 build/default/debug/_ext/1360937237/app.o
 .debug_aranges
                0x00002648      0x160 build/default/debug/_ext/1033058136/berkeley_api.o
 .debug_aranges
                0x000027a8       0x88 build/default/debug/_ext/1033058136/tcpip_announce.o
 .debug_aranges
                0x00002830      0x1b8 build/default/debug/_ext/1033058136/udp.o
 .debug_aranges
                0x000029e8       0x20 c:/program files/microchip/xc32/v4.00/bin/bin/../../lib/gcc/pic32c/8.3.1/../../../../pic32c/lib/thumb/v7e-m+fp/hard\libpic32c.a(data_init.o)
 .debug_aranges
                0x00002a08       0x28 c:/program files/microchip/xc32/v4.00/bin/bin/../../lib/gcc/pic32c/8.3.1/../../../../pic32c/lib/thumb/v7e-m+fp/hard\libg-musl.a(isxdigit.o)
 .debug_aranges
                0x00002a30       0x28 c:/program files/microchip/xc32/v4.00/bin/bin/../../lib/gcc/pic32c/8.3.1/../../../../pic32c/lib/thumb/v7e-m+fp/hard\libg-musl.a(tolower.o)
 .debug_aranges
                0x00002a58       0x28 c:/program files/microchip/xc32/v4.00/bin/bin/../../lib/gcc/pic32c/8.3.1/../../../../pic32c/lib/thumb/v7e-m+fp/hard\libg-musl.a(toupper.o)
 .debug_aranges
                0x00002a80       0x28 c:/program files/microchip/xc32/v4.00/bin/bin/../../lib/gcc/pic32c/8.3.1/../../../../pic32c/lib/thumb/v7e-m+fp/hard\libg-musl.a(__libc_start_main.o)
 .debug_aranges
                0x00002aa8       0x18 c:/program files/microchip/xc32/v4.00/bin/bin/../../lib/gcc/pic32c/8.3.1/../../../../pic32c/lib/thumb/v7e-m+fp/hard\libg-musl.a(__errno_location.o)
 .debug_aranges
                0x00002ac0       0x18 c:/program files/microchip/xc32/v4.00/bin/bin/../../lib/gcc/pic32c/8.3.1/../../../../pic32c/lib/thumb/v7e-m+fp/hard\libg-musl.a(libc.o)
 .debug_aranges
                0x00002ad8       0x20 c:/program files/microchip/xc32/v4.00/bin/bin/../../lib/gcc/pic32c/8.3.1/../../../../pic32c/lib/thumb/v7e-m+fp/hard\libg-musl.a(calloc.o)
 .debug_aranges
                0x00002af8       0x70 c:/program files/microchip/xc32/v4.00/bin/bin/../../lib/gcc/pic32c/8.3.1/../../../../pic32c/lib/thumb/v7e-m+fp/hard\libg-musl.a(malloc.o)
 .debug_aranges
                0x00002b68       0x20 c:/program files/microchip/xc32/v4.00/bin/bin/../../lib/gcc/pic32c/8.3.1/../../../../pic32c/lib/thumb/v7e-m+fp/hard\libg-musl.a(expand_heap.o)
 .debug_aranges
                0x00002b88       0x28 c:/program files/microchip/xc32/v4.00/bin/bin/../../lib/gcc/pic32c/8.3.1/../../../../pic32c/lib/thumb/v7e-m+fp/hard\libg-musl.a(rand.o)
 .debug_aranges
                0x00002bb0       0x20 c:/program files/microchip/xc32/v4.00/bin/bin/../../lib/gcc/pic32c/8.3.1/../../../../pic32c/lib/thumb/v7e-m+fp/hard\libg-musl.a(vsnprintf.o)
 .debug_aranges
                0x00002bd0       0x20 c:/program files/microchip/xc32/v4.00/bin/bin/../../lib/gcc/pic32c/8.3.1/../../../../pic32c/lib/thumb/v7e-m+fp/hard\libg-musl.a(snprintf.o)
 .debug_aranges
                0x00002bf0       0x20 c:/program files/microchip/xc32/v4.00/bin/bin/../../lib/gcc/pic32c/8.3.1/../../../../pic32c/lib/thumb/v7e-m+fp/hard\libg-musl.a(sprintf.o)
 .debug_aranges
                0x00002c10       0x20 c:/program files/microchip/xc32/v4.00/bin/bin/../../lib/gcc/pic32c/8.3.1/../../../../pic32c/lib/thumb/v7e-m+fp/hard\libg-musl.a(vsprintf.o)
 .debug_aranges
                0x00002c30       0x20 c:/program files/microchip/xc32/v4.00/bin/bin/../../lib/gcc/pic32c/8.3.1/../../../../pic32c/lib/thumb/v7e-m+fp/hard\libg-musl.a(atoi.o)
 .debug_aranges
                0x00002c50       0x20 c:/program files/microchip/xc32/v4.00/bin/bin/../../lib/gcc/pic32c/8.3.1/../../../../pic32c/lib/thumb/v7e-m+fp/hard\libg-musl.a(memcmp.o)
 .debug_aranges
                0x00002c70       0x20 c:/program files/microchip/xc32/v4.00/bin/bin/../../lib/gcc/pic32c/8.3.1/../../../../pic32c/lib/thumb/v7e-m+fp/hard\libg-musl.a(memcpy.o)
 .debug_aranges
                0x00002c90       0x20 c:/program files/microchip/xc32/v4.00/bin/bin/../../lib/gcc/pic32c/8.3.1/../../../../pic32c/lib/thumb/v7e-m+fp/hard\libg-musl.a(memset.o)
 .debug_aranges
                0x00002cb0       0x20 c:/program files/microchip/xc32/v4.00/bin/bin/../../lib/gcc/pic32c/8.3.1/../../../../pic32c/lib/thumb/v7e-m+fp/hard\libg-musl.a(strlen.o)
 .debug_aranges
                0x00002cd0       0x20 c:/program files/microchip/xc32/v4.00/bin/bin/../../lib/gcc/pic32c/8.3.1/../../../../pic32c/lib/thumb/v7e-m+fp/hard\libg-musl.a(strstr.o)
 .debug_aranges
                0x00002cf0       0x20 c:/program files/microchip/xc32/v4.00/bin/bin/../../lib/gcc/pic32c/8.3.1/../../../../pic32c/lib/thumb/v7e-m+fp/hard\libg-musl.a(strchr.o)
 .debug_aranges
                0x00002d10       0x20 c:/program files/microchip/xc32/v4.00/bin/bin/../../lib/gcc/pic32c/8.3.1/../../../../pic32c/lib/thumb/v7e-m+fp/hard\libg-musl.a(strchrnul.o)
 .debug_aranges
                0x00002d30       0x20 c:/program files/microchip/xc32/v4.00/bin/bin/../../lib/gcc/pic32c/8.3.1/../../../../pic32c/lib/thumb/v7e-m+fp/hard\libg-musl.a(strcmp.o)
 .debug_aranges
                0x00002d50       0x20 c:/program files/microchip/xc32/v4.00/bin/bin/../../lib/gcc/pic32c/8.3.1/../../../../pic32c/lib/thumb/v7e-m+fp/hard\libg-musl.a(strcpy.o)
 .debug_aranges
                0x00002d70       0x20 c:/program files/microchip/xc32/v4.00/bin/bin/../../lib/gcc/pic32c/8.3.1/../../../../pic32c/lib/thumb/v7e-m+fp/hard\libg-musl.a(strncmp.o)
 .debug_aranges
                0x00002d90       0x20 c:/program files/microchip/xc32/v4.00/bin/bin/../../lib/gcc/pic32c/8.3.1/../../../../pic32c/lib/thumb/v7e-m+fp/hard\libg-musl.a(strncpy.o)
 .debug_aranges
                0x00002db0       0x18 c:/program files/microchip/xc32/v4.00/bin/bin/../../lib/gcc/pic32c/8.3.1/../../../../pic32c/lib/thumb/v7e-m+fp/hard\libg-musl.a(__environ.o)
 .debug_aranges
                0x00002dc8       0x28 c:/program files/microchip/xc32/v4.00/bin/bin/../../lib/gcc/pic32c/8.3.1/../../../../pic32c/lib/thumb/v7e-m+fp/hard\libg-musl.a(vfprintf.o)
 .debug_aranges
                0x00002df0       0x20 c:/program files/microchip/xc32/v4.00/bin/bin/../../lib/gcc/pic32c/8.3.1/../../../../pic32c/lib/thumb/v7e-m+fp/hard\libg-musl.a(stpcpy.o)
 .debug_aranges
                0x00002e10       0x20 c:/program files/microchip/xc32/v4.00/bin/bin/../../lib/gcc/pic32c/8.3.1/../../../../pic32c/lib/thumb/v7e-m+fp/hard\libg-musl.a(stpncpy.o)
 .debug_aranges
                0x00002e30       0x50 c:/program files/microchip/xc32/v4.00/bin/bin/../../lib/gcc/pic32c/8.3.1/../../../../pic32c/lib/thumb/v7e-m+fp/hard\libg-musl.a(__printf_core.o)
 .debug_aranges
                0x00002e80       0x20 c:/program files/microchip/xc32/v4.00/bin/bin/../../lib/gcc/pic32c/8.3.1/../../../../pic32c/lib/thumb/v7e-m+fp/hard\libg-musl.a(__fmt_a.o)
 .debug_aranges
                0x00002ea0       0x20 c:/program files/microchip/xc32/v4.00/bin/bin/../../lib/gcc/pic32c/8.3.1/../../../../pic32c/lib/thumb/v7e-m+fp/hard\libg-musl.a(__fmt_d.o)
 .debug_aranges
                0x00002ec0       0x20 c:/program files/microchip/xc32/v4.00/bin/bin/../../lib/gcc/pic32c/8.3.1/../../../../pic32c/lib/thumb/v7e-m+fp/hard\libg-musl.a(__fmt_fp.o)
 .debug_aranges
                0x00002ee0       0x20 c:/program files/microchip/xc32/v4.00/bin/bin/../../lib/gcc/pic32c/8.3.1/../../../../pic32c/lib/thumb/v7e-m+fp/hard\libg-musl.a(__fmt_o.o)
 .debug_aranges
                0x00002f00       0x20 c:/program files/microchip/xc32/v4.00/bin/bin/../../lib/gcc/pic32c/8.3.1/../../../../pic32c/lib/thumb/v7e-m+fp/hard\libg-musl.a(__fmt_s.o)
 .debug_aranges
                0x00002f20       0x28 c:/program files/microchip/xc32/v4.00/bin/bin/../../lib/gcc/pic32c/8.3.1/../../../../pic32c/lib/thumb/v7e-m+fp/hard\libg-musl.a(__fmt_u.o)
 .debug_aranges
                0x00002f48       0x20 c:/program files/microchip/xc32/v4.00/bin/bin/../../lib/gcc/pic32c/8.3.1/../../../../pic32c/lib/thumb/v7e-m+fp/hard\libg-musl.a(__fmt_x.o)
 .debug_aranges
                0x00002f68       0x20 c:/program files/microchip/xc32/v4.00/bin/bin/../../lib/gcc/pic32c/8.3.1/../../../../pic32c/lib/thumb/v7e-m+fp/hard\libg-musl.a(__pop_float.o)
 .debug_aranges
                0x00002f88       0x20 c:/program files/microchip/xc32/v4.00/bin/bin/../../lib/gcc/pic32c/8.3.1/../../../../pic32c/lib/thumb/v7e-m+fp/hard\libg-musl.a(__pop_int.o)
 .debug_aranges
                0x00002fa8       0x20 c:/program files/microchip/xc32/v4.00/bin/bin/../../lib/gcc/pic32c/8.3.1/../../../../pic32c/lib/thumb/v7e-m+fp/hard\libg-musl.a(__pop_ptr.o)
 .debug_aranges
                0x00002fc8       0x20 c:/program files/microchip/xc32/v4.00/bin/bin/../../lib/gcc/pic32c/8.3.1/thumb/v7e-m+fp/hard\libgcc.a(_aeabi_uldivmod.o)
 .debug_aranges
                0x00002fe8       0x20 c:/program files/microchip/xc32/v4.00/bin/bin/../../lib/gcc/pic32c/8.3.1/thumb/v7e-m+fp/hard\libgcc.a(_udivmoddi4.o)
 .debug_aranges
                0x00003008       0x20 c:/program files/microchip/xc32/v4.00/bin/bin/../../lib/gcc/pic32c/8.3.1/thumb/v7e-m+fp/hard\libgcc.a(_dvmd_tls.o)
 .debug_aranges
                0x00003028       0x20 c:/program files/microchip/xc32/v4.00/bin/bin/../../lib/gcc/pic32c/8.3.1/../../../../pic32c/lib/thumb/v7e-m+fp/hard\libpic32c.a(sbrk.o)

.debug_ranges   0x00000000     0x6420
 .debug_ranges  0x00000000      0x310 build/default/debug/_ext/444070925/drv_ethphy.o
 .debug_ranges  0x00000310       0x20 build/default/debug/_ext/444070925/drv_extphy_ksz8061.o
 .debug_ranges  0x00000330      0x360 build/default/debug/_ext/1546807373/drv_gmac.o
 .debug_ranges  0x00000690      0x278 build/default/debug/_ext/1546807373/drv_gmac_lib_samE5x.o
 .debug_ranges  0x00000908      0x420 build/default/debug/_ext/438849557/drv_miim.o
 .debug_ranges  0x00000d28       0x10 build/default/debug/_ext/20954303/drv_sdmmc_file_system.o
 .debug_ranges  0x00000d38      0x190 build/default/debug/_ext/20954303/drv_sdmmc.o
 .debug_ranges  0x00000ec8      0x1e8 build/default/debug/_ext/1751889202/sys_fs_shell.o
 .debug_ranges  0x000010b0       0x38 build/default/debug/_ext/1033058136/helpers.o
 .debug_ranges  0x000010e8      0x770 build/default/debug/_ext/1033058136/tcp.o
 .debug_ranges  0x00001858      0x498 build/default/debug/_ext/1033058136/arp.o
 .debug_ranges  0x00001cf0      0x2b8 build/default/debug/_ext/1033058136/ipv4.o
 .debug_ranges  0x00001fa8       0x38 build/default/debug/_ext/1033058136/tcpip_heap_alloc.o
 .debug_ranges  0x00001fe0      0x148 build/default/debug/_ext/1033058136/tcpip_heap_internal.o
 .debug_ranges  0x00002128      0x318 build/default/debug/_ext/1033058136/dns.o
 .debug_ranges  0x00002440       0x18 build/default/debug/_ext/1033058136/hash_fnv.o
 .debug_ranges  0x00002458       0x48 build/default/debug/_ext/1033058136/oahash.o
 .debug_ranges  0x000024a0      0x460 build/default/debug/_ext/1033058136/tcpip_helpers.o
 .debug_ranges  0x00002900      0xd30 build/default/debug/_ext/1033058136/tcpip_manager.o
 .debug_ranges  0x00003630       0x38 build/default/debug/_ext/1033058136/tcpip_notify.o
 .debug_ranges  0x00003668       0xd8 build/default/debug/_ext/1033058136/tcpip_packet.o
 .debug_ranges  0x00003740      0x168 build/default/debug/_ext/1033058136/ftp.o
 .debug_ranges  0x000038a8       0x28 build/default/debug/_ext/1033058136/icmp.o
 .debug_ranges  0x000038d0      0x2e8 build/default/debug/_ext/1508031553/net_pres.o
 .debug_ranges  0x00003bb8       0x10 build/default/debug/_ext/1984496892/plib_clock.o
 .debug_ranges  0x00003bc8       0x10 build/default/debug/_ext/1986646378/plib_evsys.o
 .debug_ranges  0x00003bd8       0x28 build/default/debug/_ext/1865468468/plib_nvic.o
 .debug_ranges  0x00003c00       0xc8 build/default/debug/_ext/1593096446/plib_nvmctrl.o
 .debug_ranges  0x00003cc8       0x60 build/default/debug/_ext/1865521619/plib_port.o
 .debug_ranges  0x00003d28       0xc8 build/default/debug/_ext/1865600094/plib_sdhc1.o
 .debug_ranges  0x00003df0      0x1f0 build/default/debug/_ext/504274921/plib_sercom1_usart.o
 .debug_ranges  0x00003fe0       0x68 build/default/debug/_ext/829342655/plib_tc0.o
 .debug_ranges  0x00004048       0x90 build/default/debug/_ext/1832805299/sys_console.o
 .debug_ranges  0x000040d8      0x1a8 build/default/debug/_ext/1832805299/sys_console_uart.o
 .debug_ranges  0x00004280       0x38 build/default/debug/_ext/944882569/sys_debug.o
 .debug_ranges  0x000042b8      0x3d0 build/default/debug/_ext/411819097/ff.o
 .debug_ranges  0x00004688       0x20 build/default/debug/_ext/411819097/ffunicode.o
 .debug_ranges  0x000046a8       0x60 build/default/debug/_ext/565198302/diskio.o
 .debug_ranges  0x00004708      0x5c8 build/default/debug/_ext/1269487135/sys_fs.o
 .debug_ranges  0x00004cd0      0x110 build/default/debug/_ext/1269487135/sys_fs_media_manager.o
 .debug_ranges  0x00004de0      0x120 build/default/debug/_ext/1269487135/sys_fs_fat_interface.o
 .debug_ranges  0x00004f00       0x30 build/default/debug/_ext/1881668453/sys_int.o
 .debug_ranges  0x00004f30      0x178 build/default/debug/_ext/101884895/sys_time.o
 .debug_ranges  0x000050a8       0x30 build/default/debug/_ext/753841488/sys_time_h2_adapter.o
 .debug_ranges  0x000050d8       0x18 build/default/debug/_ext/1171490990/initialization.o
 .debug_ranges  0x000050f0       0x10 build/default/debug/_ext/1171490990/interrupts.o
 .debug_ranges  0x00005100       0x38 build/default/debug/_ext/1171490990/exceptions.o
 .debug_ranges  0x00005138       0x18 build/default/debug/_ext/1171490990/startup_xc32.o
 .debug_ranges  0x00005150       0x10 build/default/debug/_ext/1171490990/tasks.o
 .debug_ranges  0x00005160       0x18 build/default/debug/_ext/172253694/crypt_wolfcryptcb.o
 .debug_ranges  0x00005178      0x1b8 build/default/debug/_ext/1664057780/cryptocb.o
 .debug_ranges  0x00005330       0x10 build/default/debug/_ext/1360937237/main.o
 .debug_ranges  0x00005340       0x18 build/default/debug/_ext/1360937237/app.o
 .debug_ranges  0x00005358      0x208 build/default/debug/_ext/1033058136/berkeley_api.o
 .debug_ranges  0x00005560      0x168 build/default/debug/_ext/1033058136/tcpip_announce.o
 .debug_ranges  0x000056c8      0x7b8 build/default/debug/_ext/1033058136/udp.o
 .debug_ranges  0x00005e80       0x10 c:/program files/microchip/xc32/v4.00/bin/bin/../../lib/gcc/pic32c/8.3.1/../../../../pic32c/lib/thumb/v7e-m+fp/hard\libpic32c.a(data_init.o)
 .debug_ranges  0x00005e90       0x18 c:/program files/microchip/xc32/v4.00/bin/bin/../../lib/gcc/pic32c/8.3.1/../../../../pic32c/lib/thumb/v7e-m+fp/hard\libg-musl.a(isxdigit.o)
 .debug_ranges  0x00005ea8       0x18 c:/program files/microchip/xc32/v4.00/bin/bin/../../lib/gcc/pic32c/8.3.1/../../../../pic32c/lib/thumb/v7e-m+fp/hard\libg-musl.a(tolower.o)
 .debug_ranges  0x00005ec0       0x18 c:/program files/microchip/xc32/v4.00/bin/bin/../../lib/gcc/pic32c/8.3.1/../../../../pic32c/lib/thumb/v7e-m+fp/hard\libg-musl.a(toupper.o)
 .debug_ranges  0x00005ed8       0x40 c:/program files/microchip/xc32/v4.00/bin/bin/../../lib/gcc/pic32c/8.3.1/../../../../pic32c/lib/thumb/v7e-m+fp/hard\libg-musl.a(__libc_start_main.o)
 .debug_ranges  0x00005f18       0x10 c:/program files/microchip/xc32/v4.00/bin/bin/../../lib/gcc/pic32c/8.3.1/../../../../pic32c/lib/thumb/v7e-m+fp/hard\libg-musl.a(calloc.o)
 .debug_ranges  0x00005f28      0x1a0 c:/program files/microchip/xc32/v4.00/bin/bin/../../lib/gcc/pic32c/8.3.1/../../../../pic32c/lib/thumb/v7e-m+fp/hard\libg-musl.a(malloc.o)
 .debug_ranges  0x000060c8       0x10 c:/program files/microchip/xc32/v4.00/bin/bin/../../lib/gcc/pic32c/8.3.1/../../../../pic32c/lib/thumb/v7e-m+fp/hard\libg-musl.a(expand_heap.o)
 .debug_ranges  0x000060d8       0x18 c:/program files/microchip/xc32/v4.00/bin/bin/../../lib/gcc/pic32c/8.3.1/../../../../pic32c/lib/thumb/v7e-m+fp/hard\libg-musl.a(rand.o)
 .debug_ranges  0x000060f0       0x10 c:/program files/microchip/xc32/v4.00/bin/bin/../../lib/gcc/pic32c/8.3.1/../../../../pic32c/lib/thumb/v7e-m+fp/hard\libg-musl.a(vsnprintf.o)
 .debug_ranges  0x00006100       0x10 c:/program files/microchip/xc32/v4.00/bin/bin/../../lib/gcc/pic32c/8.3.1/../../../../pic32c/lib/thumb/v7e-m+fp/hard\libg-musl.a(snprintf.o)
 .debug_ranges  0x00006110       0x10 c:/program files/microchip/xc32/v4.00/bin/bin/../../lib/gcc/pic32c/8.3.1/../../../../pic32c/lib/thumb/v7e-m+fp/hard\libg-musl.a(sprintf.o)
 .debug_ranges  0x00006120       0x10 c:/program files/microchip/xc32/v4.00/bin/bin/../../lib/gcc/pic32c/8.3.1/../../../../pic32c/lib/thumb/v7e-m+fp/hard\libg-musl.a(vsprintf.o)
 .debug_ranges  0x00006130       0x10 c:/program files/microchip/xc32/v4.00/bin/bin/../../lib/gcc/pic32c/8.3.1/../../../../pic32c/lib/thumb/v7e-m+fp/hard\libg-musl.a(atoi.o)
 .debug_ranges  0x00006140       0x10 c:/program files/microchip/xc32/v4.00/bin/bin/../../lib/gcc/pic32c/8.3.1/../../../../pic32c/lib/thumb/v7e-m+fp/hard\libg-musl.a(memcmp.o)
 .debug_ranges  0x00006150       0x10 c:/program files/microchip/xc32/v4.00/bin/bin/../../lib/gcc/pic32c/8.3.1/../../../../pic32c/lib/thumb/v7e-m+fp/hard\libg-musl.a(memcpy.o)
 .debug_ranges  0x00006160       0x10 c:/program files/microchip/xc32/v4.00/bin/bin/../../lib/gcc/pic32c/8.3.1/../../../../pic32c/lib/thumb/v7e-m+fp/hard\libg-musl.a(memset.o)
 .debug_ranges  0x00006170       0x10 c:/program files/microchip/xc32/v4.00/bin/bin/../../lib/gcc/pic32c/8.3.1/../../../../pic32c/lib/thumb/v7e-m+fp/hard\libg-musl.a(strlen.o)
 .debug_ranges  0x00006180       0x10 c:/program files/microchip/xc32/v4.00/bin/bin/../../lib/gcc/pic32c/8.3.1/../../../../pic32c/lib/thumb/v7e-m+fp/hard\libg-musl.a(strstr.o)
 .debug_ranges  0x00006190       0x10 c:/program files/microchip/xc32/v4.00/bin/bin/../../lib/gcc/pic32c/8.3.1/../../../../pic32c/lib/thumb/v7e-m+fp/hard\libg-musl.a(strchr.o)
 .debug_ranges  0x000061a0       0x10 c:/program files/microchip/xc32/v4.00/bin/bin/../../lib/gcc/pic32c/8.3.1/../../../../pic32c/lib/thumb/v7e-m+fp/hard\libg-musl.a(strchrnul.o)
 .debug_ranges  0x000061b0       0x10 c:/program files/microchip/xc32/v4.00/bin/bin/../../lib/gcc/pic32c/8.3.1/../../../../pic32c/lib/thumb/v7e-m+fp/hard\libg-musl.a(strcmp.o)
 .debug_ranges  0x000061c0       0x10 c:/program files/microchip/xc32/v4.00/bin/bin/../../lib/gcc/pic32c/8.3.1/../../../../pic32c/lib/thumb/v7e-m+fp/hard\libg-musl.a(strcpy.o)
 .debug_ranges  0x000061d0       0x10 c:/program files/microchip/xc32/v4.00/bin/bin/../../lib/gcc/pic32c/8.3.1/../../../../pic32c/lib/thumb/v7e-m+fp/hard\libg-musl.a(strncmp.o)
 .debug_ranges  0x000061e0       0x10 c:/program files/microchip/xc32/v4.00/bin/bin/../../lib/gcc/pic32c/8.3.1/../../../../pic32c/lib/thumb/v7e-m+fp/hard\libg-musl.a(strncpy.o)
 .debug_ranges  0x000061f0       0x18 c:/program files/microchip/xc32/v4.00/bin/bin/../../lib/gcc/pic32c/8.3.1/../../../../pic32c/lib/thumb/v7e-m+fp/hard\libg-musl.a(vfprintf.o)
 .debug_ranges  0x00006208       0x10 c:/program files/microchip/xc32/v4.00/bin/bin/../../lib/gcc/pic32c/8.3.1/../../../../pic32c/lib/thumb/v7e-m+fp/hard\libg-musl.a(stpcpy.o)
 .debug_ranges  0x00006218       0x10 c:/program files/microchip/xc32/v4.00/bin/bin/../../lib/gcc/pic32c/8.3.1/../../../../pic32c/lib/thumb/v7e-m+fp/hard\libg-musl.a(stpncpy.o)
 .debug_ranges  0x00006228       0x68 c:/program files/microchip/xc32/v4.00/bin/bin/../../lib/gcc/pic32c/8.3.1/../../../../pic32c/lib/thumb/v7e-m+fp/hard\libg-musl.a(__printf_core.o)
 .debug_ranges  0x00006290       0x10 c:/program files/microchip/xc32/v4.00/bin/bin/../../lib/gcc/pic32c/8.3.1/../../../../pic32c/lib/thumb/v7e-m+fp/hard\libg-musl.a(__fmt_a.o)
 .debug_ranges  0x000062a0       0x10 c:/program files/microchip/xc32/v4.00/bin/bin/../../lib/gcc/pic32c/8.3.1/../../../../pic32c/lib/thumb/v7e-m+fp/hard\libg-musl.a(__fmt_d.o)
 .debug_ranges  0x000062b0       0x10 c:/program files/microchip/xc32/v4.00/bin/bin/../../lib/gcc/pic32c/8.3.1/../../../../pic32c/lib/thumb/v7e-m+fp/hard\libg-musl.a(__fmt_fp.o)
 .debug_ranges  0x000062c0       0x10 c:/program files/microchip/xc32/v4.00/bin/bin/../../lib/gcc/pic32c/8.3.1/../../../../pic32c/lib/thumb/v7e-m+fp/hard\libg-musl.a(__fmt_o.o)
 .debug_ranges  0x000062d0       0x10 c:/program files/microchip/xc32/v4.00/bin/bin/../../lib/gcc/pic32c/8.3.1/../../../../pic32c/lib/thumb/v7e-m+fp/hard\libg-musl.a(__fmt_s.o)
 .debug_ranges  0x000062e0       0x18 c:/program files/microchip/xc32/v4.00/bin/bin/../../lib/gcc/pic32c/8.3.1/../../../../pic32c/lib/thumb/v7e-m+fp/hard\libg-musl.a(__fmt_u.o)
 .debug_ranges  0x000062f8       0x10 c:/program files/microchip/xc32/v4.00/bin/bin/../../lib/gcc/pic32c/8.3.1/../../../../pic32c/lib/thumb/v7e-m+fp/hard\libg-musl.a(__fmt_x.o)
 .debug_ranges  0x00006308       0x10 c:/program files/microchip/xc32/v4.00/bin/bin/../../lib/gcc/pic32c/8.3.1/../../../../pic32c/lib/thumb/v7e-m+fp/hard\libg-musl.a(__pop_float.o)
 .debug_ranges  0x00006318       0x10 c:/program files/microchip/xc32/v4.00/bin/bin/../../lib/gcc/pic32c/8.3.1/../../../../pic32c/lib/thumb/v7e-m+fp/hard\libg-musl.a(__pop_int.o)
 .debug_ranges  0x00006328       0x10 c:/program files/microchip/xc32/v4.00/bin/bin/../../lib/gcc/pic32c/8.3.1/../../../../pic32c/lib/thumb/v7e-m+fp/hard\libg-musl.a(__pop_ptr.o)
 .debug_ranges  0x00006338       0xd8 c:/program files/microchip/xc32/v4.00/bin/bin/../../lib/gcc/pic32c/8.3.1/thumb/v7e-m+fp/hard\libgcc.a(_udivmoddi4.o)
 .debug_ranges  0x00006410       0x10 c:/program files/microchip/xc32/v4.00/bin/bin/../../lib/gcc/pic32c/8.3.1/../../../../pic32c/lib/thumb/v7e-m+fp/hard\libpic32c.a(sbrk.o)

.debug_line     0x00000000    0x3ebff
 .debug_line    0x00000000     0x23f3 build/default/debug/_ext/444070925/drv_ethphy.o
 .debug_line    0x000023f3      0x233 build/default/debug/_ext/444070925/drv_extphy_ksz8061.o
 .debug_line    0x00002626     0x1f51 build/default/debug/_ext/1546807373/drv_gmac.o
 .debug_line    0x00004577     0x18ff build/default/debug/_ext/1546807373/drv_gmac_lib_samE5x.o
 .debug_line    0x00005e76     0x155a build/default/debug/_ext/438849557/drv_miim.o
 .debug_line    0x000073d0      0x1a8 build/default/debug/_ext/20954303/drv_sdmmc_file_system.o
 .debug_line    0x00007578     0x1f38 build/default/debug/_ext/20954303/drv_sdmmc.o
 .debug_line    0x000094b0      0xb61 build/default/debug/_ext/1751889202/sys_fs_shell.o
 .debug_line    0x0000a011      0x33a build/default/debug/_ext/1033058136/helpers.o
 .debug_line    0x0000a34b     0x48d5 build/default/debug/_ext/1033058136/tcp.o
 .debug_line    0x0000ec20     0x1a77 build/default/debug/_ext/1033058136/arp.o
 .debug_line    0x00010697     0x190d build/default/debug/_ext/1033058136/ipv4.o
 .debug_line    0x00011fa4      0x30c build/default/debug/_ext/1033058136/tcpip_heap_alloc.o
 .debug_line    0x000122b0      0xbb8 build/default/debug/_ext/1033058136/tcpip_heap_internal.o
 .debug_line    0x00012e68     0x1eb7 build/default/debug/_ext/1033058136/dns.o
 .debug_line    0x00014d1f      0x13d build/default/debug/_ext/1033058136/hash_fnv.o
 .debug_line    0x00014e5c      0x43f build/default/debug/_ext/1033058136/oahash.o
 .debug_line    0x0001529b     0x2ae8 build/default/debug/_ext/1033058136/tcpip_helpers.o
 .debug_line    0x00017d83     0x3c59 build/default/debug/_ext/1033058136/tcpip_manager.o
 .debug_line    0x0001b9dc      0x414 build/default/debug/_ext/1033058136/tcpip_notify.o
 .debug_line    0x0001bdf0      0x828 build/default/debug/_ext/1033058136/tcpip_packet.o
 .debug_line    0x0001c618     0x26e7 build/default/debug/_ext/1033058136/ftp.o
 .debug_line    0x0001ecff      0x4ef build/default/debug/_ext/1033058136/icmp.o
 .debug_line    0x0001f1ee     0x187d build/default/debug/_ext/1508031553/net_pres.o
 .debug_line    0x00020a6b      0x2b9 build/default/debug/_ext/1984496892/plib_clock.o
 .debug_line    0x00020d24       0xe7 build/default/debug/_ext/1986646378/plib_evsys.o
 .debug_line    0x00020e0b      0x438 build/default/debug/_ext/1865468468/plib_nvic.o
 .debug_line    0x00021243      0x5f6 build/default/debug/_ext/1593096446/plib_nvmctrl.o
 .debug_line    0x00021839      0x3b5 build/default/debug/_ext/1865521619/plib_port.o
 .debug_line    0x00021bee      0x7e8 build/default/debug/_ext/1865600094/plib_sdhc1.o
 .debug_line    0x000223d6      0xbbb build/default/debug/_ext/504274921/plib_sercom1_usart.o
 .debug_line    0x00022f91      0x372 build/default/debug/_ext/829342655/plib_tc0.o
 .debug_line    0x00023303      0x685 build/default/debug/_ext/1832805299/sys_console.o
 .debug_line    0x00023988      0x825 build/default/debug/_ext/1832805299/sys_console_uart.o
 .debug_line    0x000241ad      0x259 build/default/debug/_ext/944882569/sys_debug.o
 .debug_line    0x00024406     0x4d75 build/default/debug/_ext/411819097/ff.o
 .debug_line    0x0002917b      0x2f0 build/default/debug/_ext/411819097/ffunicode.o
 .debug_line    0x0002946b      0x3b9 build/default/debug/_ext/565198302/diskio.o
 .debug_line    0x00029824     0x31b9 build/default/debug/_ext/1269487135/sys_fs.o
 .debug_line    0x0002c9dd      0xdfa build/default/debug/_ext/1269487135/sys_fs_media_manager.o
 .debug_line    0x0002d7d7      0x99d build/default/debug/_ext/1269487135/sys_fs_fat_interface.o
 .debug_line    0x0002e174      0x2bf build/default/debug/_ext/1881668453/sys_int.o
 .debug_line    0x0002e433     0x11b1 build/default/debug/_ext/101884895/sys_time.o
 .debug_line    0x0002f5e4      0x202 build/default/debug/_ext/753841488/sys_time_h2_adapter.o
 .debug_line    0x0002f7e6      0x8f9 build/default/debug/_ext/1171490990/initialization.o
 .debug_line    0x000300df      0x31c build/default/debug/_ext/1171490990/interrupts.o
 .debug_line    0x000303fb      0x368 build/default/debug/_ext/1171490990/exceptions.o
 .debug_line    0x00030763      0x248 build/default/debug/_ext/1171490990/startup_xc32.o
 .debug_line    0x000309ab      0x39f build/default/debug/_ext/1171490990/tasks.o
 .debug_line    0x00030d4a      0x232 build/default/debug/_ext/172253694/crypt_wolfcryptcb.o
 .debug_line    0x00030f7c      0xf81 build/default/debug/_ext/1664057780/cryptocb.o
 .debug_line    0x00031efd      0x2f1 build/default/debug/_ext/1360937237/main.o
 .debug_line    0x000321ee      0x547 build/default/debug/_ext/1360937237/app.o
 .debug_line    0x00032735     0x2509 build/default/debug/_ext/1033058136/berkeley_api.o
 .debug_line    0x00034c3e      0xadb build/default/debug/_ext/1033058136/tcpip_announce.o
 .debug_line    0x00035719     0x2e79 build/default/debug/_ext/1033058136/udp.o
 .debug_line    0x00038592      0x110 c:/program files/microchip/xc32/v4.00/bin/bin/../../lib/gcc/pic32c/8.3.1/../../../../pic32c/lib/thumb/v7e-m+fp/hard\libpic32c.a(data_init.o)
 .debug_line    0x000386a2      0x1df c:/program files/microchip/xc32/v4.00/bin/bin/../../lib/gcc/pic32c/8.3.1/../../../../pic32c/lib/thumb/v7e-m+fp/hard\libg-musl.a(isxdigit.o)
 .debug_line    0x00038881      0x1dc c:/program files/microchip/xc32/v4.00/bin/bin/../../lib/gcc/pic32c/8.3.1/../../../../pic32c/lib/thumb/v7e-m+fp/hard\libg-musl.a(tolower.o)
 .debug_line    0x00038a5d      0x1dc c:/program files/microchip/xc32/v4.00/bin/bin/../../lib/gcc/pic32c/8.3.1/../../../../pic32c/lib/thumb/v7e-m+fp/hard\libg-musl.a(toupper.o)
 .debug_line    0x00038c39      0x24c c:/program files/microchip/xc32/v4.00/bin/bin/../../lib/gcc/pic32c/8.3.1/../../../../pic32c/lib/thumb/v7e-m+fp/hard\libg-musl.a(__libc_start_main.o)
 .debug_line    0x00038e85      0x1ad c:/program files/microchip/xc32/v4.00/bin/bin/../../lib/gcc/pic32c/8.3.1/../../../../pic32c/lib/thumb/v7e-m+fp/hard\libg-musl.a(__errno_location.o)
 .debug_line    0x00039032      0x132 c:/program files/microchip/xc32/v4.00/bin/bin/../../lib/gcc/pic32c/8.3.1/../../../../pic32c/lib/thumb/v7e-m+fp/hard\libg-musl.a(libc.o)
 .debug_line    0x00039164      0x158 c:/program files/microchip/xc32/v4.00/bin/bin/../../lib/gcc/pic32c/8.3.1/../../../../pic32c/lib/thumb/v7e-m+fp/hard\libg-musl.a(calloc.o)
 .debug_line    0x000392bc      0xad3 c:/program files/microchip/xc32/v4.00/bin/bin/../../lib/gcc/pic32c/8.3.1/../../../../pic32c/lib/thumb/v7e-m+fp/hard\libg-musl.a(malloc.o)
 .debug_line    0x00039d8f      0x1ee c:/program files/microchip/xc32/v4.00/bin/bin/../../lib/gcc/pic32c/8.3.1/../../../../pic32c/lib/thumb/v7e-m+fp/hard\libg-musl.a(expand_heap.o)
 .debug_line    0x00039f7d       0xf9 c:/program files/microchip/xc32/v4.00/bin/bin/../../lib/gcc/pic32c/8.3.1/../../../../pic32c/lib/thumb/v7e-m+fp/hard\libg-musl.a(rand.o)
 .debug_line    0x0003a076      0x23e c:/program files/microchip/xc32/v4.00/bin/bin/../../lib/gcc/pic32c/8.3.1/../../../../pic32c/lib/thumb/v7e-m+fp/hard\libg-musl.a(vsnprintf.o)
 .debug_line    0x0003a2b4      0x162 c:/program files/microchip/xc32/v4.00/bin/bin/../../lib/gcc/pic32c/8.3.1/../../../../pic32c/lib/thumb/v7e-m+fp/hard\libg-musl.a(snprintf.o)
 .debug_line    0x0003a416      0x161 c:/program files/microchip/xc32/v4.00/bin/bin/../../lib/gcc/pic32c/8.3.1/../../../../pic32c/lib/thumb/v7e-m+fp/hard\libg-musl.a(sprintf.o)
 .debug_line    0x0003a577      0x150 c:/program files/microchip/xc32/v4.00/bin/bin/../../lib/gcc/pic32c/8.3.1/../../../../pic32c/lib/thumb/v7e-m+fp/hard\libg-musl.a(vsprintf.o)
 .debug_line    0x0003a6c7      0x177 c:/program files/microchip/xc32/v4.00/bin/bin/../../lib/gcc/pic32c/8.3.1/../../../../pic32c/lib/thumb/v7e-m+fp/hard\libg-musl.a(atoi.o)
 .debug_line    0x0003a83e       0xe7 c:/program files/microchip/xc32/v4.00/bin/bin/../../lib/gcc/pic32c/8.3.1/../../../../pic32c/lib/thumb/v7e-m+fp/hard\libg-musl.a(memcmp.o)
 .debug_line    0x0003a925       0xf2 c:/program files/microchip/xc32/v4.00/bin/bin/../../lib/gcc/pic32c/8.3.1/../../../../pic32c/lib/thumb/v7e-m+fp/hard\libg-musl.a(memcpy.o)
 .debug_line    0x0003aa17       0xea c:/program files/microchip/xc32/v4.00/bin/bin/../../lib/gcc/pic32c/8.3.1/../../../../pic32c/lib/thumb/v7e-m+fp/hard\libg-musl.a(memset.o)
 .debug_line    0x0003ab01       0xe6 c:/program files/microchip/xc32/v4.00/bin/bin/../../lib/gcc/pic32c/8.3.1/../../../../pic32c/lib/thumb/v7e-m+fp/hard\libg-musl.a(strlen.o)
 .debug_line    0x0003abe7      0x116 c:/program files/microchip/xc32/v4.00/bin/bin/../../lib/gcc/pic32c/8.3.1/../../../../pic32c/lib/thumb/v7e-m+fp/hard\libg-musl.a(strstr.o)
 .debug_line    0x0003acfd       0xba c:/program files/microchip/xc32/v4.00/bin/bin/../../lib/gcc/pic32c/8.3.1/../../../../pic32c/lib/thumb/v7e-m+fp/hard\libg-musl.a(strchr.o)
 .debug_line    0x0003adb7      0x287 c:/program files/microchip/xc32/v4.00/bin/bin/../../lib/gcc/pic32c/8.3.1/../../../../pic32c/lib/thumb/v7e-m+fp/hard\libg-musl.a(strchrnul.o)
 .debug_line    0x0003b03e       0xbd c:/program files/microchip/xc32/v4.00/bin/bin/../../lib/gcc/pic32c/8.3.1/../../../../pic32c/lib/thumb/v7e-m+fp/hard\libg-musl.a(strcmp.o)
 .debug_line    0x0003b0fb       0xb5 c:/program files/microchip/xc32/v4.00/bin/bin/../../lib/gcc/pic32c/8.3.1/../../../../pic32c/lib/thumb/v7e-m+fp/hard\libg-musl.a(strcpy.o)
 .debug_line    0x0003b1b0       0xee c:/program files/microchip/xc32/v4.00/bin/bin/../../lib/gcc/pic32c/8.3.1/../../../../pic32c/lib/thumb/v7e-m+fp/hard\libg-musl.a(strncmp.o)
 .debug_line    0x0003b29e       0xd5 c:/program files/microchip/xc32/v4.00/bin/bin/../../lib/gcc/pic32c/8.3.1/../../../../pic32c/lib/thumb/v7e-m+fp/hard\libg-musl.a(strncpy.o)
 .debug_line    0x0003b373      0x19f c:/program files/microchip/xc32/v4.00/bin/bin/../../lib/gcc/pic32c/8.3.1/../../../../pic32c/lib/thumb/v7e-m+fp/hard\libg-musl.a(__environ.o)
 .debug_line    0x0003b512      0x209 c:/program files/microchip/xc32/v4.00/bin/bin/../../lib/gcc/pic32c/8.3.1/../../../../pic32c/lib/thumb/v7e-m+fp/hard\libg-musl.a(vfprintf.o)
 .debug_line    0x0003b71b      0x1d4 c:/program files/microchip/xc32/v4.00/bin/bin/../../lib/gcc/pic32c/8.3.1/../../../../pic32c/lib/thumb/v7e-m+fp/hard\libg-musl.a(stpcpy.o)
 .debug_line    0x0003b8ef      0x200 c:/program files/microchip/xc32/v4.00/bin/bin/../../lib/gcc/pic32c/8.3.1/../../../../pic32c/lib/thumb/v7e-m+fp/hard\libg-musl.a(stpncpy.o)
 .debug_line    0x0003baef      0x71f c:/program files/microchip/xc32/v4.00/bin/bin/../../lib/gcc/pic32c/8.3.1/../../../../pic32c/lib/thumb/v7e-m+fp/hard\libg-musl.a(__printf_core.o)
 .debug_line    0x0003c20e      0x6ad c:/program files/microchip/xc32/v4.00/bin/bin/../../lib/gcc/pic32c/8.3.1/../../../../pic32c/lib/thumb/v7e-m+fp/hard\libg-musl.a(__fmt_a.o)
 .debug_line    0x0003c8bb      0x2af c:/program files/microchip/xc32/v4.00/bin/bin/../../lib/gcc/pic32c/8.3.1/../../../../pic32c/lib/thumb/v7e-m+fp/hard\libg-musl.a(__fmt_d.o)
 .debug_line    0x0003cb6a      0x6d0 c:/program files/microchip/xc32/v4.00/bin/bin/../../lib/gcc/pic32c/8.3.1/../../../../pic32c/lib/thumb/v7e-m+fp/hard\libg-musl.a(__fmt_fp.o)
 .debug_line    0x0003d23a      0x259 c:/program files/microchip/xc32/v4.00/bin/bin/../../lib/gcc/pic32c/8.3.1/../../../../pic32c/lib/thumb/v7e-m+fp/hard\libg-musl.a(__fmt_o.o)
 .debug_line    0x0003d493      0x29a c:/program files/microchip/xc32/v4.00/bin/bin/../../lib/gcc/pic32c/8.3.1/../../../../pic32c/lib/thumb/v7e-m+fp/hard\libg-musl.a(__fmt_s.o)
 .debug_line    0x0003d72d      0x2e3 c:/program files/microchip/xc32/v4.00/bin/bin/../../lib/gcc/pic32c/8.3.1/../../../../pic32c/lib/thumb/v7e-m+fp/hard\libg-musl.a(__fmt_u.o)
 .debug_line    0x0003da10      0x38e c:/program files/microchip/xc32/v4.00/bin/bin/../../lib/gcc/pic32c/8.3.1/../../../../pic32c/lib/thumb/v7e-m+fp/hard\libg-musl.a(__fmt_x.o)
 .debug_line    0x0003dd9e      0x1f7 c:/program files/microchip/xc32/v4.00/bin/bin/../../lib/gcc/pic32c/8.3.1/../../../../pic32c/lib/thumb/v7e-m+fp/hard\libg-musl.a(__pop_float.o)
 .debug_line    0x0003df95      0x28d c:/program files/microchip/xc32/v4.00/bin/bin/../../lib/gcc/pic32c/8.3.1/../../../../pic32c/lib/thumb/v7e-m+fp/hard\libg-musl.a(__pop_int.o)
 .debug_line    0x0003e222      0x272 c:/program files/microchip/xc32/v4.00/bin/bin/../../lib/gcc/pic32c/8.3.1/../../../../pic32c/lib/thumb/v7e-m+fp/hard\libg-musl.a(__pop_ptr.o)
 .debug_line    0x0003e494       0x9c c:/program files/microchip/xc32/v4.00/bin/bin/../../lib/gcc/pic32c/8.3.1/thumb/v7e-m+fp/hard\libgcc.a(_aeabi_uldivmod.o)
 .debug_line    0x0003e530      0x57e c:/program files/microchip/xc32/v4.00/bin/bin/../../lib/gcc/pic32c/8.3.1/thumb/v7e-m+fp/hard\libgcc.a(_udivmoddi4.o)
 .debug_line    0x0003eaae       0x9c c:/program files/microchip/xc32/v4.00/bin/bin/../../lib/gcc/pic32c/8.3.1/thumb/v7e-m+fp/hard\libgcc.a(_dvmd_tls.o)
 .debug_line    0x0003eb4a       0xb5 c:/program files/microchip/xc32/v4.00/bin/bin/../../lib/gcc/pic32c/8.3.1/../../../../pic32c/lib/thumb/v7e-m+fp/hard\libpic32c.a(sbrk.o)

.debug_str      0x00000000     0x54f0
 .debug_str     0x00000000      0x478 build/default/debug/_ext/444070925/drv_ethphy.o
 .debug_str     0x00000478       0x29 build/default/debug/_ext/444070925/drv_extphy_ksz8061.o
 .debug_str     0x000004a1      0x5c3 build/default/debug/_ext/1546807373/drv_gmac.o
 .debug_str     0x00000a64      0x1bd build/default/debug/_ext/1546807373/drv_gmac_lib_samE5x.o
 .debug_str     0x00000c21      0x268 build/default/debug/_ext/438849557/drv_miim.o
 .debug_str     0x00000e89       0x1e build/default/debug/_ext/20954303/drv_sdmmc_file_system.o
 .debug_str     0x00000ea7      0x219 build/default/debug/_ext/20954303/drv_sdmmc.o
 .debug_str     0x000010c0      0x127 build/default/debug/_ext/1751889202/sys_fs_shell.o
 .debug_str     0x000011e7        0x0 build/default/debug/_ext/1033058136/helpers.o
 .debug_str     0x000011e7      0x475 build/default/debug/_ext/1033058136/tcp.o
 .debug_str     0x0000165c      0x4b8 build/default/debug/_ext/1033058136/arp.o
 .debug_str     0x00001b14      0x582 build/default/debug/_ext/1033058136/ipv4.o
 .debug_str     0x00002096       0x5f build/default/debug/_ext/1033058136/tcpip_heap_alloc.o
 .debug_str     0x000020f5       0xa1 build/default/debug/_ext/1033058136/tcpip_heap_internal.o
 .debug_str     0x00002196      0x4d4 build/default/debug/_ext/1033058136/dns.o
 .debug_str     0x0000266a        0x0 build/default/debug/_ext/1033058136/hash_fnv.o
 .debug_str     0x0000266a        0xa build/default/debug/_ext/1033058136/oahash.o
 .debug_str     0x00002674      0x12e build/default/debug/_ext/1033058136/tcpip_helpers.o
 .debug_str     0x000027a2      0x56d build/default/debug/_ext/1033058136/tcpip_manager.o
 .debug_str     0x00002d0f      0x15e build/default/debug/_ext/1033058136/tcpip_notify.o
 .debug_str     0x00002e6d       0x7d build/default/debug/_ext/1033058136/tcpip_packet.o
 .debug_str     0x00002eea      0x548 build/default/debug/_ext/1033058136/ftp.o
 .debug_str     0x00003432      0x13c build/default/debug/_ext/1033058136/icmp.o
 .debug_str     0x0000356e       0xaf build/default/debug/_ext/1508031553/net_pres.o
 .debug_str     0x0000361d       0x1e build/default/debug/_ext/1984496892/plib_clock.o
 .debug_str     0x0000363b        0x0 build/default/debug/_ext/1986646378/plib_evsys.o
 .debug_str     0x0000363b        0xa build/default/debug/_ext/1865468468/plib_nvic.o
 .debug_str     0x00003645       0x20 build/default/debug/_ext/1593096446/plib_nvmctrl.o
 .debug_str     0x00003665        0xb build/default/debug/_ext/1865521619/plib_port.o
 .debug_str     0x00003670        0x9 build/default/debug/_ext/1865600094/plib_sdhc1.o
 .debug_str     0x00003679      0x1c8 build/default/debug/_ext/504274921/plib_sercom1_usart.o
 .debug_str     0x00003841       0xbb build/default/debug/_ext/829342655/plib_tc0.o
 .debug_str     0x000038fc       0x38 build/default/debug/_ext/1832805299/sys_console.o
 .debug_str     0x00003934       0xb1 build/default/debug/_ext/1832805299/sys_console_uart.o
 .debug_str     0x000039e5        0x0 build/default/debug/_ext/944882569/sys_debug.o
 .debug_str     0x000039e5       0x80 build/default/debug/_ext/411819097/ff.o
 .debug_str     0x00003a65        0x0 build/default/debug/_ext/411819097/ffunicode.o
 .debug_str     0x00003a65       0xed build/default/debug/_ext/565198302/diskio.o
 .debug_str     0x00003b52      0x127 build/default/debug/_ext/1269487135/sys_fs.o
 .debug_str     0x00003c79       0xd2 build/default/debug/_ext/1269487135/sys_fs_media_manager.o
 .debug_str     0x00003d4b       0x96 build/default/debug/_ext/1269487135/sys_fs_fat_interface.o
 .debug_str     0x00003de1       0x32 build/default/debug/_ext/1881668453/sys_int.o
 .debug_str     0x00003e13      0x136 build/default/debug/_ext/101884895/sys_time.o
 .debug_str     0x00003f49       0x64 build/default/debug/_ext/753841488/sys_time_h2_adapter.o
 .debug_str     0x00003fad      0x2d4 build/default/debug/_ext/1171490990/initialization.o
 .debug_str     0x00004281       0x1e build/default/debug/_ext/1171490990/interrupts.o
 .debug_str     0x0000429f       0x1e build/default/debug/_ext/1171490990/exceptions.o
 .debug_str     0x000042bd       0x2f build/default/debug/_ext/1171490990/startup_xc32.o
 .debug_str     0x000042ec       0x74 build/default/debug/_ext/1171490990/tasks.o
 .debug_str     0x00004360       0x98 build/default/debug/_ext/172253694/crypt_wolfcryptcb.o
 .debug_str     0x000043f8       0xdd build/default/debug/_ext/1664057780/cryptocb.o
 .debug_str     0x000044d5       0x37 build/default/debug/_ext/1360937237/main.o
 .debug_str     0x0000450c       0xf7 build/default/debug/_ext/1360937237/app.o
 .debug_str     0x00004603      0x59f build/default/debug/_ext/1033058136/berkeley_api.o
 .debug_str     0x00004ba2      0x2d9 build/default/debug/_ext/1033058136/tcpip_announce.o
 .debug_str     0x00004e7b      0x3ef build/default/debug/_ext/1033058136/udp.o
 .debug_str     0x0000526a        0x0 c:/program files/microchip/xc32/v4.00/bin/bin/../../lib/gcc/pic32c/8.3.1/../../../../pic32c/lib/thumb/v7e-m+fp/hard\libpic32c.a(data_init.o)
 .debug_str     0x0000526a        0x0 c:/program files/microchip/xc32/v4.00/bin/bin/../../lib/gcc/pic32c/8.3.1/../../../../pic32c/lib/thumb/v7e-m+fp/hard\libg-musl.a(isxdigit.o)
 .debug_str     0x0000526a        0x0 c:/program files/microchip/xc32/v4.00/bin/bin/../../lib/gcc/pic32c/8.3.1/../../../../pic32c/lib/thumb/v7e-m+fp/hard\libg-musl.a(tolower.o)
 .debug_str     0x0000526a        0x0 c:/program files/microchip/xc32/v4.00/bin/bin/../../lib/gcc/pic32c/8.3.1/../../../../pic32c/lib/thumb/v7e-m+fp/hard\libg-musl.a(toupper.o)
 .debug_str     0x0000526a        0x0 c:/program files/microchip/xc32/v4.00/bin/bin/../../lib/gcc/pic32c/8.3.1/../../../../pic32c/lib/thumb/v7e-m+fp/hard\libg-musl.a(__libc_start_main.o)
 .debug_str     0x0000526a        0x0 c:/program files/microchip/xc32/v4.00/bin/bin/../../lib/gcc/pic32c/8.3.1/../../../../pic32c/lib/thumb/v7e-m+fp/hard\libg-musl.a(__errno_location.o)
 .debug_str     0x0000526a        0x0 c:/program files/microchip/xc32/v4.00/bin/bin/../../lib/gcc/pic32c/8.3.1/../../../../pic32c/lib/thumb/v7e-m+fp/hard\libg-musl.a(libc.o)
 .debug_str     0x0000526a        0xa c:/program files/microchip/xc32/v4.00/bin/bin/../../lib/gcc/pic32c/8.3.1/../../../../pic32c/lib/thumb/v7e-m+fp/hard\libg-musl.a(calloc.o)
 .debug_str     0x00005274       0x13 c:/program files/microchip/xc32/v4.00/bin/bin/../../lib/gcc/pic32c/8.3.1/../../../../pic32c/lib/thumb/v7e-m+fp/hard\libg-musl.a(malloc.o)
 .debug_str     0x00005287        0x0 c:/program files/microchip/xc32/v4.00/bin/bin/../../lib/gcc/pic32c/8.3.1/../../../../pic32c/lib/thumb/v7e-m+fp/hard\libg-musl.a(expand_heap.o)
 .debug_str     0x00005287        0x0 c:/program files/microchip/xc32/v4.00/bin/bin/../../lib/gcc/pic32c/8.3.1/../../../../pic32c/lib/thumb/v7e-m+fp/hard\libg-musl.a(rand.o)
 .debug_str     0x00005287        0x9 c:/program files/microchip/xc32/v4.00/bin/bin/../../lib/gcc/pic32c/8.3.1/../../../../pic32c/lib/thumb/v7e-m+fp/hard\libg-musl.a(vsnprintf.o)
 .debug_str     0x00005290        0xa c:/program files/microchip/xc32/v4.00/bin/bin/../../lib/gcc/pic32c/8.3.1/../../../../pic32c/lib/thumb/v7e-m+fp/hard\libg-musl.a(snprintf.o)
 .debug_str     0x0000529a        0x9 c:/program files/microchip/xc32/v4.00/bin/bin/../../lib/gcc/pic32c/8.3.1/../../../../pic32c/lib/thumb/v7e-m+fp/hard\libg-musl.a(sprintf.o)
 .debug_str     0x000052a3        0xa c:/program files/microchip/xc32/v4.00/bin/bin/../../lib/gcc/pic32c/8.3.1/../../../../pic32c/lib/thumb/v7e-m+fp/hard\libg-musl.a(vsprintf.o)
 .debug_str     0x000052ad        0x0 c:/program files/microchip/xc32/v4.00/bin/bin/../../lib/gcc/pic32c/8.3.1/../../../../pic32c/lib/thumb/v7e-m+fp/hard\libg-musl.a(atoi.o)
 .debug_str     0x000052ad        0x0 c:/program files/microchip/xc32/v4.00/bin/bin/../../lib/gcc/pic32c/8.3.1/../../../../pic32c/lib/thumb/v7e-m+fp/hard\libg-musl.a(memcmp.o)
 .debug_str     0x000052ad        0x0 c:/program files/microchip/xc32/v4.00/bin/bin/../../lib/gcc/pic32c/8.3.1/../../../../pic32c/lib/thumb/v7e-m+fp/hard\libg-musl.a(memcpy.o)
 .debug_str     0x000052ad        0x0 c:/program files/microchip/xc32/v4.00/bin/bin/../../lib/gcc/pic32c/8.3.1/../../../../pic32c/lib/thumb/v7e-m+fp/hard\libg-musl.a(memset.o)
 .debug_str     0x000052ad        0x0 c:/program files/microchip/xc32/v4.00/bin/bin/../../lib/gcc/pic32c/8.3.1/../../../../pic32c/lib/thumb/v7e-m+fp/hard\libg-musl.a(strlen.o)
 .debug_str     0x000052ad        0x0 c:/program files/microchip/xc32/v4.00/bin/bin/../../lib/gcc/pic32c/8.3.1/../../../../pic32c/lib/thumb/v7e-m+fp/hard\libg-musl.a(strstr.o)
 .debug_str     0x000052ad        0xc c:/program files/microchip/xc32/v4.00/bin/bin/../../lib/gcc/pic32c/8.3.1/../../../../pic32c/lib/thumb/v7e-m+fp/hard\libg-musl.a(strchr.o)
 .debug_str     0x000052b9        0x0 c:/program files/microchip/xc32/v4.00/bin/bin/../../lib/gcc/pic32c/8.3.1/../../../../pic32c/lib/thumb/v7e-m+fp/hard\libg-musl.a(strchrnul.o)
 .debug_str     0x000052b9        0x0 c:/program files/microchip/xc32/v4.00/bin/bin/../../lib/gcc/pic32c/8.3.1/../../../../pic32c/lib/thumb/v7e-m+fp/hard\libg-musl.a(strcmp.o)
 .debug_str     0x000052b9        0x9 c:/program files/microchip/xc32/v4.00/bin/bin/../../lib/gcc/pic32c/8.3.1/../../../../pic32c/lib/thumb/v7e-m+fp/hard\libg-musl.a(strcpy.o)
 .debug_str     0x000052c2        0x0 c:/program files/microchip/xc32/v4.00/bin/bin/../../lib/gcc/pic32c/8.3.1/../../../../pic32c/lib/thumb/v7e-m+fp/hard\libg-musl.a(strncmp.o)
 .debug_str     0x000052c2        0xa c:/program files/microchip/xc32/v4.00/bin/bin/../../lib/gcc/pic32c/8.3.1/../../../../pic32c/lib/thumb/v7e-m+fp/hard\libg-musl.a(strncpy.o)
 .debug_str     0x000052cc        0x0 c:/program files/microchip/xc32/v4.00/bin/bin/../../lib/gcc/pic32c/8.3.1/../../../../pic32c/lib/thumb/v7e-m+fp/hard\libg-musl.a(__environ.o)
 .debug_str     0x000052cc       0x1e c:/program files/microchip/xc32/v4.00/bin/bin/../../lib/gcc/pic32c/8.3.1/../../../../pic32c/lib/thumb/v7e-m+fp/hard\libg-musl.a(vfprintf.o)
 .debug_str     0x000052ea        0x0 c:/program files/microchip/xc32/v4.00/bin/bin/../../lib/gcc/pic32c/8.3.1/../../../../pic32c/lib/thumb/v7e-m+fp/hard\libg-musl.a(stpcpy.o)
 .debug_str     0x000052ea        0x0 c:/program files/microchip/xc32/v4.00/bin/bin/../../lib/gcc/pic32c/8.3.1/../../../../pic32c/lib/thumb/v7e-m+fp/hard\libg-musl.a(stpncpy.o)
 .debug_str     0x000052ea       0x20 c:/program files/microchip/xc32/v4.00/bin/bin/../../lib/gcc/pic32c/8.3.1/../../../../pic32c/lib/thumb/v7e-m+fp/hard\libg-musl.a(__printf_core.o)
 .debug_str     0x0000530a        0x0 c:/program files/microchip/xc32/v4.00/bin/bin/../../lib/gcc/pic32c/8.3.1/../../../../pic32c/lib/thumb/v7e-m+fp/hard\libg-musl.a(__fmt_a.o)
 .debug_str     0x0000530a        0x0 c:/program files/microchip/xc32/v4.00/bin/bin/../../lib/gcc/pic32c/8.3.1/../../../../pic32c/lib/thumb/v7e-m+fp/hard\libg-musl.a(__fmt_d.o)
 .debug_str     0x0000530a        0x0 c:/program files/microchip/xc32/v4.00/bin/bin/../../lib/gcc/pic32c/8.3.1/../../../../pic32c/lib/thumb/v7e-m+fp/hard\libg-musl.a(__fmt_fp.o)
 .debug_str     0x0000530a        0x0 c:/program files/microchip/xc32/v4.00/bin/bin/../../lib/gcc/pic32c/8.3.1/../../../../pic32c/lib/thumb/v7e-m+fp/hard\libg-musl.a(__fmt_o.o)
 .debug_str     0x0000530a        0x0 c:/program files/microchip/xc32/v4.00/bin/bin/../../lib/gcc/pic32c/8.3.1/../../../../pic32c/lib/thumb/v7e-m+fp/hard\libg-musl.a(__fmt_s.o)
 .debug_str     0x0000530a        0x6 c:/program files/microchip/xc32/v4.00/bin/bin/../../lib/gcc/pic32c/8.3.1/../../../../pic32c/lib/thumb/v7e-m+fp/hard\libg-musl.a(__fmt_u.o)
 .debug_str     0x00005310        0x0 c:/program files/microchip/xc32/v4.00/bin/bin/../../lib/gcc/pic32c/8.3.1/../../../../pic32c/lib/thumb/v7e-m+fp/hard\libg-musl.a(__fmt_x.o)
 .debug_str     0x00005310        0x0 c:/program files/microchip/xc32/v4.00/bin/bin/../../lib/gcc/pic32c/8.3.1/../../../../pic32c/lib/thumb/v7e-m+fp/hard\libg-musl.a(__pop_float.o)
 .debug_str     0x00005310        0x0 c:/program files/microchip/xc32/v4.00/bin/bin/../../lib/gcc/pic32c/8.3.1/../../../../pic32c/lib/thumb/v7e-m+fp/hard\libg-musl.a(__pop_int.o)
 .debug_str     0x00005310        0x0 c:/program files/microchip/xc32/v4.00/bin/bin/../../lib/gcc/pic32c/8.3.1/../../../../pic32c/lib/thumb/v7e-m+fp/hard\libg-musl.a(__pop_ptr.o)
 .debug_str     0x00005310       0xee c:/program files/microchip/xc32/v4.00/bin/bin/../../lib/gcc/pic32c/8.3.1/thumb/v7e-m+fp/hard\libgcc.a(_aeabi_uldivmod.o)
 .debug_str     0x000053fe        0x0 c:/program files/microchip/xc32/v4.00/bin/bin/../../lib/gcc/pic32c/8.3.1/thumb/v7e-m+fp/hard\libgcc.a(_udivmoddi4.o)
 .debug_str     0x000053fe       0xf2 c:/program files/microchip/xc32/v4.00/bin/bin/../../lib/gcc/pic32c/8.3.1/thumb/v7e-m+fp/hard\libgcc.a(_dvmd_tls.o)
 .debug_str     0x000054f0        0x0 c:/program files/microchip/xc32/v4.00/bin/bin/../../lib/gcc/pic32c/8.3.1/../../../../pic32c/lib/thumb/v7e-m+fp/hard\libpic32c.a(sbrk.o)

.debug_frame    0x00000000     0x8b28
 .debug_frame   0x00000000      0x6e0 build/default/debug/_ext/444070925/drv_ethphy.o
 .debug_frame   0x000006e0       0x40 build/default/debug/_ext/444070925/drv_extphy_ksz8061.o
 .debug_frame   0x00000720      0x6ac build/default/debug/_ext/1546807373/drv_gmac.o
 .debug_frame   0x00000dcc      0x3d0 build/default/debug/_ext/1546807373/drv_gmac_lib_samE5x.o
 .debug_frame   0x0000119c      0x2c8 build/default/debug/_ext/438849557/drv_miim.o
 .debug_frame   0x00001464       0x28 build/default/debug/_ext/20954303/drv_sdmmc_file_system.o
 .debug_frame   0x0000148c      0x248 build/default/debug/_ext/20954303/drv_sdmmc.o
 .debug_frame   0x000016d4      0x2a8 build/default/debug/_ext/1751889202/sys_fs_shell.o
 .debug_frame   0x0000197c       0xe8 build/default/debug/_ext/1033058136/helpers.o
 .debug_frame   0x00001a64      0x788 build/default/debug/_ext/1033058136/tcp.o
 .debug_frame   0x000021ec      0x488 build/default/debug/_ext/1033058136/arp.o
 .debug_frame   0x00002674      0x338 build/default/debug/_ext/1033058136/ipv4.o
 .debug_frame   0x000029ac       0x90 build/default/debug/_ext/1033058136/tcpip_heap_alloc.o
 .debug_frame   0x00002a3c      0x124 build/default/debug/_ext/1033058136/tcpip_heap_internal.o
 .debug_frame   0x00002b60      0x450 build/default/debug/_ext/1033058136/dns.o
 .debug_frame   0x00002fb0       0x30 build/default/debug/_ext/1033058136/hash_fnv.o
 .debug_frame   0x00002fe0       0xd0 build/default/debug/_ext/1033058136/oahash.o
 .debug_frame   0x000030b0      0x724 build/default/debug/_ext/1033058136/tcpip_helpers.o
 .debug_frame   0x000037d4      0xa5c build/default/debug/_ext/1033058136/tcpip_manager.o
 .debug_frame   0x00004230       0xb8 build/default/debug/_ext/1033058136/tcpip_notify.o
 .debug_frame   0x000042e8      0x168 build/default/debug/_ext/1033058136/tcpip_packet.o
 .debug_frame   0x00004450      0x184 build/default/debug/_ext/1033058136/ftp.o
 .debug_frame   0x000045d4       0x84 build/default/debug/_ext/1033058136/icmp.o
 .debug_frame   0x00004658      0x440 build/default/debug/_ext/1508031553/net_pres.o
 .debug_frame   0x00004a98       0x20 build/default/debug/_ext/1984496892/plib_clock.o
 .debug_frame   0x00004ab8       0x20 build/default/debug/_ext/1986646378/plib_evsys.o
 .debug_frame   0x00004ad8       0x5c build/default/debug/_ext/1865468468/plib_nvic.o
 .debug_frame   0x00004b34      0x1dc build/default/debug/_ext/1593096446/plib_nvmctrl.o
 .debug_frame   0x00004d10       0xcc build/default/debug/_ext/1865521619/plib_port.o
 .debug_frame   0x00004ddc      0x198 build/default/debug/_ext/1865600094/plib_sdhc1.o
 .debug_frame   0x00004f74      0x1d8 build/default/debug/_ext/504274921/plib_sercom1_usart.o
 .debug_frame   0x0000514c       0xd8 build/default/debug/_ext/829342655/plib_tc0.o
 .debug_frame   0x00005224      0x1d0 build/default/debug/_ext/1832805299/sys_console.o
 .debug_frame   0x000053f4       0xf8 build/default/debug/_ext/1832805299/sys_console_uart.o
 .debug_frame   0x000054ec       0x70 build/default/debug/_ext/944882569/sys_debug.o
 .debug_frame   0x0000555c      0x8d4 build/default/debug/_ext/411819097/ff.o
 .debug_frame   0x00005e30       0x5c build/default/debug/_ext/411819097/ffunicode.o
 .debug_frame   0x00005e8c       0xd0 build/default/debug/_ext/565198302/diskio.o
 .debug_frame   0x00005f5c      0x5a8 build/default/debug/_ext/1269487135/sys_fs.o
 .debug_frame   0x00006504      0x1e0 build/default/debug/_ext/1269487135/sys_fs_media_manager.o
 .debug_frame   0x000066e4      0x36c build/default/debug/_ext/1269487135/sys_fs_fat_interface.o
 .debug_frame   0x00006a50       0x84 build/default/debug/_ext/1881668453/sys_int.o
 .debug_frame   0x00006ad4      0x3f0 build/default/debug/_ext/101884895/sys_time.o
 .debug_frame   0x00006ec4       0x88 build/default/debug/_ext/753841488/sys_time_h2_adapter.o
 .debug_frame   0x00006f4c       0x44 build/default/debug/_ext/1171490990/initialization.o
 .debug_frame   0x00006f90       0x20 build/default/debug/_ext/1171490990/interrupts.o
 .debug_frame   0x00006fb0       0x70 build/default/debug/_ext/1171490990/exceptions.o
 .debug_frame   0x00007020       0x38 build/default/debug/_ext/1171490990/startup_xc32.o
 .debug_frame   0x00007058       0x28 build/default/debug/_ext/1171490990/tasks.o
 .debug_frame   0x00007080       0x38 build/default/debug/_ext/172253694/crypt_wolfcryptcb.o
 .debug_frame   0x000070b8      0x3f8 build/default/debug/_ext/1664057780/cryptocb.o
 .debug_frame   0x000074b0       0x28 build/default/debug/_ext/1360937237/main.o
 .debug_frame   0x000074d8       0x50 build/default/debug/_ext/1360937237/app.o
 .debug_frame   0x00007528      0x4f4 build/default/debug/_ext/1033058136/berkeley_api.o
 .debug_frame   0x00007a1c      0x178 build/default/debug/_ext/1033058136/tcpip_announce.o
 .debug_frame   0x00007b94      0x600 build/default/debug/_ext/1033058136/udp.o
 .debug_frame   0x00008194       0x38 c:/program files/microchip/xc32/v4.00/bin/bin/../../lib/gcc/pic32c/8.3.1/../../../../pic32c/lib/thumb/v7e-m+fp/hard\libpic32c.a(data_init.o)
 .debug_frame   0x000081cc       0x30 c:/program files/microchip/xc32/v4.00/bin/bin/../../lib/gcc/pic32c/8.3.1/../../../../pic32c/lib/thumb/v7e-m+fp/hard\libg-musl.a(isxdigit.o)
 .debug_frame   0x000081fc       0x30 c:/program files/microchip/xc32/v4.00/bin/bin/../../lib/gcc/pic32c/8.3.1/../../../../pic32c/lib/thumb/v7e-m+fp/hard\libg-musl.a(tolower.o)
 .debug_frame   0x0000822c       0x30 c:/program files/microchip/xc32/v4.00/bin/bin/../../lib/gcc/pic32c/8.3.1/../../../../pic32c/lib/thumb/v7e-m+fp/hard\libg-musl.a(toupper.o)
 .debug_frame   0x0000825c       0x3c c:/program files/microchip/xc32/v4.00/bin/bin/../../lib/gcc/pic32c/8.3.1/../../../../pic32c/lib/thumb/v7e-m+fp/hard\libg-musl.a(__libc_start_main.o)
 .debug_frame   0x00008298       0x20 c:/program files/microchip/xc32/v4.00/bin/bin/../../lib/gcc/pic32c/8.3.1/../../../../pic32c/lib/thumb/v7e-m+fp/hard\libg-musl.a(calloc.o)
 .debug_frame   0x000082b8      0x150 c:/program files/microchip/xc32/v4.00/bin/bin/../../lib/gcc/pic32c/8.3.1/../../../../pic32c/lib/thumb/v7e-m+fp/hard\libg-musl.a(malloc.o)
 .debug_frame   0x00008408       0x28 c:/program files/microchip/xc32/v4.00/bin/bin/../../lib/gcc/pic32c/8.3.1/../../../../pic32c/lib/thumb/v7e-m+fp/hard\libg-musl.a(expand_heap.o)
 .debug_frame   0x00008430       0x30 c:/program files/microchip/xc32/v4.00/bin/bin/../../lib/gcc/pic32c/8.3.1/../../../../pic32c/lib/thumb/v7e-m+fp/hard\libg-musl.a(rand.o)
 .debug_frame   0x00008460       0x38 c:/program files/microchip/xc32/v4.00/bin/bin/../../lib/gcc/pic32c/8.3.1/../../../../pic32c/lib/thumb/v7e-m+fp/hard\libg-musl.a(vsnprintf.o)
 .debug_frame   0x00008498       0x38 c:/program files/microchip/xc32/v4.00/bin/bin/../../lib/gcc/pic32c/8.3.1/../../../../pic32c/lib/thumb/v7e-m+fp/hard\libg-musl.a(snprintf.o)
 .debug_frame   0x000084d0       0x3c c:/program files/microchip/xc32/v4.00/bin/bin/../../lib/gcc/pic32c/8.3.1/../../../../pic32c/lib/thumb/v7e-m+fp/hard\libg-musl.a(sprintf.o)
 .debug_frame   0x0000850c       0x20 c:/program files/microchip/xc32/v4.00/bin/bin/../../lib/gcc/pic32c/8.3.1/../../../../pic32c/lib/thumb/v7e-m+fp/hard\libg-musl.a(vsprintf.o)
 .debug_frame   0x0000852c       0x28 c:/program files/microchip/xc32/v4.00/bin/bin/../../lib/gcc/pic32c/8.3.1/../../../../pic32c/lib/thumb/v7e-m+fp/hard\libg-musl.a(atoi.o)
 .debug_frame   0x00008554       0x2c c:/program files/microchip/xc32/v4.00/bin/bin/../../lib/gcc/pic32c/8.3.1/../../../../pic32c/lib/thumb/v7e-m+fp/hard\libg-musl.a(memcmp.o)
 .debug_frame   0x00008580       0x28 c:/program files/microchip/xc32/v4.00/bin/bin/../../lib/gcc/pic32c/8.3.1/../../../../pic32c/lib/thumb/v7e-m+fp/hard\libg-musl.a(memcpy.o)
 .debug_frame   0x000085a8       0x20 c:/program files/microchip/xc32/v4.00/bin/bin/../../lib/gcc/pic32c/8.3.1/../../../../pic32c/lib/thumb/v7e-m+fp/hard\libg-musl.a(memset.o)
 .debug_frame   0x000085c8       0x20 c:/program files/microchip/xc32/v4.00/bin/bin/../../lib/gcc/pic32c/8.3.1/../../../../pic32c/lib/thumb/v7e-m+fp/hard\libg-musl.a(strlen.o)
 .debug_frame   0x000085e8       0x30 c:/program files/microchip/xc32/v4.00/bin/bin/../../lib/gcc/pic32c/8.3.1/../../../../pic32c/lib/thumb/v7e-m+fp/hard\libg-musl.a(strstr.o)
 .debug_frame   0x00008618       0x28 c:/program files/microchip/xc32/v4.00/bin/bin/../../lib/gcc/pic32c/8.3.1/../../../../pic32c/lib/thumb/v7e-m+fp/hard\libg-musl.a(strchr.o)
 .debug_frame   0x00008640       0x30 c:/program files/microchip/xc32/v4.00/bin/bin/../../lib/gcc/pic32c/8.3.1/../../../../pic32c/lib/thumb/v7e-m+fp/hard\libg-musl.a(strchrnul.o)
 .debug_frame   0x00008670       0x20 c:/program files/microchip/xc32/v4.00/bin/bin/../../lib/gcc/pic32c/8.3.1/../../../../pic32c/lib/thumb/v7e-m+fp/hard\libg-musl.a(strcmp.o)
 .debug_frame   0x00008690       0x28 c:/program files/microchip/xc32/v4.00/bin/bin/../../lib/gcc/pic32c/8.3.1/../../../../pic32c/lib/thumb/v7e-m+fp/hard\libg-musl.a(strcpy.o)
 .debug_frame   0x000086b8       0x28 c:/program files/microchip/xc32/v4.00/bin/bin/../../lib/gcc/pic32c/8.3.1/../../../../pic32c/lib/thumb/v7e-m+fp/hard\libg-musl.a(strncmp.o)
 .debug_frame   0x000086e0       0x28 c:/program files/microchip/xc32/v4.00/bin/bin/../../lib/gcc/pic32c/8.3.1/../../../../pic32c/lib/thumb/v7e-m+fp/hard\libg-musl.a(strncpy.o)
 .debug_frame   0x00008708       0x3c c:/program files/microchip/xc32/v4.00/bin/bin/../../lib/gcc/pic32c/8.3.1/../../../../pic32c/lib/thumb/v7e-m+fp/hard\libg-musl.a(vfprintf.o)
 .debug_frame   0x00008744       0x20 c:/program files/microchip/xc32/v4.00/bin/bin/../../lib/gcc/pic32c/8.3.1/../../../../pic32c/lib/thumb/v7e-m+fp/hard\libg-musl.a(stpcpy.o)
 .debug_frame   0x00008764       0x28 c:/program files/microchip/xc32/v4.00/bin/bin/../../lib/gcc/pic32c/8.3.1/../../../../pic32c/lib/thumb/v7e-m+fp/hard\libg-musl.a(stpncpy.o)
 .debug_frame   0x0000878c       0xd8 c:/program files/microchip/xc32/v4.00/bin/bin/../../lib/gcc/pic32c/8.3.1/../../../../pic32c/lib/thumb/v7e-m+fp/hard\libg-musl.a(__printf_core.o)
 .debug_frame   0x00008864       0x40 c:/program files/microchip/xc32/v4.00/bin/bin/../../lib/gcc/pic32c/8.3.1/../../../../pic32c/lib/thumb/v7e-m+fp/hard\libg-musl.a(__fmt_a.o)
 .debug_frame   0x000088a4       0x3c c:/program files/microchip/xc32/v4.00/bin/bin/../../lib/gcc/pic32c/8.3.1/../../../../pic32c/lib/thumb/v7e-m+fp/hard\libg-musl.a(__fmt_d.o)
 .debug_frame   0x000088e0       0x50 c:/program files/microchip/xc32/v4.00/bin/bin/../../lib/gcc/pic32c/8.3.1/../../../../pic32c/lib/thumb/v7e-m+fp/hard\libg-musl.a(__fmt_fp.o)
 .debug_frame   0x00008930       0x34 c:/program files/microchip/xc32/v4.00/bin/bin/../../lib/gcc/pic32c/8.3.1/../../../../pic32c/lib/thumb/v7e-m+fp/hard\libg-musl.a(__fmt_o.o)
 .debug_frame   0x00008964       0x34 c:/program files/microchip/xc32/v4.00/bin/bin/../../lib/gcc/pic32c/8.3.1/../../../../pic32c/lib/thumb/v7e-m+fp/hard\libg-musl.a(__fmt_s.o)
 .debug_frame   0x00008998       0x5c c:/program files/microchip/xc32/v4.00/bin/bin/../../lib/gcc/pic32c/8.3.1/../../../../pic32c/lib/thumb/v7e-m+fp/hard\libg-musl.a(__fmt_u.o)
 .debug_frame   0x000089f4       0x40 c:/program files/microchip/xc32/v4.00/bin/bin/../../lib/gcc/pic32c/8.3.1/../../../../pic32c/lib/thumb/v7e-m+fp/hard\libg-musl.a(__fmt_x.o)
 .debug_frame   0x00008a34       0x20 c:/program files/microchip/xc32/v4.00/bin/bin/../../lib/gcc/pic32c/8.3.1/../../../../pic32c/lib/thumb/v7e-m+fp/hard\libg-musl.a(__pop_float.o)
 .debug_frame   0x00008a54       0x2c c:/program files/microchip/xc32/v4.00/bin/bin/../../lib/gcc/pic32c/8.3.1/../../../../pic32c/lib/thumb/v7e-m+fp/hard\libg-musl.a(__pop_int.o)
 .debug_frame   0x00008a80       0x28 c:/program files/microchip/xc32/v4.00/bin/bin/../../lib/gcc/pic32c/8.3.1/../../../../pic32c/lib/thumb/v7e-m+fp/hard\libg-musl.a(__pop_ptr.o)
 .debug_frame   0x00008aa8       0x2c c:/program files/microchip/xc32/v4.00/bin/bin/../../lib/gcc/pic32c/8.3.1/thumb/v7e-m+fp/hard\libgcc.a(_aeabi_uldivmod.o)
 .debug_frame   0x00008ad4       0x34 c:/program files/microchip/xc32/v4.00/bin/bin/../../lib/gcc/pic32c/8.3.1/thumb/v7e-m+fp/hard\libgcc.a(_udivmoddi4.o)
 .debug_frame   0x00008b08       0x20 c:/program files/microchip/xc32/v4.00/bin/bin/../../lib/gcc/pic32c/8.3.1/../../../../pic32c/lib/thumb/v7e-m+fp/hard\libpic32c.a(sbrk.o)

.note.GNU-stack
                0x00000000        0x0
 .note.GNU-stack
                0x00000000        0x0 c:/program files/microchip/xc32/v4.00/bin/bin/../../lib/gcc/pic32c/8.3.1/../../../../pic32c/lib/thumb/v7e-m+fp/hard\libg-musl.a(isxdigit.o)
 .note.GNU-stack
                0x00000000        0x0 c:/program files/microchip/xc32/v4.00/bin/bin/../../lib/gcc/pic32c/8.3.1/../../../../pic32c/lib/thumb/v7e-m+fp/hard\libg-musl.a(tolower.o)
 .note.GNU-stack
                0x00000000        0x0 c:/program files/microchip/xc32/v4.00/bin/bin/../../lib/gcc/pic32c/8.3.1/../../../../pic32c/lib/thumb/v7e-m+fp/hard\libg-musl.a(toupper.o)
 .note.GNU-stack
                0x00000000        0x0 c:/program files/microchip/xc32/v4.00/bin/bin/../../lib/gcc/pic32c/8.3.1/../../../../pic32c/lib/thumb/v7e-m+fp/hard\libg-musl.a(__libc_start_main.o)
 .note.GNU-stack
                0x00000000        0x0 c:/program files/microchip/xc32/v4.00/bin/bin/../../lib/gcc/pic32c/8.3.1/../../../../pic32c/lib/thumb/v7e-m+fp/hard\libg-musl.a(__errno_location.o)
 .note.GNU-stack
                0x00000000        0x0 c:/program files/microchip/xc32/v4.00/bin/bin/../../lib/gcc/pic32c/8.3.1/../../../../pic32c/lib/thumb/v7e-m+fp/hard\libg-musl.a(libc.o)
 .note.GNU-stack
                0x00000000        0x0 c:/program files/microchip/xc32/v4.00/bin/bin/../../lib/gcc/pic32c/8.3.1/../../../../pic32c/lib/thumb/v7e-m+fp/hard\libg-musl.a(calloc.o)
 .note.GNU-stack
                0x00000000        0x0 c:/program files/microchip/xc32/v4.00/bin/bin/../../lib/gcc/pic32c/8.3.1/../../../../pic32c/lib/thumb/v7e-m+fp/hard\libg-musl.a(malloc.o)
 .note.GNU-stack
                0x00000000        0x0 c:/program files/microchip/xc32/v4.00/bin/bin/../../lib/gcc/pic32c/8.3.1/../../../../pic32c/lib/thumb/v7e-m+fp/hard\libg-musl.a(expand_heap.o)
 .note.GNU-stack
                0x00000000        0x0 c:/program files/microchip/xc32/v4.00/bin/bin/../../lib/gcc/pic32c/8.3.1/../../../../pic32c/lib/thumb/v7e-m+fp/hard\libg-musl.a(rand.o)
 .note.GNU-stack
                0x00000000        0x0 c:/program files/microchip/xc32/v4.00/bin/bin/../../lib/gcc/pic32c/8.3.1/../../../../pic32c/lib/thumb/v7e-m+fp/hard\libg-musl.a(vsnprintf.o)
 .note.GNU-stack
                0x00000000        0x0 c:/program files/microchip/xc32/v4.00/bin/bin/../../lib/gcc/pic32c/8.3.1/../../../../pic32c/lib/thumb/v7e-m+fp/hard\libg-musl.a(snprintf.o)
 .note.GNU-stack
                0x00000000        0x0 c:/program files/microchip/xc32/v4.00/bin/bin/../../lib/gcc/pic32c/8.3.1/../../../../pic32c/lib/thumb/v7e-m+fp/hard\libg-musl.a(sprintf.o)
 .note.GNU-stack
                0x00000000        0x0 c:/program files/microchip/xc32/v4.00/bin/bin/../../lib/gcc/pic32c/8.3.1/../../../../pic32c/lib/thumb/v7e-m+fp/hard\libg-musl.a(vsprintf.o)
 .note.GNU-stack
                0x00000000        0x0 c:/program files/microchip/xc32/v4.00/bin/bin/../../lib/gcc/pic32c/8.3.1/../../../../pic32c/lib/thumb/v7e-m+fp/hard\libg-musl.a(atoi.o)
 .note.GNU-stack
                0x00000000        0x0 c:/program files/microchip/xc32/v4.00/bin/bin/../../lib/gcc/pic32c/8.3.1/../../../../pic32c/lib/thumb/v7e-m+fp/hard\libg-musl.a(memcmp.o)
 .note.GNU-stack
                0x00000000        0x0 c:/program files/microchip/xc32/v4.00/bin/bin/../../lib/gcc/pic32c/8.3.1/../../../../pic32c/lib/thumb/v7e-m+fp/hard\libg-musl.a(memcpy.o)
 .note.GNU-stack
                0x00000000        0x0 c:/program files/microchip/xc32/v4.00/bin/bin/../../lib/gcc/pic32c/8.3.1/../../../../pic32c/lib/thumb/v7e-m+fp/hard\libg-musl.a(memset.o)
 .note.GNU-stack
                0x00000000        0x0 c:/program files/microchip/xc32/v4.00/bin/bin/../../lib/gcc/pic32c/8.3.1/../../../../pic32c/lib/thumb/v7e-m+fp/hard\libg-musl.a(strlen.o)
 .note.GNU-stack
                0x00000000        0x0 c:/program files/microchip/xc32/v4.00/bin/bin/../../lib/gcc/pic32c/8.3.1/../../../../pic32c/lib/thumb/v7e-m+fp/hard\libg-musl.a(strstr.o)
 .note.GNU-stack
                0x00000000        0x0 c:/program files/microchip/xc32/v4.00/bin/bin/../../lib/gcc/pic32c/8.3.1/../../../../pic32c/lib/thumb/v7e-m+fp/hard\libg-musl.a(strchr.o)
 .note.GNU-stack
                0x00000000        0x0 c:/program files/microchip/xc32/v4.00/bin/bin/../../lib/gcc/pic32c/8.3.1/../../../../pic32c/lib/thumb/v7e-m+fp/hard\libg-musl.a(strchrnul.o)
 .note.GNU-stack
                0x00000000        0x0 c:/program files/microchip/xc32/v4.00/bin/bin/../../lib/gcc/pic32c/8.3.1/../../../../pic32c/lib/thumb/v7e-m+fp/hard\libg-musl.a(strcmp.o)
 .note.GNU-stack
                0x00000000        0x0 c:/program files/microchip/xc32/v4.00/bin/bin/../../lib/gcc/pic32c/8.3.1/../../../../pic32c/lib/thumb/v7e-m+fp/hard\libg-musl.a(strcpy.o)
 .note.GNU-stack
                0x00000000        0x0 c:/program files/microchip/xc32/v4.00/bin/bin/../../lib/gcc/pic32c/8.3.1/../../../../pic32c/lib/thumb/v7e-m+fp/hard\libg-musl.a(strncmp.o)
 .note.GNU-stack
                0x00000000        0x0 c:/program files/microchip/xc32/v4.00/bin/bin/../../lib/gcc/pic32c/8.3.1/../../../../pic32c/lib/thumb/v7e-m+fp/hard\libg-musl.a(strncpy.o)
 .note.GNU-stack
                0x00000000        0x0 c:/program files/microchip/xc32/v4.00/bin/bin/../../lib/gcc/pic32c/8.3.1/../../../../pic32c/lib/thumb/v7e-m+fp/hard\libg-musl.a(__environ.o)
 .note.GNU-stack
                0x00000000        0x0 c:/program files/microchip/xc32/v4.00/bin/bin/../../lib/gcc/pic32c/8.3.1/../../../../pic32c/lib/thumb/v7e-m+fp/hard\libg-musl.a(vfprintf.o)
 .note.GNU-stack
                0x00000000        0x0 c:/program files/microchip/xc32/v4.00/bin/bin/../../lib/gcc/pic32c/8.3.1/../../../../pic32c/lib/thumb/v7e-m+fp/hard\libg-musl.a(stpcpy.o)
 .note.GNU-stack
                0x00000000        0x0 c:/program files/microchip/xc32/v4.00/bin/bin/../../lib/gcc/pic32c/8.3.1/../../../../pic32c/lib/thumb/v7e-m+fp/hard\libg-musl.a(stpncpy.o)
 .note.GNU-stack
                0x00000000        0x0 c:/program files/microchip/xc32/v4.00/bin/bin/../../lib/gcc/pic32c/8.3.1/../../../../pic32c/lib/thumb/v7e-m+fp/hard\libg-musl.a(__printf_core.o)
 .note.GNU-stack
                0x00000000        0x0 c:/program files/microchip/xc32/v4.00/bin/bin/../../lib/gcc/pic32c/8.3.1/../../../../pic32c/lib/thumb/v7e-m+fp/hard\libg-musl.a(__fmt_a.o)
 .note.GNU-stack
                0x00000000        0x0 c:/program files/microchip/xc32/v4.00/bin/bin/../../lib/gcc/pic32c/8.3.1/../../../../pic32c/lib/thumb/v7e-m+fp/hard\libg-musl.a(__fmt_d.o)
 .note.GNU-stack
                0x00000000        0x0 c:/program files/microchip/xc32/v4.00/bin/bin/../../lib/gcc/pic32c/8.3.1/../../../../pic32c/lib/thumb/v7e-m+fp/hard\libg-musl.a(__fmt_fp.o)
 .note.GNU-stack
                0x00000000        0x0 c:/program files/microchip/xc32/v4.00/bin/bin/../../lib/gcc/pic32c/8.3.1/../../../../pic32c/lib/thumb/v7e-m+fp/hard\libg-musl.a(__fmt_o.o)
 .note.GNU-stack
                0x00000000        0x0 c:/program files/microchip/xc32/v4.00/bin/bin/../../lib/gcc/pic32c/8.3.1/../../../../pic32c/lib/thumb/v7e-m+fp/hard\libg-musl.a(__fmt_s.o)
 .note.GNU-stack
                0x00000000        0x0 c:/program files/microchip/xc32/v4.00/bin/bin/../../lib/gcc/pic32c/8.3.1/../../../../pic32c/lib/thumb/v7e-m+fp/hard\libg-musl.a(__fmt_u.o)
 .note.GNU-stack
                0x00000000        0x0 c:/program files/microchip/xc32/v4.00/bin/bin/../../lib/gcc/pic32c/8.3.1/../../../../pic32c/lib/thumb/v7e-m+fp/hard\libg-musl.a(__fmt_x.o)
 .note.GNU-stack
                0x00000000        0x0 c:/program files/microchip/xc32/v4.00/bin/bin/../../lib/gcc/pic32c/8.3.1/../../../../pic32c/lib/thumb/v7e-m+fp/hard\libg-musl.a(__pop_float.o)
 .note.GNU-stack
                0x00000000        0x0 c:/program files/microchip/xc32/v4.00/bin/bin/../../lib/gcc/pic32c/8.3.1/../../../../pic32c/lib/thumb/v7e-m+fp/hard\libg-musl.a(__pop_int.o)
 .note.GNU-stack
                0x00000000        0x0 c:/program files/microchip/xc32/v4.00/bin/bin/../../lib/gcc/pic32c/8.3.1/../../../../pic32c/lib/thumb/v7e-m+fp/hard\libg-musl.a(__pop_ptr.o)

__xc_reference_data
                0x00000000       0x44
 __xc_reference_data
                0x00000000        0x4 c:/program files/microchip/xc32/v4.00/bin/bin/../../lib/gcc/pic32c/8.3.1/../../../../pic32c/lib/thumb/v7e-m+fp/hard\libg-musl.a(vfprintf.o)
                0x00000000                __vfprintf_needs_fmt
 __xc_reference_data
                0x00000004       0x40 c:/program files/microchip/xc32/v4.00/bin/bin/../../lib/gcc/pic32c/8.3.1/../../../../pic32c/lib/thumb/v7e-m+fp/hard\libg-musl.a(__io_fmt_needed.o)
                0x00000004                __io_fmt_needed

.stack          0x2001b0d0      0x100
 .stack         0x2001b0d0      0x100 stack

.bss.gSYSFSMediaBlockBuffer%1
                0x20000000      0x800
 .bss.gSYSFSMediaBlockBuffer
                0x20000000      0x800 build/default/debug/_ext/1269487135/sys_fs_media_manager.o
                0x20000000                gSYSFSMediaBlockBuffer

.bss.gDrvSDMMCObj%2
                0x20000800      0x310
 .bss.gDrvSDMMCObj
                0x20000800      0x310 build/default/debug/_ext/20954303/drv_sdmmc.o

.bss.TCPIP_STACK_MODULE_SIGNAL_TBL%3
                0x20000b10      0x270
 .bss.TCPIP_STACK_MODULE_SIGNAL_TBL
                0x20000b10      0x270 build/default/debug/_ext/1033058136/tcpip_manager.o

.bss.FATFSVolume%4
                0x20000d80      0x250
 .bss.FATFSVolume
                0x20000d80      0x250 build/default/debug/_ext/1269487135/sys_fs_fat_interface.o

.bss.FATFSFileObject%5
                0x20000fd0      0x240
 .bss.FATFSFileObject
                0x20000fd0      0x240 build/default/debug/_ext/1269487135/sys_fs_fat_interface.o

.bss.sNetPresData%6
                0x20001210      0x234
 .bss.sNetPresData
                0x20001210      0x234 build/default/debug/_ext/1508031553/net_pres.o
                0x20001210                sNetPresData

.bss%7          0x20001448      0x20c
 .bss           0x20001448      0x20c c:/program files/microchip/xc32/v4.00/bin/bin/../../lib/gcc/pic32c/8.3.1/../../../../pic32c/lib/thumb/v7e-m+fp/hard\libg-musl.a(malloc.o)

.bss.LfnBuf%8   0x20001654      0x200
 .bss.LfnBuf    0x20001654      0x200 build/default/debug/_ext/411819097/ff.o

.bss.gSYSFSMediaBuffer%9
                0x20001860      0x200
 .bss.gSYSFSMediaBuffer
                0x20001860      0x200 build/default/debug/_ext/1269487135/sys_fs_media_manager.o
                0x20001860                gSYSFSMediaBuffer

.bss.sNetPresSockets%10
                0x20001a60      0x168
 .bss.sNetPresSockets
                0x20001a60      0x168 build/default/debug/_ext/1508031553/net_pres.o
                0x20001a60                sNetPresSockets

.bss.fileNameList.14315%11
                0x20001bc8      0x14c
 .bss.fileNameList.14315
                0x20001bc8      0x14c build/default/debug/_ext/1033058136/ftp.o

.bss.fileNameList.14410%12
                0x20001d14      0x12e
 .bss.fileNameList.14410
                0x20001d14      0x12e build/default/debug/_ext/1033058136/ftp.o

.bss.gSYSFSFileObj%13
                0x20001e50      0x110
 .bss.gSYSFSFileObj
                0x20001e50      0x110 build/default/debug/_ext/1269487135/sys_fs.o
                0x20001e50                gSYSFSFileObj

.data._gmac_drv_dcpt%14
                0x20001f60       0xf8
 .data._gmac_drv_dcpt
                0x20001f60       0xf8 build/default/debug/_ext/1546807373/drv_gmac.o

.bss.consolePrintBuffer%15
                0x20002058       0xc8
 .bss.consolePrintBuffer
                0x20002058       0xc8 build/default/debug/_ext/1832805299/sys_console.o

.bss.timers%16  0x20002120       0xa0
 .bss.timers    0x20002120       0xa0 build/default/debug/_ext/101884895/sys_time.o

.bss.gDrvMIIMObj%17
                0x200021c0       0x94
 .bss.gDrvMIIMObj
                0x200021c0       0x94 build/default/debug/_ext/438849557/drv_miim.o

.bss.TCPIP_MODULES_QUEUE_TBL%18
                0x20002254       0x90
 .bss.TCPIP_MODULES_QUEUE_TBL
                0x20002254       0x90 build/default/debug/_ext/1033058136/tcpip_manager.o

.bss.gmac_dcpt_array%19
                0x200022e8       0x80
 .bss.gmac_dcpt_array
                0x200022e8       0x80 build/default/debug/_ext/1546807373/drv_gmac_lib_samE5x.o

.bss.SERCOM1_USART_ReadBuffer%20
                0x20002368       0x80
 .bss.SERCOM1_USART_ReadBuffer
                0x20002368       0x80 build/default/debug/_ext/504274921/plib_sercom1_usart.o

.bss.SERCOM1_USART_WriteBuffer%21
                0x200023e8       0x80
 .bss.SERCOM1_USART_WriteBuffer
                0x200023e8       0x80 build/default/debug/_ext/504274921/plib_sercom1_usart.o

.bss.gPhyDrvInst%22
                0x20002468       0x68
 .bss.gPhyDrvInst
                0x20002468       0x68 build/default/debug/_ext/444070925/drv_ethphy.o

.bss.gCryptoDev%23
                0x200024d0       0x60
 .bss.gCryptoDev
                0x200024d0       0x60 build/default/debug/_ext/1664057780/cryptocb.o

.bss%24         0x20002530       0x50
 .bss           0x20002530       0x50 c:/program files/microchip/xc32/v4.00/bin/bin/../../lib/gcc/pic32c/8.3.1/../../../../pic32c/lib/thumb/v7e-m+fp/hard\libg-musl.a(libc.o)
                0x20002530                __progname_full
                0x20002530                program_invocation_name
                0x20002534                program_invocation_short_name
                0x20002534                __progname
                0x20002538                __sysinfo
                0x2000253c                __hwcap
                0x20002540                __libc

.bss.arpMod%25  0x20002580       0x48
 .bss.arpMod    0x20002580       0x48 build/default/debug/_ext/1033058136/arp.o

.bss.drvSDMMC0BufferObjPool%26
                0x200025c8       0x48
 .bss.drvSDMMC0BufferObjPool
                0x200025c8       0x48 build/default/debug/_ext/1171490990/initialization.o

.bss.sercom1USARTObj%27
                0x20002610       0x40
 .bss.sercom1USARTObj
                0x20002610       0x40 build/default/debug/_ext/504274921/plib_sercom1_usart.o

.bss.gSystemCounterObj%28
                0x20002650       0x40
 .bss.gSystemCounterObj
                0x20002650       0x40 build/default/debug/_ext/101884895/sys_time.o

.bss.FATFSDirObject%29
                0x20002690       0x38
 .bss.FATFSDirObject
                0x20002690       0x38 build/default/debug/_ext/1269487135/sys_fs_fat_interface.o

.bss.gDnsDcpt%30
                0x200026c8       0x28
 .bss.gDnsDcpt  0x200026c8       0x28 build/default/debug/_ext/1033058136/dns.o

.data.tcpSecurePortTbl%31
                0x200026f0       0x28
 .data.tcpSecurePortTbl
                0x200026f0       0x28 build/default/debug/_ext/1033058136/tcpip_helpers.o

.bss.gSYSFSMediaObject%32
                0x20002718       0x28
 .bss.gSYSFSMediaObject
                0x20002718       0x28 build/default/debug/_ext/1269487135/sys_fs_media_manager.o
                0x20002718                gSYSFSMediaObject

.bss.announceDcpt%33
                0x20002740       0x20
 .bss.announceDcpt
                0x20002740       0x20 build/default/debug/_ext/1033058136/tcpip_announce.o

.bss%34         0x20002760       0x1c
 .bss           0x20002760       0x1c c:/program files/microchip/xc32/v4.00/bin/bin/../../lib/gcc/pic32c/8.3.1/thumb/v7e-m+fp/hard/crtbegin.o

.bss.tcpip_stack_ctrl_data%35
                0x2000277c       0x1c
 .bss.tcpip_stack_ctrl_data
                0x2000277c       0x1c build/default/debug/_ext/1033058136/tcpip_manager.o

.bss.gSYSFSVolumeObject%36
                0x20002798       0x1c
 .bss.gSYSFSVolumeObject
                0x20002798       0x1c build/default/debug/_ext/1269487135/sys_fs_media_manager.o
                0x20002798                gSYSFSVolumeObject

.bss.sysObj%37  0x200027b4       0x1c
 .bss.sysObj    0x200027b4       0x1c build/default/debug/_ext/1171490990/initialization.o
                0x200027b4                sysObj

.bss.tcpip_init_data%38
                0x200027d0       0x18
 .bss.tcpip_init_data
                0x200027d0       0x18 build/default/debug/_ext/1033058136/tcpip_manager.o

.data.gSYSFSMediaManagerObj%39
                0x200027e8       0x18
 .data.gSYSFSMediaManagerObj
                0x200027e8       0x18 build/default/debug/_ext/1269487135/sys_fs_media_manager.o
                0x200027e8                gSYSFSMediaManagerObj

.data.gSYSFSVolumeName%40
                0x20002800       0x14
 .data.gSYSFSVolumeName
                0x20002800       0x14 build/default/debug/_ext/1269487135/sys_fs_media_manager.o
                0x20002800                gSYSFSVolumeName

.data.tcpipHeapConfig%41
                0x20002814       0x14
 .data.tcpipHeapConfig
                0x20002814       0x14 build/default/debug/_ext/1171490990/initialization.o
                0x20002814                tcpipHeapConfig

.bss.ipv4ArpQueue%42
                0x20002828       0x10
 .bss.ipv4ArpQueue
                0x20002828       0x10 build/default/debug/_ext/1033058136/ipv4.o

.bss.ipv4PacketFilters%43
                0x20002838       0x10
 .bss.ipv4PacketFilters
                0x20002838       0x10 build/default/debug/_ext/1033058136/ipv4.o

.bss.tcpip_heap_config%44
                0x20002848       0x10
 .bss.tcpip_heap_config
                0x20002848       0x10 build/default/debug/_ext/1033058136/tcpip_manager.o

.bss.DirectoryFileList%45
                0x20002858       0x10
 .bss.DirectoryFileList
                0x20002858       0x10 build/default/debug/_ext/1033058136/ftp.o

.bss.sdhc1DmaDescrTable%46
                0x20002870       0x10
 .bss.sdhc1DmaDescrTable
                0x20002870       0x10 build/default/debug/_ext/1865600094/plib_sdhc1.o

.bss.Files%47   0x20002880       0x10
 .bss.Files     0x20002880       0x10 build/default/debug/_ext/411819097/ff.o

.bss.gSYSFSDirObj%48
                0x20002890       0x10
 .bss.gSYSFSDirObj
                0x20002890       0x10 build/default/debug/_ext/1269487135/sys_fs.o
                0x20002890                gSYSFSDirObj

.bss.gSYSFSMountPoint%49
                0x200028a0       0x10
 .bss.gSYSFSMountPoint
                0x200028a0       0x10 build/default/debug/_ext/1269487135/sys_fs.o
                0x200028a0                gSYSFSMountPoint

.bss.drvSDMMC0ClientObjPool%50
                0x200028b0       0x10
 .bss.drvSDMMC0ClientObjPool
                0x200028b0       0x10 build/default/debug/_ext/1171490990/initialization.o

.bss.sysfsMountTable%51
                0x20001854        0xc
 .bss.sysfsMountTable
                0x20001854        0xc build/default/debug/_ext/1171490990/initialization.o
                0x20001854                sysfsMountTable

.bss.appData%52
                0x20001e44        0xa
 .bss.appData   0x20001e44        0xa build/default/debug/_ext/1360937237/app.o
                0x20001e44                appData

.bss.gSysFsDiskData%53
                0x200028c0        0x8
 .bss.gSysFsDiskData
                0x200028c0        0x8 build/default/debug/_ext/565198302/diskio.o

.data.TCPIP_FTP_CMD_NLSTArgs%54
                0x200028c8        0xf
 .data.TCPIP_FTP_CMD_NLSTArgs
                0x200028c8        0xf build/default/debug/_ext/1033058136/ftp.o

.bss.ipv4ArpPool%55
                0x200028d8        0xc
 .bss.ipv4ArpPool
                0x200028d8        0xc build/default/debug/_ext/1033058136/ipv4.o

.bss.sdhc1Obj%56
                0x200028e4        0xc
 .bss.sdhc1Obj  0x200028e4        0xc build/default/debug/_ext/1865600094/plib_sdhc1.o

.bss.consoleDeviceInstance%57
                0x200028f0        0xc
 .bss.consoleDeviceInstance
                0x200028f0        0xc build/default/debug/_ext/1832805299/sys_console.o

.bss.ftpConfigData%58
                0x200028fc        0xa
 .bss.ftpConfigData
                0x200028fc        0xa build/default/debug/_ext/1033058136/ftp.o

.bss.TC0_CallbackObject%59
                0x20002868        0x8
 .bss.TC0_CallbackObject
                0x20002868        0x8 build/default/debug/_ext/829342655/plib_tc0.o

.bss.gConsoleUartData%60
                0x20002908        0x8
 .bss.gConsoleUartData
                0x20002908        0x8 build/default/debug/_ext/1832805299/sys_console_uart.o

.bss.gSYSFSCurrentMountPoint%61
                0x20002910        0x8
 .bss.gSYSFSCurrentMountPoint
                0x20002910        0x8 build/default/debug/_ext/1269487135/sys_fs.o
                0x20002910                gSYSFSCurrentMountPoint

.bss.gSYSFSObj%62
                0x20002918        0x8
 .bss.gSYSFSObj
                0x20002918        0x8 build/default/debug/_ext/1269487135/sys_fs.o
                0x20002918                gSYSFSObj

.data.arpBcastAdd%63
                0x20002920        0x6
 .data.arpBcastAdd
                0x20002920        0x6 build/default/debug/_ext/1033058136/arp.o

.bss._hEventMac%64
                0x20001444        0x4
 .bss._hEventMac
                0x20001444        0x4 build/default/debug/_ext/1546807373/drv_gmac.o

.bss.drvGmacQueEvents%65
                0x200022e4        0x4
 .bss.drvGmacQueEvents
                0x200022e4        0x4 build/default/debug/_ext/1546807373/drv_gmac_lib_samE5x.o
                0x200022e4                drvGmacQueEvents

.bss.TCBStubs%66
                0x20002928        0x4
 .bss.TCBStubs  0x20002928        0x4 build/default/debug/_ext/1033058136/tcp.o

.bss.TcpSockets%67
                0x2000292c        0x4
 .bss.TcpSockets
                0x2000292c        0x4 build/default/debug/_ext/1033058136/tcp.o

.bss.tcpHeapH%68
                0x20002930        0x4
 .bss.tcpHeapH  0x20002930        0x4 build/default/debug/_ext/1033058136/tcp.o

.bss.tcpInitCount%69
                0x20002934        0x4
 .bss.tcpInitCount
                0x20002934        0x4 build/default/debug/_ext/1033058136/tcp.o

.bss.tcpLockCount%70
                0x20002938        0x4
 .bss.tcpLockCount
                0x20002938        0x4 build/default/debug/_ext/1033058136/tcp.o

.bss.tcpSignalHandle%71
                0x2000293c        0x4
 .bss.tcpSignalHandle
                0x2000293c        0x4 build/default/debug/_ext/1033058136/tcp.o

.bss.ipv4ActFilterCount%72
                0x20002940        0x4
 .bss.ipv4ActFilterCount
                0x20002940        0x4 build/default/debug/_ext/1033058136/ipv4.o

.bss.ipv4ArpEntries%73
                0x20002944        0x4
 .bss.ipv4ArpEntries
                0x20002944        0x4 build/default/debug/_ext/1033058136/ipv4.o

.bss.ipv4ArpHandle%74
                0x20002948        0x4
 .bss.ipv4ArpHandle
                0x20002948        0x4 build/default/debug/_ext/1033058136/ipv4.o

.bss.ipv4MemH%75
                0x2000294c        0x4
 .bss.ipv4MemH  0x2000294c        0x4 build/default/debug/_ext/1033058136/ipv4.o

.bss.signalHandle%76
                0x20002950        0x4
 .bss.signalHandle
                0x20002950        0x4 build/default/debug/_ext/1033058136/ipv4.o

.bss.dnsInitCount%77
                0x20002954        0x4
 .bss.dnsInitCount
                0x20002954        0x4 build/default/debug/_ext/1033058136/dns.o

.bss.pgDnsDcpt%78
                0x20002958        0x4
 .bss.pgDnsDcpt
                0x20002958        0x4 build/default/debug/_ext/1033058136/dns.o

.bss.newTcpipErrorEventCnt%79
                0x2000295c        0x4
 .bss.newTcpipErrorEventCnt
                0x2000295c        0x4 build/default/debug/_ext/1033058136/tcpip_manager.o

.bss.newTcpipStackEventCnt%80
                0x20002960        0x4
 .bss.newTcpipStackEventCnt
                0x20002960        0x4 build/default/debug/_ext/1033058136/tcpip_manager.o

.bss.newTcpipTickAvlbl%81
                0x20002964        0x4
 .bss.newTcpipTickAvlbl
                0x20002964        0x4 build/default/debug/_ext/1033058136/tcpip_manager.o

.bss.stackAsyncSignalCount%82
                0x20002968        0x4
 .bss.stackAsyncSignalCount
                0x20002968        0x4 build/default/debug/_ext/1033058136/tcpip_manager.o

.bss.stackTaskRate%83
                0x2000296c        0x4
 .bss.stackTaskRate
                0x2000296c        0x4 build/default/debug/_ext/1033058136/tcpip_manager.o

.bss.tcpipDefIf%84
                0x20002970        0x4
 .bss.tcpipDefIf
                0x20002970        0x4 build/default/debug/_ext/1033058136/tcpip_manager.o

.bss.tcpipNetIf%85
                0x20002974        0x4
 .bss.tcpipNetIf
                0x20002974        0x4 build/default/debug/_ext/1033058136/tcpip_manager.o

.bss.tcpip_stack_init_cb%86
                0x20002978        0x4
 .bss.tcpip_stack_init_cb
                0x20002978        0x4 build/default/debug/_ext/1033058136/tcpip_manager.o

.bss.totTcpipEventsCnt%87
                0x2000297c        0x4
 .bss.totTcpipEventsCnt
                0x2000297c        0x4 build/default/debug/_ext/1033058136/tcpip_manager.o

.data.tcpip_stack_tickH%88
                0x20002980        0x4
 .data.tcpip_stack_tickH
                0x20002980        0x4 build/default/debug/_ext/1033058136/tcpip_manager.o

.bss.pktMemH%89
                0x20002984        0x4
 .bss.pktMemH   0x20002984        0x4 build/default/debug/_ext/1033058136/tcpip_packet.o

.bss.FTPAuthHParam%90
                0x20002988        0x4
 .bss.FTPAuthHParam
                0x20002988        0x4 build/default/debug/_ext/1033058136/ftp.o

.bss.FTPAuthHandler%91
                0x2000298c        0x4
 .bss.FTPAuthHandler
                0x2000298c        0x4 build/default/debug/_ext/1033058136/ftp.o

.bss.ftpsSignalHandle%92
                0x20002990        0x4
 .bss.ftpsSignalHandle
                0x20002990        0x4 build/default/debug/_ext/1033058136/ftp.o

.bss.sTCPIPFTPDcpt%93
                0x20002994        0x4
 .bss.sTCPIPFTPDcpt
                0x20002994        0x4 build/default/debug/_ext/1033058136/ftp.o

.bss.sTCPIPFTPServerCount%94
                0x20002998        0x4
 .bss.sTCPIPFTPServerCount
                0x20002998        0x4 build/default/debug/_ext/1033058136/ftp.o

.bss.sTCPIPFtpMemH%95
                0x2000299c        0x4
 .bss.sTCPIPFtpMemH
                0x2000299c        0x4 build/default/debug/_ext/1033058136/ftp.o

.bss.icmpInitCount%96
                0x200029a0        0x4
 .bss.icmpInitCount
                0x200029a0        0x4 build/default/debug/_ext/1033058136/icmp.o

.bss.signalHandle%97
                0x200029a4        0x4
 .bss.signalHandle
                0x200029a4        0x4 build/default/debug/_ext/1033058136/icmp.o

.bss.sysDebugInstance%98
                0x200029a8        0x4
 .bss.sysDebugInstance
                0x200029a8        0x4 build/default/debug/_ext/944882569/sys_debug.o

.bss.FatFs%99   0x200029ac        0x4
 .bss.FatFs     0x200029ac        0x4 build/default/debug/_ext/411819097/ff.o

.bss.gTickConv%100
                0x200029b0        0x4
 .bss.gTickConv
                0x200029b0        0x4 build/default/debug/_ext/753841488/sys_time_h2_adapter.o

.bss.systemAdaptObj%101
                0x200029b4        0x4
 .bss.systemAdaptObj
                0x200029b4        0x4 build/default/debug/_ext/753841488/sys_time_h2_adapter.o

.bss.tcpipAnnounceInitData%102
                0x200029b8        0x4
 .bss.tcpipAnnounceInitData
                0x200029b8        0x4 build/default/debug/_ext/1171490990/initialization.o
                0x200029b8                tcpipAnnounceInitData

.bss.BSDSocketArray%103
                0x200029bc        0x4
 .bss.BSDSocketArray
                0x200029bc        0x4 build/default/debug/_ext/1033058136/berkeley_api.o

.bss.InitCount%104
                0x200029c0        0x4
 .bss.InitCount
                0x200029c0        0x4 build/default/debug/_ext/1033058136/berkeley_api.o

.bss.bsdApiHeapH%105
                0x200029c4        0x4
 .bss.bsdApiHeapH
                0x200029c4        0x4 build/default/debug/_ext/1033058136/berkeley_api.o

.bss.bsdSignalHandle%106
                0x200029c8        0x4
 .bss.bsdSignalHandle
                0x200029c8        0x4 build/default/debug/_ext/1033058136/berkeley_api.o

.bss.announceInitCount%107
                0x200029cc        0x4
 .bss.announceInitCount
                0x200029cc        0x4 build/default/debug/_ext/1033058136/tcpip_announce.o

.bss.UDPSocketDcpt%108
                0x200029d0        0x4
 .bss.UDPSocketDcpt
                0x200029d0        0x4 build/default/debug/_ext/1033058136/udp.o

.bss.nUdpSockets%109
                0x200029d4        0x4
 .bss.nUdpSockets
                0x200029d4        0x4 build/default/debug/_ext/1033058136/udp.o

.bss.signalHandle%110
                0x200029d8        0x4
 .bss.signalHandle
                0x200029d8        0x4 build/default/debug/_ext/1033058136/udp.o

.bss.udpInitCount%111
                0x200029dc        0x4
 .bss.udpInitCount
                0x200029dc        0x4 build/default/debug/_ext/1033058136/udp.o

.bss.udpMemH%112
                0x200029e0        0x4
 .bss.udpMemH   0x200029e0        0x4 build/default/debug/_ext/1033058136/udp.o

.bss%113        0x200029e4       0x14
 .bss           0x200029e4        0x4 c:/program files/microchip/xc32/v4.00/bin/bin/../../lib/gcc/pic32c/8.3.1/../../../../pic32c/lib/thumb/v7e-m+fp/hard\libpic32c.a(data_init.o)
 .bss           0x200029e8        0x4 c:/program files/microchip/xc32/v4.00/bin/bin/../../lib/gcc/pic32c/8.3.1/../../../../pic32c/lib/thumb/v7e-m+fp/hard\libg-musl.a(__errno_location.o)
                0x200029e8                __errno_val
 .bss           0x200029ec        0x4 c:/program files/microchip/xc32/v4.00/bin/bin/../../lib/gcc/pic32c/8.3.1/../../../../pic32c/lib/thumb/v7e-m+fp/hard\libg-musl.a(rand.o)
 .bss           0x200029f0        0x4 c:/program files/microchip/xc32/v4.00/bin/bin/../../lib/gcc/pic32c/8.3.1/../../../../pic32c/lib/thumb/v7e-m+fp/hard\libg-musl.a(__environ.o)
                0x200029f0                __environ
                0x200029f0                environ
                0x200029f0                ___environ
                0x200029f0                _environ
 .bss           0x200029f4        0x4 c:/program files/microchip/xc32/v4.00/bin/bin/../../lib/gcc/pic32c/8.3.1/../../../../pic32c/lib/thumb/v7e-m+fp/hard\libpic32c.a(sbrk.o)

.bss.VolToPart%118
                0x200029f8        0x2
 .bss.VolToPart
                0x200029f8        0x2 build/default/debug/_ext/1269487135/sys_fs_media_manager.o
                0x200029f8                VolToPart

.data.drvGmacIRQ%119
                0x200029fc        0x2
 .data.drvGmacIRQ
                0x200029fc        0x2 build/default/debug/_ext/1546807373/drv_gmac_lib_samE5x.o
                0x200029fc                drvGmacIRQ

.bss.tcpDefRxSize%120
                0x20001e42        0x2
 .bss.tcpDefRxSize
                0x20001e42        0x2 build/default/debug/_ext/1033058136/tcp.o

.bss.tcpDefTxSize%121
                0x20001e4e        0x2
 .bss.tcpDefTxSize
                0x20001e4e        0x2 build/default/debug/_ext/1033058136/tcp.o

.bss.ipv4Identifier%122
                0x20002906        0x2
 .bss.ipv4Identifier
                0x20002906        0x2 build/default/debug/_ext/1033058136/ipv4.o

.bss.ipv4InitCount%123
                0x20002926        0x2
 .bss.ipv4InitCount
                0x20002926        0x2 build/default/debug/_ext/1033058136/ipv4.o

.bss.remainingBytes.14324%124
                0x200029fa        0x2
 .bss.remainingBytes.14324
                0x200029fa        0x2 build/default/debug/_ext/1033058136/ftp.o

.bss.remainingBytes.14413%125
                0x200029fe        0x2
 .bss.remainingBytes.14413
                0x200029fe        0x2 build/default/debug/_ext/1033058136/ftp.o

.bss.Fsid%126   0x20002a00        0x2
 .bss.Fsid      0x20002a00        0x2 build/default/debug/_ext/411819097/ff.o

.data.gSysTimeTokenCount%127
                0x20002a02        0x2
 .data.gSysTimeTokenCount
                0x20002a02        0x2 build/default/debug/_ext/101884895/sys_time.o

.bss.udpDefTxSize%128
                0x20002a04        0x2
 .bss.udpDefTxSize
                0x20002a04        0x2 build/default/debug/_ext/1033058136/udp.o

.data.queueIndex.10328%129
                0x200028d7        0x1
 .data.queueIndex.10328
                0x200028d7        0x1 build/default/debug/_ext/1546807373/drv_gmac.o

.data.cardAttached.9384%130
                0x20002a06        0x1
 .data.cardAttached.9384
                0x20002a06        0x1 build/default/debug/_ext/20954303/drv_sdmmc.o

.bss.tcpSemaphore%131
                0x20002a07        0x1
 .bss.tcpSemaphore
                0x20002a07        0x1 build/default/debug/_ext/1033058136/tcp.o

.bss.ipv4FilterType%132
                0x20002a08        0x1
 .bss.ipv4FilterType
                0x20002a08        0x1 build/default/debug/_ext/1033058136/ipv4.o

.bss.tcpip_stack_status%133
                0x20002a09        0x1
 .bss.tcpip_stack_status
                0x20002a09        0x1 build/default/debug/_ext/1033058136/tcpip_manager.o

.bss.cmdWithArg.14419%134
                0x20002a0a        0x1
 .bss.cmdWithArg.14419
                0x20002a0a        0x1 build/default/debug/_ext/1033058136/ftp.o

.data.gFTPNLSTArgIndex%135
                0x20002a0b        0x1
 .data.gFTPNLSTArgIndex
                0x20002a0b        0x1 build/default/debug/_ext/1033058136/ftp.o

.bss.consolePrintBufferMutex%136
                0x20002a0c        0x1
 .bss.consolePrintBufferMutex
                0x20002a0c        0x1 build/default/debug/_ext/1832805299/sys_console.o

.bss.isConsoleMutexCreated%137
                0x20002a0d        0x1
 .bss.isConsoleMutexCreated
                0x20002a0d        0x1 build/default/debug/_ext/1832805299/sys_console.o

.bss.gblErrLvl%138
                0x20002a0e        0x1
 .bss.gblErrLvl
                0x20002a0e        0x1 build/default/debug/_ext/944882569/sys_debug.o
                0x20002a0e                gblErrLvl

.bss.CurrVol%139
                0x20002a0f        0x1
 .bss.CurrVol   0x20002a0f        0x1 build/default/debug/_ext/411819097/ff.o

.bss.errorValue%140
                0x20002a10        0x1
 .bss.errorValue
                0x20002a10        0x1 build/default/debug/_ext/1269487135/sys_fs.o
                0x20002a10                errorValue

.bss.gSysFsMutex%141
                0x20002a11        0x1
 .bss.gSysFsMutex
                0x20002a11        0x1 build/default/debug/_ext/1269487135/sys_fs.o
                0x20002a11                gSysFsMutex

.bss.startupflag%142
                0x20002a12        0x1
 .bss.startupflag
                0x20002a12        0x1 build/default/debug/_ext/1269487135/sys_fs_fat_interface.o

.bss.bsdSemaphore%143
                0x20002a13        0x1
 .bss.bsdSemaphore
                0x20002a13        0x1 build/default/debug/_ext/1033058136/berkeley_api.o

.data.BSD_SOCKET_COUNT%144
                0x20002a14        0x1
 .data.BSD_SOCKET_COUNT
                0x20002a14        0x1 build/default/debug/_ext/1033058136/berkeley_api.o

.bss.userSem%145
                0x20002a15        0x1
 .bss.userSem   0x20002a15        0x1 build/default/debug/_ext/1033058136/udp.o

.eh_frame%z1    0x00000000        0x0
 .eh_frame      0x00000000        0x0 c:/program files/microchip/xc32/v4.00/bin/bin/../../lib/gcc/pic32c/8.3.1/thumb/v7e-m+fp/hard/crtbegin.o

.config_00804000.__config_00804000%146
                0x00804000        0x4
 .config_00804000.__config_00804000
                0x00804000        0x4 build/default/debug/_ext/1171490990/initialization.o
                0x00804000                __config_00804000

.config_00804004.__config_00804004%147
                0x00804004        0x4
 .config_00804004.__config_00804004
                0x00804004        0x4 build/default/debug/_ext/1171490990/initialization.o
                0x00804004                __config_00804004

.config_00804008.__config_00804008%148
                0x00804008        0x4
 .config_00804008.__config_00804008
                0x00804008        0x4 build/default/debug/_ext/1171490990/initialization.o
                0x00804008                __config_00804008

.text.TCPIP_FTP_CmdsExecute%149
                0x0000028c     0x19ac
 .text.TCPIP_FTP_CmdsExecute
                0x0000028c     0x19ac build/default/debug/_ext/1033058136/ftp.o

.text.DRV_SDMMC_Tasks%150
                0x00001c38     0x197c
 .text.DRV_SDMMC_Tasks
                0x00001c38     0x197c build/default/debug/_ext/20954303/drv_sdmmc.o
                0x00001c38                DRV_SDMMC_Tasks

.text.TCPIP_TCP_Task%151
                0x000035b4      0xe2c
 .text.TCPIP_TCP_Task
                0x000035b4      0xe2c build/default/debug/_ext/1033058136/tcp.o
                0x000035b4                TCPIP_TCP_Task

.dinit%152      0x000043e0      0x870
 .dinit         0x000043e0      0x870 data_init

.text.f_mkfs%153
                0x00004c50      0x7f4
 .text.f_mkfs   0x00004c50      0x7f4 build/default/debug/_ext/411819097/ff.o
                0x00004c50                f_mkfs

.rodata.macPIC32CHwRegDcpt%154
                0x00005444      0x708
 .rodata.macPIC32CHwRegDcpt
                0x00005444      0x708 build/default/debug/_ext/1546807373/drv_gmac.o

.rodata%155     0x00005b4c      0x6cc
 .rodata        0x00005b4c      0x6cc build/default/debug/_ext/1033058136/ftp.o

.text.TCPIP_STACK_Task%156
                0x00006218      0x5fc
 .text.TCPIP_STACK_Task
                0x00006218      0x5fc build/default/debug/_ext/1033058136/tcpip_manager.o
                0x00006218                TCPIP_STACK_Task

.text._TcpSend%157
                0x00006814      0x5e0
 .text._TcpSend
                0x00006814      0x5e0 build/default/debug/_ext/1033058136/tcp.o

.rodata%158     0x00006df4      0x498
 .rodata        0x00006df4      0x498 build/default/debug/_ext/1033058136/tcpip_manager.o

.text.__fmt_a%159
                0x00007290      0x498
 .text.__fmt_a  0x00007290      0x498 c:/program files/microchip/xc32/v4.00/bin/bin/../../lib/gcc/pic32c/8.3.1/../../../../pic32c/lib/thumb/v7e-m+fp/hard\libg-musl.a(__fmt_a.o)
                0x00007290                __fmt_a_needed
                0x00007290                __fmt_a

.text.__fmt_fp%160
                0x00007728      0x488
 .text.__fmt_fp
                0x00007728      0x488 c:/program files/microchip/xc32/v4.00/bin/bin/../../lib/gcc/pic32c/8.3.1/../../../../pic32c/lib/thumb/v7e-m+fp/hard\libg-musl.a(__fmt_fp.o)
                0x00007728                __fmt_f_needed
                0x00007728                __fmt_fp

.text._TCPIP_DoInitialize%161
                0x00007bb0      0x428
 .text._TCPIP_DoInitialize
                0x00007bb0      0x428 build/default/debug/_ext/1033058136/tcpip_manager.o

.text._DNS_ProcessPacket%162
                0x00007fd8      0x3f8
 .text._DNS_ProcessPacket
                0x00007fd8      0x3f8 build/default/debug/_ext/1033058136/dns.o

.text.SYS_FS_MEDIA_MANAGER_Tasks%163
                0x000083d0      0x3f8
 .text.SYS_FS_MEDIA_MANAGER_Tasks
                0x000083d0      0x3f8 build/default/debug/_ext/1269487135/sys_fs_media_manager.o
                0x000083d0                SYS_FS_MEDIA_MANAGER_Tasks

.text.follow_path%164
                0x000087c8      0x39c
 .text.follow_path
                0x000087c8      0x39c build/default/debug/_ext/411819097/ff.o

.text.mount_volume%165
                0x00008b64      0x398
 .text.mount_volume
                0x00008b64      0x398 build/default/debug/_ext/411819097/ff.o

.text.DRV_PIC32CGMAC_LibRxGetPacket%166
                0x00008efc      0x378
 .text.DRV_PIC32CGMAC_LibRxGetPacket
                0x00008efc      0x378 build/default/debug/_ext/1546807373/drv_gmac_lib_samE5x.o
                0x00008efc                DRV_PIC32CGMAC_LibRxGetPacket

.text.f_printf%167
                0x00009274      0x350
 .text.f_printf
                0x00009274      0x350 build/default/debug/_ext/411819097/ff.o
                0x00009274                f_printf

.text.TCPIP_FTP_ServerTask%168
                0x000095c4      0x338
 .text.TCPIP_FTP_ServerTask
                0x000095c4      0x338 build/default/debug/_ext/1033058136/ftp.o
                0x000095c4                TCPIP_FTP_ServerTask

.text.DRV_GMAC_Initialize%169
                0x000098fc      0x308
 .text.DRV_GMAC_Initialize
                0x000098fc      0x308 build/default/debug/_ext/1546807373/drv_gmac.o
                0x000098fc                DRV_GMAC_Initialize

.text.__printf_core%170
                0x00009c04      0x2f4
 .text.__printf_core
                0x00009c04      0x2f4 c:/program files/microchip/xc32/v4.00/bin/bin/../../lib/gcc/pic32c/8.3.1/../../../../pic32c/lib/thumb/v7e-m+fp/hard\libg-musl.a(__printf_core.o)
                0x00009c04                __printf_core

.text._TCP_Open%171
                0x00009ef8      0x2f0
 .text._TCP_Open
                0x00009ef8      0x2f0 build/default/debug/_ext/1033058136/tcp.o

.text.TCPIP_TCP_FifoSizeAdjust%172
                0x0000a1e8      0x2f0
 .text.TCPIP_TCP_FifoSizeAdjust
                0x0000a1e8      0x2f0 build/default/debug/_ext/1033058136/tcp.o
                0x0000a1e8                TCPIP_TCP_FifoSizeAdjust

.text%173       0x0000a4d8      0x2d0
 .text          0x0000a4d8      0x2d0 c:/program files/microchip/xc32/v4.00/bin/bin/../../lib/gcc/pic32c/8.3.1/thumb/v7e-m+fp/hard\libgcc.a(_udivmoddi4.o)
                0x0000a4d8                __udivmoddi4

.text.TCPIP_ARP_Task%174
                0x0000a7a8      0x2c0
 .text.TCPIP_ARP_Task
                0x0000a7a8      0x2c0 build/default/debug/_ext/1033058136/arp.o
                0x0000a7a8                TCPIP_ARP_Task

.text.dir_register%175
                0x0000aa68      0x2b0
 .text.dir_register
                0x0000aa68      0x2b0 build/default/debug/_ext/411819097/ff.o

.text._DNS_Send_Query%176
                0x0000ad18      0x290
 .text._DNS_Send_Query
                0x0000ad18      0x290 build/default/debug/_ext/1033058136/dns.o

.text.f_open%177
                0x0000afa8      0x268
 .text.f_open   0x0000afa8      0x268 build/default/debug/_ext/411819097/ff.o
                0x0000afa8                f_open

.text.TCPIP_ANNOUNCE_Task%178
                0x0000b210      0x250
 .text.TCPIP_ANNOUNCE_Task
                0x0000b210      0x250 build/default/debug/_ext/1033058136/tcpip_announce.o
                0x0000b210                TCPIP_ANNOUNCE_Task

.text.__aeabi_dadd%179
                0x0000b460      0x240
 .text.__aeabi_dadd
                0x0000b460      0x240 c:/program files/microchip/xc32/v4.00/bin/bin/../../lib/gcc/pic32c/8.3.1/../../../../pic32c/lib/thumb/v7e-m+fp/hard\libm-emfloat.a(floatasmops_arm.o)
                0x0000b460                __aeabi_dadd

.text.TCPIP_STACK_BringNetUp%180
                0x0000b6a0      0x23c
 .text.TCPIP_STACK_BringNetUp
                0x0000b6a0      0x23c build/default/debug/_ext/1033058136/tcpip_manager.o

.text.TCPIP_IPV4_Task%181
                0x0000b8dc      0x234
 .text.TCPIP_IPV4_Task
                0x0000b8dc      0x234 build/default/debug/_ext/1033058136/ipv4.o
                0x0000b8dc                TCPIP_IPV4_Task

.text.TCPIP_UDP_OptionsSet%182
                0x0000bb10      0x228
 .text.TCPIP_UDP_OptionsSet
                0x0000bb10      0x228 build/default/debug/_ext/1033058136/udp.o
                0x0000bb10                TCPIP_UDP_OptionsSet

.text.TCPIP_UDP_Flush%183
                0x0000bd38      0x220
 .text.TCPIP_UDP_Flush
                0x0000bd38      0x220 build/default/debug/_ext/1033058136/udp.o
                0x0000bd38                TCPIP_UDP_Flush

.text.TCPIP_DNS_ClientInitialize%184
                0x0000bf58      0x214
 .text.TCPIP_DNS_ClientInitialize
                0x0000bf58      0x214 build/default/debug/_ext/1033058136/dns.o
                0x0000bf58                TCPIP_DNS_ClientInitialize

.text.TCPIP_IPV4_PktTx%185
                0x0000c16c      0x210
 .text.TCPIP_IPV4_PktTx
                0x0000c16c      0x210 build/default/debug/_ext/1033058136/ipv4.o
                0x0000c16c                TCPIP_IPV4_PktTx

.text.NET_PRES_SocketOpen%186
                0x0000c37c      0x200
 .text.NET_PRES_SocketOpen
                0x0000c37c      0x200 build/default/debug/_ext/1508031553/net_pres.o
                0x0000c37c                NET_PRES_SocketOpen

.text.TCPIP_UDP_Task%187
                0x0000c57c      0x200
 .text.TCPIP_UDP_Task
                0x0000c57c      0x200 build/default/debug/_ext/1033058136/udp.o
                0x0000c57c                TCPIP_UDP_Task

.text.APP_Tasks%188
                0x0000c77c      0x1f8
 .text.APP_Tasks
                0x0000c77c      0x1f8 build/default/debug/_ext/1360937237/app.o
                0x0000c77c                APP_Tasks

.rodata.cvt1.8309%189
                0x0000c974      0x1f4
 .rodata.cvt1.8309
                0x0000c974      0x1f4 build/default/debug/_ext/411819097/ffunicode.o

.text.TCPIP_ARP_Initialize%190
                0x0000cb68      0x1e4
 .text.TCPIP_ARP_Initialize
                0x0000cb68      0x1e4 build/default/debug/_ext/1033058136/arp.o
                0x0000cb68                TCPIP_ARP_Initialize

.text.SERCOM1_USART_InterruptHandler%191
                0x0000cd4c      0x1d4
 .text.SERCOM1_USART_InterruptHandler
                0x0000cd4c      0x1d4 build/default/debug/_ext/504274921/plib_sercom1_usart.o
                0x0000cd4c                SERCOM1_USART_InterruptHandler

.text.TCPIP_FTP_ServerInitialize%192
                0x0000cf20      0x1c8
 .text.TCPIP_FTP_ServerInitialize
                0x0000cf20      0x1c8 build/default/debug/_ext/1033058136/ftp.o
                0x0000cf20                TCPIP_FTP_ServerInitialize

.text.f_write%193
                0x0000d0e8      0x1c6
 .text.f_write  0x0000d0e8      0x1c6 build/default/debug/_ext/411819097/ff.o
                0x0000d0e8                f_write

.text.dir_find%194
                0x0000d2b0      0x1c4
 .text.dir_find
                0x0000d2b0      0x1c4 build/default/debug/_ext/411819097/ff.o

.text.__aeabi_ddiv%195
                0x0000d474      0x1c4
 .text.__aeabi_ddiv
                0x0000d474      0x1c4 c:/program files/microchip/xc32/v4.00/bin/bin/../../lib/gcc/pic32c/8.3.1/../../../../pic32c/lib/thumb/v7e-m+fp/hard\libm-emfloat.a(floatasmops_arm.o)
                0x0000d474                __aeabi_ddiv

.text.NET_PRES_Initialize%196
                0x0000d638      0x1bc
 .text.NET_PRES_Initialize
                0x0000d638      0x1bc build/default/debug/_ext/1508031553/net_pres.o
                0x0000d638                NET_PRES_Initialize

.text.DRV_PIC32CGMAC_LibRxFilterHash_Calculate%197
                0x0000d7f4      0x1b0
 .text.DRV_PIC32CGMAC_LibRxFilterHash_Calculate
                0x0000d7f4      0x1b0 build/default/debug/_ext/1546807373/drv_gmac_lib_samE5x.o
                0x0000d7f4                DRV_PIC32CGMAC_LibRxFilterHash_Calculate

.text.malloc%198
                0x0000d9a4      0x1b0
 .text.malloc   0x0000d9a4      0x1b0 c:/program files/microchip/xc32/v4.00/bin/bin/../../lib/gcc/pic32c/8.3.1/../../../../pic32c/lib/thumb/v7e-m+fp/hard\libg-musl.a(malloc.o)
                0x0000d9a4                malloc

.text.DRV_GMAC_PacketRx%199
                0x0000db54      0x1ac
 .text.DRV_GMAC_PacketRx
                0x0000db54      0x1ac build/default/debug/_ext/1546807373/drv_gmac.o
                0x0000db54                DRV_GMAC_PacketRx

.text._DRV_ETHPHY_DefaultDetect%200
                0x0000dd00      0x1a6
 .text._DRV_ETHPHY_DefaultDetect
                0x0000dd00      0x1a6 build/default/debug/_ext/444070925/drv_ethphy.o

.text.f_read%201
                0x0000dea6      0x198
 .text.f_read   0x0000dea6      0x198 build/default/debug/_ext/411819097/ff.o
                0x0000dea6                f_read

.text.f_lseek%202
                0x0000e03e      0x192
 .text.f_lseek  0x0000e03e      0x192 build/default/debug/_ext/411819097/ff.o
                0x0000e03e                f_lseek

.text.DRV_PIC32CGMAC_LibTxAckPacket%203
                0x0000e1d0      0x190
 .text.DRV_PIC32CGMAC_LibTxAckPacket
                0x0000e1d0      0x190 build/default/debug/_ext/1546807373/drv_gmac_lib_samE5x.o
                0x0000e1d0                DRV_PIC32CGMAC_LibTxAckPacket

.text.DRV_SDMMC_SetupXfer%204
                0x0000e360      0x190
 .text.DRV_SDMMC_SetupXfer
                0x0000e360      0x190 build/default/debug/_ext/20954303/drv_sdmmc.o
                0x0000e360                DRV_SDMMC_SetupXfer

.text.create_partition%205
                0x0000e4f0      0x188
 .text.create_partition
                0x0000e4f0      0x188 build/default/debug/_ext/411819097/ff.o

.text.SYS_FS_MEDIA_MANAGER_SectorWrite%206
                0x0000e678      0x188
 .text.SYS_FS_MEDIA_MANAGER_SectorWrite
                0x0000e678      0x188 build/default/debug/_ext/1269487135/sys_fs_media_manager.o
                0x0000e678                SYS_FS_MEDIA_MANAGER_SectorWrite

.text.Shell_FileAbsPath%207
                0x0000e800      0x180
 .text.Shell_FileAbsPath
                0x0000e800      0x180 build/default/debug/_ext/1751889202/sys_fs_shell.o

.text.f_setlabel%208
                0x0000e980      0x180
 .text.f_setlabel
                0x0000e980      0x180 build/default/debug/_ext/411819097/ff.o
                0x0000e980                f_setlabel

.text._UDPOpen%209
                0x0000eb00      0x178
 .text._UDPOpen
                0x0000eb00      0x178 build/default/debug/_ext/1033058136/udp.o

.text.TCPIP_TCP_ArrayPut%210
                0x0000ec78      0x170
 .text.TCPIP_TCP_ArrayPut
                0x0000ec78      0x170 build/default/debug/_ext/1033058136/tcp.o
                0x0000ec78                TCPIP_TCP_ArrayPut

.text.get_fileinfo%211
                0x0000ede8      0x168
 .text.get_fileinfo
                0x0000ede8      0x168 build/default/debug/_ext/411819097/ff.o

.text.f_rename%212
                0x0000ef50      0x162
 .text.f_rename
                0x0000ef50      0x162 build/default/debug/_ext/411819097/ff.o
                0x0000ef50                f_rename

.text.DRV_MIIM_Tasks%213
                0x0000f0b4      0x158
 .text.DRV_MIIM_Tasks
                0x0000f0b4      0x158 build/default/debug/_ext/438849557/drv_miim.o
                0x0000f0b4                DRV_MIIM_Tasks

.text.TCPIP_UDP_Bind%214
                0x0000f20c      0x158
 .text.TCPIP_UDP_Bind
                0x0000f20c      0x158 build/default/debug/_ext/1033058136/udp.o
                0x0000f20c                TCPIP_UDP_Bind

.text.sendto%215
                0x0000f364      0x148
 .text.sendto   0x0000f364      0x148 build/default/debug/_ext/1033058136/berkeley_api.o
                0x0000f364                sendto

.text._TcpCloseSocket%216
                0x0000f4ac      0x140
 .text._TcpCloseSocket
                0x0000f4ac      0x140 build/default/debug/_ext/1033058136/tcp.o

.text.SYS_FS_DirSearch%217
                0x0000f5ec      0x140
 .text.SYS_FS_DirSearch
                0x0000f5ec      0x140 build/default/debug/_ext/1269487135/sys_fs.o
                0x0000f5ec                SYS_FS_DirSearch

.text._MACDeinit%218
                0x0000f72c      0x13c
 .text._MACDeinit
                0x0000f72c      0x13c build/default/debug/_ext/1546807373/drv_gmac.o

.text.f_mkdir%219
                0x0000f868      0x13a
 .text.f_mkdir  0x0000f868      0x13a build/default/debug/_ext/411819097/ff.o
                0x0000f868                f_mkdir

.text._LoadNetworkConfig%220
                0x0000f9a2      0x138
 .text._LoadNetworkConfig
                0x0000f9a2      0x138 build/default/debug/_ext/1033058136/tcpip_manager.o

.text.dir_read%221
                0x0000fadc      0x138
 .text.dir_read
                0x0000fadc      0x138 build/default/debug/_ext/411819097/ff.o

.text.f_getcwd%222
                0x0000fc14      0x138
 .text.f_getcwd
                0x0000fc14      0x138 build/default/debug/_ext/411819097/ff.o
                0x0000fc14                f_getcwd

.text.TCPIP_UDP_OptionsGet%223
                0x0000fd4c      0x138
 .text.TCPIP_UDP_OptionsGet
                0x0000fd4c      0x138 build/default/debug/_ext/1033058136/udp.o
                0x0000fd4c                TCPIP_UDP_OptionsGet

.text.listen%224
                0x0000fe84      0x134
 .text.listen   0x0000fe84      0x134 build/default/debug/_ext/1033058136/berkeley_api.o
                0x0000fe84                listen

.text.TCPIP_UDP_Deinitialize%225
                0x0000ffb8      0x134
 .text.TCPIP_UDP_Deinitialize
                0x0000ffb8      0x134 build/default/debug/_ext/1033058136/udp.o
                0x0000ffb8                TCPIP_UDP_Deinitialize

.text.closesocket%226
                0x000100ec      0x130
 .text.closesocket
                0x000100ec      0x130 build/default/debug/_ext/1033058136/berkeley_api.o
                0x000100ec                closesocket

.text.__aeabi_dmul%227
                0x0001021c      0x130
 .text.__aeabi_dmul
                0x0001021c      0x130 c:/program files/microchip/xc32/v4.00/bin/bin/../../lib/gcc/pic32c/8.3.1/../../../../pic32c/lib/thumb/v7e-m+fp/hard\libm-emfloat.a(floatasmops_arm.o)
                0x0001021c                __aeabi_dmul

.text._TCPIP_HEAP_Free%228
                0x0001034c      0x12e
 .text._TCPIP_HEAP_Free
                0x0001034c      0x12e build/default/debug/_ext/1033058136/tcpip_heap_internal.o

.text._DRV_SDMMC_CommandSend%229
                0x0001047c      0x12c
 .text._DRV_SDMMC_CommandSend
                0x0001047c      0x12c build/default/debug/_ext/20954303/drv_sdmmc.o

.text.put_fat%230
                0x000105a8      0x12c
 .text.put_fat  0x000105a8      0x12c build/default/debug/_ext/411819097/ff.o

.text.TCPIP_TCP_Initialize%231
                0x000106d4      0x124
 .text.TCPIP_TCP_Initialize
                0x000106d4      0x124 build/default/debug/_ext/1033058136/tcp.o
                0x000106d4                TCPIP_TCP_Initialize

.text.TCPIP_IPV4_Initialize%232
                0x000107f8      0x124
 .text.TCPIP_IPV4_Initialize
                0x000107f8      0x124 build/default/debug/_ext/1033058136/ipv4.o
                0x000107f8                TCPIP_IPV4_Initialize

.text.NET_PRES_SocketWriteIsReady%233
                0x0001091c      0x124
 .text.NET_PRES_SocketWriteIsReady
                0x0001091c      0x124 build/default/debug/_ext/1508031553/net_pres.o
                0x0001091c                NET_PRES_SocketWriteIsReady

.text.__fmt_x%234
                0x00010a40      0x124
 .text.__fmt_x  0x00010a40      0x124 c:/program files/microchip/xc32/v4.00/bin/bin/../../lib/gcc/pic32c/8.3.1/../../../../pic32c/lib/thumb/v7e-m+fp/hard\libg-musl.a(__fmt_x.o)
                0x00010a40                __fmt_x_needed
                0x00010a40                __fmt_x

.text.DRV_GMAC_Tasks%235
                0x00010b64      0x120
 .text.DRV_GMAC_Tasks
                0x00010b64      0x120 build/default/debug/_ext/1546807373/drv_gmac.o
                0x00010b64                DRV_GMAC_Tasks

.text.DRV_PIC32CGMAC_LibRxBuffersAppend%236
                0x00010c84      0x120
 .text.DRV_PIC32CGMAC_LibRxBuffersAppend
                0x00010c84      0x120 build/default/debug/_ext/1546807373/drv_gmac_lib_samE5x.o
                0x00010c84                DRV_PIC32CGMAC_LibRxBuffersAppend

.text.TCPIP_IPV4_PacketFormatTx%237
                0x00010da4      0x120
 .text.TCPIP_IPV4_PacketFormatTx
                0x00010da4      0x120 build/default/debug/_ext/1033058136/ipv4.o
                0x00010da4                TCPIP_IPV4_PacketFormatTx

.text.TCPIP_Helper_StringToIPAddress%238
                0x00010ec4      0x120
 .text.TCPIP_Helper_StringToIPAddress
                0x00010ec4      0x120 build/default/debug/_ext/1033058136/tcpip_helpers.o
                0x00010ec4                TCPIP_Helper_StringToIPAddress

.text.create_chain%239
                0x00010fe4      0x11e
 .text.create_chain
                0x00010fe4      0x11e build/default/debug/_ext/411819097/ff.o

.text.DRV_GMAC_EventMaskSet%240
                0x00011104      0x11c
 .text.DRV_GMAC_EventMaskSet
                0x00011104      0x11c build/default/debug/_ext/1546807373/drv_gmac.o
                0x00011104                DRV_GMAC_EventMaskSet

.text.NET_PRES_SocketRead%241
                0x00011220      0x114
 .text.NET_PRES_SocketRead
                0x00011220      0x114 build/default/debug/_ext/1508031553/net_pres.o
                0x00011220                NET_PRES_SocketRead

.text.SYS_FS_FileOpen%242
                0x00011334      0x110
 .text.SYS_FS_FileOpen
                0x00011334      0x110 build/default/debug/_ext/1269487135/sys_fs.o
                0x00011334                SYS_FS_FileOpen

.text.check_fs%243
                0x00011444      0x10c
 .text.check_fs
                0x00011444      0x10c build/default/debug/_ext/411819097/ff.o

.text.TCPIP_TCP_OptionsSet%244
                0x00011550      0x106
 .text.TCPIP_TCP_OptionsSet
                0x00011550      0x106 build/default/debug/_ext/1033058136/tcp.o
                0x00011550                TCPIP_TCP_OptionsSet

.text.DRV_PIC32CGMAC_LibTxSendPacket%245
                0x00011658      0x100
 .text.DRV_PIC32CGMAC_LibTxSendPacket
                0x00011658      0x100 build/default/debug/_ext/1546807373/drv_gmac_lib_samE5x.o
                0x00011658                DRV_PIC32CGMAC_LibTxSendPacket

.rodata.uc437%246
                0x00011758      0x100
 .rodata.uc437  0x00011758      0x100 build/default/debug/_ext/411819097/ffunicode.o

.text.accept%247
                0x00011858      0x100
 .text.accept   0x00011858      0x100 build/default/debug/_ext/1033058136/berkeley_api.o
                0x00011858                accept

.text.DRV_SDMMC_Open%248
                0x00011958       0xfc
 .text.DRV_SDMMC_Open
                0x00011958       0xfc build/default/debug/_ext/20954303/drv_sdmmc.o
                0x00011958                DRV_SDMMC_Open

.text.socket%249
                0x00011a54       0xfc
 .text.socket   0x00011a54       0xfc build/default/debug/_ext/1033058136/berkeley_api.o
                0x00011a54                socket

.text.CLOCK_Initialize%250
                0x00011b50       0xf8
 .text.CLOCK_Initialize
                0x00011b50       0xf8 build/default/debug/_ext/1984496892/plib_clock.o
                0x00011b50                CLOCK_Initialize

.text.free%251  0x00011c48       0xf8
 .text.free     0x00011c48       0xf8 c:/program files/microchip/xc32/v4.00/bin/bin/../../lib/gcc/pic32c/8.3.1/../../../../pic32c/lib/thumb/v7e-m+fp/hard\libg-musl.a(malloc.o)
                0x00011c48                free

.text.SDHC1_ClockSet%252
                0x00011d40       0xf4
 .text.SDHC1_ClockSet
                0x00011d40       0xf4 build/default/debug/_ext/1865600094/plib_sdhc1.o
                0x00011d40                SDHC1_ClockSet

.text.TCPIP_ANNOUNCE_Initialize%253
                0x00011e34       0xf4
 .text.TCPIP_ANNOUNCE_Initialize
                0x00011e34       0xf4 build/default/debug/_ext/1033058136/tcpip_announce.o
                0x00011e34                TCPIP_ANNOUNCE_Initialize

.text.TCPIP_DNS_ClientTask%254
                0x00011f28       0xf0
 .text.TCPIP_DNS_ClientTask
                0x00011f28       0xf0 build/default/debug/_ext/1033058136/dns.o
                0x00011f28                TCPIP_DNS_ClientTask

.text.TCPIP_UDP_Initialize%255
                0x00012018       0xf0
 .text.TCPIP_UDP_Initialize
                0x00012018       0xf0 build/default/debug/_ext/1033058136/udp.o
                0x00012018                TCPIP_UDP_Initialize

.text.DRV_SDMMC_Initialize%256
                0x00012108       0xec
 .text.DRV_SDMMC_Initialize
                0x00012108       0xec build/default/debug/_ext/20954303/drv_sdmmc.o
                0x00012108                DRV_SDMMC_Initialize

.text.Shell_Cwd%257
                0x000121f4       0xec
 .text.Shell_Cwd
                0x000121f4       0xec build/default/debug/_ext/1751889202/sys_fs_shell.o

.text._ARPProbeAddress%258
                0x000122e0       0xec
 .text._ARPProbeAddress
                0x000122e0       0xec build/default/debug/_ext/1033058136/arp.o

.text.SYS_FS_Shell_Create%259
                0x000123cc       0xe8
 .text.SYS_FS_Shell_Create
                0x000123cc       0xe8 build/default/debug/_ext/1751889202/sys_fs_shell.o
                0x000123cc                SYS_FS_Shell_Create

.text.SDHC1_CommandSend%260
                0x000124b4       0xe8
 .text.SDHC1_CommandSend
                0x000124b4       0xe8 build/default/debug/_ext/1865600094/plib_sdhc1.o
                0x000124b4                SDHC1_CommandSend

.text.recv%261  0x0001259c       0xe4
 .text.recv     0x0001259c       0xe4 build/default/debug/_ext/1033058136/berkeley_api.o
                0x0001259c                recv

.text._DRV_MIIM_StartOp%262
                0x00012680       0xe0
 .text._DRV_MIIM_StartOp
                0x00012680       0xe0 build/default/debug/_ext/438849557/drv_miim.o

.text.TCPIP_ICMP_Task%263
                0x00012760       0xde
 .text.TCPIP_ICMP_Task
                0x00012760       0xde build/default/debug/_ext/1033058136/icmp.o
                0x00012760                TCPIP_ICMP_Task

.text.TCPIP_UDP_ArrayGet%264
                0x0001283e       0xde
 .text.TCPIP_UDP_ArrayGet
                0x0001283e       0xde build/default/debug/_ext/1033058136/udp.o
                0x0001283e                TCPIP_UDP_ArrayGet

.text.DRV_ETHPHY_Setup%265
                0x0001291c       0xdc
 .text.DRV_ETHPHY_Setup
                0x0001291c       0xdc build/default/debug/_ext/444070925/drv_ethphy.o
                0x0001291c                DRV_ETHPHY_Setup

.text.SYS_TIME_PLIBCallback%266
                0x000129f8       0xdc
 .text.SYS_TIME_PLIBCallback
                0x000129f8       0xdc build/default/debug/_ext/101884895/sys_time.o

.text.f_getfree%267
                0x00012ad4       0xda
 .text.f_getfree
                0x00012ad4       0xda build/default/debug/_ext/411819097/ff.o
                0x00012ad4                f_getfree

.text._Tcpv4TxAckFnc%268
                0x00012bb0       0xd8
 .text._Tcpv4TxAckFnc
                0x00012bb0       0xd8 build/default/debug/_ext/1033058136/tcp.o

.text.SERCOM1_USART_Write%269
                0x00012c88       0xd8
 .text.SERCOM1_USART_Write
                0x00012c88       0xd8 build/default/debug/_ext/504274921/plib_sercom1_usart.o
                0x00012c88                SERCOM1_USART_Write

.text._cfgBsdSocket%270
                0x00012d60       0xd4
 .text._cfgBsdSocket
                0x00012d60       0xd4 build/default/debug/_ext/1033058136/berkeley_api.o
                0x00012d60                _cfgBsdSocket

.text._DRV_ETHPHY_NegResultPhase_ANAD%271
                0x00012e34       0xd2
 .text._DRV_ETHPHY_NegResultPhase_ANAD
                0x00012e34       0xd2 build/default/debug/_ext/444070925/drv_ethphy.o

.text._TCPIP_HEAP_Malloc%272
                0x00012f06       0xd0
 .text._TCPIP_HEAP_Malloc
                0x00012f06       0xd0 build/default/debug/_ext/1033058136/tcpip_heap_internal.o

.text.get_fat%273
                0x00012fd6       0xd0
 .text.get_fat  0x00012fd6       0xd0 build/default/debug/_ext/411819097/ff.o

.text.TCPIP_TCP_ArrayGet%274
                0x000130a8       0xcc
 .text.TCPIP_TCP_ArrayGet
                0x000130a8       0xcc build/default/debug/_ext/1033058136/tcp.o
                0x000130a8                TCPIP_TCP_ArrayGet

.text.TCPIP_FTP_CreateDataSocket%275
                0x00013174       0xcc
 .text.TCPIP_FTP_CreateDataSocket
                0x00013174       0xcc build/default/debug/_ext/1033058136/ftp.o

.text.SDHC1_InterruptHandler%276
                0x00013240       0xcc
 .text.SDHC1_InterruptHandler
                0x00013240       0xcc build/default/debug/_ext/1865600094/plib_sdhc1.o
                0x00013240                SDHC1_InterruptHandler

.text.f_unlink%277
                0x0001330c       0xcc
 .text.f_unlink
                0x0001330c       0xcc build/default/debug/_ext/411819097/ff.o
                0x0001330c                f_unlink

.text.bind%278  0x000133d8       0xcc
 .text.bind     0x000133d8       0xcc build/default/debug/_ext/1033058136/berkeley_api.o
                0x000133d8                bind

.text.TCPIP_UDP_OpenServerSkt%279
                0x000134a4       0xcc
 .text.TCPIP_UDP_OpenServerSkt
                0x000134a4       0xcc build/default/debug/_ext/1033058136/udp.o
                0x000134a4                TCPIP_UDP_OpenServerSkt

.text.floor%280
                0x00013570       0xcc
 .text.floor    0x00013570       0xcc c:/program files/microchip/xc32/v4.00/bin/bin/../../lib/gcc/pic32c/8.3.1/../../../../pic32c/lib/thumb/v7e-m+fp/hard\libm-emfloat.a(lib_a-_FLOOR.o)
                0x00013570                floor

.text.DRV_GMAC_PacketTx%281
                0x0001363c       0xc8
 .text.DRV_GMAC_PacketTx
                0x0001363c       0xc8 build/default/debug/_ext/1546807373/drv_gmac.o
                0x0001363c                DRV_GMAC_PacketTx

.text.DRV_PIC32CGMAC_LibRxInit%282
                0x00013704       0xc8
 .text.DRV_PIC32CGMAC_LibRxInit
                0x00013704       0xc8 build/default/debug/_ext/1546807373/drv_gmac_lib_samE5x.o
                0x00013704                DRV_PIC32CGMAC_LibRxInit

.text.dir_next%283
                0x000137cc       0xc8
 .text.dir_next
                0x000137cc       0xc8 build/default/debug/_ext/411819097/ff.o

.text.SYS_FS_FileSeek%284
                0x00013894       0xc8
 .text.SYS_FS_FileSeek
                0x00013894       0xc8 build/default/debug/_ext/1269487135/sys_fs.o
                0x00013894                SYS_FS_FileSeek

.text.SYS_FS_DirOpen%285
                0x0001395c       0xc8
 .text.SYS_FS_DirOpen
                0x0001395c       0xc8 build/default/debug/_ext/1269487135/sys_fs.o
                0x0001395c                SYS_FS_DirOpen

.text.TCPIP_TCP_Deinitialize%286
                0x00013a24       0xc4
 .text.TCPIP_TCP_Deinitialize
                0x00013a24       0xc4 build/default/debug/_ext/1033058136/tcp.o
                0x00013a24                TCPIP_TCP_Deinitialize

.text.TCPIP_TCP_OptionsGet%287
                0x00013ae8       0xc4
 .text.TCPIP_TCP_OptionsGet
                0x00013ae8       0xc4 build/default/debug/_ext/1033058136/tcp.o
                0x00013ae8                TCPIP_TCP_OptionsGet

.text.NET_PRES_SocketDisconnect%288
                0x00013bac       0xc4
 .text.NET_PRES_SocketDisconnect
                0x00013bac       0xc4 build/default/debug/_ext/1508031553/net_pres.o
                0x00013bac                NET_PRES_SocketDisconnect

.text.SYS_FS_GetDisk%289
                0x00013c70       0xc4
 .text.SYS_FS_GetDisk
                0x00013c70       0xc4 build/default/debug/_ext/1269487135/sys_fs.o

.text.BerkeleySocketInit%290
                0x00013d34       0xc4
 .text.BerkeleySocketInit
                0x00013d34       0xc4 build/default/debug/_ext/1033058136/berkeley_api.o
                0x00013d34                BerkeleySocketInit

.text.f_truncate%291
                0x00013df8       0xc2
 .text.f_truncate
                0x00013df8       0xc2 build/default/debug/_ext/411819097/ff.o
                0x00013df8                f_truncate

.text.TCPIP_TCP_Bind%292
                0x00013eba       0xc0
 .text.TCPIP_TCP_Bind
                0x00013eba       0xc0 build/default/debug/_ext/1033058136/tcp.o
                0x00013eba                TCPIP_TCP_Bind

.text.NET_PRES_Tasks%293
                0x00013f7c       0xc0
 .text.NET_PRES_Tasks
                0x00013f7c       0xc0 build/default/debug/_ext/1508031553/net_pres.o
                0x00013f7c                NET_PRES_Tasks

.text._DRV_MIIM_ClientDeallocate%294
                0x0001403c       0xbc
 .text._DRV_MIIM_ClientDeallocate
                0x0001403c       0xbc build/default/debug/_ext/438849557/drv_miim.o

.text.TCPIP_IPV4_DeInitialize%295
                0x000140f8       0xbc
 .text.TCPIP_IPV4_DeInitialize
                0x000140f8       0xbc build/default/debug/_ext/1033058136/ipv4.o
                0x000140f8                TCPIP_IPV4_DeInitialize

.text.TCPIP_HEAP_CreateInternal%296
                0x000141b4       0xbc
 .text.TCPIP_HEAP_CreateInternal
                0x000141b4       0xbc build/default/debug/_ext/1033058136/tcpip_heap_internal.o
                0x000141b4                TCPIP_HEAP_CreateInternal

.text.TCPIP_STACK_KillStack%297
                0x00014270       0xbc
 .text.TCPIP_STACK_KillStack
                0x00014270       0xbc build/default/debug/_ext/1033058136/tcpip_manager.o

.rodata.cvt2.8310%298
                0x0001432c       0xbc
 .rodata.cvt2.8310
                0x0001432c       0xbc build/default/debug/_ext/411819097/ffunicode.o

.text._GetMaxSegSizeOption%299
                0x000143e8       0xba
 .text._GetMaxSegSizeOption
                0x000143e8       0xba build/default/debug/_ext/1033058136/tcp.o

.text.TCPIP_IPV4_ArpHandler%300
                0x000144a4       0xb8
 .text.TCPIP_IPV4_ArpHandler
                0x000144a4       0xb8 build/default/debug/_ext/1033058136/ipv4.o

.text._UDPv4TxAckFnc%301
                0x0001455c       0xb8
 .text._UDPv4TxAckFnc
                0x0001455c       0xb8 build/default/debug/_ext/1033058136/udp.o

.text._ARPSendIfPkt%302
                0x00014614       0xb4
 .text._ARPSendIfPkt
                0x00014614       0xb4 build/default/debug/_ext/1033058136/arp.o

.text.ff_wtoupper%303
                0x000146c8       0xb4
 .text.ff_wtoupper
                0x000146c8       0xb4 build/default/debug/_ext/411819097/ffunicode.o
                0x000146c8                ff_wtoupper

.text.SYS_TIME_HwTimerCompareUpdate%304
                0x0001477c       0xb4
 .text.SYS_TIME_HwTimerCompareUpdate
                0x0001477c       0xb4 build/default/debug/_ext/101884895/sys_time.o

.text.dir_sdi%305
                0x00014830       0xb0
 .text.dir_sdi  0x00014830       0xb0 build/default/debug/_ext/411819097/ff.o

.text.SYS_TIME_TimerObjectCreate%306
                0x000148e0       0xb0
 .text.SYS_TIME_TimerObjectCreate
                0x000148e0       0xb0 build/default/debug/_ext/101884895/sys_time.o

.text.NET_PRES_SocketClose%307
                0x00014990       0xac
 .text.NET_PRES_SocketClose
                0x00014990       0xac build/default/debug/_ext/1508031553/net_pres.o
                0x00014990                NET_PRES_SocketClose

.text.NET_PRES_SocketReadIsReady%308
                0x00014a3c       0xac
 .text.NET_PRES_SocketReadIsReady
                0x00014a3c       0xac build/default/debug/_ext/1508031553/net_pres.o
                0x00014a3c                NET_PRES_SocketReadIsReady

.text.PORT_Initialize%309
                0x00014ae8       0xac
 .text.PORT_Initialize
                0x00014ae8       0xac build/default/debug/_ext/1865521619/plib_port.o
                0x00014ae8                PORT_Initialize

.text._TcpDisconnect%310
                0x00014b94       0xaa
 .text._TcpDisconnect
                0x00014b94       0xaa build/default/debug/_ext/1033058136/tcp.o

.text._DRV_ETHPHY_SetupPhaseReset%311
                0x00014c40       0xa8
 .text._DRV_ETHPHY_SetupPhaseReset
                0x00014c40       0xa8 build/default/debug/_ext/444070925/drv_ethphy.o

.text.TCPIP_TCP_ServerOpen%312
                0x00014ce8       0xa8
 .text.TCPIP_TCP_ServerOpen
                0x00014ce8       0xa8 build/default/debug/_ext/1033058136/tcp.o
                0x00014ce8                TCPIP_TCP_ServerOpen

.rodata%313     0x00014d90       0xa8
 .rodata        0x00014d90       0xa8 build/default/debug/_ext/1360937237/app.o

.text.__fmt_d%314
                0x00014e38       0xa8
 .text.__fmt_d  0x00014e38       0xa8 c:/program files/microchip/xc32/v4.00/bin/bin/../../lib/gcc/pic32c/8.3.1/../../../../pic32c/lib/thumb/v7e-m+fp/hard\libg-musl.a(__fmt_d.o)
                0x00014e38                __fmt_d
                0x00014e38                __fmt_d_needed

.text.TCPIP_UDP_RemoteBind%315
                0x00014ee0       0xa6
 .text.TCPIP_UDP_RemoteBind
                0x00014ee0       0xa6 build/default/debug/_ext/1033058136/udp.o
                0x00014ee0                TCPIP_UDP_RemoteBind

.text.DRV_MIIM_Setup%316
                0x00014f88       0xa4
 .text.DRV_MIIM_Setup
                0x00014f88       0xa4 build/default/debug/_ext/438849557/drv_miim.o
                0x00014f88                DRV_MIIM_Setup

.text.SYS_TIME_Initialize%317
                0x0001502c       0xa4
 .text.SYS_TIME_Initialize
                0x0001502c       0xa4 build/default/debug/_ext/101884895/sys_time.o
                0x0001502c                SYS_TIME_Initialize

.text._DRV_ETHPHY_SetupPhaseNegotiate_SubPhase0%318
                0x000150d0       0xa2
 .text._DRV_ETHPHY_SetupPhaseNegotiate_SubPhase0
                0x000150d0       0xa2 build/default/debug/_ext/444070925/drv_ethphy.o

.text.f_getlabel%319
                0x00015172       0xa2
 .text.f_getlabel
                0x00015172       0xa2 build/default/debug/_ext/411819097/ff.o
                0x00015172                f_getlabel

.text._ARPDeleteResources%320
                0x00015214       0xa0
 .text._ARPDeleteResources
                0x00015214       0xa0 build/default/debug/_ext/1033058136/arp.o

.text.NET_PRES_SocketSignalHandlerDeregister%321
                0x000152b4       0xa0
 .text.NET_PRES_SocketSignalHandlerDeregister
                0x000152b4       0xa0 build/default/debug/_ext/1508031553/net_pres.o
                0x000152b4                NET_PRES_SocketSignalHandlerDeregister

.text._UDPv4AllocateSktTxBuffer%322
                0x00015354       0xa0
 .text._UDPv4AllocateSktTxBuffer
                0x00015354       0xa0 build/default/debug/_ext/1033058136/udp.o

.text.TCPIP_UDP_Disconnect%323
                0x000153f4       0xa0
 .text.TCPIP_UDP_Disconnect
                0x000153f4       0xa0 build/default/debug/_ext/1033058136/udp.o
                0x000153f4                TCPIP_UDP_Disconnect

.text.__pop_int%324
                0x00015494       0xa0
 .text.__pop_int
                0x00015494       0xa0 c:/program files/microchip/xc32/v4.00/bin/bin/../../lib/gcc/pic32c/8.3.1/../../../../pic32c/lib/thumb/v7e-m+fp/hard\libg-musl.a(__pop_int.o)
                0x00015494                __pop_int_needed
                0x00015494                __pop_int

.text._DRV_PHY_SMITransferStart%325
                0x00015534       0x9e
 .text._DRV_PHY_SMITransferStart
                0x00015534       0x9e build/default/debug/_ext/444070925/drv_ethphy.o

.text.DRV_SDMMC_Close%326
                0x000155d4       0x9c
 .text.DRV_SDMMC_Close
                0x000155d4       0x9c build/default/debug/_ext/20954303/drv_sdmmc.o
                0x000155d4                DRV_SDMMC_Close

.text.NET_PRES_SocketSignalHandlerRegister%327
                0x00015670       0x9c
 .text.NET_PRES_SocketSignalHandlerRegister
                0x00015670       0x9c build/default/debug/_ext/1508031553/net_pres.o
                0x00015670                NET_PRES_SocketSignalHandlerRegister

.text.f_sync%328
                0x0001570c       0x9c
 .text.f_sync   0x0001570c       0x9c build/default/debug/_ext/411819097/ff.o
                0x0001570c                f_sync

.text.FATFS_unmount%329
                0x000157a8       0x9c
 .text.FATFS_unmount
                0x000157a8       0x9c build/default/debug/_ext/1269487135/sys_fs_fat_interface.o
                0x000157a8                FATFS_unmount

.text._DRV_ETHPHY_SetupPhaseDetect%330
                0x00015844       0x98
 .text._DRV_ETHPHY_SetupPhaseDetect
                0x00015844       0x98 build/default/debug/_ext/444070925/drv_ethphy.o

.text.DRV_GMAC_StatisticsGet%331
                0x000158dc       0x98
 .text.DRV_GMAC_StatisticsGet
                0x000158dc       0x98 build/default/debug/_ext/1546807373/drv_gmac.o
                0x000158dc                DRV_GMAC_StatisticsGet

.text.DRV_MIIM_OperationResult%332
                0x00015974       0x98
 .text.DRV_MIIM_OperationResult
                0x00015974       0x98 build/default/debug/_ext/438849557/drv_miim.o
                0x00015974                DRV_MIIM_OperationResult

.text.TCPIP_Helper_StringToMACAddress%333
                0x00015a0c       0x98
 .text.TCPIP_Helper_StringToMACAddress
                0x00015a0c       0x98 build/default/debug/_ext/1033058136/tcpip_helpers.o
                0x00015a0c                TCPIP_Helper_StringToMACAddress

.text.NET_PRES_SocketWrite%334
                0x00015aa4       0x98
 .text.NET_PRES_SocketWrite
                0x00015aa4       0x98 build/default/debug/_ext/1508031553/net_pres.o
                0x00015aa4                NET_PRES_SocketWrite

.text.SYS_Initialize%335
                0x00015b3c       0x98
 .text.SYS_Initialize
                0x00015b3c       0x98 build/default/debug/_ext/1171490990/initialization.o
                0x00015b3c                SYS_Initialize

.text.DRV_PIC32CGMAC_LibInitTransfer%336
                0x00015bd4       0x94
 .text.DRV_PIC32CGMAC_LibInitTransfer
                0x00015bd4       0x94 build/default/debug/_ext/1546807373/drv_gmac_lib_samE5x.o
                0x00015bd4                DRV_PIC32CGMAC_LibInitTransfer

.text.TCPIP_ARP_IsResolved%337
                0x00015c68       0x94
 .text.TCPIP_ARP_IsResolved
                0x00015c68       0x94 build/default/debug/_ext/1033058136/arp.o
                0x00015c68                TCPIP_ARP_IsResolved

.text.remove_chain%338
                0x00015cfc       0x94
 .text.remove_chain
                0x00015cfc       0x94 build/default/debug/_ext/411819097/ff.o

.text.f_opendir%339
                0x00015d90       0x92
 .text.f_opendir
                0x00015d90       0x92 build/default/debug/_ext/411819097/ff.o
                0x00015d90                f_opendir

.text.TCPIP_STACK_Initialize%340
                0x00015e24       0x90
 .text.TCPIP_STACK_Initialize
                0x00015e24       0x90 build/default/debug/_ext/1033058136/tcpip_manager.o
                0x00015e24                TCPIP_STACK_Initialize

.text.TCPIP_FTP_Cleanup%341
                0x00015eb4       0x90
 .text.TCPIP_FTP_Cleanup
                0x00015eb4       0x90 build/default/debug/_ext/1033058136/ftp.o

.text.SYS_TIME_AddToList%342
                0x00015f44       0x90
 .text.SYS_TIME_AddToList
                0x00015f44       0x90 build/default/debug/_ext/101884895/sys_time.o

.text.NVIC_Initialize%343
                0x00015fd4       0x8c
 .text.NVIC_Initialize
                0x00015fd4       0x8c build/default/debug/_ext/1865468468/plib_nvic.o
                0x00015fd4                NVIC_Initialize

.text.sync_fs%344
                0x00016060       0x8c
 .text.sync_fs  0x00016060       0x8c build/default/debug/_ext/411819097/ff.o

.text.SYS_FS_FileStat%345
                0x000160ec       0x8c
 .text.SYS_FS_FileStat
                0x000160ec       0x8c build/default/debug/_ext/1269487135/sys_fs.o
                0x000160ec                SYS_FS_FileStat

.text.Reset_Handler%346
                0x00016178       0x8c
 .text.Reset_Handler
                0x00016178       0x8c build/default/debug/_ext/1171490990/startup_xc32.o
                0x00016178                Reset_Handler

.text._UDPsetPacketInfo%347
                0x00016204       0x8c
 .text._UDPsetPacketInfo
                0x00016204       0x8c build/default/debug/_ext/1033058136/udp.o

.text._OAHashFindBkt%348
                0x00016290       0x88
 .text._OAHashFindBkt
                0x00016290       0x88 build/default/debug/_ext/1033058136/oahash.o

.text.SYS_FS_DirectoryMake%349
                0x00016318       0x88
 .text.SYS_FS_DirectoryMake
                0x00016318       0x88 build/default/debug/_ext/1269487135/sys_fs.o
                0x00016318                SYS_FS_DirectoryMake

.text.SYS_FS_FileDirectoryRemove%350
                0x000163a0       0x88
 .text.SYS_FS_FileDirectoryRemove
                0x000163a0       0x88 build/default/debug/_ext/1269487135/sys_fs.o
                0x000163a0                SYS_FS_FileDirectoryRemove

.rodata.FatFsFunctions%351
                0x00016428       0x88
 .rodata.FatFsFunctions
                0x00016428       0x88 build/default/debug/_ext/1171490990/initialization.o
                0x00016428                FatFsFunctions

.text.__pic32c_data_initialization%352
                0x000164b0       0x88
 .text.__pic32c_data_initialization
                0x000164b0       0x88 c:/program files/microchip/xc32/v4.00/bin/bin/../../lib/gcc/pic32c/8.3.1/../../../../pic32c/lib/thumb/v7e-m+fp/hard\libpic32c.a(data_init.o)
                0x000164b0                __pic32c_data_initialization

.text.TCPIP_IPV4_MacPacketSwitchTxToRx%353
                0x00016538       0x84
 .text.TCPIP_IPV4_MacPacketSwitchTxToRx
                0x00016538       0x84 build/default/debug/_ext/1033058136/ipv4.o
                0x00016538                TCPIP_IPV4_MacPacketSwitchTxToRx

.text._TCPIP_PKT_PacketAlloc%354
                0x000165bc       0x84
 .text._TCPIP_PKT_PacketAlloc
                0x000165bc       0x84 build/default/debug/_ext/1033058136/tcpip_packet.o
                0x000165bc                _TCPIP_PKT_PacketAlloc

.text.DRV_PIC32CGMAC_LibTxAckErrPacket%355
                0x00016640       0x82
 .text.DRV_PIC32CGMAC_LibTxAckErrPacket
                0x00016640       0x82 build/default/debug/_ext/1546807373/drv_gmac_lib_samE5x.o
                0x00016640                DRV_PIC32CGMAC_LibTxAckErrPacket

.text._DNS_ValidateIf%356
                0x000166c2       0x82
 .text._DNS_ValidateIf
                0x000166c2       0x82 build/default/debug/_ext/1033058136/dns.o

.text.TCPIP_Helper_PacketChecksum%357
                0x00016744       0x82
 .text.TCPIP_Helper_PacketChecksum
                0x00016744       0x82 build/default/debug/_ext/1033058136/tcpip_helpers.o
                0x00016744                TCPIP_Helper_PacketChecksum

.text.DRV_ETHPHY_VendorSMIReadStart%358
                0x000167c8       0x80
 .text.DRV_ETHPHY_VendorSMIReadStart
                0x000167c8       0x80 build/default/debug/_ext/444070925/drv_ethphy.o
                0x000167c8                DRV_ETHPHY_VendorSMIReadStart

.text.DRV_ETHPHY_VendorSMIWriteStart%359
                0x00016848       0x80
 .text.DRV_ETHPHY_VendorSMIWriteStart
                0x00016848       0x80 build/default/debug/_ext/444070925/drv_ethphy.o
                0x00016848                DRV_ETHPHY_VendorSMIWriteStart

.text.DRV_MIIM_Open%360
                0x000168c8       0x80
 .text.DRV_MIIM_Open
                0x000168c8       0x80 build/default/debug/_ext/438849557/drv_miim.o
                0x000168c8                DRV_MIIM_Open

.rodata.ExCvt%361
                0x00016948       0x80
 .rodata.ExCvt  0x00016948       0x80 build/default/debug/_ext/411819097/ff.o

.text.TCP_SocketWasReset%362
                0x000169c8       0x80
 .text.TCP_SocketWasReset
                0x000169c8       0x80 build/default/debug/_ext/1033058136/berkeley_api.o

.text.BerkeleySocketDeInit%363
                0x00016a48       0x80
 .text.BerkeleySocketDeInit
                0x00016a48       0x80 build/default/debug/_ext/1033058136/berkeley_api.o
                0x00016a48                BerkeleySocketDeInit

.text.__pad%364
                0x00016ac8       0x7e
 .text.__pad    0x00016ac8       0x7e c:/program files/microchip/xc32/v4.00/bin/bin/../../lib/gcc/pic32c/8.3.1/../../../../pic32c/lib/thumb/v7e-m+fp/hard\libg-musl.a(__printf_core.o)
                0x00016ac8                __pad

.text.DRV_ETHPHY_VendorSMIReadResultGet%365
                0x00016b48       0x7c
 .text.DRV_ETHPHY_VendorSMIReadResultGet
                0x00016b48       0x7c build/default/debug/_ext/444070925/drv_ethphy.o
                0x00016b48                DRV_ETHPHY_VendorSMIReadResultGet

.text.DRV_PIC32CGMAC_LibInit%366
                0x00016bc4       0x7c
 .text.DRV_PIC32CGMAC_LibInit
                0x00016bc4       0x7c build/default/debug/_ext/1546807373/drv_gmac_lib_samE5x.o
                0x00016bc4                DRV_PIC32CGMAC_LibInit

.text.SERCOM1_USART_Initialize%367
                0x00016c40       0x7c
 .text.SERCOM1_USART_Initialize
                0x00016c40       0x7c build/default/debug/_ext/504274921/plib_sercom1_usart.o
                0x00016c40                SERCOM1_USART_Initialize

.text.SERCOM1_USART_Read%368
                0x00016cbc       0x7c
 .text.SERCOM1_USART_Read
                0x00016cbc       0x7c build/default/debug/_ext/504274921/plib_sercom1_usart.o
                0x00016cbc                SERCOM1_USART_Read

.text.FATFS_mount%369
                0x00016d38       0x7c
 .text.FATFS_mount
                0x00016d38       0x7c build/default/debug/_ext/1269487135/sys_fs_fat_interface.o
                0x00016d38                FATFS_mount

.text.__pop_ptr%370
                0x00016db4       0x7c
 .text.__pop_ptr
                0x00016db4       0x7c c:/program files/microchip/xc32/v4.00/bin/bin/../../lib/gcc/pic32c/8.3.1/../../../../pic32c/lib/thumb/v7e-m+fp/hard\libg-musl.a(__pop_ptr.o)
                0x00016db4                __pop_ptr
                0x00016db4                __pop_ptr_needed

.text.TCPIP_TCP_SocketInfoGet%371
                0x00016e30       0x7a
 .text.TCPIP_TCP_SocketInfoGet
                0x00016e30       0x7a build/default/debug/_ext/1033058136/tcp.o
                0x00016e30                TCPIP_TCP_SocketInfoGet

.text._DRV_ETHPHY_SetupPhaseNegotiate_SubPhase4%372
                0x00016eaa       0x78
 .text._DRV_ETHPHY_SetupPhaseNegotiate_SubPhase4
                0x00016eaa       0x78 build/default/debug/_ext/444070925/drv_ethphy.o

.text.DRV_PIC32CGMAC_LibTxInit%373
                0x00016f24       0x78
 .text.DRV_PIC32CGMAC_LibTxInit
                0x00016f24       0x78 build/default/debug/_ext/1546807373/drv_gmac_lib_samE5x.o
                0x00016f24                DRV_PIC32CGMAC_LibTxInit

.rodata%374     0x00016f9c       0x78
 .rodata        0x00016f9c       0x78 build/default/debug/_ext/1033058136/ipv4.o

.text.TCPIP_Helper_PacketCopy%375
                0x00017014       0x78
 .text.TCPIP_Helper_PacketCopy
                0x00017014       0x78 build/default/debug/_ext/1033058136/tcpip_helpers.o
                0x00017014                TCPIP_Helper_PacketCopy

.text.SYS_FS_FileWrite%376
                0x0001708c       0x78
 .text.SYS_FS_FileWrite
                0x0001708c       0x78 build/default/debug/_ext/1269487135/sys_fs.o
                0x0001708c                SYS_FS_FileWrite

.rodata%377     0x00017104       0x78
 .rodata        0x00017104       0x78 build/default/debug/_ext/1171490990/initialization.o

.text.__cvt_u%378
                0x0001717c       0x78
 .text.__cvt_u  0x0001717c       0x78 c:/program files/microchip/xc32/v4.00/bin/bin/../../lib/gcc/pic32c/8.3.1/../../../../pic32c/lib/thumb/v7e-m+fp/hard\libg-musl.a(__fmt_u.o)
                0x0001717c                __cvt_u

.text._DRV_GMAC_LinkStateNegResult%379
                0x000171f4       0x76
 .text._DRV_GMAC_LinkStateNegResult
                0x000171f4       0x76 build/default/debug/_ext/1546807373/drv_gmac.o

.text._ARPUpdateEntry%380
                0x0001726c       0x74
 .text._ARPUpdateEntry
                0x0001726c       0x74 build/default/debug/_ext/1033058136/arp.o

.text.TCPIP_ARP_EntryRemove%381
                0x000172e0       0x74
 .text.TCPIP_ARP_EntryRemove
                0x000172e0       0x74 build/default/debug/_ext/1033058136/arp.o
                0x000172e0                TCPIP_ARP_EntryRemove

.text.inc_lock%382
                0x00017354       0x74
 .text.inc_lock
                0x00017354       0x74 build/default/debug/_ext/411819097/ff.o

.text.SYS_FS_FileRead%383
                0x000173c8       0x74
 .text.SYS_FS_FileRead
                0x000173c8       0x74 build/default/debug/_ext/1269487135/sys_fs.o
                0x000173c8                SYS_FS_FileRead

.text.TCPIP_PKT_DataSegmentGet%384
                0x0001743c       0x72
 .text.TCPIP_PKT_DataSegmentGet
                0x0001743c       0x72 build/default/debug/_ext/1033058136/tcpip_packet.o
                0x0001743c                TCPIP_PKT_DataSegmentGet

.text.__fmt_o%385
                0x000174ae       0x72
 .text.__fmt_o  0x000174ae       0x72 c:/program files/microchip/xc32/v4.00/bin/bin/../../lib/gcc/pic32c/8.3.1/../../../../pic32c/lib/thumb/v7e-m+fp/hard\libg-musl.a(__fmt_o.o)
                0x000174ae                __fmt_o
                0x000174ae                __fmt_o_needed

.text._DRV_ETHPHY_NegCompletePhaseAN_Restart%386
                0x00017520       0x70
 .text._DRV_ETHPHY_NegCompletePhaseAN_Restart
                0x00017520       0x70 build/default/debug/_ext/444070925/drv_ethphy.o

.text.DRV_GMAC_EventAcknowledge%387
                0x00017590       0x70
 .text.DRV_GMAC_EventAcknowledge
                0x00017590       0x70 build/default/debug/_ext/1546807373/drv_gmac.o
                0x00017590                DRV_GMAC_EventAcknowledge

.text.DRV_GMAC_Tasks_ISR%388
                0x00017600       0x70
 .text.DRV_GMAC_Tasks_ISR
                0x00017600       0x70 build/default/debug/_ext/1546807373/drv_gmac.o
                0x00017600                DRV_GMAC_Tasks_ISR

.text.TCPIP_IPV4_Cleanup%389
                0x00017670       0x70
 .text.TCPIP_IPV4_Cleanup
                0x00017670       0x70 build/default/debug/_ext/1033058136/ipv4.o

.text.TCPIP_Helper_CalcIPChecksum%390
                0x000176e0       0x70
 .text.TCPIP_Helper_CalcIPChecksum
                0x000176e0       0x70 build/default/debug/_ext/1033058136/tcpip_helpers.o
                0x000176e0                TCPIP_Helper_CalcIPChecksum

.rodata.sTCPIPFTPCmdString%391
                0x00017750       0x70
 .rodata.sTCPIPFTPCmdString
                0x00017750       0x70 build/default/debug/_ext/1033058136/ftp.o

.text.SYS_FS_FileClose%392
                0x000177c0       0x70
 .text.SYS_FS_FileClose
                0x000177c0       0x70 build/default/debug/_ext/1269487135/sys_fs.o
                0x000177c0                SYS_FS_FileClose

.text.SYS_FS_DirClose%393
                0x00017830       0x70
 .text.SYS_FS_DirClose
                0x00017830       0x70 build/default/debug/_ext/1269487135/sys_fs.o
                0x00017830                SYS_FS_DirClose

.text.TCPIP_BSD_Task%394
                0x000178a0       0x70
 .text.TCPIP_BSD_Task
                0x000178a0       0x70 build/default/debug/_ext/1033058136/berkeley_api.o
                0x000178a0                TCPIP_BSD_Task

.text.DRV_PIC32CGMAC_LibMACOpen%395
                0x00017910       0x6c
 .text.DRV_PIC32CGMAC_LibMACOpen
                0x00017910       0x6c build/default/debug/_ext/1546807373/drv_gmac_lib_samE5x.o
                0x00017910                DRV_PIC32CGMAC_LibMACOpen

.text._AllocateRxPacket%396
                0x0001797c       0x6c
 .text._AllocateRxPacket
                0x0001797c       0x6c build/default/debug/_ext/1546807373/drv_gmac_lib_samE5x.o

.text.DRV_MIIM_Initialize%397
                0x000179e8       0x6c
 .text.DRV_MIIM_Initialize
                0x000179e8       0x6c build/default/debug/_ext/438849557/drv_miim.o
                0x000179e8                DRV_MIIM_Initialize

.text._TcpCleanup%398
                0x00017a54       0x6c
 .text._TcpCleanup
                0x00017a54       0x6c build/default/debug/_ext/1033058136/tcp.o

.text._TCPIPStackModuleRxPurge%399
                0x00017ac0       0x6c
 .text._TCPIPStackModuleRxPurge
                0x00017ac0       0x6c build/default/debug/_ext/1033058136/tcpip_manager.o
                0x00017ac0                _TCPIPStackModuleRxPurge

.rodata.TCPIP_STACK_MODULE_ENTRY_TBL%400
                0x00017b2c       0x6c
 .rodata.TCPIP_STACK_MODULE_ENTRY_TBL
                0x00017b2c       0x6c build/default/debug/_ext/1033058136/tcpip_manager.o

.text.SYS_CONSOLE_Print%401
                0x00017b98       0x6c
 .text.SYS_CONSOLE_Print
                0x00017b98       0x6c build/default/debug/_ext/1832805299/sys_console.o
                0x00017b98                SYS_CONSOLE_Print

.text.DRV_ETHPHY_Open%402
                0x00017c04       0x68
 .text.DRV_ETHPHY_Open
                0x00017c04       0x68 build/default/debug/_ext/444070925/drv_ethphy.o
                0x00017c04                DRV_ETHPHY_Open

.text.DRV_GMAC_Process%403
                0x00017c6c       0x68
 .text.DRV_GMAC_Process
                0x00017c6c       0x68 build/default/debug/_ext/1546807373/drv_gmac.o
                0x00017c6c                DRV_GMAC_Process

.text._TcpSwapHeader%404
                0x00017cd4       0x68
 .text._TcpSwapHeader
                0x00017cd4       0x68 build/default/debug/_ext/1033058136/tcp.o

.text._DNS_AddSelectionIf%405
                0x00017d3c       0x68
 .text._DNS_AddSelectionIf
                0x00017d3c       0x68 build/default/debug/_ext/1033058136/dns.o

.text.TCPIP_OAHASH_EntryLookup%406
                0x00017da4       0x68
 .text.TCPIP_OAHASH_EntryLookup
                0x00017da4       0x68 build/default/debug/_ext/1033058136/oahash.o
                0x00017da4                TCPIP_OAHASH_EntryLookup

.text.SDHC1_ModuleInit%407
                0x00017e0c       0x68
 .text.SDHC1_ModuleInit
                0x00017e0c       0x68 build/default/debug/_ext/1865600094/plib_sdhc1.o
                0x00017e0c                SDHC1_ModuleInit

.text.SYS_FS_FileTell%408
                0x00017e74       0x68
 .text.SYS_FS_FileTell
                0x00017e74       0x68 build/default/debug/_ext/1269487135/sys_fs.o
                0x00017e74                SYS_FS_FileTell

.text.SYS_FS_FileSize%409
                0x00017edc       0x68
 .text.SYS_FS_FileSize
                0x00017edc       0x68 build/default/debug/_ext/1269487135/sys_fs.o
                0x00017edc                SYS_FS_FileSize

.text.TCPIP_TCP_ArrayPeek%410
                0x00017f44       0x66
 .text.TCPIP_TCP_ArrayPeek
                0x00017f44       0x66 build/default/debug/_ext/1033058136/tcp.o
                0x00017f44                TCPIP_TCP_ArrayPeek

.text._DRV_ETHPHY_NegResultPhase_BMSTAT%411
                0x00017faa       0x64
 .text._DRV_ETHPHY_NegResultPhase_BMSTAT
                0x00017faa       0x64 build/default/debug/_ext/444070925/drv_ethphy.o

.text._DRV_ETHPHY_ResetPhaseRead%412
                0x0001800e       0x64
 .text._DRV_ETHPHY_ResetPhaseRead
                0x0001800e       0x64 build/default/debug/_ext/444070925/drv_ethphy.o

.text._DRV_ETHPHY_NegCompletePhaseRead2%413
                0x00018074       0x64
 .text._DRV_ETHPHY_NegCompletePhaseRead2
                0x00018074       0x64 build/default/debug/_ext/444070925/drv_ethphy.o

.text.DRV_GMAC_RegisterStatisticsGet%414
                0x000180d8       0x64
 .text.DRV_GMAC_RegisterStatisticsGet
                0x000180d8       0x64 build/default/debug/_ext/1546807373/drv_gmac.o
                0x000180d8                DRV_GMAC_RegisterStatisticsGet

.text._MacRxPacketAck%415
                0x0001813c       0x64
 .text._MacRxPacketAck
                0x0001813c       0x64 build/default/debug/_ext/1546807373/drv_gmac_lib_samE5x.o

.text._DRV_SDMMC_DriverHandleValidate%416
                0x000181a0       0x64
 .text._DRV_SDMMC_DriverHandleValidate
                0x000181a0       0x64 build/default/debug/_ext/20954303/drv_sdmmc.o

.text.TCPIP_OAHASH_EntryLookupOrInsert%417
                0x00018204       0x64
 .text.TCPIP_OAHASH_EntryLookupOrInsert
                0x00018204       0x64 build/default/debug/_ext/1033058136/oahash.o
                0x00018204                TCPIP_OAHASH_EntryLookupOrInsert

.text.TCPIP_STACK_BringNetDown%418
                0x00018268       0x64
 .text.TCPIP_STACK_BringNetDown
                0x00018268       0x64 build/default/debug/_ext/1033058136/tcpip_manager.o

.text._TCPIPStackInsertRxPacket%419
                0x000182cc       0x64
 .text._TCPIPStackInsertRxPacket
                0x000182cc       0x64 build/default/debug/_ext/1033058136/tcpip_manager.o
                0x000182cc                _TCPIPStackInsertRxPacket

.text.f_mount%420
                0x00018330       0x64
 .text.f_mount  0x00018330       0x64 build/default/debug/_ext/411819097/ff.o
                0x00018330                f_mount

.text.TCPIP_UDP_SocketInfoGet%421
                0x00018394       0x64
 .text.TCPIP_UDP_SocketInfoGet
                0x00018394       0x64 build/default/debug/_ext/1033058136/udp.o
                0x00018394                TCPIP_UDP_SocketInfoGet

.text.TCPIP_ARP_EntryGet%422
                0x000183f8       0x62
 .text.TCPIP_ARP_EntryGet
                0x000183f8       0x62 build/default/debug/_ext/1033058136/arp.o
                0x000183f8                TCPIP_ARP_EntryGet

.text._TCPIP_StackSyncFunction%423
                0x0001845a       0x62
 .text._TCPIP_StackSyncFunction
                0x0001845a       0x62 build/default/debug/_ext/1033058136/tcpip_manager.o

.text._DRV_SDMMC_PlibCallbackHandler%424
                0x000184bc       0x60
 .text._DRV_SDMMC_PlibCallbackHandler
                0x000184bc       0x60 build/default/debug/_ext/20954303/drv_sdmmc.o

.text.TCPIP_DNS_ClientDeinitialize%425
                0x0001851c       0x60
 .text.TCPIP_DNS_ClientDeinitialize
                0x0001851c       0x60 build/default/debug/_ext/1033058136/dns.o
                0x0001851c                TCPIP_DNS_ClientDeinitialize

.text.f_chdir%426
                0x0001857c       0x60
 .text.f_chdir  0x0001857c       0x60 build/default/debug/_ext/411819097/ff.o
                0x0001857c                f_chdir

.text.TCP_SignalFunction%427
                0x000185dc       0x60
 .text.TCP_SignalFunction
                0x000185dc       0x60 build/default/debug/_ext/1033058136/berkeley_api.o

.text.vsnprintf%428
                0x0001863c       0x60
 .text.vsnprintf
                0x0001863c       0x60 c:/program files/microchip/xc32/v4.00/bin/bin/../../lib/gcc/pic32c/8.3.1/../../../../pic32c/lib/thumb/v7e-m+fp/hard\libg-musl.a(vsnprintf.o)
                0x0001863c                vsnprintf

.text.__strchrnul%429
                0x0001869c       0x60
 .text.__strchrnul
                0x0001869c       0x60 c:/program files/microchip/xc32/v4.00/bin/bin/../../lib/gcc/pic32c/8.3.1/../../../../pic32c/lib/thumb/v7e-m+fp/hard\libg-musl.a(strchrnul.o)
                0x0001869c                strchrnul
                0x0001869c                __strchrnul

.text.DRV_MIIM_OperationAbort%430
                0x000186fc       0x5e
 .text.DRV_MIIM_OperationAbort
                0x000186fc       0x5e build/default/debug/_ext/438849557/drv_miim.o
                0x000186fc                DRV_MIIM_OperationAbort

.text.f_chmod%431
                0x0001875a       0x5e
 .text.f_chmod  0x0001875a       0x5e build/default/debug/_ext/411819097/ff.o
                0x0001875a                f_chmod

.rodata.DRV_ETHPHY_OBJECT_BASE_Default%432
                0x000187b8       0x5c
 .rodata.DRV_ETHPHY_OBJECT_BASE_Default
                0x000187b8       0x5c build/default/debug/_ext/444070925/drv_ethphy.o
                0x000187b8                DRV_ETHPHY_OBJECT_BASE_Default

.text._DRV_GMAC_LinkStateWaitLinkUp%433
                0x00018814       0x5c
 .text._DRV_GMAC_LinkStateWaitLinkUp
                0x00018814       0x5c build/default/debug/_ext/1546807373/drv_gmac.o

.text._DRV_SDMMC_InitCardContext%434
                0x00018870       0x5c
 .text._DRV_SDMMC_InitCardContext
                0x00018870       0x5c build/default/debug/_ext/20954303/drv_sdmmc.o

.text._TcpClientSocketConnect%435
                0x000188cc       0x5c
 .text._TcpClientSocketConnect
                0x000188cc       0x5c build/default/debug/_ext/1033058136/tcp.o

.text._TCPIP_SelectDefaultNet%436
                0x00018928       0x5c
 .text._TCPIP_SelectDefaultNet
                0x00018928       0x5c build/default/debug/_ext/1033058136/tcpip_manager.o

.rodata.sTCPIPFTPRespStr%437
                0x00018984       0x5c
 .rodata.sTCPIPFTPRespStr
                0x00018984       0x5c build/default/debug/_ext/1033058136/ftp.o

.text.chk_lock%438
                0x000189e0       0x5c
 .text.chk_lock
                0x000189e0       0x5c build/default/debug/_ext/411819097/ff.o

.text.get_ldnumber%439
                0x00018a3c       0x5c
 .text.get_ldnumber
                0x00018a3c       0x5c build/default/debug/_ext/411819097/ff.o

.text.dir_clear%440
                0x00018a98       0x5c
 .text.dir_clear
                0x00018a98       0x5c build/default/debug/_ext/411819097/ff.o

.text.dir_remove%441
                0x00018af4       0x5c
 .text.dir_remove
                0x00018af4       0x5c build/default/debug/_ext/411819097/ff.o

.text.f_utime%442
                0x00018b50       0x5c
 .text.f_utime  0x00018b50       0x5c build/default/debug/_ext/411819097/ff.o
                0x00018b50                f_utime

.text.SYS_FS_Initialize%443
                0x00018bac       0x5c
 .text.SYS_FS_Initialize
                0x00018bac       0x5c build/default/debug/_ext/1269487135/sys_fs.o
                0x00018bac                SYS_FS_Initialize

.text.SYS_FS_FileEOF%444
                0x00018c08       0x5c
 .text.SYS_FS_FileEOF
                0x00018c08       0x5c build/default/debug/_ext/1269487135/sys_fs.o
                0x00018c08                SYS_FS_FileEOF

.text.FATFS_open%445
                0x00018c64       0x5c
 .text.FATFS_open
                0x00018c64       0x5c build/default/debug/_ext/1269487135/sys_fs_fat_interface.o
                0x00018c64                FATFS_open

.text.SYS_TIME_RemoveFromList%446
                0x00018cc0       0x5c
 .text.SYS_TIME_RemoveFromList
                0x00018cc0       0x5c build/default/debug/_ext/101884895/sys_time.o

.text.__libc_start_init%447
                0x00018d1c       0x5c
 .text.__libc_start_init
                0x00018d1c       0x5c c:/program files/microchip/xc32/v4.00/bin/bin/../../lib/gcc/pic32c/8.3.1/../../../../pic32c/lib/thumb/v7e-m+fp/hard\libg-musl.a(__libc_start_main.o)
                0x00018d1c                __libc_init_array

.rodata%448     0x00018d78       0x5c
 .rodata        0x00018d78       0x5c c:/program files/microchip/xc32/v4.00/bin/bin/../../lib/gcc/pic32c/8.3.1/../../../../pic32c/lib/thumb/v7e-m+fp/hard\libg-musl.a(malloc.o)

.text.DRV_PIC32CGMAC_LibRxBuffersCountGet%449
                0x00018dd4       0x5a
 .text.DRV_PIC32CGMAC_LibRxBuffersCountGet
                0x00018dd4       0x5a build/default/debug/_ext/1546807373/drv_gmac_lib_samE5x.o
                0x00018dd4                DRV_PIC32CGMAC_LibRxBuffersCountGet

.text.f_gets%450
                0x00018e2e       0x5a
 .text.f_gets   0x00018e2e       0x5a build/default/debug/_ext/411819097/ff.o
                0x00018e2e                f_gets

.text.TCPIP_UDP_BcastIPV4AddressSet%451
                0x00018e88       0x5a
 .text.TCPIP_UDP_BcastIPV4AddressSet
                0x00018e88       0x5a build/default/debug/_ext/1033058136/udp.o
                0x00018e88                TCPIP_UDP_BcastIPV4AddressSet

.text.DRV_ETHPHY_Initialize%452
                0x00018ee4       0x58
 .text.DRV_ETHPHY_Initialize
                0x00018ee4       0x58 build/default/debug/_ext/444070925/drv_ethphy.o
                0x00018ee4                DRV_ETHPHY_Initialize

.text.DRV_GMAC_RxFilterHashTableEntrySet%453
                0x00018f3c       0x58
 .text.DRV_GMAC_RxFilterHashTableEntrySet
                0x00018f3c       0x58 build/default/debug/_ext/1546807373/drv_gmac.o
                0x00018f3c                DRV_GMAC_RxFilterHashTableEntrySet

.rodata.DRV_GMAC_Object%454
                0x00018f94       0x58
 .rodata.DRV_GMAC_Object
                0x00018f94       0x58 build/default/debug/_ext/1546807373/drv_gmac.o
                0x00018f94                DRV_GMAC_Object

.text.DRV_SDMMC_CommandStatus%455
                0x00018fec       0x58
 .text.DRV_SDMMC_CommandStatus
                0x00018fec       0x58 build/default/debug/_ext/20954303/drv_sdmmc.o
                0x00018fec                DRV_SDMMC_CommandStatus

.text._DNS_Enable%456
                0x00019044       0x58
 .text._DNS_Enable
                0x00019044       0x58 build/default/debug/_ext/1033058136/dns.o

.text._TCPIPStackIpAddFromAnyNet%457
                0x0001909c       0x58
 .text._TCPIPStackIpAddFromAnyNet
                0x0001909c       0x58 build/default/debug/_ext/1033058136/tcpip_manager.o
                0x0001909c                _TCPIPStackIpAddFromAnyNet

.text._FTPSocketRxSignalHandler%458
                0x000190f4       0x58
 .text._FTPSocketRxSignalHandler
                0x000190f4       0x58 build/default/debug/_ext/1033058136/ftp.o

.text.NET_PRES_SocketOptionsSet%459
                0x0001914c       0x58
 .text.NET_PRES_SocketOptionsSet
                0x0001914c       0x58 build/default/debug/_ext/1508031553/net_pres.o
                0x0001914c                NET_PRES_SocketOptionsSet

.text.NET_PRES_SocketIsConnected%460
                0x000191a4       0x58
 .text.NET_PRES_SocketIsConnected
                0x000191a4       0x58 build/default/debug/_ext/1508031553/net_pres.o
                0x000191a4                NET_PRES_SocketIsConnected

.text.NET_PRES_SocketWasReset%461
                0x000191fc       0x58
 .text.NET_PRES_SocketWasReset
                0x000191fc       0x58 build/default/debug/_ext/1508031553/net_pres.o
                0x000191fc                NET_PRES_SocketWasReset

.text.NET_PRES_SocketWasDisconnected%462
                0x00019254       0x58
 .text.NET_PRES_SocketWasDisconnected
                0x00019254       0x58 build/default/debug/_ext/1508031553/net_pres.o
                0x00019254                NET_PRES_SocketWasDisconnected

.text.NET_PRES_SocketConnect%463
                0x000192ac       0x58
 .text.NET_PRES_SocketConnect
                0x000192ac       0x58 build/default/debug/_ext/1508031553/net_pres.o
                0x000192ac                NET_PRES_SocketConnect

.text.NET_PRES_SocketInfoGet%464
                0x00019304       0x58
 .text.NET_PRES_SocketInfoGet
                0x00019304       0x58 build/default/debug/_ext/1508031553/net_pres.o
                0x00019304                NET_PRES_SocketInfoGet

.text.NET_PRES_SocketFlush%465
                0x0001935c       0x58
 .text.NET_PRES_SocketFlush
                0x0001935c       0x58 build/default/debug/_ext/1508031553/net_pres.o
                0x0001935c                NET_PRES_SocketFlush

.text.NET_PRES_SocketDiscard%466
                0x000193b4       0x58
 .text.NET_PRES_SocketDiscard
                0x000193b4       0x58 build/default/debug/_ext/1508031553/net_pres.o
                0x000193b4                NET_PRES_SocketDiscard

.text.SYS_TIME_TimerAdd%467
                0x0001940c       0x58
 .text.SYS_TIME_TimerAdd
                0x0001940c       0x58 build/default/debug/_ext/101884895/sys_time.o

.text.SYS_TIME_TimerStart%468
                0x00019464       0x58
 .text.SYS_TIME_TimerStart
                0x00019464       0x58 build/default/debug/_ext/101884895/sys_time.o
                0x00019464                SYS_TIME_TimerStart

.rodata.TCPIP_STACK_MODULE_CONFIG_TBL%469
                0x000194bc       0x58
 .rodata.TCPIP_STACK_MODULE_CONFIG_TBL
                0x000194bc       0x58 build/default/debug/_ext/1171490990/initialization.o
                0x000194bc                TCPIP_STACK_MODULE_CONFIG_TBL

.rodata.netPresTransObject0DC%470
                0x00019514       0x58
 .rodata.netPresTransObject0DC
                0x00019514       0x58 build/default/debug/_ext/1171490990/initialization.o

.rodata.netPresTransObject0DS%471
                0x0001956c       0x58
 .rodata.netPresTransObject0DS
                0x0001956c       0x58 build/default/debug/_ext/1171490990/initialization.o

.rodata.netPresTransObject0SC%472
                0x000195c4       0x58
 .rodata.netPresTransObject0SC
                0x000195c4       0x58 build/default/debug/_ext/1171490990/initialization.o

.rodata.netPresTransObject0SS%473
                0x0001961c       0x58
 .rodata.netPresTransObject0SS
                0x0001961c       0x58 build/default/debug/_ext/1171490990/initialization.o

.text.unbin%474
                0x00019674       0x58
 .text.unbin    0x00019674       0x58 c:/program files/microchip/xc32/v4.00/bin/bin/../../lib/gcc/pic32c/8.3.1/../../../../pic32c/lib/thumb/v7e-m+fp/hard\libg-musl.a(malloc.o)

.text.__fmt_s%475
                0x000196cc       0x58
 .text.__fmt_s  0x000196cc       0x58 c:/program files/microchip/xc32/v4.00/bin/bin/../../lib/gcc/pic32c/8.3.1/../../../../pic32c/lib/thumb/v7e-m+fp/hard\libg-musl.a(__fmt_s.o)
                0x000196cc                __fmt_s
                0x000196cc                __fmt_0_needed
                0x000196cc                __fmt_s_needed

.text.__fmt_u%476
                0x00019724       0x56
 .text.__fmt_u  0x00019724       0x56 c:/program files/microchip/xc32/v4.00/bin/bin/../../lib/gcc/pic32c/8.3.1/../../../../pic32c/lib/thumb/v7e-m+fp/hard\libg-musl.a(__fmt_u.o)
                0x00019724                __fmt_u_needed
                0x00019724                __fmt_u

.text._DRV_PHY_SMITransferWaitComplete%477
                0x0001977a       0x54
 .text._DRV_PHY_SMITransferWaitComplete
                0x0001977a       0x54 build/default/debug/_ext/444070925/drv_ethphy.o

.text._ARPNotifyClients%478
                0x000197d0       0x54
 .text._ARPNotifyClients
                0x000197d0       0x54 build/default/debug/_ext/1033058136/arp.o

.text._DNS_DeleteHash%479
                0x00019824       0x54
 .text._DNS_DeleteHash
                0x00019824       0x54 build/default/debug/_ext/1033058136/dns.o

.text._TCPIPStackAnyNetLinked%480
                0x00019878       0x54
 .text._TCPIPStackAnyNetLinked
                0x00019878       0x54 build/default/debug/_ext/1033058136/tcpip_manager.o
                0x00019878                _TCPIPStackAnyNetLinked

.text.NET_PRES_SocketBind%481
                0x000198cc       0x54
 .text.NET_PRES_SocketBind
                0x000198cc       0x54 build/default/debug/_ext/1508031553/net_pres.o
                0x000198cc                NET_PRES_SocketBind

.text.NET_PRES_SocketRemoteBind%482
                0x00019920       0x54
 .text.NET_PRES_SocketRemoteBind
                0x00019920       0x54 build/default/debug/_ext/1508031553/net_pres.o
                0x00019920                NET_PRES_SocketRemoteBind

.text.SYS_CONSOLE_Initialize%483
                0x00019974       0x54
 .text.SYS_CONSOLE_Initialize
                0x00019974       0x54 build/default/debug/_ext/1832805299/sys_console.o
                0x00019974                SYS_CONSOLE_Initialize

.text.dir_alloc%484
                0x000199c8       0x54
 .text.dir_alloc
                0x000199c8       0x54 build/default/debug/_ext/411819097/ff.o

.rodata%485     0x00019a1c       0x54
 .rodata        0x00019a1c       0x54 build/default/debug/_ext/411819097/ff.o

.text.SYS_FS_MEDIA_MANAGER_SectorRead%486
                0x00019a70       0x54
 .text.SYS_FS_MEDIA_MANAGER_SectorRead
                0x00019a70       0x54 build/default/debug/_ext/1269487135/sys_fs_media_manager.o
                0x00019a70                SYS_FS_MEDIA_MANAGER_SectorRead

.text.SYS_TIME_CallbackRegisterMS%487
                0x00019ac4       0x54
 .text.SYS_TIME_CallbackRegisterMS
                0x00019ac4       0x54 build/default/debug/_ext/101884895/sys_time.o
                0x00019ac4                SYS_TIME_CallbackRegisterMS

.text.TCPIP_UDP_PutIsReady%488
                0x00019b18       0x54
 .text.TCPIP_UDP_PutIsReady
                0x00019b18       0x54 build/default/debug/_ext/1033058136/udp.o
                0x00019b18                TCPIP_UDP_PutIsReady

.text.TCPIP_UDP_SocketNetSet%489
                0x00019b6c       0x54
 .text.TCPIP_UDP_SocketNetSet
                0x00019b6c       0x54 build/default/debug/_ext/1033058136/udp.o
                0x00019b6c                TCPIP_UDP_SocketNetSet

.text._TcpAbort%490
                0x00019bc0       0x52
 .text._TcpAbort
                0x00019bc0       0x52 build/default/debug/_ext/1033058136/tcp.o

.text.TCPIP_TCP_RemoteBind%491
                0x00019c12       0x52
 .text.TCPIP_TCP_RemoteBind
                0x00019c12       0x52 build/default/debug/_ext/1033058136/tcp.o
                0x00019c12                TCPIP_TCP_RemoteBind

.text._TCPIP_HEAP_MaxSize%492
                0x00019c64       0x52
 .text._TCPIP_HEAP_MaxSize
                0x00019c64       0x52 build/default/debug/_ext/1033058136/tcpip_heap_internal.o

.text.DRV_ETHPHY_LinkStatusGet%493
                0x00019cb8       0x50
 .text.DRV_ETHPHY_LinkStatusGet
                0x00019cb8       0x50 build/default/debug/_ext/444070925/drv_ethphy.o
                0x00019cb8                DRV_ETHPHY_LinkStatusGet

.text.DRV_GMAC_ParametersGet%494
                0x00019d08       0x50
 .text.DRV_GMAC_ParametersGet
                0x00019d08       0x50 build/default/debug/_ext/1546807373/drv_gmac.o
                0x00019d08                DRV_GMAC_ParametersGet

.rodata%495     0x00019d58       0x50
 .rodata        0x00019d58       0x50 build/default/debug/_ext/1033058136/tcp.o

.text.TCPIP_DNS_OAHASH_DeleteEntry%496
                0x00019da8       0x50
 .text.TCPIP_DNS_OAHASH_DeleteEntry
                0x00019da8       0x50 build/default/debug/_ext/1033058136/dns.o

.text._TCPIPStackModuleSignalRequest%497
                0x00019df8       0x50
 .text._TCPIPStackModuleSignalRequest
                0x00019df8       0x50 build/default/debug/_ext/1033058136/tcpip_manager.o
                0x00019df8                _TCPIPStackModuleSignalRequest

.text.SYS_TIME_DelayMS%498
                0x00019e48       0x50
 .text.SYS_TIME_DelayMS
                0x00019e48       0x50 build/default/debug/_ext/101884895/sys_time.o
                0x00019e48                SYS_TIME_DelayMS

.text._DRV_ETHPHY_SetupPhaseNegotiate_SubPhase7%499
                0x00019e98       0x4e
 .text._DRV_ETHPHY_SetupPhaseNegotiate_SubPhase7
                0x00019e98       0x4e build/default/debug/_ext/444070925/drv_ethphy.o

.text._DRV_MIIM_GetClientAndLock%500
                0x00019ee6       0x4e
 .text._DRV_MIIM_GetClientAndLock
                0x00019ee6       0x4e build/default/debug/_ext/438849557/drv_miim.o

.text.TCPIP_IPV4_SelectDestInterface%501
                0x00019f34       0x4e
 .text.TCPIP_IPV4_SelectDestInterface
                0x00019f34       0x4e build/default/debug/_ext/1033058136/ipv4.o
                0x00019f34                TCPIP_IPV4_SelectDestInterface

.text.f_readdir%502
                0x00019f82       0x4e
 .text.f_readdir
                0x00019f82       0x4e build/default/debug/_ext/411819097/ff.o
                0x00019f82                f_readdir

.text._DRV_ETHPHY_LinkStatPhaseRead%503
                0x00019fd0       0x4c
 .text._DRV_ETHPHY_LinkStatPhaseRead
                0x00019fd0       0x4c build/default/debug/_ext/444070925/drv_ethphy.o

.text._MacTxPendingPackets%504
                0x0001a01c       0x4c
 .text._MacTxPendingPackets
                0x0001a01c       0x4c build/default/debug/_ext/1546807373/drv_gmac.o

.text._TCPIP_MacEventCB%505
                0x0001a068       0x4c
 .text._TCPIP_MacEventCB
                0x0001a068       0x4c build/default/debug/_ext/1033058136/tcpip_manager.o

.text.SDHC1_ResponseRead%506
                0x0001a0b4       0x4c
 .text.SDHC1_ResponseRead
                0x0001a0b4       0x4c build/default/debug/_ext/1865600094/plib_sdhc1.o
                0x0001a0b4                SDHC1_ResponseRead

.text.TCP_SocketWasDisconnected%507
                0x0001a100       0x4c
 .text.TCP_SocketWasDisconnected
                0x0001a100       0x4c build/default/debug/_ext/1033058136/berkeley_api.o

.text.TCPIP_ANNOUNCE_Deinitialize%508
                0x0001a14c       0x4c
 .text.TCPIP_ANNOUNCE_Deinitialize
                0x0001a14c       0x4c build/default/debug/_ext/1033058136/tcpip_announce.o
                0x0001a14c                TCPIP_ANNOUNCE_Deinitialize

.text._UDPClose%509
                0x0001a198       0x4c
 .text._UDPClose
                0x0001a198       0x4c build/default/debug/_ext/1033058136/udp.o

.text.__aeabi_d2iz%510
                0x0001a1e4       0x4c
 .text.__aeabi_d2iz
                0x0001a1e4       0x4c c:/program files/microchip/xc32/v4.00/bin/bin/../../lib/gcc/pic32c/8.3.1/../../../../pic32c/lib/thumb/v7e-m+fp/hard\libm-emfloat.a(floatasmops_arm.o)
                0x0001a1e4                __aeabi_d2iz

.text.TCPIP_IPV4_SelectSourceInterface%511
                0x0001a230       0x4a
 .text.TCPIP_IPV4_SelectSourceInterface
                0x0001a230       0x4a build/default/debug/_ext/1033058136/ipv4.o
                0x0001a230                TCPIP_IPV4_SelectSourceInterface

.text.TCPIP_UDP_ArrayPut%512
                0x0001a27a       0x4a
 .text.TCPIP_UDP_ArrayPut
                0x0001a27a       0x4a build/default/debug/_ext/1033058136/udp.o
                0x0001a27a                TCPIP_UDP_ArrayPut

.text.TCPIP_UDP_DestinationIPAddressSet%513
                0x0001a2c4       0x4a
 .text.TCPIP_UDP_DestinationIPAddressSet
                0x0001a2c4       0x4a build/default/debug/_ext/1033058136/udp.o
                0x0001a2c4                TCPIP_UDP_DestinationIPAddressSet

.text.DRV_ETHPHY_NegotiationResultGet%514
                0x0001a310       0x48
 .text.DRV_ETHPHY_NegotiationResultGet
                0x0001a310       0x48 build/default/debug/_ext/444070925/drv_ethphy.o
                0x0001a310                DRV_ETHPHY_NegotiationResultGet

.text.DRV_GMAC_LinkCheck%515
                0x0001a358       0x48
 .text.DRV_GMAC_LinkCheck
                0x0001a358       0x48 build/default/debug/_ext/1546807373/drv_gmac.o
                0x0001a358                DRV_GMAC_LinkCheck

.rodata.default_shell_obj%516
                0x0001a3a0       0x48
 .rodata.default_shell_obj
                0x0001a3a0       0x48 build/default/debug/_ext/1751889202/sys_fs_shell.o

.text._TCPSendWinIncUpdate%517
                0x0001a3e8       0x48
 .text._TCPSendWinIncUpdate
                0x0001a3e8       0x48 build/default/debug/_ext/1033058136/tcp.o

.text.TCPIP_TCP_DestinationIPAddressSet%518
                0x0001a430       0x48
 .text.TCPIP_TCP_DestinationIPAddressSet
                0x0001a430       0x48 build/default/debug/_ext/1033058136/tcp.o
                0x0001a430                TCPIP_TCP_DestinationIPAddressSet

.text.TCPIP_ARP_Deinitialize%519
                0x0001a478       0x48
 .text.TCPIP_ARP_Deinitialize
                0x0001a478       0x48 build/default/debug/_ext/1033058136/arp.o
                0x0001a478                TCPIP_ARP_Deinitialize

.text.TCPIP_STACK_MatchNetAddress%520
                0x0001a4c0       0x48
 .text.TCPIP_STACK_MatchNetAddress
                0x0001a4c0       0x48 build/default/debug/_ext/1033058136/tcpip_manager.o
                0x0001a4c0                TCPIP_STACK_MatchNetAddress

.text._TCPIPStackSignalHandlerRegister%521
                0x0001a508       0x48
 .text._TCPIPStackSignalHandlerRegister
                0x0001a508       0x48 build/default/debug/_ext/1033058136/tcpip_manager.o
                0x0001a508                _TCPIPStackSignalHandlerRegister

.text.sync_window%522
                0x0001a550       0x48
 .text.sync_window
                0x0001a550       0x48 build/default/debug/_ext/411819097/ff.o

.text.ff_uni2oem%523
                0x0001a598       0x48
 .text.ff_uni2oem
                0x0001a598       0x48 build/default/debug/_ext/411819097/ffunicode.o
                0x0001a598                ff_uni2oem

.rodata.drvSDMMC0PlibAPI%524
                0x0001a5e0       0x48
 .rodata.drvSDMMC0PlibAPI
                0x0001a5e0       0x48 build/default/debug/_ext/1171490990/initialization.o
                0x0001a5e0                drvSDMMC0PlibAPI

.text.TCPIP_UDP_Close%525
                0x0001a628       0x48
 .text.TCPIP_UDP_Close
                0x0001a628       0x48 build/default/debug/_ext/1033058136/udp.o
                0x0001a628                TCPIP_UDP_Close

.text._DRV_GMAC_LinkStateGetLink%526
                0x0001a670       0x46
 .text._DRV_GMAC_LinkStateGetLink
                0x0001a670       0x46 build/default/debug/_ext/1546807373/drv_gmac.o

.text.DRV_MIIM_RegisterCallback%527
                0x0001a6b6       0x46
 .text.DRV_MIIM_RegisterCallback
                0x0001a6b6       0x46 build/default/debug/_ext/438849557/drv_miim.o
                0x0001a6b6                DRV_MIIM_RegisterCallback

.text.Shell_GetCwd%528
                0x0001a6fc       0x46
 .text.Shell_GetCwd
                0x0001a6fc       0x46 build/default/debug/_ext/1751889202/sys_fs_shell.o

.text.Shell_GetRoot%529
                0x0001a742       0x46
 .text.Shell_GetRoot
                0x0001a742       0x46 build/default/debug/_ext/1751889202/sys_fs_shell.o

.text.TCPIP_TCP_FifoTxFullGet%530
                0x0001a788       0x46
 .text.TCPIP_TCP_FifoTxFullGet
                0x0001a788       0x46 build/default/debug/_ext/1033058136/tcp.o
                0x0001a788                TCPIP_TCP_FifoTxFullGet

.text.TCPIP_Helper_SingleListNodeRemove%531
                0x0001a7ce       0x46
 .text.TCPIP_Helper_SingleListNodeRemove
                0x0001a7ce       0x46 build/default/debug/_ext/1033058136/tcpip_helpers.o
                0x0001a7ce                TCPIP_Helper_SingleListNodeRemove

.text.validate%532
                0x0001a814       0x46
 .text.validate
                0x0001a814       0x46 build/default/debug/_ext/411819097/ff.o

.text.atoi%533  0x0001a85a       0x46
 .text.atoi     0x0001a85a       0x46 c:/program files/microchip/xc32/v4.00/bin/bin/../../lib/gcc/pic32c/8.3.1/../../../../pic32c/lib/thumb/v7e-m+fp/hard\libg-musl.a(atoi.o)
                0x0001a85a                atoi

.text.DRV_GMAC_ConfigGet%534
                0x0001a8a0       0x44
 .text.DRV_GMAC_ConfigGet
                0x0001a8a0       0x44 build/default/debug/_ext/1546807373/drv_gmac.o
                0x0001a8a0                DRV_GMAC_ConfigGet

.text.Helper_SingleListNodeRemove%535
                0x0001a8e4       0x44
 .text.Helper_SingleListNodeRemove
                0x0001a8e4       0x44 build/default/debug/_ext/438849557/drv_miim.o
                0x0001a8e4                Helper_SingleListNodeRemove

.text.TCPIP_ICMP_Initialize%536
                0x0001a928       0x44
 .text.TCPIP_ICMP_Initialize
                0x0001a928       0x44 build/default/debug/_ext/1033058136/icmp.o
                0x0001a928                TCPIP_ICMP_Initialize

.text.f_stat%537
                0x0001a96c       0x44
 .text.f_stat   0x0001a96c       0x44 build/default/debug/_ext/411819097/ff.o
                0x0001a96c                f_stat

.text.SYS_INT_SourceDisable%538
                0x0001a9b0       0x44
 .text.SYS_INT_SourceDisable
                0x0001a9b0       0x44 build/default/debug/_ext/1881668453/sys_int.o
                0x0001a9b0                SYS_INT_SourceDisable

.rodata%539     0x0001a9f4       0x44
 .rodata        0x0001a9f4       0x44 build/default/debug/_ext/1033058136/udp.o

.text._DRV_GMAC_LinkStateNegComplete%540
                0x0001aa38       0x42
 .text._DRV_GMAC_LinkStateNegComplete
                0x0001aa38       0x42 build/default/debug/_ext/1546807373/drv_gmac.o

.text._TcpSocketSetSourceInterface%541
                0x0001aa7a       0x42
 .text._TcpSocketSetSourceInterface
                0x0001aa7a       0x42 build/default/debug/_ext/1033058136/tcp.o

.text.TCPIP_Helper_FormatNetBIOSName%542
                0x0001aabc       0x42
 .text.TCPIP_Helper_FormatNetBIOSName
                0x0001aabc       0x42 build/default/debug/_ext/1033058136/tcpip_helpers.o
                0x0001aabc                TCPIP_Helper_FormatNetBIOSName

.text._UDPSetNewRxPacket%543
                0x0001aafe       0x42
 .text._UDPSetNewRxPacket
                0x0001aafe       0x42 build/default/debug/_ext/1033058136/udp.o

.text.TCPIP_UDP_SourceIPAddressSet%544
                0x0001ab40       0x42
 .text.TCPIP_UDP_SourceIPAddressSet
                0x0001ab40       0x42 build/default/debug/_ext/1033058136/udp.o
                0x0001ab40                TCPIP_UDP_SourceIPAddressSet

.text%545       0x0001ab84       0x40
 .text          0x0001ab84       0x40 c:/program files/microchip/xc32/v4.00/bin/bin/../../lib/gcc/pic32c/8.3.1/thumb/v7e-m+fp/hard/crtbegin.o

.text.DRV_ETHPHY_Reset%546
                0x0001abc4       0x40
 .text.DRV_ETHPHY_Reset
                0x0001abc4       0x40 build/default/debug/_ext/444070925/drv_ethphy.o
                0x0001abc4                DRV_ETHPHY_Reset

.text.DRV_ETHPHY_NegotiationIsComplete%547
                0x0001ac04       0x40
 .text.DRV_ETHPHY_NegotiationIsComplete
                0x0001ac04       0x40 build/default/debug/_ext/444070925/drv_ethphy.o
                0x0001ac04                DRV_ETHPHY_NegotiationIsComplete

.text.DRV_ETHPHY_RestartNegotiation%548
                0x0001ac44       0x40
 .text.DRV_ETHPHY_RestartNegotiation
                0x0001ac44       0x40 build/default/debug/_ext/444070925/drv_ethphy.o
                0x0001ac44                DRV_ETHPHY_RestartNegotiation

.text._DRV_ETHPHY_ResetPhaseWrite%549
                0x0001ac84       0x40
 .text._DRV_ETHPHY_ResetPhaseWrite
                0x0001ac84       0x40 build/default/debug/_ext/444070925/drv_ethphy.o

.text._MacTxDiscardQueues%550
                0x0001acc4       0x40
 .text._MacTxDiscardQueues
                0x0001acc4       0x40 build/default/debug/_ext/1546807373/drv_gmac.o

.rodata.DRV_MIIM_OBJECT_BASE_Default%551
                0x0001ad04       0x40
 .rodata.DRV_MIIM_OBJECT_BASE_Default
                0x0001ad04       0x40 build/default/debug/_ext/438849557/drv_miim.o
                0x0001ad04                DRV_MIIM_OBJECT_BASE_Default

.rodata.TRAN_SPEED_MULT_TABLE.9230%552
                0x0001ad44       0x40
 .rodata.TRAN_SPEED_MULT_TABLE.9230
                0x0001ad44       0x40 build/default/debug/_ext/20954303/drv_sdmmc.o

.text._TCP_PortIsAvailable%553
                0x0001ad84       0x40
 .text._TCP_PortIsAvailable
                0x0001ad84       0x40 build/default/debug/_ext/1033058136/tcp.o

.text.TCPIP_Helper_ProtectedSingleListNodeRemove%554
                0x0001adc4       0x40
 .text.TCPIP_Helper_ProtectedSingleListNodeRemove
                0x0001adc4       0x40 build/default/debug/_ext/1033058136/tcpip_helpers.o
                0x0001adc4                TCPIP_Helper_ProtectedSingleListNodeRemove

.rodata%555     0x0001ae04       0x40
 .rodata        0x0001ae04       0x40 build/default/debug/_ext/1033058136/tcpip_helpers.o

.text.TCPIP_STACK_NetByAddress%556
                0x0001ae44       0x40
 .text.TCPIP_STACK_NetByAddress
                0x0001ae44       0x40 build/default/debug/_ext/1033058136/tcpip_manager.o
                0x0001ae44                TCPIP_STACK_NetByAddress

.text._TCPIP_PKT_PacketAcknowledge%557
                0x0001ae84       0x40
 .text._TCPIP_PKT_PacketAcknowledge
                0x0001ae84       0x40 build/default/debug/_ext/1033058136/tcpip_packet.o
                0x0001ae84                _TCPIP_PKT_PacketAcknowledge

.text.NET_PRES_SocketGetTransportHandle%558
                0x0001aec4       0x40
 .text.NET_PRES_SocketGetTransportHandle
                0x0001aec4       0x40 build/default/debug/_ext/1508031553/net_pres.o
                0x0001aec4                NET_PRES_SocketGetTransportHandle

.text.TC0_TimerInitialize%559
                0x0001af04       0x40
 .text.TC0_TimerInitialize
                0x0001af04       0x40 build/default/debug/_ext/829342655/plib_tc0.o
                0x0001af04                TC0_TimerInitialize

.text.disk_checkCommandStatus%560
                0x0001af44       0x40
 .text.disk_checkCommandStatus
                0x0001af44       0x40 build/default/debug/_ext/565198302/diskio.o

.text.SYS_FS_MEDIA_MANAGER_Register%561
                0x0001af84       0x40
 .text.SYS_FS_MEDIA_MANAGER_Register
                0x0001af84       0x40 build/default/debug/_ext/1269487135/sys_fs_media_manager.o
                0x0001af84                SYS_FS_MEDIA_MANAGER_Register

.text._UDPIsAvailablePort%562
                0x0001afc4       0x40
 .text._UDPIsAvailablePort
                0x0001afc4       0x40 build/default/debug/_ext/1033058136/udp.o

.text.adjust_size%563
                0x0001b004       0x40
 .text.adjust_size
                0x0001b004       0x40 c:/program files/microchip/xc32/v4.00/bin/bin/../../lib/gcc/pic32c/8.3.1/../../../../pic32c/lib/thumb/v7e-m+fp/hard\libg-musl.a(malloc.o)

.text._DRV_MIIM_GetObjectAndLock%564
                0x0001b044       0x3e
 .text._DRV_MIIM_GetObjectAndLock
                0x0001b044       0x3e build/default/debug/_ext/438849557/drv_miim.o

.text._TCPSetHalfFlushFlag%565
                0x0001b082       0x3e
 .text._TCPSetHalfFlushFlag
                0x0001b082       0x3e build/default/debug/_ext/1033058136/tcp.o

.text._TCPIP_HEAP_Delete%566
                0x0001b0c0       0x3e
 .text._TCPIP_HEAP_Delete
                0x0001b0c0       0x3e build/default/debug/_ext/1033058136/tcpip_heap_internal.o

.text.putc_bfd%567
                0x0001b0fe       0x3e
 .text.putc_bfd
                0x0001b0fe       0x3e build/default/debug/_ext/411819097/ff.o

.text.FATFS_getclusters%568
                0x0001b13c       0x3e
 .text.FATFS_getclusters
                0x0001b13c       0x3e build/default/debug/_ext/1269487135/sys_fs_fat_interface.o
                0x0001b13c                FATFS_getclusters

.text.TCPIP_UDP_TxOffsetSet%569
                0x0001b17a       0x3e
 .text.TCPIP_UDP_TxOffsetSet
                0x0001b17a       0x3e build/default/debug/_ext/1033058136/udp.o
                0x0001b17a                TCPIP_UDP_TxOffsetSet

.text._DRV_ETHPHY_NegCompletePhaseAN_Complete%570
                0x0001b1b8       0x3c
 .text._DRV_ETHPHY_NegCompletePhaseAN_Complete
                0x0001b1b8       0x3c build/default/debug/_ext/444070925/drv_ethphy.o

.text.DRV_SDMMC_EventHandlerSet%571
                0x0001b1f4       0x3c
 .text.DRV_SDMMC_EventHandlerSet
                0x0001b1f4       0x3c build/default/debug/_ext/20954303/drv_sdmmc.o
                0x0001b1f4                DRV_SDMMC_EventHandlerSet

.text.hexatob%572
                0x0001b230       0x3c
 .text.hexatob  0x0001b230       0x3c build/default/debug/_ext/1033058136/helpers.o
                0x0001b230                hexatob

.text._TcpSocketKill%573
                0x0001b26c       0x3c
 .text._TcpSocketKill
                0x0001b26c       0x3c build/default/debug/_ext/1033058136/tcp.o

.text.TCPIP_TCP_Close%574
                0x0001b2a8       0x3c
 .text.TCPIP_TCP_Close
                0x0001b2a8       0x3c build/default/debug/_ext/1033058136/tcp.o
                0x0001b2a8                TCPIP_TCP_Close

.text.TCPIP_Helper_ProtectedSingleListHeadRemove%575
                0x0001b2e4       0x3c
 .text.TCPIP_Helper_ProtectedSingleListHeadRemove
                0x0001b2e4       0x3c build/default/debug/_ext/1033058136/tcpip_helpers.o
                0x0001b2e4                TCPIP_Helper_ProtectedSingleListHeadRemove

.text.TCPIP_Helper_ProtectedSingleListRemoveAll%576
                0x0001b320       0x3c
 .text.TCPIP_Helper_ProtectedSingleListRemoveAll
                0x0001b320       0x3c build/default/debug/_ext/1033058136/tcpip_helpers.o
                0x0001b320                TCPIP_Helper_ProtectedSingleListRemoveAll

.text.TCPIP_STACK_MACIdToString%577
                0x0001b35c       0x3c
 .text.TCPIP_STACK_MACIdToString
                0x0001b35c       0x3c build/default/debug/_ext/1033058136/tcpip_manager.o
                0x0001b35c                TCPIP_STACK_MACIdToString

.text._TCPIP_PKT_PacketFree%578
                0x0001b398       0x3c
 .text._TCPIP_PKT_PacketFree
                0x0001b398       0x3c build/default/debug/_ext/1033058136/tcpip_packet.o
                0x0001b398                _TCPIP_PKT_PacketFree

.text.move_window%579
                0x0001b3d4       0x3c
 .text.move_window
                0x0001b3d4       0x3c build/default/debug/_ext/411819097/ff.o

.text.SYS_TIME_GetTimerObject%580
                0x0001b410       0x3c
 .text.SYS_TIME_GetTimerObject
                0x0001b410       0x3c build/default/debug/_ext/101884895/sys_time.o

.text.SYS_TIME_TimerDestroy%581
                0x0001b44c       0x3c
 .text.SYS_TIME_TimerDestroy
                0x0001b44c       0x3c build/default/debug/_ext/101884895/sys_time.o
                0x0001b44c                SYS_TIME_TimerDestroy

.text._TCPIP_AnnounceCleanup%582
                0x0001b488       0x3c
 .text._TCPIP_AnnounceCleanup
                0x0001b488       0x3c build/default/debug/_ext/1033058136/tcpip_announce.o

.text.TCPIP_UDP_OpenClientSkt%583
                0x0001b4c4       0x3c
 .text.TCPIP_UDP_OpenClientSkt
                0x0001b4c4       0x3c build/default/debug/_ext/1033058136/udp.o
                0x0001b4c4                TCPIP_UDP_OpenClientSkt

.text._DRV_ETHPHY_SetupPhaseNegotiate_SubPhase1%584
                0x0001b500       0x3a
 .text._DRV_ETHPHY_SetupPhaseNegotiate_SubPhase1
                0x0001b500       0x3a build/default/debug/_ext/444070925/drv_ethphy.o

.text._DRV_ETHPHY_NegRestartPhaseRead%585
                0x0001b53a       0x3a
 .text._DRV_ETHPHY_NegRestartPhaseRead
                0x0001b53a       0x3a build/default/debug/_ext/444070925/drv_ethphy.o

.text._DRV_MIIM_ReleaseOpDcpt%586
                0x0001b574       0x3a
 .text._DRV_MIIM_ReleaseOpDcpt
                0x0001b574       0x3a build/default/debug/_ext/438849557/drv_miim.o

.text.Shell_FileOpen%587
                0x0001b5ae       0x3a
 .text.Shell_FileOpen
                0x0001b5ae       0x3a build/default/debug/_ext/1751889202/sys_fs_shell.o

.text.Shell_FileStat%588
                0x0001b5e8       0x3a
 .text.Shell_FileStat
                0x0001b5e8       0x3a build/default/debug/_ext/1751889202/sys_fs_shell.o

.text.TCPIP_Helper_ProtectedSingleListTailAdd%589
                0x0001b622       0x3a
 .text.TCPIP_Helper_ProtectedSingleListTailAdd
                0x0001b622       0x3a build/default/debug/_ext/1033058136/tcpip_helpers.o
                0x0001b622                TCPIP_Helper_ProtectedSingleListTailAdd

.text.putc_flush%590
                0x0001b65c       0x3a
 .text.putc_flush
                0x0001b65c       0x3a build/default/debug/_ext/411819097/ff.o

.text.disk_ioctl%591
                0x0001b696       0x3a
 .text.disk_ioctl
                0x0001b696       0x3a build/default/debug/_ext/565198302/diskio.o
                0x0001b696                disk_ioctl

.text.DRV_ETHPHY_HWConfigFlagsGet%592
                0x0001b6d0       0x38
 .text.DRV_ETHPHY_HWConfigFlagsGet
                0x0001b6d0       0x38 build/default/debug/_ext/444070925/drv_ethphy.o
                0x0001b6d0                DRV_ETHPHY_HWConfigFlagsGet

.text._DRV_ETHPHY_SetupPhaseNegotiate_SubPhase6%593
                0x0001b708       0x38
 .text._DRV_ETHPHY_SetupPhaseNegotiate_SubPhase6
                0x0001b708       0x38 build/default/debug/_ext/444070925/drv_ethphy.o

.text.DRV_GMAC_Open%594
                0x0001b740       0x38
 .text.DRV_GMAC_Open
                0x0001b740       0x38 build/default/debug/_ext/1546807373/drv_gmac.o
                0x0001b740                DRV_GMAC_Open

.text.DRV_PIC32CGMAC_LibGetMacAddr%595
                0x0001b778       0x38
 .text.DRV_PIC32CGMAC_LibGetMacAddr
                0x0001b778       0x38 build/default/debug/_ext/1546807373/drv_gmac_lib_samE5x.o
                0x0001b778                DRV_PIC32CGMAC_LibGetMacAddr

.text.DRV_MIIM_DeregisterCallback%596
                0x0001b7b0       0x38
 .text.DRV_MIIM_DeregisterCallback
                0x0001b7b0       0x38 build/default/debug/_ext/438849557/drv_miim.o
                0x0001b7b0                DRV_MIIM_DeregisterCallback

.text._TCP_EphemeralPortAllocate%597
                0x0001b7e8       0x38
 .text._TCP_EphemeralPortAllocate
                0x0001b7e8       0x38 build/default/debug/_ext/1033058136/tcp.o

.text._TCPIP_Helper_SecurePortEntry%598
                0x0001b820       0x38
 .text._TCPIP_Helper_SecurePortEntry
                0x0001b820       0x38 build/default/debug/_ext/1033058136/tcpip_helpers.o

.text._TCPIPStackModuleRxInsert%599
                0x0001b858       0x38
 .text._TCPIPStackModuleRxInsert
                0x0001b858       0x38 build/default/debug/_ext/1033058136/tcpip_manager.o
                0x0001b858                _TCPIPStackModuleRxInsert

.text.TCPIP_PKT_PacketMACFormat%600
                0x0001b890       0x38
 .text.TCPIP_PKT_PacketMACFormat
                0x0001b890       0x38 build/default/debug/_ext/1033058136/tcpip_packet.o
                0x0001b890                TCPIP_PKT_PacketMACFormat

.text.SYS_TIME_ResourceUnlock%601
                0x0001b8c8       0x38
 .text.SYS_TIME_ResourceUnlock
                0x0001b8c8       0x38 build/default/debug/_ext/101884895/sys_time.o

.rodata.TCPIP_HOSTS_CONFIGURATION%602
                0x0001b900       0x38
 .rodata.TCPIP_HOSTS_CONFIGURATION
                0x0001b900       0x38 build/default/debug/_ext/1171490990/initialization.o
                0x0001b900                TCPIP_HOSTS_CONFIGURATION

.text._UDPAllocateEphemeralPort%603
                0x0001b938       0x38
 .text._UDPAllocateEphemeralPort
                0x0001b938       0x38 build/default/debug/_ext/1033058136/udp.o

.text.bin_index%604
                0x0001b970       0x38
 .text.bin_index
                0x0001b970       0x38 c:/program files/microchip/xc32/v4.00/bin/bin/../../lib/gcc/pic32c/8.3.1/../../../../pic32c/lib/thumb/v7e-m+fp/hard\libg-musl.a(malloc.o)

.text.__fmt_state%605
                0x0001b9a8       0x38
 .text.__fmt_state
                0x0001b9a8       0x38 c:/program files/microchip/xc32/v4.00/bin/bin/../../lib/gcc/pic32c/8.3.1/../../../../pic32c/lib/thumb/v7e-m+fp/hard\libg-musl.a(__printf_core.o)
                0x0001b9a8                __fmt_state

.text.__aeabi_dcmpgt%606
                0x0001b9e0       0x38
 .text.__aeabi_dcmpgt
                0x0001b9e0       0x38 c:/program files/microchip/xc32/v4.00/bin/bin/../../lib/gcc/pic32c/8.3.1/../../../../pic32c/lib/thumb/v7e-m+fp/hard\libm-emfloat.a(floatasmops_arm.o)
                0x0001b9e0                __aeabi_dcmpgt

.text.__aeabi_dcmplt%607
                0x0001ba18       0x38
 .text.__aeabi_dcmplt
                0x0001ba18       0x38 c:/program files/microchip/xc32/v4.00/bin/bin/../../lib/gcc/pic32c/8.3.1/../../../../pic32c/lib/thumb/v7e-m+fp/hard\libm-emfloat.a(floatasmops_arm.o)
                0x0001ba18                __aeabi_dcmplt

.text._DRV_ETHPHY_NegCompletePhaseRead1%608
                0x0001ba50       0x36
 .text._DRV_ETHPHY_NegCompletePhaseRead1
                0x0001ba50       0x36 build/default/debug/_ext/444070925/drv_ethphy.o

.text.Shell_FileDelete%609
                0x0001ba86       0x36
 .text.Shell_FileDelete
                0x0001ba86       0x36 build/default/debug/_ext/1751889202/sys_fs_shell.o

.text.Shell_DirMake%610
                0x0001babc       0x36
 .text.Shell_DirMake
                0x0001babc       0x36 build/default/debug/_ext/1751889202/sys_fs_shell.o

.text.Shell_DirOpen%611
                0x0001baf2       0x36
 .text.Shell_DirOpen
                0x0001baf2       0x36 build/default/debug/_ext/1751889202/sys_fs_shell.o

.text._TCPSetSourceAddress%612
                0x0001bb28       0x36
 .text._TCPSetSourceAddress
                0x0001bb28       0x36 build/default/debug/_ext/1033058136/tcp.o

.text._DNS_NetIsValid%613
                0x0001bb5e       0x36
 .text._DNS_NetIsValid
                0x0001bb5e       0x36 build/default/debug/_ext/1033058136/dns.o

.text._DRV_ETHPHY_SetupPhaseNegotiate_SubPhase2%614
                0x0001bb94       0x34
 .text._DRV_ETHPHY_SetupPhaseNegotiate_SubPhase2
                0x0001bb94       0x34 build/default/debug/_ext/444070925/drv_ethphy.o

.text.DRV_MIIM_Deinitialize%615
                0x0001bbc8       0x34
 .text.DRV_MIIM_Deinitialize
                0x0001bbc8       0x34 build/default/debug/_ext/438849557/drv_miim.o
                0x0001bbc8                DRV_MIIM_Deinitialize

.text._TCP_SktFlagsGet%616
                0x0001bbfc       0x34
 .text._TCP_SktFlagsGet
                0x0001bbfc       0x34 build/default/debug/_ext/1033058136/tcp.o

.text._ARPSetEntry%617
                0x0001bc30       0x34
 .text._ARPSetEntry
                0x0001bc30       0x34 build/default/debug/_ext/1033058136/arp.o

.text.TCPIP_ARP_HandlerRegister%618
                0x0001bc64       0x34
 .text.TCPIP_ARP_HandlerRegister
                0x0001bc64       0x34 build/default/debug/_ext/1033058136/arp.o
                0x0001bc64                TCPIP_ARP_HandlerRegister

.text._DNSGetData%619
                0x0001bc98       0x34
 .text._DNSGetData
                0x0001bc98       0x34 build/default/debug/_ext/1033058136/dns.o

.text.Console_UART_Read%620
                0x0001bccc       0x34
 .text.Console_UART_Read
                0x0001bccc       0x34 build/default/debug/_ext/1832805299/sys_console_uart.o
                0x0001bccc                Console_UART_Read

.text.Console_UART_Write%621
                0x0001bd00       0x34
 .text.Console_UART_Write
                0x0001bd00       0x34 build/default/debug/_ext/1832805299/sys_console_uart.o
                0x0001bd00                Console_UART_Write

.text.dec_lock%622
                0x0001bd34       0x34
 .text.dec_lock
                0x0001bd34       0x34 build/default/debug/_ext/411819097/ff.o

.text.f_close%623
                0x0001bd68       0x34
 .text.f_close  0x0001bd68       0x34 build/default/debug/_ext/411819097/ff.o
                0x0001bd68                f_close

.text.f_fdisk%624
                0x0001bd9c       0x34
 .text.f_fdisk  0x0001bd9c       0x34 build/default/debug/_ext/411819097/ff.o
                0x0001bd9c                f_fdisk

.text.SYS_TIME_ResourceLock%625
                0x0001bdd0       0x34
 .text.SYS_TIME_ResourceLock
                0x0001bdd0       0x34 build/default/debug/_ext/101884895/sys_time.o

.rodata.tcpipMACPIC32CINTInitData%626
                0x0001be04       0x34
 .rodata.tcpipMACPIC32CINTInitData
                0x0001be04       0x34 build/default/debug/_ext/1171490990/initialization.o
                0x0001be04                tcpipMACPIC32CINTInitData

.text._FieldSetMacName%627
                0x0001be38       0x34
 .text._FieldSetMacName
                0x0001be38       0x34 build/default/debug/_ext/1033058136/tcpip_announce.o
                0x0001be38                _FieldSetMacName

.text.stpncpy%628
                0x0001be6c       0x34
 .text.stpncpy  0x0001be6c       0x34 c:/program files/microchip/xc32/v4.00/bin/bin/../../lib/gcc/pic32c/8.3.1/../../../../pic32c/lib/thumb/v7e-m+fp/hard\libg-musl.a(stpncpy.o)
                0x0001be6c                __stpncpy
                0x0001be6c                stpncpy

.text.__aeabi_dcmpeq%629
                0x0001bea0       0x34
 .text.__aeabi_dcmpeq
                0x0001bea0       0x34 c:/program files/microchip/xc32/v4.00/bin/bin/../../lib/gcc/pic32c/8.3.1/../../../../pic32c/lib/thumb/v7e-m+fp/hard\libm-emfloat.a(floatasmops_arm.o)
                0x0001bea0                __aeabi_dcmpeq

.text._DRV_PHY_SMIReadStart%630
                0x0001bed4       0x32
 .text._DRV_PHY_SMIReadStart
                0x0001bed4       0x32 build/default/debug/_ext/444070925/drv_ethphy.o

.text._DRV_PHY_SMIWriteStart%631
                0x0001bf06       0x32
 .text._DRV_PHY_SMIWriteStart
                0x0001bf06       0x32 build/default/debug/_ext/444070925/drv_ethphy.o

.text._DRV_ETHPHY_SetupPhaseIdle%632
                0x0001bf38       0x32
 .text._DRV_ETHPHY_SetupPhaseIdle
                0x0001bf38       0x32 build/default/debug/_ext/444070925/drv_ethphy.o

.text.DRV_PIC32CGMAC_LibTxAckPendPacket%633
                0x0001bf6a       0x32
 .text.DRV_PIC32CGMAC_LibTxAckPendPacket
                0x0001bf6a       0x32 build/default/debug/_ext/1546807373/drv_gmac_lib_samE5x.o
                0x0001bf6a                DRV_PIC32CGMAC_LibTxAckPendPacket

.text.TCPIP_Helper_ProtectedSingleListDeinitialize%634
                0x0001bf9c       0x32
 .text.TCPIP_Helper_ProtectedSingleListDeinitialize
                0x0001bf9c       0x32 build/default/debug/_ext/1033058136/tcpip_helpers.o
                0x0001bf9c                TCPIP_Helper_ProtectedSingleListDeinitialize

.text._FieldSetHostName%635
                0x0001bfce       0x32
 .text._FieldSetHostName
                0x0001bfce       0x32 build/default/debug/_ext/1033058136/tcpip_announce.o
                0x0001bfce                _FieldSetHostName

.text._DRV_PHY_NegCompleteSetOperResult%636
                0x0001c000       0x30
 .text._DRV_PHY_NegCompleteSetOperResult
                0x0001c000       0x30 build/default/debug/_ext/444070925/drv_ethphy.o

.text._DRV_ETHPHY_SetupPhaseNegotiate_SubPhase3%637
                0x0001c030       0x30
 .text._DRV_ETHPHY_SetupPhaseNegotiate_SubPhase3
                0x0001c030       0x30 build/default/debug/_ext/444070925/drv_ethphy.o

.text.DRV_GMAC_Status%638
                0x0001c060       0x30
 .text.DRV_GMAC_Status
                0x0001c060       0x30 build/default/debug/_ext/1546807373/drv_gmac.o
                0x0001c060                DRV_GMAC_Status

.text.DRV_PIC32CGMAC_LibSetMacAddr%639
                0x0001c090       0x30
 .text.DRV_PIC32CGMAC_LibSetMacAddr
                0x0001c090       0x30 build/default/debug/_ext/1546807373/drv_gmac_lib_samE5x.o
                0x0001c090                DRV_PIC32CGMAC_LibSetMacAddr

.text.DRV_PIC32CGMAC_LibClearPriorityQue%640
                0x0001c0c0       0x30
 .text.DRV_PIC32CGMAC_LibClearPriorityQue
                0x0001c0c0       0x30 build/default/debug/_ext/1546807373/drv_gmac_lib_samE5x.o
                0x0001c0c0                DRV_PIC32CGMAC_LibClearPriorityQue

.rodata.sdmmcMediaFunctions%641
                0x0001c0f0       0x30
 .rodata.sdmmcMediaFunctions
                0x0001c0f0       0x30 build/default/debug/_ext/20954303/drv_sdmmc_file_system.o
                0x0001c0f0                sdmmcMediaFunctions

.text._TCPSocketTxFreeSize%642
                0x0001c120       0x30
 .text._TCPSocketTxFreeSize
                0x0001c120       0x30 build/default/debug/_ext/1033058136/tcp.o

.text.TCPIP_ARP_HashEntryDelete%643
                0x0001c150       0x30
 .text.TCPIP_ARP_HashEntryDelete
                0x0001c150       0x30 build/default/debug/_ext/1033058136/arp.o
                0x0001c150                TCPIP_ARP_HashEntryDelete

.text.TCPIP_IPV4_CheckPktTx%644
                0x0001c180       0x30
 .text.TCPIP_IPV4_CheckPktTx
                0x0001c180       0x30 build/default/debug/_ext/1033058136/ipv4.o

.text.fnv_32_hash%645
                0x0001c1b0       0x30
 .text.fnv_32_hash
                0x0001c1b0       0x30 build/default/debug/_ext/1033058136/hash_fnv.o
                0x0001c1b0                fnv_32_hash

.text.TCPIP_OAHASH_EntriesRemoveAll%646
                0x0001c1e0       0x30
 .text.TCPIP_OAHASH_EntriesRemoveAll
                0x0001c1e0       0x30 build/default/debug/_ext/1033058136/oahash.o
                0x0001c1e0                TCPIP_OAHASH_EntriesRemoveAll

.text.TCPIP_Helper_StringToPowerMode%647
                0x0001c210       0x30
 .text.TCPIP_Helper_StringToPowerMode
                0x0001c210       0x30 build/default/debug/_ext/1033058136/tcpip_helpers.o
                0x0001c210                TCPIP_Helper_StringToPowerMode

.text.TCPIP_PKT_Initialize%648
                0x0001c240       0x30
 .text.TCPIP_PKT_Initialize
                0x0001c240       0x30 build/default/debug/_ext/1033058136/tcpip_packet.o
                0x0001c240                TCPIP_PKT_Initialize

.rodata.month%649
                0x0001c270       0x30
 .rodata.month  0x0001c270       0x30 build/default/debug/_ext/1033058136/ftp.o

.text.SYS_CONSOLE_Message%650
                0x0001c2a0       0x30
 .text.SYS_CONSOLE_Message
                0x0001c2a0       0x30 build/default/debug/_ext/1832805299/sys_console.o
                0x0001c2a0                SYS_CONSOLE_Message

.text.Console_UART_WriteCountGet%651
                0x0001c2d0       0x30
 .text.Console_UART_WriteCountGet
                0x0001c2d0       0x30 build/default/debug/_ext/1832805299/sys_console_uart.o
                0x0001c2d0                Console_UART_WriteCountGet

.text.Console_UART_WriteFreeBufferCountGet%652
                0x0001c300       0x30
 .text.Console_UART_WriteFreeBufferCountGet
                0x0001c300       0x30 build/default/debug/_ext/1832805299/sys_console_uart.o
                0x0001c300                Console_UART_WriteFreeBufferCountGet

.text.Console_UART_ReadFreeBufferCountGet%653
                0x0001c330       0x30
 .text.Console_UART_ReadFreeBufferCountGet
                0x0001c330       0x30 build/default/debug/_ext/1832805299/sys_console_uart.o
                0x0001c330                Console_UART_ReadFreeBufferCountGet

.text.Console_UART_ReadCountGet%654
                0x0001c360       0x30
 .text.Console_UART_ReadCountGet
                0x0001c360       0x30 build/default/debug/_ext/1832805299/sys_console_uart.o
                0x0001c360                Console_UART_ReadCountGet

.text.f_puts%655
                0x0001c390       0x30
 .text.f_puts   0x0001c390       0x30 build/default/debug/_ext/411819097/ff.o
                0x0001c390                f_puts

.text.disk_write%656
                0x0001c3c0       0x30
 .text.disk_write
                0x0001c3c0       0x30 build/default/debug/_ext/565198302/diskio.o
                0x0001c3c0                disk_write

.text.SYS_FS_MEDIA_MANAGER_EventHandler%657
                0x0001c3f0       0x30
 .text.SYS_FS_MEDIA_MANAGER_EventHandler
                0x0001c3f0       0x30 build/default/debug/_ext/1269487135/sys_fs_media_manager.o
                0x0001c3f0                SYS_FS_MEDIA_MANAGER_EventHandler

.text.SYS_TIME_UpdateTimerList%658
                0x0001c420       0x30
 .text.SYS_TIME_UpdateTimerList
                0x0001c420       0x30 build/default/debug/_ext/101884895/sys_time.o

.text.SYS_TIME_Counter64Get%659
                0x0001c450       0x30
 .text.SYS_TIME_Counter64Get
                0x0001c450       0x30 build/default/debug/_ext/101884895/sys_time.o
                0x0001c450                SYS_TIME_Counter64Get

.text.wc_CryptoCb_FindDevice%660
                0x0001c480       0x30
 .text.wc_CryptoCb_FindDevice
                0x0001c480       0x30 build/default/debug/_ext/1664057780/cryptocb.o

.text.alloc_rev%661
                0x0001c4b0       0x30
 .text.alloc_rev
                0x0001c4b0       0x30 c:/program files/microchip/xc32/v4.00/bin/bin/../../lib/gcc/pic32c/8.3.1/../../../../pic32c/lib/thumb/v7e-m+fp/hard\libg-musl.a(malloc.o)

.text%662       0x0001c4e0       0x30
 .text          0x0001c4e0       0x30 c:/program files/microchip/xc32/v4.00/bin/bin/../../lib/gcc/pic32c/8.3.1/thumb/v7e-m+fp/hard\libgcc.a(_aeabi_uldivmod.o)
                0x0001c4e0                __aeabi_uldivmod

.text._XtlEventsTcp2Eth%663
                0x0001c510       0x2e
 .text._XtlEventsTcp2Eth
                0x0001c510       0x2e build/default/debug/_ext/1546807373/drv_gmac.o

.text.TCPIP_TCP_Connect%664
                0x0001c53e       0x2e
 .text.TCPIP_TCP_Connect
                0x0001c53e       0x2e build/default/debug/_ext/1033058136/tcp.o
                0x0001c53e                TCPIP_TCP_Connect

.text._DNS_CleanCacheEntry%665
                0x0001c56c       0x2e
 .text._DNS_CleanCacheEntry
                0x0001c56c       0x2e build/default/debug/_ext/1033058136/dns.o

.text._DNSClientCleanup%666
                0x0001c59a       0x2e
 .text._DNSClientCleanup
                0x0001c59a       0x2e build/default/debug/_ext/1033058136/dns.o

.text.TCPIP_STACK_DNSServiceCanStart%667
                0x0001c5c8       0x2e
 .text.TCPIP_STACK_DNSServiceCanStart
                0x0001c5c8       0x2e build/default/debug/_ext/1033058136/tcpip_manager.o
                0x0001c5c8                TCPIP_STACK_DNSServiceCanStart

.text.wc_CryptoCb_RegisterDevice%668
                0x0001c5f6       0x2e
 .text.wc_CryptoCb_RegisterDevice
                0x0001c5f6       0x2e build/default/debug/_ext/1664057780/cryptocb.o
                0x0001c5f6                wc_CryptoCb_RegisterDevice

.text._UDPFreeTxResources%669
                0x0001c624       0x2e
 .text._UDPFreeTxResources
                0x0001c624       0x2e build/default/debug/_ext/1033058136/udp.o

.text.trim%670  0x0001c652       0x2e
 .text.trim     0x0001c652       0x2e c:/program files/microchip/xc32/v4.00/bin/bin/../../lib/gcc/pic32c/8.3.1/../../../../pic32c/lib/thumb/v7e-m+fp/hard\libg-musl.a(malloc.o)

.text.strstr%671
                0x0001c680       0x2e
 .text.strstr   0x0001c680       0x2e c:/program files/microchip/xc32/v4.00/bin/bin/../../lib/gcc/pic32c/8.3.1/../../../../pic32c/lib/thumb/v7e-m+fp/hard\libg-musl.a(strstr.o)
                0x0001c680                strstr

.text.DRV_ETHPHY_Close%672
                0x0001c6b0       0x2c
 .text.DRV_ETHPHY_Close
                0x0001c6b0       0x2c build/default/debug/_ext/444070925/drv_ethphy.o
                0x0001c6b0                DRV_ETHPHY_Close

.text.DRV_ETHPHY_VendorDataGet%673
                0x0001c6dc       0x2c
 .text.DRV_ETHPHY_VendorDataGet
                0x0001c6dc       0x2c build/default/debug/_ext/444070925/drv_ethphy.o
                0x0001c6dc                DRV_ETHPHY_VendorDataGet

.text.DRV_ETHPHY_Reinitialize%674
                0x0001c708       0x2c
 .text.DRV_ETHPHY_Reinitialize
                0x0001c708       0x2c build/default/debug/_ext/444070925/drv_ethphy.o
                0x0001c708                DRV_ETHPHY_Reinitialize

.text._DRV_ETHPHY_LinkStatPhaseRefresh%675
                0x0001c734       0x2c
 .text._DRV_ETHPHY_LinkStatPhaseRefresh
                0x0001c734       0x2c build/default/debug/_ext/444070925/drv_ethphy.o

.text.GMAC_InterruptHandler%676
                0x0001c760       0x2c
 .text.GMAC_InterruptHandler
                0x0001c760       0x2c build/default/debug/_ext/1546807373/drv_gmac_lib_samE5x.o
                0x0001c760                GMAC_InterruptHandler

.text.DRV_SDMMC_IsAttached%677
                0x0001c78c       0x2c
 .text.DRV_SDMMC_IsAttached
                0x0001c78c       0x2c build/default/debug/_ext/20954303/drv_sdmmc.o
                0x0001c78c                DRV_SDMMC_IsAttached

.text.TCPIP_TCP_SignalHandlerRegister%678
                0x0001c7b8       0x2c
 .text.TCPIP_TCP_SignalHandlerRegister
                0x0001c7b8       0x2c build/default/debug/_ext/1033058136/tcp.o
                0x0001c7b8                TCPIP_TCP_SignalHandlerRegister

.text._ARPRemoveEntry%679
                0x0001c7e4       0x2c
 .text._ARPRemoveEntry
                0x0001c7e4       0x2c build/default/debug/_ext/1033058136/arp.o

.text.TCPIP_STACK_AddressServiceDefaultSet%680
                0x0001c810       0x2c
 .text.TCPIP_STACK_AddressServiceDefaultSet
                0x0001c810       0x2c build/default/debug/_ext/1033058136/tcpip_manager.o
                0x0001c810                TCPIP_STACK_AddressServiceDefaultSet

.text.TCPIP_STACK_IsBcastAddress%681
                0x0001c83c       0x2c
 .text.TCPIP_STACK_IsBcastAddress
                0x0001c83c       0x2c build/default/debug/_ext/1033058136/tcpip_manager.o
                0x0001c83c                TCPIP_STACK_IsBcastAddress

.text._TCPIP_PKT_SocketAlloc%682
                0x0001c868       0x2c
 .text._TCPIP_PKT_SocketAlloc
                0x0001c868       0x2c build/default/debug/_ext/1033058136/tcpip_packet.o
                0x0001c868                _TCPIP_PKT_SocketAlloc

.text._FTP_ReleaseDataSocket%683
                0x0001c894       0x2c
 .text._FTP_ReleaseDataSocket
                0x0001c894       0x2c build/default/debug/_ext/1033058136/ftp.o

.text.TC0_TimerInterruptHandler%684
                0x0001c8c0       0x2c
 .text.TC0_TimerInterruptHandler
                0x0001c8c0       0x2c build/default/debug/_ext/829342655/plib_tc0.o
                0x0001c8c0                TC0_TimerInterruptHandler

.rodata.sysConsoleUARTDevDesc%685
                0x0001c8ec       0x2c
 .rodata.sysConsoleUARTDevDesc
                0x0001c8ec       0x2c build/default/debug/_ext/1832805299/sys_console_uart.o
                0x0001c8ec                sysConsoleUARTDevDesc

.text.ff_oem2uni%686
                0x0001c918       0x2c
 .text.ff_oem2uni
                0x0001c918       0x2c build/default/debug/_ext/411819097/ffunicode.o
                0x0001c918                ff_oem2uni

.text.disk_read%687
                0x0001c944       0x2c
 .text.disk_read
                0x0001c944       0x2c build/default/debug/_ext/565198302/diskio.o
                0x0001c944                disk_read

.text.FATFS_opendir%688
                0x0001c970       0x2c
 .text.FATFS_opendir
                0x0001c970       0x2c build/default/debug/_ext/1269487135/sys_fs_fat_interface.o
                0x0001c970                FATFS_opendir

.text.TCPIP_STACK_Init%689
                0x0001c99c       0x2c
 .text.TCPIP_STACK_Init
                0x0001c99c       0x2c build/default/debug/_ext/1171490990/initialization.o
                0x0001c99c                TCPIP_STACK_Init

.text.SYS_Tasks%690
                0x0001c9c8       0x2c
 .text.SYS_Tasks
                0x0001c9c8       0x2c build/default/debug/_ext/1171490990/tasks.o
                0x0001c9c8                SYS_Tasks

.text._getBsdSocket%691
                0x0001c9f4       0x2c
 .text._getBsdSocket
                0x0001c9f4       0x2c build/default/debug/_ext/1033058136/berkeley_api.o
                0x0001c9f4                _getBsdSocket

.text.TCPIP_UDP_IsConnected%692
                0x0001ca20       0x2c
 .text.TCPIP_UDP_IsConnected
                0x0001ca20       0x2c build/default/debug/_ext/1033058136/udp.o
                0x0001ca20                TCPIP_UDP_IsConnected

.text.TCPIP_UDP_SignalHandlerRegister%693
                0x0001ca4c       0x2c
 .text.TCPIP_UDP_SignalHandlerRegister
                0x0001ca4c       0x2c build/default/debug/_ext/1033058136/udp.o
                0x0001ca4c                TCPIP_UDP_SignalHandlerRegister

.text.alloc_fwd%694
                0x0001ca78       0x2c
 .text.alloc_fwd
                0x0001ca78       0x2c c:/program files/microchip/xc32/v4.00/bin/bin/../../lib/gcc/pic32c/8.3.1/../../../../pic32c/lib/thumb/v7e-m+fp/hard\libg-musl.a(malloc.o)

.text.fma%695   0x0001caa4       0x2c
 .text.fma      0x0001caa4       0x2c c:/program files/microchip/xc32/v4.00/bin/bin/../../lib/gcc/pic32c/8.3.1/../../../../pic32c/lib/thumb/v7e-m+fp/hard\libm-emfloat.a(lib_a-_FMA.o)
                0x0001caa4                fma

.text._sbrk%696
                0x0001cad0       0x2c
 .text._sbrk    0x0001cad0       0x2c c:/program files/microchip/xc32/v4.00/bin/bin/../../lib/gcc/pic32c/8.3.1/../../../../pic32c/lib/thumb/v7e-m+fp/hard\libpic32c.a(sbrk.o)
                0x0001cad0                _sbrk

.text._DRV_GMAC_LinkStateStartLink%697
                0x0001cafc       0x2a
 .text._DRV_GMAC_LinkStateStartLink
                0x0001cafc       0x2a build/default/debug/_ext/1546807373/drv_gmac.o

.text.TCPIP_TCP_WasReset%698
                0x0001cb26       0x2a
 .text.TCPIP_TCP_WasReset
                0x0001cb26       0x2a build/default/debug/_ext/1033058136/tcp.o
                0x0001cb26                TCPIP_TCP_WasReset

.text.TCPIP_DNS_OAHASH_KeyCopy%699
                0x0001cb50       0x2a
 .text.TCPIP_DNS_OAHASH_KeyCopy
                0x0001cb50       0x2a build/default/debug/_ext/1033058136/dns.o

.text.TCPIP_Notification_Add%700
                0x0001cb7a       0x2a
 .text.TCPIP_Notification_Add
                0x0001cb7a       0x2a build/default/debug/_ext/1033058136/tcpip_notify.o
                0x0001cb7a                TCPIP_Notification_Add

.text.f_closedir%701
                0x0001cba4       0x2a
 .text.f_closedir
                0x0001cba4       0x2a build/default/debug/_ext/411819097/ff.o
                0x0001cba4                f_closedir

.text._FieldSetMacAddr%702
                0x0001cbce       0x2a
 .text._FieldSetMacAddr
                0x0001cbce       0x2a build/default/debug/_ext/1033058136/tcpip_announce.o
                0x0001cbce                _FieldSetMacAddr

.text.__pop_float%703
                0x0001cbf8       0x2a
 .text.__pop_float
                0x0001cbf8       0x2a c:/program files/microchip/xc32/v4.00/bin/bin/../../lib/gcc/pic32c/8.3.1/../../../../pic32c/lib/thumb/v7e-m+fp/hard\libg-musl.a(__pop_float.o)
                0x0001cbf8                __pop_float_needed
                0x0001cbf8                __pop_float

.text.DRV_ETHPHY_Tasks%704
                0x0001cc24       0x28
 .text.DRV_ETHPHY_Tasks
                0x0001cc24       0x28 build/default/debug/_ext/444070925/drv_ethphy.o
                0x0001cc24                DRV_ETHPHY_Tasks

.text.DRV_ETHPHY_PhyAddressGet%705
                0x0001cc4c       0x28
 .text.DRV_ETHPHY_PhyAddressGet
                0x0001cc4c       0x28 build/default/debug/_ext/444070925/drv_ethphy.o
                0x0001cc4c                DRV_ETHPHY_PhyAddressGet

.text._DRV_PHY_SetOperDoneResult%706
                0x0001cc74       0x28
 .text._DRV_PHY_SetOperDoneResult
                0x0001cc74       0x28 build/default/debug/_ext/444070925/drv_ethphy.o

.text.DRV_ETHPHY_ClientOperationAbort%707
                0x0001cc9c       0x28
 .text.DRV_ETHPHY_ClientOperationAbort
                0x0001cc9c       0x28 build/default/debug/_ext/444070925/drv_ethphy.o
                0x0001cc9c                DRV_ETHPHY_ClientOperationAbort

.text.DRV_PIC32CGMAC_LibSysIntStatus_Clear%708
                0x0001ccc4       0x28
 .text.DRV_PIC32CGMAC_LibSysIntStatus_Clear
                0x0001ccc4       0x28 build/default/debug/_ext/1546807373/drv_gmac_lib_samE5x.o
                0x0001ccc4                DRV_PIC32CGMAC_LibSysIntStatus_Clear

.text.DRV_PIC32CGMAC_LibSysInt_Enable%709
                0x0001ccec       0x28
 .text.DRV_PIC32CGMAC_LibSysInt_Enable
                0x0001ccec       0x28 build/default/debug/_ext/1546807373/drv_gmac_lib_samE5x.o
                0x0001ccec                DRV_PIC32CGMAC_LibSysInt_Enable

.text.DRV_MIIM_Status%710
                0x0001cd14       0x28
 .text.DRV_MIIM_Status
                0x0001cd14       0x28 build/default/debug/_ext/438849557/drv_miim.o
                0x0001cd14                DRV_MIIM_Status

.text._TcpSocketChk%711
                0x0001cd3c       0x28
 .text._TcpSocketChk
                0x0001cd3c       0x28 build/default/debug/_ext/1033058136/tcp.o

.text._TcpFlush%712
                0x0001cd64       0x28
 .text._TcpFlush
                0x0001cd64       0x28 build/default/debug/_ext/1033058136/tcp.o

.text._ARPRemoveCacheEntries%713
                0x0001cd8c       0x28
 .text._ARPRemoveCacheEntries
                0x0001cd8c       0x28 build/default/debug/_ext/1033058136/arp.o

.text._TCPIP_STACK_TickHandler%714
                0x0001cdb4       0x28
 .text._TCPIP_STACK_TickHandler
                0x0001cdb4       0x28 build/default/debug/_ext/1033058136/tcpip_manager.o

.text.TCPIP_STACK_NetIsBcastAddress%715
                0x0001cddc       0x28
 .text.TCPIP_STACK_NetIsBcastAddress
                0x0001cddc       0x28 build/default/debug/_ext/1033058136/tcpip_manager.o
                0x0001cddc                TCPIP_STACK_NetIsBcastAddress

.text._TCPIPStackSignalHandlerSetParams%716
                0x0001ce04       0x28
 .text._TCPIPStackSignalHandlerSetParams
                0x0001ce04       0x28 build/default/debug/_ext/1033058136/tcpip_manager.o
                0x0001ce04                _TCPIPStackSignalHandlerSetParams

.text._TCPIPStackModuleSignalGet%717
                0x0001ce2c       0x28
 .text._TCPIPStackModuleSignalGet
                0x0001ce2c       0x28 build/default/debug/_ext/1033058136/tcpip_manager.o
                0x0001ce2c                _TCPIPStackModuleSignalGet

.text.TCPIP_FTP_ServerDeinitialize%718
                0x0001ce54       0x28
 .text.TCPIP_FTP_ServerDeinitialize
                0x0001ce54       0x28 build/default/debug/_ext/1033058136/ftp.o
                0x0001ce54                TCPIP_FTP_ServerDeinitialize

.text.TCPIP_ICMP_Deinitialize%719
                0x0001ce7c       0x28
 .text.TCPIP_ICMP_Deinitialize
                0x0001ce7c       0x28 build/default/debug/_ext/1033058136/icmp.o
                0x0001ce7c                TCPIP_ICMP_Deinitialize

.text.TC0_Timer16bitCounterGet%720
                0x0001cea4       0x28
 .text.TC0_Timer16bitCounterGet
                0x0001cea4       0x28 build/default/debug/_ext/829342655/plib_tc0.o
                0x0001cea4                TC0_Timer16bitCounterGet

.text.tchar2uni%721
                0x0001cecc       0x28
 .text.tchar2uni
                0x0001cecc       0x28 build/default/debug/_ext/411819097/ff.o

.text.FATFS_mkfs%722
                0x0001cef4       0x28
 .text.FATFS_mkfs
                0x0001cef4       0x28 build/default/debug/_ext/1269487135/sys_fs_fat_interface.o
                0x0001cef4                FATFS_mkfs

.text.SYS_TIME_TimerPeriodHasExpired%723
                0x0001cf1c       0x28
 .text.SYS_TIME_TimerPeriodHasExpired
                0x0001cf1c       0x28 build/default/debug/_ext/101884895/sys_time.o
                0x0001cf1c                SYS_TIME_TimerPeriodHasExpired

.text.SYS_TMR_TickCountGet%724
                0x0001cf44       0x28
 .text.SYS_TMR_TickCountGet
                0x0001cf44       0x28 build/default/debug/_ext/753841488/sys_time_h2_adapter.o
                0x0001cf44                SYS_TMR_TickCountGet

.text.SYS_TMR_TickCountGetLong%725
                0x0001cf6c       0x28
 .text.SYS_TMR_TickCountGetLong
                0x0001cf6c       0x28 build/default/debug/_ext/753841488/sys_time_h2_adapter.o
                0x0001cf6c                SYS_TMR_TickCountGetLong

.text.SYS_TMR_TickCounterFrequencyGet%726
                0x0001cf94       0x28
 .text.SYS_TMR_TickCounterFrequencyGet
                0x0001cf94       0x28 build/default/debug/_ext/753841488/sys_time_h2_adapter.o
                0x0001cf94                SYS_TMR_TickCounterFrequencyGet

.rodata.tcpipARPInitData%727
                0x0001cfbc       0x28
 .rodata.tcpipARPInitData
                0x0001cfbc       0x28 build/default/debug/_ext/1171490990/initialization.o
                0x0001cfbc                tcpipARPInitData

.text._UDPSocketDcpt%728
                0x0001cfe4       0x28
 .text._UDPSocketDcpt
                0x0001cfe4       0x28 build/default/debug/_ext/1033058136/udp.o

.text.TCPIP_UDP_GetIsReady%729
                0x0001d00c       0x28
 .text.TCPIP_UDP_GetIsReady
                0x0001d00c       0x28 build/default/debug/_ext/1033058136/udp.o
                0x0001d00c                TCPIP_UDP_GetIsReady

.text._DRV_ETHPHY_NegResultPhase_ANEXP%730
                0x0001d034       0x26
 .text._DRV_ETHPHY_NegResultPhase_ANEXP
                0x0001d034       0x26 build/default/debug/_ext/444070925/drv_ethphy.o

.text._DRV_ETHPHY_NegResultPhase_ANLPAD%731
                0x0001d05a       0x26
 .text._DRV_ETHPHY_NegResultPhase_ANLPAD
                0x0001d05a       0x26 build/default/debug/_ext/444070925/drv_ethphy.o

.text.TCPIP_TCP_IsConnected%732
                0x0001d080       0x26
 .text.TCPIP_TCP_IsConnected
                0x0001d080       0x26 build/default/debug/_ext/1033058136/tcp.o
                0x0001d080                TCPIP_TCP_IsConnected

.text.TCPIP_TCP_Flush%733
                0x0001d0a6       0x26
 .text.TCPIP_TCP_Flush
                0x0001d0a6       0x26 build/default/debug/_ext/1033058136/tcp.o
                0x0001d0a6                TCPIP_TCP_Flush

.text.TCPIP_TCP_Discard%734
                0x0001d0cc       0x26
 .text.TCPIP_TCP_Discard
                0x0001d0cc       0x26 build/default/debug/_ext/1033058136/tcp.o
                0x0001d0cc                TCPIP_TCP_Discard

.text.TCPIP_OAHASH_Initialize%735
                0x0001d0f2       0x26
 .text.TCPIP_OAHASH_Initialize
                0x0001d0f2       0x26 build/default/debug/_ext/1033058136/oahash.o
                0x0001d0f2                TCPIP_OAHASH_Initialize

.text.TCPIP_Helper_ProtectedSingleListLock%736
                0x0001d118       0x26
 .text.TCPIP_Helper_ProtectedSingleListLock
                0x0001d118       0x26 build/default/debug/_ext/1033058136/tcpip_helpers.o
                0x0001d118                TCPIP_Helper_ProtectedSingleListLock

.text.TCPIP_STACK_DNSServiceSelect%737
                0x0001d13e       0x26
 .text.TCPIP_STACK_DNSServiceSelect
                0x0001d13e       0x26 build/default/debug/_ext/1033058136/tcpip_manager.o
                0x0001d13e                TCPIP_STACK_DNSServiceSelect

.text.f_putc%738
                0x0001d164       0x26
 .text.f_putc   0x0001d164       0x26 build/default/debug/_ext/411819097/ff.o
                0x0001d164                f_putc

.text.get_fattime%739
                0x0001d18a       0x26
 .text.get_fattime
                0x0001d18a       0x26 build/default/debug/_ext/565198302/diskio.o
                0x0001d18a                get_fattime

.text.__malloc0%740
                0x0001d1b0       0x26
 .text.__malloc0
                0x0001d1b0       0x26 c:/program files/microchip/xc32/v4.00/bin/bin/../../lib/gcc/pic32c/8.3.1/../../../../pic32c/lib/thumb/v7e-m+fp/hard\libg-musl.a(malloc.o)
                0x0001d1b0                __malloc0

.text.__string_out%741
                0x0001d1d6       0x26
 .text.__string_out
                0x0001d1d6       0x26 c:/program files/microchip/xc32/v4.00/bin/bin/../../lib/gcc/pic32c/8.3.1/../../../../pic32c/lib/thumb/v7e-m+fp/hard\libg-musl.a(__printf_core.o)
                0x0001d1d6                __out

.text.DRV_ETHPHY_VendorDataSet%742
                0x0001d1fc       0x24
 .text.DRV_ETHPHY_VendorDataSet
                0x0001d1fc       0x24 build/default/debug/_ext/444070925/drv_ethphy.o
                0x0001d1fc                DRV_ETHPHY_VendorDataSet

.rodata%743     0x0001d220       0x24
 .rodata        0x0001d220       0x24 build/default/debug/_ext/1546807373/drv_gmac.o

.text.DRV_PIC32CGMAC_LibSysInt_Disable%744
                0x0001d244       0x24
 .text.DRV_PIC32CGMAC_LibSysInt_Disable
                0x0001d244       0x24 build/default/debug/_ext/1546807373/drv_gmac_lib_samE5x.o
                0x0001d244                DRV_PIC32CGMAC_LibSysInt_Disable

.text.DRV_SDMMC_GeometryGet%745
                0x0001d268       0x24
 .text.DRV_SDMMC_GeometryGet
                0x0001d268       0x24 build/default/debug/_ext/20954303/drv_sdmmc.o
                0x0001d268                DRV_SDMMC_GeometryGet

.text.Shell_Delete%746
                0x0001d28c       0x24
 .text.Shell_Delete
                0x0001d28c       0x24 build/default/debug/_ext/1751889202/sys_fs_shell.o

.text.TCPIP_TCP_SignalHandlerDeregister%747
                0x0001d2b0       0x24
 .text.TCPIP_TCP_SignalHandlerDeregister
                0x0001d2b0       0x24 build/default/debug/_ext/1033058136/tcp.o
                0x0001d2b0                TCPIP_TCP_SignalHandlerDeregister

.text._ARPAllocateTxPacket%748
                0x0001d2d4       0x24
 .text._ARPAllocateTxPacket
                0x0001d2d4       0x24 build/default/debug/_ext/1033058136/arp.o

.text.TCPIP_ARP_HandlerDeRegister%749
                0x0001d2f8       0x24
 .text.TCPIP_ARP_HandlerDeRegister
                0x0001d2f8       0x24 build/default/debug/_ext/1033058136/arp.o
                0x0001d2f8                TCPIP_ARP_HandlerDeRegister

.rodata._tcpip_heap_object%750
                0x0001d31c       0x24
 .rodata._tcpip_heap_object
                0x0001d31c       0x24 build/default/debug/_ext/1033058136/tcpip_heap_internal.o

.text.TCPIP_STACK_IPAddToNet%751
                0x0001d340       0x24
 .text.TCPIP_STACK_IPAddToNet
                0x0001d340       0x24 build/default/debug/_ext/1033058136/tcpip_manager.o
                0x0001d340                TCPIP_STACK_IPAddToNet

.text.NET_PRES_SignalHandler%752
                0x0001d364       0x24
 .text.NET_PRES_SignalHandler
                0x0001d364       0x24 build/default/debug/_ext/1508031553/net_pres.o

.text.f_chdrive%753
                0x0001d388       0x24
 .text.f_chdrive
                0x0001d388       0x24 build/default/debug/_ext/411819097/ff.o
                0x0001d388                f_chdrive

.rodata.drvSDMMC0InitData%754
                0x0001d3ac       0x24
 .rodata.drvSDMMC0InitData
                0x0001d3ac       0x24 build/default/debug/_ext/1171490990/initialization.o
                0x0001d3ac                drvSDMMC0InitData

.text._UDPFreeRxQueue%755
                0x0001d3d0       0x24
 .text._UDPFreeRxQueue
                0x0001d3d0       0x24 build/default/debug/_ext/1033058136/udp.o

.text.TCPIP_UDP_SignalHandlerDeregister%756
                0x0001d3f4       0x24
 .text.TCPIP_UDP_SignalHandlerDeregister
                0x0001d3f4       0x24 build/default/debug/_ext/1033058136/udp.o
                0x0001d3f4                TCPIP_UDP_SignalHandlerDeregister

.text.strncmp%757
                0x0001d418       0x24
 .text.strncmp  0x0001d418       0x24 c:/program files/microchip/xc32/v4.00/bin/bin/../../lib/gcc/pic32c/8.3.1/../../../../pic32c/lib/thumb/v7e-m+fp/hard\libg-musl.a(strncmp.o)
                0x0001d418                strncmp

.text._DRV_PHY_SMITransfer_Wait%758
                0x0001d43c       0x22
 .text._DRV_PHY_SMITransfer_Wait
                0x0001d43c       0x22 build/default/debug/_ext/444070925/drv_ethphy.o

.text.DRV_MIIM_Close%759
                0x0001d45e       0x22
 .text.DRV_MIIM_Close
                0x0001d45e       0x22 build/default/debug/_ext/438849557/drv_miim.o
                0x0001d45e                DRV_MIIM_Close

.text.SDHC1_ClockEnable%760
                0x0001d480       0x22
 .text.SDHC1_ClockEnable
                0x0001d480       0x22 build/default/debug/_ext/1865600094/plib_sdhc1.o
                0x0001d480                SDHC1_ClockEnable

.text.SYS_FS_MEDIA_MANAGER_IsFSFat%761
                0x0001d4a2       0x22
 .text.SYS_FS_MEDIA_MANAGER_IsFSFat
                0x0001d4a2       0x22 build/default/debug/_ext/1269487135/sys_fs_media_manager.o

.text.FATFS_chdrive%762
                0x0001d4c4       0x22
 .text.FATFS_chdrive
                0x0001d4c4       0x22 build/default/debug/_ext/1269487135/sys_fs_fat_interface.o
                0x0001d4c4                FATFS_chdrive

.text._UDPTxPktValid%763
                0x0001d4e6       0x22
 .text._UDPTxPktValid
                0x0001d4e6       0x22 build/default/debug/_ext/1033058136/udp.o

.text.TCPIP_UDP_Discard%764
                0x0001d508       0x22
 .text.TCPIP_UDP_Discard
                0x0001d508       0x22 build/default/debug/_ext/1033058136/udp.o
                0x0001d508                TCPIP_UDP_Discard

.text.DRV_ETHPHY_Status%765
                0x0001d52c       0x20
 .text.DRV_ETHPHY_Status
                0x0001d52c       0x20 build/default/debug/_ext/444070925/drv_ethphy.o
                0x0001d52c                DRV_ETHPHY_Status

.text.DRV_ETHPHY_ClientStatus%766
                0x0001d54c       0x20
 .text.DRV_ETHPHY_ClientStatus
                0x0001d54c       0x20 build/default/debug/_ext/444070925/drv_ethphy.o
                0x0001d54c                DRV_ETHPHY_ClientStatus

.text.DRV_ETHPHY_ClientOperationResult%767
                0x0001d56c       0x20
 .text.DRV_ETHPHY_ClientOperationResult
                0x0001d56c       0x20 build/default/debug/_ext/444070925/drv_ethphy.o
                0x0001d56c                DRV_ETHPHY_ClientOperationResult

.text._DRV_ETHPHY_ClientOpReset%768
                0x0001d58c       0x20
 .text._DRV_ETHPHY_ClientOpReset
                0x0001d58c       0x20 build/default/debug/_ext/444070925/drv_ethphy.o

.text._DRV_ETHPHY_ClientOpNegRestart%769
                0x0001d5ac       0x20
 .text._DRV_ETHPHY_ClientOpNegRestart
                0x0001d5ac       0x20 build/default/debug/_ext/444070925/drv_ethphy.o

.text._DRV_ETHPHY_ClientOpNegResult%770
                0x0001d5cc       0x20
 .text._DRV_ETHPHY_ClientOpNegResult
                0x0001d5cc       0x20 build/default/debug/_ext/444070925/drv_ethphy.o

.text._DRV_ETHPHY_ClientOpNegComplete%771
                0x0001d5ec       0x20
 .text._DRV_ETHPHY_ClientOpNegComplete
                0x0001d5ec       0x20 build/default/debug/_ext/444070925/drv_ethphy.o

.text._DRV_ETHPHY_ClientOpLinkStat%772
                0x0001d60c       0x20
 .text._DRV_ETHPHY_ClientOpLinkStat
                0x0001d60c       0x20 build/default/debug/_ext/444070925/drv_ethphy.o

.text._DRV_ETHPHY_ClientOpSetup%773
                0x0001d62c       0x20
 .text._DRV_ETHPHY_ClientOpSetup
                0x0001d62c       0x20 build/default/debug/_ext/444070925/drv_ethphy.o

.text._DRV_ETHPHY_SetupPhaseNegotiate%774
                0x0001d64c       0x20
 .text._DRV_ETHPHY_SetupPhaseNegotiate
                0x0001d64c       0x20 build/default/debug/_ext/444070925/drv_ethphy.o

.rodata%775     0x0001d66c       0x20
 .rodata        0x0001d66c       0x20 build/default/debug/_ext/444070925/drv_ethphy.o

.rodata._DRV_PHY_SetupPhaseNegotiateSubPhaseTbl%776
                0x0001d68c       0x20
 .rodata._DRV_PHY_SetupPhaseNegotiateSubPhaseTbl
                0x0001d68c       0x20 build/default/debug/_ext/444070925/drv_ethphy.o

.text.DRV_GMAC_Close%777
                0x0001d6ac       0x20
 .text.DRV_GMAC_Close
                0x0001d6ac       0x20 build/default/debug/_ext/1546807373/drv_gmac.o
                0x0001d6ac                DRV_GMAC_Close

.text._MACTxAcknowledgeEth%778
                0x0001d6cc       0x20
 .text._MACTxAcknowledgeEth
                0x0001d6cc       0x20 build/default/debug/_ext/1546807373/drv_gmac.o

.text.DRV_GMAC_Deinitialize%779
                0x0001d6ec       0x20
 .text.DRV_GMAC_Deinitialize
                0x0001d6ec       0x20 build/default/debug/_ext/1546807373/drv_gmac.o
                0x0001d6ec                DRV_GMAC_Deinitialize

.text.DRV_PIC32CGMAC_LibTransferEnable%780
                0x0001d70c       0x20
 .text.DRV_PIC32CGMAC_LibTransferEnable
                0x0001d70c       0x20 build/default/debug/_ext/1546807373/drv_gmac_lib_samE5x.o
                0x0001d70c                DRV_PIC32CGMAC_LibTransferEnable

.text.DRV_GMAC_LibDescriptorsPoolAdd%781
                0x0001d72c       0x20
 .text.DRV_GMAC_LibDescriptorsPoolAdd
                0x0001d72c       0x20 build/default/debug/_ext/1546807373/drv_gmac_lib_samE5x.o
                0x0001d72c                DRV_GMAC_LibDescriptorsPoolAdd

.rodata.TRAN_SPEED_UNIT_TABLE.9229%782
                0x0001d74c       0x20
 .rodata.TRAN_SPEED_UNIT_TABLE.9229
                0x0001d74c       0x20 build/default/debug/_ext/20954303/drv_sdmmc.o

.text._SwapARPPacket%783
                0x0001d76c       0x20
 .text._SwapARPPacket
                0x0001d76c       0x20 build/default/debug/_ext/1033058136/arp.o

.text.TCPIP_DNS_OAHASH_KeyHash%784
                0x0001d78c       0x20
 .text.TCPIP_DNS_OAHASH_KeyHash
                0x0001d78c       0x20 build/default/debug/_ext/1033058136/dns.o

.rodata.TCPIP_MAC_POWER_TBL%785
                0x0001d7ac       0x20
 .rodata.TCPIP_MAC_POWER_TBL
                0x0001d7ac       0x20 build/default/debug/_ext/1033058136/tcpip_helpers.o

.text.TCPIP_STACK_IndexToNet%786
                0x0001d7cc       0x20
 .text.TCPIP_STACK_IndexToNet
                0x0001d7cc       0x20 build/default/debug/_ext/1033058136/tcpip_manager.o
                0x0001d7cc                TCPIP_STACK_IndexToNet

.text._TCPIPStackHandleToNetLinked%787
                0x0001d7ec       0x20
 .text._TCPIPStackHandleToNetLinked
                0x0001d7ec       0x20 build/default/debug/_ext/1033058136/tcpip_manager.o
                0x0001d7ec                _TCPIPStackHandleToNetLinked

.text.TCPIP_Notification_Remove%788
                0x0001d80c       0x20
 .text.TCPIP_Notification_Remove
                0x0001d80c       0x20 build/default/debug/_ext/1033058136/tcpip_notify.o
                0x0001d80c                TCPIP_Notification_Remove

.rodata%789     0x0001d82c       0x20
 .rodata        0x0001d82c       0x20 build/default/debug/_ext/1033058136/tcpip_packet.o

.text.ld_clust%790
                0x0001d84c       0x20
 .text.ld_clust
                0x0001d84c       0x20 build/default/debug/_ext/411819097/ff.o

.text.diskEventHandler%791
                0x0001d86c       0x20
 .text.diskEventHandler
                0x0001d86c       0x20 build/default/debug/_ext/565198302/diskio.o
                0x0001d86c                diskEventHandler

.text.SYS_FS_MEDIA_MANAGER_TransferTask%792
                0x0001d88c       0x20
 .text.SYS_FS_MEDIA_MANAGER_TransferTask
                0x0001d88c       0x20 build/default/debug/_ext/1269487135/sys_fs_media_manager.o
                0x0001d88c                SYS_FS_MEDIA_MANAGER_TransferTask

.rodata%793     0x0001d8ac       0x20
 .rodata        0x0001d8ac       0x20 build/default/debug/_ext/1269487135/sys_fs_media_manager.o

.text.SYS_INT_SourceRestore%794
                0x0001d8cc       0x20
 .text.SYS_INT_SourceRestore
                0x0001d8cc       0x20 build/default/debug/_ext/1881668453/sys_int.o
                0x0001d8cc                SYS_INT_SourceRestore

.rodata.netPresCfgs%795
                0x0001d8ec       0x20
 .rodata.netPresCfgs
                0x0001d8ec       0x20 build/default/debug/_ext/1171490990/initialization.o

.rodata.tcpipPhyInitData_KSZ8061%796
                0x0001d90c       0x20
 .rodata.tcpipPhyInitData_KSZ8061
                0x0001d90c       0x20 build/default/debug/_ext/1171490990/initialization.o
                0x0001d90c                tcpipPhyInitData_KSZ8061

.text.TCPIP_UDP_DestinationPortSet%797
                0x0001d92c       0x20
 .text.TCPIP_UDP_DestinationPortSet
                0x0001d92c       0x20 build/default/debug/_ext/1033058136/udp.o
                0x0001d92c                TCPIP_UDP_DestinationPortSet

.text.lock_bin%798
                0x0001d94c       0x20
 .text.lock_bin
                0x0001d94c       0x20 c:/program files/microchip/xc32/v4.00/bin/bin/../../lib/gcc/pic32c/8.3.1/../../../../pic32c/lib/thumb/v7e-m+fp/hard\libg-musl.a(malloc.o)

.text._DRV_GMAC_LinkStateDown%799
                0x0001d96c       0x1e
 .text._DRV_GMAC_LinkStateDown
                0x0001d96c       0x1e build/default/debug/_ext/1546807373/drv_gmac.o

.text._TCPIsGetReady%800
                0x0001d98a       0x1e
 .text._TCPIsGetReady
                0x0001d98a       0x1e build/default/debug/_ext/1033058136/tcp.o

.text.TCPIP_Helper_ProtectedSingleListInitialize%801
                0x0001d9a8       0x1e
 .text.TCPIP_Helper_ProtectedSingleListInitialize
                0x0001d9a8       0x1e build/default/debug/_ext/1033058136/tcpip_helpers.o
                0x0001d9a8                TCPIP_Helper_ProtectedSingleListInitialize

.text.TCPIP_STACK_NetAddressBcast%802
                0x0001d9c6       0x1e
 .text.TCPIP_STACK_NetAddressBcast
                0x0001d9c6       0x1e build/default/debug/_ext/1033058136/tcpip_manager.o
                0x0001d9c6                TCPIP_STACK_NetAddressBcast

.text.TCPIP_STACK_NetAddress%803
                0x0001d9e4       0x1e
 .text.TCPIP_STACK_NetAddress
                0x0001d9e4       0x1e build/default/debug/_ext/1033058136/tcpip_manager.o
                0x0001d9e4                TCPIP_STACK_NetAddress

.text.TCPIP_STACK_NetworkIsLinked%804
                0x0001da02       0x1e
 .text.TCPIP_STACK_NetworkIsLinked
                0x0001da02       0x1e build/default/debug/_ext/1033058136/tcpip_manager.o
                0x0001da02                TCPIP_STACK_NetworkIsLinked

.text.TCPIP_PKT_PayloadLen%805
                0x0001da20       0x1e
 .text.TCPIP_PKT_PayloadLen
                0x0001da20       0x1e build/default/debug/_ext/1033058136/tcpip_packet.o
                0x0001da20                TCPIP_PKT_PayloadLen

.text.sum_sfn%806
                0x0001da3e       0x1e
 .text.sum_sfn  0x0001da3e       0x1e build/default/debug/_ext/411819097/ff.o

.text.FATFS_close%807
                0x0001da5c       0x1e
 .text.FATFS_close
                0x0001da5c       0x1e build/default/debug/_ext/1269487135/sys_fs_fat_interface.o
                0x0001da5c                FATFS_close

.text.FATFS_closedir%808
                0x0001da7a       0x1e
 .text.FATFS_closedir
                0x0001da7a       0x1e build/default/debug/_ext/1269487135/sys_fs_fat_interface.o
                0x0001da7a                FATFS_closedir

.text._FieldSetIpv4Addr%809
                0x0001da98       0x1e
 .text._FieldSetIpv4Addr
                0x0001da98       0x1e build/default/debug/_ext/1033058136/tcpip_announce.o
                0x0001da98                _FieldSetIpv4Addr

.text._DRV_ETHPHY_ResetPhaseIdle%810
                0x0001dab6       0x1c
 .text._DRV_ETHPHY_ResetPhaseIdle
                0x0001dab6       0x1c build/default/debug/_ext/444070925/drv_ethphy.o

.rodata._DRV_PHY_ClientOpTbl%811
                0x0001dad4       0x1c
 .rodata._DRV_PHY_ClientOpTbl
                0x0001dad4       0x1c build/default/debug/_ext/444070925/drv_ethphy.o

.text.DRV_GMAC_EventPendingGet%812
                0x0001daf0       0x1c
 .text.DRV_GMAC_EventPendingGet
                0x0001daf0       0x1c build/default/debug/_ext/1546807373/drv_gmac.o
                0x0001daf0                DRV_GMAC_EventPendingGet

.text.DRV_PIC32CGMAC_LibClose%813
                0x0001db0c       0x1c
 .text.DRV_PIC32CGMAC_LibClose
                0x0001db0c       0x1c build/default/debug/_ext/1546807373/drv_gmac_lib_samE5x.o
                0x0001db0c                DRV_PIC32CGMAC_LibClose

.text.DRV_PIC32CGMAC_SingleListHeadRemove%814
                0x0001db28       0x1c
 .text.DRV_PIC32CGMAC_SingleListHeadRemove
                0x0001db28       0x1c build/default/debug/_ext/1546807373/drv_gmac_lib_samE5x.o
                0x0001db28                DRV_PIC32CGMAC_SingleListHeadRemove

.text.Helper_SingleListHeadRemove%815
                0x0001db44       0x1c
 .text.Helper_SingleListHeadRemove
                0x0001db44       0x1c build/default/debug/_ext/438849557/drv_miim.o
                0x0001db44                Helper_SingleListHeadRemove

.text.Shell_LastError%816
                0x0001db60       0x1c
 .text.Shell_LastError
                0x0001db60       0x1c build/default/debug/_ext/1751889202/sys_fs_shell.o

.text._ARPTxAckFnc%817
                0x0001db7c       0x1c
 .text._ARPTxAckFnc
                0x0001db7c       0x1c build/default/debug/_ext/1033058136/arp.o

.text.TCPIP_IPV4_MaxDatagramDataSizeGet%818
                0x0001db98       0x1c
 .text.TCPIP_IPV4_MaxDatagramDataSizeGet
                0x0001db98       0x1c build/default/debug/_ext/1033058136/ipv4.o
                0x0001db98                TCPIP_IPV4_MaxDatagramDataSizeGet

.text._TCPIP_HEAP_Calloc%819
                0x0001dbb4       0x1c
 .text._TCPIP_HEAP_Calloc
                0x0001dbb4       0x1c build/default/debug/_ext/1033058136/tcpip_heap_internal.o

.text.TCPIP_Helper_SingleListHeadRemove%820
                0x0001dbd0       0x1c
 .text.TCPIP_Helper_SingleListHeadRemove
                0x0001dbd0       0x1c build/default/debug/_ext/1033058136/tcpip_helpers.o
                0x0001dbd0                TCPIP_Helper_SingleListHeadRemove

.text.TCPIP_Helper_ProtectedSingleListUnlock%821
                0x0001dbec       0x1c
 .text.TCPIP_Helper_ProtectedSingleListUnlock
                0x0001dbec       0x1c build/default/debug/_ext/1033058136/tcpip_helpers.o
                0x0001dbec                TCPIP_Helper_ProtectedSingleListUnlock

.text._TCPIPSignalEntryNotify%822
                0x0001dc08       0x1c
 .text._TCPIPSignalEntryNotify
                0x0001dc08       0x1c build/default/debug/_ext/1033058136/tcpip_manager.o

.text.TCPIP_STACK_Status%823
                0x0001dc24       0x1c
 .text.TCPIP_STACK_Status
                0x0001dc24       0x1c build/default/debug/_ext/1033058136/tcpip_manager.o
                0x0001dc24                TCPIP_STACK_Status

.text.TCPIP_FTP_LIST_Add%824
                0x0001dc40       0x1c
 .text.TCPIP_FTP_LIST_Add
                0x0001dc40       0x1c build/default/debug/_ext/1033058136/ftp.o
                0x0001dc40                TCPIP_FTP_LIST_Add

.text.SDHC1_BlockSizeSet%825
                0x0001dc5c       0x1c
 .text.SDHC1_BlockSizeSet
                0x0001dc5c       0x1c build/default/debug/_ext/1865600094/plib_sdhc1.o
                0x0001dc5c                SDHC1_BlockSizeSet

.text.SDHC1_DmaSetup%826
                0x0001dc78       0x1c
 .text.SDHC1_DmaSetup
                0x0001dc78       0x1c build/default/debug/_ext/1865600094/plib_sdhc1.o
                0x0001dc78                SDHC1_DmaSetup

.text.SYS_DEBUG_Initialize%827
                0x0001dc94       0x1c
 .text.SYS_DEBUG_Initialize
                0x0001dc94       0x1c build/default/debug/_ext/944882569/sys_debug.o
                0x0001dc94                SYS_DEBUG_Initialize

.text.SYS_FS_MEDIA_MANAGER_GetMediaGeometry%828
                0x0001dcb0       0x1c
 .text.SYS_FS_MEDIA_MANAGER_GetMediaGeometry
                0x0001dcb0       0x1c build/default/debug/_ext/1269487135/sys_fs_media_manager.o
                0x0001dcb0                SYS_FS_MEDIA_MANAGER_GetMediaGeometry

.text.SYS_TIME_MSToCount%829
                0x0001dccc       0x1c
 .text.SYS_TIME_MSToCount
                0x0001dccc       0x1c build/default/debug/_ext/101884895/sys_time.o
                0x0001dccc                SYS_TIME_MSToCount

.text.SYS_TMR_CallbackPeriodic%830
                0x0001dce8       0x1c
 .text.SYS_TMR_CallbackPeriodic
                0x0001dce8       0x1c build/default/debug/_ext/753841488/sys_time_h2_adapter.o
                0x0001dce8                SYS_TMR_CallbackPeriodic

.rodata.sysTimePlibAPI%831
                0x0001dd04       0x1c
 .rodata.sysTimePlibAPI
                0x0001dd04       0x1c build/default/debug/_ext/1171490990/initialization.o
                0x0001dd04                sysTimePlibAPI

.rodata._AnnounceSendTbl%832
                0x0001dd20       0x1c
 .rodata._AnnounceSendTbl
                0x0001dd20       0x1c build/default/debug/_ext/1033058136/tcpip_announce.o

.text.isxdigit%833
                0x0001dd3c       0x1c
 .text.isxdigit
                0x0001dd3c       0x1c c:/program files/microchip/xc32/v4.00/bin/bin/../../lib/gcc/pic32c/8.3.1/../../../../pic32c/lib/thumb/v7e-m+fp/hard\libg-musl.a(isxdigit.o)
                0x0001dd3c                isxdigit

.text.calloc%834
                0x0001dd58       0x1c
 .text.calloc   0x0001dd58       0x1c c:/program files/microchip/xc32/v4.00/bin/bin/../../lib/gcc/pic32c/8.3.1/../../../../pic32c/lib/thumb/v7e-m+fp/hard\libg-musl.a(calloc.o)
                0x0001dd58                calloc

.text.memcmp%835
                0x0001dd74       0x1c
 .text.memcmp   0x0001dd74       0x1c c:/program files/microchip/xc32/v4.00/bin/bin/../../lib/gcc/pic32c/8.3.1/../../../../pic32c/lib/thumb/v7e-m+fp/hard\libg-musl.a(memcmp.o)
                0x0001dd74                memcmp

.text.vfprintf%836
                0x0001dd90       0x1c
 .text.vfprintf
                0x0001dd90       0x1c c:/program files/microchip/xc32/v4.00/bin/bin/../../lib/gcc/pic32c/8.3.1/../../../../pic32c/lib/thumb/v7e-m+fp/hard\libg-musl.a(vfprintf.o)
                0x0001dd90                vfprintf

.rodata%837     0x0001ddac       0x1c
 .rodata        0x0001ddac       0x1c c:/program files/microchip/xc32/v4.00/bin/bin/../../lib/gcc/pic32c/8.3.1/../../../../pic32c/lib/thumb/v7e-m+fp/hard\libg-musl.a(__printf_core.o)

.text.DRV_PIC32CGMAC_SingleListTailAdd%838
                0x0001ddc8       0x1a
 .text.DRV_PIC32CGMAC_SingleListTailAdd
                0x0001ddc8       0x1a build/default/debug/_ext/1546807373/drv_gmac_lib_samE5x.o
                0x0001ddc8                DRV_PIC32CGMAC_SingleListTailAdd

.text.Helper_SingleListTailAdd%839
                0x0001dde2       0x1a
 .text.Helper_SingleListTailAdd
                0x0001dde2       0x1a build/default/debug/_ext/438849557/drv_miim.o
                0x0001dde2                Helper_SingleListTailAdd

.text.DRV_MIIM_Read%840
                0x0001ddfc       0x1a
 .text.DRV_MIIM_Read
                0x0001ddfc       0x1a build/default/debug/_ext/438849557/drv_miim.o
                0x0001ddfc                DRV_MIIM_Read

.text.DRV_MIIM_Write%841
                0x0001de16       0x1a
 .text.DRV_MIIM_Write
                0x0001de16       0x1a build/default/debug/_ext/438849557/drv_miim.o
                0x0001de16                DRV_MIIM_Write

.text.DRV_MIIM_Scan%842
                0x0001de30       0x1a
 .text.DRV_MIIM_Scan
                0x0001de30       0x1a build/default/debug/_ext/438849557/drv_miim.o
                0x0001de30                DRV_MIIM_Scan

.text.TCPIP_TCP_ClientOpen%843
                0x0001de4a       0x1a
 .text.TCPIP_TCP_ClientOpen
                0x0001de4a       0x1a build/default/debug/_ext/1033058136/tcp.o
                0x0001de4a                TCPIP_TCP_ClientOpen

.text.TCPIP_TCP_Disconnect%844
                0x0001de64       0x1a
 .text.TCPIP_TCP_Disconnect
                0x0001de64       0x1a build/default/debug/_ext/1033058136/tcp.o
                0x0001de64                TCPIP_TCP_Disconnect

.text.TCPIP_TCP_PutIsReady%845
                0x0001de7e       0x1a
 .text.TCPIP_TCP_PutIsReady
                0x0001de7e       0x1a build/default/debug/_ext/1033058136/tcp.o
                0x0001de7e                TCPIP_TCP_PutIsReady

.text.TCPIP_Helper_SingleListTailAdd%846
                0x0001de98       0x1a
 .text.TCPIP_Helper_SingleListTailAdd
                0x0001de98       0x1a build/default/debug/_ext/1033058136/tcpip_helpers.o
                0x0001de98                TCPIP_Helper_SingleListTailAdd

.text.TCPIP_Helper_SingleListAppend%847
                0x0001deb2       0x1a
 .text.TCPIP_Helper_SingleListAppend
                0x0001deb2       0x1a build/default/debug/_ext/1033058136/tcpip_helpers.o
                0x0001deb2                TCPIP_Helper_SingleListAppend

.text.TCPIP_STACK_NetIsReady%848
                0x0001decc       0x1a
 .text.TCPIP_STACK_NetIsReady
                0x0001decc       0x1a build/default/debug/_ext/1033058136/tcpip_manager.o
                0x0001decc                TCPIP_STACK_NetIsReady

.text.TCPIP_Notification_RemoveAll%849
                0x0001dee6       0x1a
 .text.TCPIP_Notification_RemoveAll
                0x0001dee6       0x1a build/default/debug/_ext/1033058136/tcpip_notify.o
                0x0001dee6                TCPIP_Notification_RemoveAll

.text.SDHC1_BusWidthSet%850
                0x0001df00       0x1a
 .text.SDHC1_BusWidthSet
                0x0001df00       0x1a build/default/debug/_ext/1865600094/plib_sdhc1.o
                0x0001df00                SDHC1_BusWidthSet

.text.SDHC1_SpeedModeSet%851
                0x0001df1a       0x1a
 .text.SDHC1_SpeedModeSet
                0x0001df1a       0x1a build/default/debug/_ext/1865600094/plib_sdhc1.o
                0x0001df1a                SDHC1_SpeedModeSet

.text.st_clust%852
                0x0001df34       0x1a
 .text.st_clust
                0x0001df34       0x1a build/default/debug/_ext/411819097/ff.o

.text.FATFS_readdir%853
                0x0001df4e       0x1a
 .text.FATFS_readdir
                0x0001df4e       0x1a build/default/debug/_ext/1269487135/sys_fs_fat_interface.o
                0x0001df4e                FATFS_readdir

.text.TCPIP_UDP_TxPointerGet%854
                0x0001df68       0x1a
 .text.TCPIP_UDP_TxPointerGet
                0x0001df68       0x1a build/default/debug/_ext/1033058136/udp.o
                0x0001df68                TCPIP_UDP_TxPointerGet

.text.snprintf%855
                0x0001df82       0x1a
 .text.snprintf
                0x0001df82       0x1a c:/program files/microchip/xc32/v4.00/bin/bin/../../lib/gcc/pic32c/8.3.1/../../../../pic32c/lib/thumb/v7e-m+fp/hard\libg-musl.a(snprintf.o)
                0x0001df82                __snprintf_dis
                0x0001df82                snprintf

.text.sprintf%856
                0x0001df9c       0x1a
 .text.sprintf  0x0001df9c       0x1a c:/program files/microchip/xc32/v4.00/bin/bin/../../lib/gcc/pic32c/8.3.1/../../../../pic32c/lib/thumb/v7e-m+fp/hard\libg-musl.a(sprintf.o)
                0x0001df9c                __sprintf_u
                0x0001df9c                __sprintf_dis
                0x0001df9c                __sprintf_s
                0x0001df9c                sprintf
                0x0001df9c                __sprintf_oxX
                0x0001df9c                __sprintf_di

.text.DRV_ETHPHY_Deinitialize%857
                0x0001dfb8       0x18
 .text.DRV_ETHPHY_Deinitialize
                0x0001dfb8       0x18 build/default/debug/_ext/444070925/drv_ethphy.o
                0x0001dfb8                DRV_ETHPHY_Deinitialize

.text._DRV_ETHPHY_NegCompletePhaseResultNoWait%858
                0x0001dfd0       0x18
 .text._DRV_ETHPHY_NegCompletePhaseResultNoWait
                0x0001dfd0       0x18 build/default/debug/_ext/444070925/drv_ethphy.o

.text._DRV_ETHPHY_SetupPhaseNegotiate_SubPhase5%859
                0x0001dfe8       0x18
 .text._DRV_ETHPHY_SetupPhaseNegotiate_SubPhase5
                0x0001dfe8       0x18 build/default/debug/_ext/444070925/drv_ethphy.o

.text._DRV_ETHPHY_LinkStatPhaseIdle%860
                0x0001e000       0x18
 .text._DRV_ETHPHY_LinkStatPhaseIdle
                0x0001e000       0x18 build/default/debug/_ext/444070925/drv_ethphy.o

.text._DRV_ETHPHY_NegCompletePhaseIdle%861
                0x0001e018       0x18
 .text._DRV_ETHPHY_NegCompletePhaseIdle
                0x0001e018       0x18 build/default/debug/_ext/444070925/drv_ethphy.o

.text._DRV_ETHPHY_NegResultPhaseIdle%862
                0x0001e030       0x18
 .text._DRV_ETHPHY_NegResultPhaseIdle
                0x0001e030       0x18 build/default/debug/_ext/444070925/drv_ethphy.o

.text._DRV_ETHPHY_NegRestartPhaseIdle%863
                0x0001e048       0x18
 .text._DRV_ETHPHY_NegRestartPhaseIdle
                0x0001e048       0x18 build/default/debug/_ext/444070925/drv_ethphy.o

.rodata._DRV_PHY_NegCompletePhasesTbl%864
                0x0001e060       0x18
 .rodata._DRV_PHY_NegCompletePhasesTbl
                0x0001e060       0x18 build/default/debug/_ext/444070925/drv_ethphy.o

.text.DRV_PIC32CGMAC_SingleListHeadAdd%865
                0x0001e078       0x18
 .text.DRV_PIC32CGMAC_SingleListHeadAdd
                0x0001e078       0x18 build/default/debug/_ext/1546807373/drv_gmac_lib_samE5x.o
                0x0001e078                DRV_PIC32CGMAC_SingleListHeadAdd

.text.DRV_PIC32CGMAC_LibSysInt_Restore%866
                0x0001e090       0x18
 .text.DRV_PIC32CGMAC_LibSysInt_Restore
                0x0001e090       0x18 build/default/debug/_ext/1546807373/drv_gmac_lib_samE5x.o
                0x0001e090                DRV_PIC32CGMAC_LibSysInt_Restore

.text.TCPIP_ARP_HashKeyHash%867
                0x0001e0a8       0x18
 .text.TCPIP_ARP_HashKeyHash
                0x0001e0a8       0x18 build/default/debug/_ext/1033058136/arp.o
                0x0001e0a8                TCPIP_ARP_HashKeyHash

.text.TCPIP_OAHASH_EntryRemove%868
                0x0001e0c0       0x18
 .text.TCPIP_OAHASH_EntryRemove
                0x0001e0c0       0x18 build/default/debug/_ext/1033058136/oahash.o
                0x0001e0c0                TCPIP_OAHASH_EntryRemove

.text.TCPIP_STACK_NetAddressGet%869
                0x0001e0d8       0x18
 .text.TCPIP_STACK_NetAddressGet
                0x0001e0d8       0x18 build/default/debug/_ext/1033058136/tcpip_manager.o
                0x0001e0d8                TCPIP_STACK_NetAddressGet

.text._TCPIPStackModuleRxExtract%870
                0x0001e0f0       0x18
 .text._TCPIPStackModuleRxExtract
                0x0001e0f0       0x18 build/default/debug/_ext/1033058136/tcpip_manager.o
                0x0001e0f0                _TCPIPStackModuleRxExtract

.rodata.TCPIP_FRAME_PROCESS_TBL%871
                0x0001e108       0x18
 .rodata.TCPIP_FRAME_PROCESS_TBL
                0x0001e108       0x18 build/default/debug/_ext/1033058136/tcpip_manager.o

.text.TCPIP_ICMP_Cleanup%872
                0x0001e120       0x18
 .text.TCPIP_ICMP_Cleanup
                0x0001e120       0x18 build/default/debug/_ext/1033058136/icmp.o

.text.SDHC1_Initialize%873
                0x0001e138       0x18
 .text.SDHC1_Initialize
                0x0001e138       0x18 build/default/debug/_ext/1865600094/plib_sdhc1.o
                0x0001e138                SDHC1_Initialize

.text.SERCOM1_USART_WritePendingBytesGet%874
                0x0001e150       0x18
 .text.SERCOM1_USART_WritePendingBytesGet
                0x0001e150       0x18 build/default/debug/_ext/504274921/plib_sercom1_usart.o

.text.SERCOM1_USART_ReadCountGet%875
                0x0001e168       0x18
 .text.SERCOM1_USART_ReadCountGet
                0x0001e168       0x18 build/default/debug/_ext/504274921/plib_sercom1_usart.o
                0x0001e168                SERCOM1_USART_ReadCountGet

.text.TC0_TimerStart%876
                0x0001e180       0x18
 .text.TC0_TimerStart
                0x0001e180       0x18 build/default/debug/_ext/829342655/plib_tc0.o
                0x0001e180                TC0_TimerStart

.text.TC0_TimerStop%877
                0x0001e198       0x18
 .text.TC0_TimerStop
                0x0001e198       0x18 build/default/debug/_ext/829342655/plib_tc0.o
                0x0001e198                TC0_TimerStop

.text._SYS_FS_MEDIA_MANAGER_HandleMediaDetach%878
                0x0001e1b0       0x18
 .text._SYS_FS_MEDIA_MANAGER_HandleMediaDetach
                0x0001e1b0       0x18 build/default/debug/_ext/1269487135/sys_fs_media_manager.o

.text.FATFS_stat%879
                0x0001e1c8       0x18
 .text.FATFS_stat
                0x0001e1c8       0x18 build/default/debug/_ext/1269487135/sys_fs_fat_interface.o
                0x0001e1c8                FATFS_stat

.text.SYS_TIME_GetElapsedCount%880
                0x0001e1e0       0x18
 .text.SYS_TIME_GetElapsedCount
                0x0001e1e0       0x18 build/default/debug/_ext/101884895/sys_time.o

.text.SYS_TIME_DelayIsComplete%881
                0x0001e1f8       0x18
 .text.SYS_TIME_DelayIsComplete
                0x0001e1f8       0x18 build/default/debug/_ext/101884895/sys_time.o
                0x0001e1f8                SYS_TIME_DelayIsComplete

.rodata.sysConsole0UARTPlibAPI%882
                0x0001e210       0x18
 .rodata.sysConsole0UARTPlibAPI
                0x0001e210       0x18 build/default/debug/_ext/1171490990/initialization.o
                0x0001e210                sysConsole0UARTPlibAPI

.rodata.tcpipDNSClientInitData%883
                0x0001e228       0x18
 .rodata.tcpipDNSClientInitData
                0x0001e228       0x18 build/default/debug/_ext/1171490990/initialization.o
                0x0001e228                tcpipDNSClientInitData

.rodata.tcpipFTPInitData%884
                0x0001e240       0x18
 .rodata.tcpipFTPInitData
                0x0001e240       0x18 build/default/debug/_ext/1171490990/initialization.o
                0x0001e240                tcpipFTPInitData

.text.rand%885  0x0001e258       0x18
 .text.rand     0x0001e258       0x18 c:/program files/microchip/xc32/v4.00/bin/bin/../../lib/gcc/pic32c/8.3.1/../../../../pic32c/lib/thumb/v7e-m+fp/hard\libg-musl.a(rand.o)
                0x0001e258                rand

.text.strcmp%886
                0x0001e270       0x18
 .text.strcmp   0x0001e270       0x18 c:/program files/microchip/xc32/v4.00/bin/bin/../../lib/gcc/pic32c/8.3.1/../../../../pic32c/lib/thumb/v7e-m+fp/hard\libg-musl.a(strcmp.o)
                0x0001e270                strcmp

.text.DRV_MIIM_ClientStatus%887
                0x0001e288       0x16
 .text.DRV_MIIM_ClientStatus
                0x0001e288       0x16 build/default/debug/_ext/438849557/drv_miim.o
                0x0001e288                DRV_MIIM_ClientStatus

.text.TCPIP_TCP_WasDisconnected%888
                0x0001e29e       0x16
 .text.TCPIP_TCP_WasDisconnected
                0x0001e29e       0x16 build/default/debug/_ext/1033058136/tcp.o
                0x0001e29e                TCPIP_TCP_WasDisconnected

.text._TCPIP_HEAP_LastError%889
                0x0001e2b4       0x16
 .text._TCPIP_HEAP_LastError
                0x0001e2b4       0x16 build/default/debug/_ext/1033058136/tcpip_heap_internal.o

.text._DNSSocketRxSignalHandler%890
                0x0001e2ca       0x16
 .text._DNSSocketRxSignalHandler
                0x0001e2ca       0x16 build/default/debug/_ext/1033058136/dns.o

.text.TCPIP_Helper_TCPSecurePortGet%891
                0x0001e2e0       0x16
 .text.TCPIP_Helper_TCPSecurePortGet
                0x0001e2e0       0x16 build/default/debug/_ext/1033058136/tcpip_helpers.o
                0x0001e2e0                TCPIP_Helper_TCPSecurePortGet

.text.TCPIP_Helper_UDPSecurePortGet%892
                0x0001e2f6       0x16
 .text.TCPIP_Helper_UDPSecurePortGet
                0x0001e2f6       0x16 build/default/debug/_ext/1033058136/tcpip_helpers.o
                0x0001e2f6                TCPIP_Helper_UDPSecurePortGet

.text._TCPIPStackPacketTx%893
                0x0001e30c       0x16
 .text._TCPIPStackPacketTx
                0x0001e30c       0x16 build/default/debug/_ext/1033058136/tcpip_manager.o
                0x0001e30c                _TCPIPStackPacketTx

.text.ld_dword%894
                0x0001e322       0x16
 .text.ld_dword
                0x0001e322       0x16 build/default/debug/_ext/411819097/ff.o

.text.clst2sect%895
                0x0001e338       0x16
 .text.clst2sect
                0x0001e338       0x16 build/default/debug/_ext/411819097/ff.o

.text._TCPIP_AnnounceSocketRxSignalHandler%896
                0x0001e34e       0x16
 .text._TCPIP_AnnounceSocketRxSignalHandler
                0x0001e34e       0x16 build/default/debug/_ext/1033058136/tcpip_announce.o

.text.__expand_heap%897
                0x0001e364       0x16
 .text.__expand_heap
                0x0001e364       0x16 c:/program files/microchip/xc32/v4.00/bin/bin/../../lib/gcc/pic32c/8.3.1/../../../../pic32c/lib/thumb/v7e-m+fp/hard\libg-musl.a(expand_heap.o)
                0x0001e364                __expand_heap

.text.memcpy%898
                0x0001e37a       0x16
 .text.memcpy   0x0001e37a       0x16 c:/program files/microchip/xc32/v4.00/bin/bin/../../lib/gcc/pic32c/8.3.1/../../../../pic32c/lib/thumb/v7e-m+fp/hard\libg-musl.a(memcpy.o)
                0x0001e37a                memcpy

.rodata._DRV_PHY_NegResultPhasesTbl%899
                0x0001e390       0x14
 .rodata._DRV_PHY_NegResultPhasesTbl
                0x0001e390       0x14 build/default/debug/_ext/444070925/drv_ethphy.o

.rodata.DRV_ETHPHY_OBJECT_KSZ8061%900
                0x0001e3a4       0x14
 .rodata.DRV_ETHPHY_OBJECT_KSZ8061
                0x0001e3a4       0x14 build/default/debug/_ext/444070925/drv_extphy_ksz8061.o
                0x0001e3a4                DRV_ETHPHY_OBJECT_KSZ8061

.rodata._DRV_GMAC_LinkStateTbl%901
                0x0001e3b8       0x14
 .rodata._DRV_GMAC_LinkStateTbl
                0x0001e3b8       0x14 build/default/debug/_ext/1546807373/drv_gmac.o

.text.DRV_PIC32CGMAC_LibGetHighPrioReadyQue%902
                0x0001e3cc       0x14
 .text.DRV_PIC32CGMAC_LibGetHighPrioReadyQue
                0x0001e3cc       0x14 build/default/debug/_ext/1546807373/drv_gmac_lib_samE5x.o
                0x0001e3cc                DRV_PIC32CGMAC_LibGetHighPrioReadyQue

.text.DRV_SDMMC_RegisterWithSysFs%903
                0x0001e3e0       0x14
 .text.DRV_SDMMC_RegisterWithSysFs
                0x0001e3e0       0x14 build/default/debug/_ext/20954303/drv_sdmmc_file_system.o
                0x0001e3e0                DRV_SDMMC_RegisterWithSysFs

.text.DRV_SDMMC_AsyncRead%904
                0x0001e3f4       0x14
 .text.DRV_SDMMC_AsyncRead
                0x0001e3f4       0x14 build/default/debug/_ext/20954303/drv_sdmmc.o
                0x0001e3f4                DRV_SDMMC_AsyncRead

.text.DRV_SDMMC_AsyncWrite%905
                0x0001e408       0x14
 .text.DRV_SDMMC_AsyncWrite
                0x0001e408       0x14 build/default/debug/_ext/20954303/drv_sdmmc.o
                0x0001e408                DRV_SDMMC_AsyncWrite

.text.TCPIP_TCP_Abort%906
                0x0001e41c       0x14
 .text.TCPIP_TCP_Abort
                0x0001e41c       0x14 build/default/debug/_ext/1033058136/tcp.o
                0x0001e41c                TCPIP_TCP_Abort

.text.TCPIP_HEAP_Create%907
                0x0001e430       0x14
 .text.TCPIP_HEAP_Create
                0x0001e430       0x14 build/default/debug/_ext/1033058136/tcpip_heap_alloc.o
                0x0001e430                TCPIP_HEAP_Create

.text.TCPIP_STACK_NetUpMACAddressGet%908
                0x0001e444       0x14
 .text.TCPIP_STACK_NetUpMACAddressGet
                0x0001e444       0x14 build/default/debug/_ext/1033058136/tcpip_manager.o
                0x0001e444                TCPIP_STACK_NetUpMACAddressGet

.text.SDHC1_ErrorReset%909
                0x0001e458       0x14
 .text.SDHC1_ErrorReset
                0x0001e458       0x14 build/default/debug/_ext/1865600094/plib_sdhc1.o
                0x0001e458                SDHC1_ErrorReset

.text.SERCOM1_USART_ReadFreeBufferCountGet%910
                0x0001e46c       0x14
 .text.SERCOM1_USART_ReadFreeBufferCountGet
                0x0001e46c       0x14 build/default/debug/_ext/504274921/plib_sercom1_usart.o
                0x0001e46c                SERCOM1_USART_ReadFreeBufferCountGet

.text.SERCOM1_USART_WriteFreeBufferCountGet%911
                0x0001e480       0x14
 .text.SERCOM1_USART_WriteFreeBufferCountGet
                0x0001e480       0x14 build/default/debug/_ext/504274921/plib_sercom1_usart.o
                0x0001e480                SERCOM1_USART_WriteFreeBufferCountGet

.text.TC0_Timer16bitPeriodSet%912
                0x0001e494       0x14
 .text.TC0_Timer16bitPeriodSet
                0x0001e494       0x14 build/default/debug/_ext/829342655/plib_tc0.o
                0x0001e494                TC0_Timer16bitPeriodSet

.text.TC0_Timer16bitCompareSet%913
                0x0001e4a8       0x14
 .text.TC0_Timer16bitCompareSet
                0x0001e4a8       0x14 build/default/debug/_ext/829342655/plib_tc0.o
                0x0001e4a8                TC0_Timer16bitCompareSet

.text.Console_UART_Initialize%914
                0x0001e4bc       0x14
 .text.Console_UART_Initialize
                0x0001e4bc       0x14 build/default/debug/_ext/1832805299/sys_console_uart.o
                0x0001e4bc                Console_UART_Initialize

.rodata.badchr.9110%915
                0x0001e4d0       0x14
 .rodata.badchr.9110
                0x0001e4d0       0x14 build/default/debug/_ext/411819097/ff.o

.text.CRYPT_WCCB_Initialize%916
                0x0001e4e4       0x14
 .text.CRYPT_WCCB_Initialize
                0x0001e4e4       0x14 build/default/debug/_ext/172253694/crypt_wolfcryptcb.o
                0x0001e4e4                CRYPT_WCCB_Initialize

.text._FieldSetTruncated%917
                0x0001e4f8       0x14
 .text._FieldSetTruncated
                0x0001e4f8       0x14 build/default/debug/_ext/1033058136/tcpip_announce.o
                0x0001e4f8                _FieldSetTruncated

.text._UDPUpdatePacketLock%918
                0x0001e50c       0x14
 .text._UDPUpdatePacketLock
                0x0001e50c       0x14 build/default/debug/_ext/1033058136/udp.o

.text.strchr%919
                0x0001e520       0x14
 .text.strchr   0x0001e520       0x14 c:/program files/microchip/xc32/v4.00/bin/bin/../../lib/gcc/pic32c/8.3.1/../../../../pic32c/lib/thumb/v7e-m+fp/hard\libg-musl.a(strchr.o)
                0x0001e520                strchr

.text.TCPIP_TCP_GetIsReady%920
                0x0001e534       0x12
 .text.TCPIP_TCP_GetIsReady
                0x0001e534       0x12 build/default/debug/_ext/1033058136/tcp.o
                0x0001e534                TCPIP_TCP_GetIsReady

.text._TCPIP_HEAP_FreeSize%921
                0x0001e546       0x12
 .text._TCPIP_HEAP_FreeSize
                0x0001e546       0x12 build/default/debug/_ext/1033058136/tcpip_heap_internal.o

.text.TCPIP_OAHASH_EntryGet%922
                0x0001e558       0x12
 .text.TCPIP_OAHASH_EntryGet
                0x0001e558       0x12 build/default/debug/_ext/1033058136/oahash.o
                0x0001e558                TCPIP_OAHASH_EntryGet

.text.NVIC_INT_Disable%923
                0x0001e56a       0x12
 .text.NVIC_INT_Disable
                0x0001e56a       0x12 build/default/debug/_ext/1865468468/plib_nvic.o
                0x0001e56a                NVIC_INT_Disable

.text.NVIC_INT_Restore%924
                0x0001e57c       0x12
 .text.NVIC_INT_Restore
                0x0001e57c       0x12 build/default/debug/_ext/1865468468/plib_nvic.o
                0x0001e57c                NVIC_INT_Restore

.text.send%925  0x0001e58e       0x12
 .text.send     0x0001e58e       0x12 build/default/debug/_ext/1033058136/berkeley_api.o
                0x0001e58e                send

.text.stpcpy%926
                0x0001e5a0       0x12
 .text.stpcpy   0x0001e5a0       0x12 c:/program files/microchip/xc32/v4.00/bin/bin/../../lib/gcc/pic32c/8.3.1/../../../../pic32c/lib/thumb/v7e-m+fp/hard\libg-musl.a(stpcpy.o)
                0x0001e5a0                __stpcpy
                0x0001e5a0                stpcpy

.rodata._DRV_PHY_SetupPhasesTbl%927
                0x0001e5b4       0x10
 .rodata._DRV_PHY_SetupPhasesTbl
                0x0001e5b4       0x10 build/default/debug/_ext/444070925/drv_ethphy.o

.text.DRV_EXTPHY_MIIConfigure%928
                0x0001e5c4       0x10
 .text.DRV_EXTPHY_MIIConfigure
                0x0001e5c4       0x10 build/default/debug/_ext/444070925/drv_extphy_ksz8061.o

.text.DRV_PIC32CGMAC_LibSetInterruptSrc%929
                0x0001e5d4       0x10
 .text.DRV_PIC32CGMAC_LibSetInterruptSrc
                0x0001e5d4       0x10 build/default/debug/_ext/1546807373/drv_gmac_lib_samE5x.o
                0x0001e5d4                DRV_PIC32CGMAC_LibSetInterruptSrc

.text._Shell_ObjectLock%930
                0x0001e5e4       0x10
 .text._Shell_ObjectLock
                0x0001e5e4       0x10 build/default/debug/_ext/1751889202/sys_fs_shell.o

.text.TCPIP_Notification_Deinitialize%931
                0x0001e5f4       0x10
 .text.TCPIP_Notification_Deinitialize
                0x0001e5f4       0x10 build/default/debug/_ext/1033058136/tcpip_notify.o
                0x0001e5f4                TCPIP_Notification_Deinitialize

.text.NVMCTRL_Initialize%932
                0x0001e604       0x10
 .text.NVMCTRL_Initialize
                0x0001e604       0x10 build/default/debug/_ext/1593096446/plib_nvmctrl.o
                0x0001e604                NVMCTRL_Initialize

.text.SDHC1_CommandErrorGet%933
                0x0001e614       0x10
 .text.SDHC1_CommandErrorGet
                0x0001e614       0x10 build/default/debug/_ext/1865600094/plib_sdhc1.o
                0x0001e614                SDHC1_CommandErrorGet

.text.SDHC1_DataErrorGet%934
                0x0001e624       0x10
 .text.SDHC1_DataErrorGet
                0x0001e624       0x10 build/default/debug/_ext/1865600094/plib_sdhc1.o
                0x0001e624                SDHC1_DataErrorGet

.text.SDHC1_CallbackRegister%935
                0x0001e634       0x10
 .text.SDHC1_CallbackRegister
                0x0001e634       0x10 build/default/debug/_ext/1865600094/plib_sdhc1.o
                0x0001e634                SDHC1_CallbackRegister

.text.Console_UART_Status%936
                0x0001e644       0x10
 .text.Console_UART_Status
                0x0001e644       0x10 build/default/debug/_ext/1832805299/sys_console_uart.o
                0x0001e644                Console_UART_Status

.text.st_dword%937
                0x0001e654       0x10
 .text.st_dword
                0x0001e654       0x10 build/default/debug/_ext/411819097/ff.o

.rodata.LfnOfs%938
                0x0001e664       0x10
 .rodata.LfnOfs
                0x0001e664       0x10 build/default/debug/_ext/411819097/ff.o

.rodata.cst.9147%939
                0x0001e674       0x10
 .rodata.cst.9147
                0x0001e674       0x10 build/default/debug/_ext/411819097/ff.o

.rodata.cst32.9148%940
                0x0001e684       0x10
 .rodata.cst32.9148
                0x0001e684       0x10 build/default/debug/_ext/411819097/ff.o

.rodata.defopt.9149%941
                0x0001e694       0x10
 .rodata.defopt.9149
                0x0001e694       0x10 build/default/debug/_ext/411819097/ff.o

.text.disk_initialize%942
                0x0001e6a4       0x10
 .text.disk_initialize
                0x0001e6a4       0x10 build/default/debug/_ext/565198302/diskio.o
                0x0001e6a4                disk_initialize

.text.sy_time_h2_adapter_callback%943
                0x0001e6b4       0x10
 .text.sy_time_h2_adapter_callback
                0x0001e6b4       0x10 build/default/debug/_ext/753841488/sys_time_h2_adapter.o
                0x0001e6b4                sy_time_h2_adapter_callback

.rodata.tcpipIPv4InitData%944
                0x0001e6c4       0x10
 .rodata.tcpipIPv4InitData
                0x0001e6c4       0x10 build/default/debug/_ext/1171490990/initialization.o
                0x0001e6c4                tcpipIPv4InitData

.text.memset%945
                0x0001e6d4       0x10
 .text.memset   0x0001e6d4       0x10 c:/program files/microchip/xc32/v4.00/bin/bin/../../lib/gcc/pic32c/8.3.1/../../../../pic32c/lib/thumb/v7e-m+fp/hard\libg-musl.a(memset.o)
                0x0001e6d4                memset

.text.strlen%946
                0x0001e6e4       0x10
 .text.strlen   0x0001e6e4       0x10 c:/program files/microchip/xc32/v4.00/bin/bin/../../lib/gcc/pic32c/8.3.1/../../../../pic32c/lib/thumb/v7e-m+fp/hard\libg-musl.a(strlen.o)
                0x0001e6e4                strlen

.rodata%947     0x0001e6f4       0x20
 .rodata        0x0001e6f4       0x10 c:/program files/microchip/xc32/v4.00/bin/bin/../../lib/gcc/pic32c/8.3.1/../../../../pic32c/lib/thumb/v7e-m+fp/hard\libg-musl.a(__fmt_a.o)
 .rodata        0x0001e704       0x10 c:/program files/microchip/xc32/v4.00/bin/bin/../../lib/gcc/pic32c/8.3.1/../../../../pic32c/lib/thumb/v7e-m+fp/hard\libg-musl.a(__fmt_fp.o)

.text.DRV_PIC32CGMAC_LibSetPriorityToQueueNum%949
                0x0001e714        0xe
 .text.DRV_PIC32CGMAC_LibSetPriorityToQueueNum
                0x0001e714        0xe build/default/debug/_ext/1546807373/drv_gmac_lib_samE5x.o
                0x0001e714                DRV_PIC32CGMAC_LibSetPriorityToQueueNum

.text.Shell_FileWrite%950
                0x0001e722        0xe
 .text.Shell_FileWrite
                0x0001e722        0xe build/default/debug/_ext/1751889202/sys_fs_shell.o

.text.Shell_FileRead%951
                0x0001e730        0xe
 .text.Shell_FileRead
                0x0001e730        0xe build/default/debug/_ext/1751889202/sys_fs_shell.o

.text.Shell_FileSeek%952
                0x0001e73e        0xe
 .text.Shell_FileSeek
                0x0001e73e        0xe build/default/debug/_ext/1751889202/sys_fs_shell.o

.text.TCPIP_Helper_ChecksumFold%953
                0x0001e74c        0xe
 .text.TCPIP_Helper_ChecksumFold
                0x0001e74c        0xe build/default/debug/_ext/1033058136/tcpip_helpers.o
                0x0001e74c                TCPIP_Helper_ChecksumFold

.text.TCPIP_STACK_NetIxGet%954
                0x0001e75a        0xe
 .text.TCPIP_STACK_NetIxGet
                0x0001e75a        0xe build/default/debug/_ext/1033058136/tcpip_manager.o
                0x0001e75a                TCPIP_STACK_NetIxGet

.text._TCPIPStackSignalHandlerDeregister%955
                0x0001e768        0xe
 .text._TCPIPStackSignalHandlerDeregister
                0x0001e768        0xe build/default/debug/_ext/1033058136/tcpip_manager.o
                0x0001e768                _TCPIPStackSignalHandlerDeregister

.text.FATFS_eof%956
                0x0001e776        0xe
 .text.FATFS_eof
                0x0001e776        0xe build/default/debug/_ext/1269487135/sys_fs_fat_interface.o
                0x0001e776                FATFS_eof

.text.main%957  0x0001e784        0xe
 .text.main     0x0001e784        0xe build/default/debug/_ext/1360937237/main.o
                0x0001e784                main

.text.tolower%958
                0x0001e792        0xe
 .text.tolower  0x0001e792        0xe c:/program files/microchip/xc32/v4.00/bin/bin/../../lib/gcc/pic32c/8.3.1/../../../../pic32c/lib/thumb/v7e-m+fp/hard\libg-musl.a(tolower.o)
                0x0001e792                tolower

.text.toupper%959
                0x0001e7a0        0xe
 .text.toupper  0x0001e7a0        0xe c:/program files/microchip/xc32/v4.00/bin/bin/../../lib/gcc/pic32c/8.3.1/../../../../pic32c/lib/thumb/v7e-m+fp/hard\libg-musl.a(toupper.o)
                0x0001e7a0                toupper

.rodata._DRV_PHY_LinkStatPhasesTbl%960
                0x0001e7b0        0xc
 .rodata._DRV_PHY_LinkStatPhasesTbl
                0x0001e7b0        0xc build/default/debug/_ext/444070925/drv_ethphy.o

.rodata._DRV_PHY_NegRestartPhasesTbl%961
                0x0001e7bc        0xc
 .rodata._DRV_PHY_NegRestartPhasesTbl
                0x0001e7bc        0xc build/default/debug/_ext/444070925/drv_ethphy.o

.rodata._DRV_PHY_ResetPhasesTbl%962
                0x0001e7c8        0xc
 .rodata._DRV_PHY_ResetPhasesTbl
                0x0001e7c8        0xc build/default/debug/_ext/444070925/drv_ethphy.o

.text._DRV_GMAC_GetTxOctetLow%963
                0x0001e7d4        0xc
 .text._DRV_GMAC_GetTxOctetLow
                0x0001e7d4        0xc build/default/debug/_ext/1546807373/drv_gmac.o

.text._DRV_GMAC_GetTxOctetHigh%964
                0x0001e7e0        0xc
 .text._DRV_GMAC_GetTxOctetHigh
                0x0001e7e0        0xc build/default/debug/_ext/1546807373/drv_gmac.o

.text._DRV_GMAC_GetTxFrameCount%965
                0x0001e7ec        0xc
 .text._DRV_GMAC_GetTxFrameCount
                0x0001e7ec        0xc build/default/debug/_ext/1546807373/drv_gmac.o

.text._DRV_GMAC_GetTxBCastFrameCount%966
                0x0001e7f8        0xc
 .text._DRV_GMAC_GetTxBCastFrameCount
                0x0001e7f8        0xc build/default/debug/_ext/1546807373/drv_gmac.o

.text._DRV_GMAC_GetTxMCastFrameCount%967
                0x0001e804        0xc
 .text._DRV_GMAC_GetTxMCastFrameCount
                0x0001e804        0xc build/default/debug/_ext/1546807373/drv_gmac.o

.text._DRV_GMAC_GetTxPauseFrameCount%968
                0x0001e810        0xc
 .text._DRV_GMAC_GetTxPauseFrameCount
                0x0001e810        0xc build/default/debug/_ext/1546807373/drv_gmac.o

.text._DRV_GMAC_GetTx64ByteFrameCount%969
                0x0001e81c        0xc
 .text._DRV_GMAC_GetTx64ByteFrameCount
                0x0001e81c        0xc build/default/debug/_ext/1546807373/drv_gmac.o

.text._DRV_GMAC_GetTx127ByteFrameCount%970
                0x0001e828        0xc
 .text._DRV_GMAC_GetTx127ByteFrameCount
                0x0001e828        0xc build/default/debug/_ext/1546807373/drv_gmac.o

.text._DRV_GMAC_GetTx255ByteFrameCount%971
                0x0001e834        0xc
 .text._DRV_GMAC_GetTx255ByteFrameCount
                0x0001e834        0xc build/default/debug/_ext/1546807373/drv_gmac.o

.text._DRV_GMAC_GetTx511ByteFrameCount%972
                0x0001e840        0xc
 .text._DRV_GMAC_GetTx511ByteFrameCount
                0x0001e840        0xc build/default/debug/_ext/1546807373/drv_gmac.o

.text._DRV_GMAC_GetTx1023ByteFrameCount%973
                0x0001e84c        0xc
 .text._DRV_GMAC_GetTx1023ByteFrameCount
                0x0001e84c        0xc build/default/debug/_ext/1546807373/drv_gmac.o

.text._DRV_GMAC_GetTx1518ByteFrameCount%974
                0x0001e858        0xc
 .text._DRV_GMAC_GetTx1518ByteFrameCount
                0x0001e858        0xc build/default/debug/_ext/1546807373/drv_gmac.o

.text._DRV_GMAC_GetTxGT1518ByteFrameCount%975
                0x0001e864        0xc
 .text._DRV_GMAC_GetTxGT1518ByteFrameCount
                0x0001e864        0xc build/default/debug/_ext/1546807373/drv_gmac.o

.text._DRV_GMAC_GetTxUnderRunFrameCount%976
                0x0001e870        0xc
 .text._DRV_GMAC_GetTxUnderRunFrameCount
                0x0001e870        0xc build/default/debug/_ext/1546807373/drv_gmac.o

.text._DRV_GMAC_GetTxSingleCollFrameCount%977
                0x0001e87c        0xc
 .text._DRV_GMAC_GetTxSingleCollFrameCount
                0x0001e87c        0xc build/default/debug/_ext/1546807373/drv_gmac.o

.text._DRV_GMAC_GetTxMultiCollFrameCount%978
                0x0001e888        0xc
 .text._DRV_GMAC_GetTxMultiCollFrameCount
                0x0001e888        0xc build/default/debug/_ext/1546807373/drv_gmac.o

.text._DRV_GMAC_GetTxExcessCollFrameCount%979
                0x0001e894        0xc
 .text._DRV_GMAC_GetTxExcessCollFrameCount
                0x0001e894        0xc build/default/debug/_ext/1546807373/drv_gmac.o

.text._DRV_GMAC_GetTxLateCollFrameCount%980
                0x0001e8a0        0xc
 .text._DRV_GMAC_GetTxLateCollFrameCount
                0x0001e8a0        0xc build/default/debug/_ext/1546807373/drv_gmac.o

.text._DRV_GMAC_GetTxDeferFrameCount%981
                0x0001e8ac        0xc
 .text._DRV_GMAC_GetTxDeferFrameCount
                0x0001e8ac        0xc build/default/debug/_ext/1546807373/drv_gmac.o

.text._DRV_GMAC_GetTxCSErrorFrameCount%982
                0x0001e8b8        0xc
 .text._DRV_GMAC_GetTxCSErrorFrameCount
                0x0001e8b8        0xc build/default/debug/_ext/1546807373/drv_gmac.o

.text._DRV_GMAC_GetRxOctetLow%983
                0x0001e8c4        0xc
 .text._DRV_GMAC_GetRxOctetLow
                0x0001e8c4        0xc build/default/debug/_ext/1546807373/drv_gmac.o

.text._DRV_GMAC_GetRxOctetHigh%984
                0x0001e8d0        0xc
 .text._DRV_GMAC_GetRxOctetHigh
                0x0001e8d0        0xc build/default/debug/_ext/1546807373/drv_gmac.o

.text._DRV_GMAC_GetRxFrameCount%985
                0x0001e8dc        0xc
 .text._DRV_GMAC_GetRxFrameCount
                0x0001e8dc        0xc build/default/debug/_ext/1546807373/drv_gmac.o

.text._DRV_GMAC_GetRxBCastFrameCount%986
                0x0001e8e8        0xc
 .text._DRV_GMAC_GetRxBCastFrameCount
                0x0001e8e8        0xc build/default/debug/_ext/1546807373/drv_gmac.o

.text._DRV_GMAC_GetRxMCastFrameCount%987
                0x0001e8f4        0xc
 .text._DRV_GMAC_GetRxMCastFrameCount
                0x0001e8f4        0xc build/default/debug/_ext/1546807373/drv_gmac.o

.text._DRV_GMAC_GetRxPauseFrameCount%988
                0x0001e900        0xc
 .text._DRV_GMAC_GetRxPauseFrameCount
                0x0001e900        0xc build/default/debug/_ext/1546807373/drv_gmac.o

.text._DRV_GMAC_GetRx64ByteFrameCount%989
                0x0001e90c        0xc
 .text._DRV_GMAC_GetRx64ByteFrameCount
                0x0001e90c        0xc build/default/debug/_ext/1546807373/drv_gmac.o

.text._DRV_GMAC_GetRx127ByteFrameCount%990
                0x0001e918        0xc
 .text._DRV_GMAC_GetRx127ByteFrameCount
                0x0001e918        0xc build/default/debug/_ext/1546807373/drv_gmac.o

.text._DRV_GMAC_GetRx255ByteFrameCount%991
                0x0001e924        0xc
 .text._DRV_GMAC_GetRx255ByteFrameCount
                0x0001e924        0xc build/default/debug/_ext/1546807373/drv_gmac.o

.text._DRV_GMAC_GetRx511ByteFrameCount%992
                0x0001e930        0xc
 .text._DRV_GMAC_GetRx511ByteFrameCount
                0x0001e930        0xc build/default/debug/_ext/1546807373/drv_gmac.o

.text._DRV_GMAC_GetRx1023ByteFrameCount%993
                0x0001e93c        0xc
 .text._DRV_GMAC_GetRx1023ByteFrameCount
                0x0001e93c        0xc build/default/debug/_ext/1546807373/drv_gmac.o

.text._DRV_GMAC_GetRx1518ByteFrameCount%994
                0x0001e948        0xc
 .text._DRV_GMAC_GetRx1518ByteFrameCount
                0x0001e948        0xc build/default/debug/_ext/1546807373/drv_gmac.o

.text._DRV_GMAC_GetRxGT1518ByteFrameCount%995
                0x0001e954        0xc
 .text._DRV_GMAC_GetRxGT1518ByteFrameCount
                0x0001e954        0xc build/default/debug/_ext/1546807373/drv_gmac.o

.text._DRV_GMAC_GetRxUnderSizeFrameCount%996
                0x0001e960        0xc
 .text._DRV_GMAC_GetRxUnderSizeFrameCount
                0x0001e960        0xc build/default/debug/_ext/1546807373/drv_gmac.o

.text._DRV_GMAC_GetRxOverSizeFrameCount%997
                0x0001e96c        0xc
 .text._DRV_GMAC_GetRxOverSizeFrameCount
                0x0001e96c        0xc build/default/debug/_ext/1546807373/drv_gmac.o

.text._DRV_GMAC_GetRxJabberFrameCount%998
                0x0001e978        0xc
 .text._DRV_GMAC_GetRxJabberFrameCount
                0x0001e978        0xc build/default/debug/_ext/1546807373/drv_gmac.o

.text._DRV_GMAC_GetRxFCSErrorFrameCount%999
                0x0001e984        0xc
 .text._DRV_GMAC_GetRxFCSErrorFrameCount
                0x0001e984        0xc build/default/debug/_ext/1546807373/drv_gmac.o

.text._DRV_GMAC_GetRxLFErrorFrameCount%1000
                0x0001e990        0xc
 .text._DRV_GMAC_GetRxLFErrorFrameCount
                0x0001e990        0xc build/default/debug/_ext/1546807373/drv_gmac.o

.text._DRV_GMAC_GetRxSymErrorFrameCount%1001
                0x0001e99c        0xc
 .text._DRV_GMAC_GetRxSymErrorFrameCount
                0x0001e99c        0xc build/default/debug/_ext/1546807373/drv_gmac.o

.text._DRV_GMAC_GetRxAlignErrorFrameCount%1002
                0x0001e9a8        0xc
 .text._DRV_GMAC_GetRxAlignErrorFrameCount
                0x0001e9a8        0xc build/default/debug/_ext/1546807373/drv_gmac.o

.text._DRV_GMAC_GetRxResErrorFrameCount%1003
                0x0001e9b4        0xc
 .text._DRV_GMAC_GetRxResErrorFrameCount
                0x0001e9b4        0xc build/default/debug/_ext/1546807373/drv_gmac.o

.text._DRV_GMAC_GetRxOverRunFrameCount%1004
                0x0001e9c0        0xc
 .text._DRV_GMAC_GetRxOverRunFrameCount
                0x0001e9c0        0xc build/default/debug/_ext/1546807373/drv_gmac.o

.text._DRV_GMAC_GetRxIPHdrCSErrorFrameCount%1005
                0x0001e9cc        0xc
 .text._DRV_GMAC_GetRxIPHdrCSErrorFrameCount
                0x0001e9cc        0xc build/default/debug/_ext/1546807373/drv_gmac.o

.text._DRV_GMAC_GetRxTCPCSErrorFrameCount%1006
                0x0001e9d8        0xc
 .text._DRV_GMAC_GetRxTCPCSErrorFrameCount
                0x0001e9d8        0xc build/default/debug/_ext/1546807373/drv_gmac.o

.text._DRV_GMAC_GetRxUDPCSErrorFrameCount%1007
                0x0001e9e4        0xc
 .text._DRV_GMAC_GetRxUDPCSErrorFrameCount
                0x0001e9e4        0xc build/default/debug/_ext/1546807373/drv_gmac.o

.text.DRV_PIC32CGMAC_LibReadInterruptStatus%1008
                0x0001e9f0        0xc
 .text.DRV_PIC32CGMAC_LibReadInterruptStatus
                0x0001e9f0        0xc build/default/debug/_ext/1546807373/drv_gmac_lib_samE5x.o
                0x0001e9f0                DRV_PIC32CGMAC_LibReadInterruptStatus

.text.DRV_PIC32CGMAC_LibEnableInterrupt%1009
                0x0001e9fc        0xc
 .text.DRV_PIC32CGMAC_LibEnableInterrupt
                0x0001e9fc        0xc build/default/debug/_ext/1546807373/drv_gmac_lib_samE5x.o
                0x0001e9fc                DRV_PIC32CGMAC_LibEnableInterrupt

.text.DRV_PIC32CGMAC_LibDisableInterrupt%1010
                0x0001ea08        0xc
 .text.DRV_PIC32CGMAC_LibDisableInterrupt
                0x0001ea08        0xc build/default/debug/_ext/1546807373/drv_gmac_lib_samE5x.o
                0x0001ea08                DRV_PIC32CGMAC_LibDisableInterrupt

.text.TCPIP_ARP_HashKeyCompare%1011
                0x0001ea14        0xc
 .text.TCPIP_ARP_HashKeyCompare
                0x0001ea14        0xc build/default/debug/_ext/1033058136/arp.o
                0x0001ea14                TCPIP_ARP_HashKeyCompare

.text.TCPIP_IPV4_PacketTransmit%1012
                0x0001ea20        0xc
 .text.TCPIP_IPV4_PacketTransmit
                0x0001ea20        0xc build/default/debug/_ext/1033058136/ipv4.o
                0x0001ea20                TCPIP_IPV4_PacketTransmit

.text._TCPIP_HEAP_Size%1013
                0x0001ea2c        0xc
 .text._TCPIP_HEAP_Size
                0x0001ea2c        0xc build/default/debug/_ext/1033058136/tcpip_heap_internal.o

.text._TCPIP_HEAP_HighWatermark%1014
                0x0001ea38        0xc
 .text._TCPIP_HEAP_HighWatermark
                0x0001ea38        0xc build/default/debug/_ext/1033058136/tcpip_heap_internal.o

.text.TCPIP_DNS_OAHASH_KeyCompare%1015
                0x0001ea44        0xc
 .text.TCPIP_DNS_OAHASH_KeyCompare
                0x0001ea44        0xc build/default/debug/_ext/1033058136/dns.o

.text.TCPIP_STACK_NetDefaultGet%1016
                0x0001ea50        0xc
 .text.TCPIP_STACK_NetDefaultGet
                0x0001ea50        0xc build/default/debug/_ext/1033058136/tcpip_manager.o
                0x0001ea50                TCPIP_STACK_NetDefaultGet

.text.TCPIP_STACK_NumberOfNetworksGet%1017
                0x0001ea5c        0xc
 .text.TCPIP_STACK_NumberOfNetworksGet
                0x0001ea5c        0xc build/default/debug/_ext/1033058136/tcpip_manager.o
                0x0001ea5c                TCPIP_STACK_NumberOfNetworksGet

.rodata.TCPIP_STACK_IF_ALIAS_NAME_TBL%1018
                0x0001ea68        0xc
 .rodata.TCPIP_STACK_IF_ALIAS_NAME_TBL
                0x0001ea68        0xc build/default/debug/_ext/1033058136/tcpip_manager.o

.text.TCPIP_PKT_Deinitialize%1019
                0x0001ea74        0xc
 .text.TCPIP_PKT_Deinitialize
                0x0001ea74        0xc build/default/debug/_ext/1033058136/tcpip_packet.o
                0x0001ea74                TCPIP_PKT_Deinitialize

.text.SDHC1_IsCmdLineBusy%1020
                0x0001ea80        0xc
 .text.SDHC1_IsCmdLineBusy
                0x0001ea80        0xc build/default/debug/_ext/1865600094/plib_sdhc1.o
                0x0001ea80                SDHC1_IsCmdLineBusy

.text.SDHC1_IsDatLineBusy%1021
                0x0001ea8c        0xc
 .text.SDHC1_IsDatLineBusy
                0x0001ea8c        0xc build/default/debug/_ext/1865600094/plib_sdhc1.o
                0x0001ea8c                SDHC1_IsDatLineBusy

.text.SDHC1_IsCardAttached%1022
                0x0001ea98        0xc
 .text.SDHC1_IsCardAttached
                0x0001ea98        0xc build/default/debug/_ext/1865600094/plib_sdhc1.o
                0x0001ea98                SDHC1_IsCardAttached

.text.TC0_TimerCallbackRegister%1023
                0x0001eaa4        0xc
 .text.TC0_TimerCallbackRegister
                0x0001eaa4        0xc build/default/debug/_ext/829342655/plib_tc0.o
                0x0001eaa4                TC0_TimerCallbackRegister

.text.SYS_DEBUG_ConsoleInstanceGet%1024
                0x0001eab0        0xc
 .text.SYS_DEBUG_ConsoleInstanceGet
                0x0001eab0        0xc build/default/debug/_ext/944882569/sys_debug.o
                0x0001eab0                SYS_DEBUG_ConsoleInstanceGet

.text.SYS_DEBUG_ErrorLevelGet%1025
                0x0001eabc        0xc
 .text.SYS_DEBUG_ErrorLevelGet
                0x0001eabc        0xc build/default/debug/_ext/944882569/sys_debug.o
                0x0001eabc                SYS_DEBUG_ErrorLevelGet

.text.SYS_FS_Error%1026
                0x0001eac8        0xc
 .text.SYS_FS_Error
                0x0001eac8        0xc build/default/debug/_ext/1269487135/sys_fs.o
                0x0001eac8                SYS_FS_Error

.text.SYS_FS_MEDIA_MANAGER_RegisterTransferHandler%1027
                0x0001ead4        0xc
 .text.SYS_FS_MEDIA_MANAGER_RegisterTransferHandler
                0x0001ead4        0xc build/default/debug/_ext/1269487135/sys_fs_media_manager.o
                0x0001ead4                SYS_FS_MEDIA_MANAGER_RegisterTransferHandler

.text.FATFS_error%1028
                0x0001eae0        0xc
 .text.FATFS_error
                0x0001eae0        0xc build/default/debug/_ext/1269487135/sys_fs_fat_interface.o
                0x0001eae0                FATFS_error

.text.SYS_TIME_FrequencyGet%1029
                0x0001eaec        0xc
 .text.SYS_TIME_FrequencyGet
                0x0001eaec        0xc build/default/debug/_ext/101884895/sys_time.o
                0x0001eaec                SYS_TIME_FrequencyGet

.rodata.sysConsole0Init%1030
                0x0001eaf8        0xc
 .rodata.sysConsole0Init
                0x0001eaf8        0xc build/default/debug/_ext/1171490990/initialization.o
                0x0001eaf8                sysConsole0Init

.text.APP_Initialize%1031
                0x0001eb04        0xc
 .text.APP_Initialize
                0x0001eb04        0xc build/default/debug/_ext/1360937237/app.o
                0x0001eb04                APP_Initialize

.text._FieldSetUserStart%1032
                0x0001eb10        0xc
 .text._FieldSetUserStart
                0x0001eb10        0xc build/default/debug/_ext/1033058136/tcpip_announce.o
                0x0001eb10                _FieldSetUserStart

.text.vsprintf%1033
                0x0001eb1c        0xc
 .text.vsprintf
                0x0001eb1c        0xc c:/program files/microchip/xc32/v4.00/bin/bin/../../lib/gcc/pic32c/8.3.1/../../../../pic32c/lib/thumb/v7e-m+fp/hard\libg-musl.a(vsprintf.o)
                0x0001eb1c                vsprintf

.text.strcpy%1034
                0x0001eb28        0xc
 .text.strcpy   0x0001eb28        0xc c:/program files/microchip/xc32/v4.00/bin/bin/../../lib/gcc/pic32c/8.3.1/../../../../pic32c/lib/thumb/v7e-m+fp/hard\libg-musl.a(strcpy.o)
                0x0001eb28                strcpy

.text.strncpy%1035
                0x0001eb34        0xc
 .text.strncpy  0x0001eb34        0xc c:/program files/microchip/xc32/v4.00/bin/bin/../../lib/gcc/pic32c/8.3.1/../../../../pic32c/lib/thumb/v7e-m+fp/hard\libg-musl.a(strncpy.o)
                0x0001eb34                strncpy

.text._DRV_ETHPHY_NegRestartPhaseWrite%1036
                0x0001eb40        0xa
 .text._DRV_ETHPHY_NegRestartPhaseWrite
                0x0001eb40        0xa build/default/debug/_ext/444070925/drv_ethphy.o

.text.Shell_DirClose%1037
                0x0001eb4a        0xa
 .text.Shell_DirClose
                0x0001eb4a        0xa build/default/debug/_ext/1751889202/sys_fs_shell.o

.text.Shell_FileEof%1038
                0x0001eb54        0xa
 .text.Shell_FileEof
                0x0001eb54        0xa build/default/debug/_ext/1751889202/sys_fs_shell.o

.text.Shell_FileTell%1039
                0x0001eb5e        0xa
 .text.Shell_FileTell
                0x0001eb5e        0xa build/default/debug/_ext/1751889202/sys_fs_shell.o

.text.Shell_FileSize%1040
                0x0001eb68        0xa
 .text.Shell_FileSize
                0x0001eb68        0xa build/default/debug/_ext/1751889202/sys_fs_shell.o

.text.Shell_FileClose%1041
                0x0001eb72        0xa
 .text.Shell_FileClose
                0x0001eb72        0xa build/default/debug/_ext/1751889202/sys_fs_shell.o

.text.TCPIP_Helper_SingleListInitialize%1042
                0x0001eb7c        0xa
 .text.TCPIP_Helper_SingleListInitialize
                0x0001eb7c        0xa build/default/debug/_ext/1033058136/tcpip_helpers.o
                0x0001eb7c                TCPIP_Helper_SingleListInitialize

.text.TCPIP_STACK_NetNameGet%1043
                0x0001eb86        0xa
 .text.TCPIP_STACK_NetNameGet
                0x0001eb86        0xa build/default/debug/_ext/1033058136/tcpip_manager.o
                0x0001eb86                TCPIP_STACK_NetNameGet

.text.FATFS_read%1044
                0x0001eb90        0xa
 .text.FATFS_read
                0x0001eb90        0xa build/default/debug/_ext/1269487135/sys_fs_fat_interface.o
                0x0001eb90                FATFS_read

.text.FATFS_lseek%1045
                0x0001eb9a        0xa
 .text.FATFS_lseek
                0x0001eb9a        0xa build/default/debug/_ext/1269487135/sys_fs_fat_interface.o
                0x0001eb9a                FATFS_lseek

.text.FATFS_gets%1046
                0x0001eba4        0xa
 .text.FATFS_gets
                0x0001eba4        0xa build/default/debug/_ext/1269487135/sys_fs_fat_interface.o
                0x0001eba4                FATFS_gets

.text.FATFS_write%1047
                0x0001ebae        0xa
 .text.FATFS_write
                0x0001ebae        0xa build/default/debug/_ext/1269487135/sys_fs_fat_interface.o
                0x0001ebae                FATFS_write

.text.FATFS_truncate%1048
                0x0001ebb8        0xa
 .text.FATFS_truncate
                0x0001ebb8        0xa build/default/debug/_ext/1269487135/sys_fs_fat_interface.o
                0x0001ebb8                FATFS_truncate

.text.FATFS_sync%1049
                0x0001ebc2        0xa
 .text.FATFS_sync
                0x0001ebc2        0xa build/default/debug/_ext/1269487135/sys_fs_fat_interface.o
                0x0001ebc2                FATFS_sync

.text.FATFS_putc%1050
                0x0001ebcc        0xa
 .text.FATFS_putc
                0x0001ebcc        0xa build/default/debug/_ext/1269487135/sys_fs_fat_interface.o
                0x0001ebcc                FATFS_putc

.text.FATFS_puts%1051
                0x0001ebd6        0xa
 .text.FATFS_puts
                0x0001ebd6        0xa build/default/debug/_ext/1269487135/sys_fs_fat_interface.o
                0x0001ebd6                FATFS_puts

.text.FATFS_printf%1052
                0x0001ebe0        0xa
 .text.FATFS_printf
                0x0001ebe0        0xa build/default/debug/_ext/1269487135/sys_fs_fat_interface.o
                0x0001ebe0                FATFS_printf

.text.TCPIP_UDP_ServerOpen%1053
                0x0001ebea        0xa
 .text.TCPIP_UDP_ServerOpen
                0x0001ebea        0xa build/default/debug/_ext/1033058136/udp.o
                0x0001ebea                TCPIP_UDP_ServerOpen

.text.TCPIP_UDP_ClientOpen%1054
                0x0001ebf4        0xa
 .text.TCPIP_UDP_ClientOpen
                0x0001ebf4        0xa build/default/debug/_ext/1033058136/udp.o
                0x0001ebf4                TCPIP_UDP_ClientOpen

.text.TCPIP_UDP_Get%1055
                0x0001ebfe        0xa
 .text.TCPIP_UDP_Get
                0x0001ebfe        0xa build/default/debug/_ext/1033058136/udp.o
                0x0001ebfe                TCPIP_UDP_Get

.text.DRV_EXTPHY_SMIClockGet%1056
                0x0001ec08        0x8
 .text.DRV_EXTPHY_SMIClockGet
                0x0001ec08        0x8 build/default/debug/_ext/444070925/drv_extphy_ksz8061.o

.rodata%1057    0x0001ec10        0x8
 .rodata        0x0001ec10        0x8 build/default/debug/_ext/1751889202/sys_fs_shell.o

.text.TCPIP_HEAP_MallocOutline%1058
                0x0001ec18        0x8
 .text.TCPIP_HEAP_MallocOutline
                0x0001ec18        0x8 build/default/debug/_ext/1033058136/tcpip_heap_alloc.o
                0x0001ec18                TCPIP_HEAP_MallocOutline

.text.TCPIP_HEAP_CallocOutline%1059
                0x0001ec20        0x8
 .text.TCPIP_HEAP_CallocOutline
                0x0001ec20        0x8 build/default/debug/_ext/1033058136/tcpip_heap_alloc.o
                0x0001ec20                TCPIP_HEAP_CallocOutline

.text.TCPIP_HEAP_FreeOutline%1060
                0x0001ec28        0x8
 .text.TCPIP_HEAP_FreeOutline
                0x0001ec28        0x8 build/default/debug/_ext/1033058136/tcpip_heap_alloc.o
                0x0001ec28                TCPIP_HEAP_FreeOutline

.text.TCPIP_Notification_Initialize%1061
                0x0001ec30        0x8
 .text.TCPIP_Notification_Initialize
                0x0001ec30        0x8 build/default/debug/_ext/1033058136/tcpip_notify.o
                0x0001ec30                TCPIP_Notification_Initialize

.text.SDHC1_BlockCountSet%1062
                0x0001ec38        0x8
 .text.SDHC1_BlockCountSet
                0x0001ec38        0x8 build/default/debug/_ext/1865600094/plib_sdhc1.o
                0x0001ec38                SDHC1_BlockCountSet

.text.SERCOM1_USART_WriteCountGet%1063
                0x0001ec40        0x8
 .text.SERCOM1_USART_WriteCountGet
                0x0001ec40        0x8 build/default/debug/_ext/504274921/plib_sercom1_usart.o
                0x0001ec40                SERCOM1_USART_WriteCountGet

.text.TC0_TimerFrequencyGet%1064
                0x0001ec48        0x8
 .text.TC0_TimerFrequencyGet
                0x0001ec48        0x8 build/default/debug/_ext/829342655/plib_tc0.o
                0x0001ec48                TC0_TimerFrequencyGet

.text.SYS_FS_Tasks%1065
                0x0001ec50        0x8
 .text.SYS_FS_Tasks
                0x0001ec50        0x8 build/default/debug/_ext/1269487135/sys_fs.o
                0x0001ec50                SYS_FS_Tasks

.rodata%1066    0x0001ec58        0x8
 .rodata        0x0001ec58        0x8 build/default/debug/_ext/1269487135/sys_fs.o

.rodata.gPartitionTypeOffset%1067
                0x0001ec60        0x8
 .rodata.gPartitionTypeOffset
                0x0001ec60        0x8 build/default/debug/_ext/1269487135/sys_fs_media_manager.o
                0x0001ec60                gPartitionTypeOffset

.text.FATFS_getlabel%1068
                0x0001ec68        0x8
 .text.FATFS_getlabel
                0x0001ec68        0x8 build/default/debug/_ext/1269487135/sys_fs_fat_interface.o
                0x0001ec68                FATFS_getlabel

.text.FATFS_getcwd%1069
                0x0001ec70        0x8
 .text.FATFS_getcwd
                0x0001ec70        0x8 build/default/debug/_ext/1269487135/sys_fs_fat_interface.o
                0x0001ec70                FATFS_getcwd

.text.FATFS_chdir%1070
                0x0001ec78        0x8
 .text.FATFS_chdir
                0x0001ec78        0x8 build/default/debug/_ext/1269487135/sys_fs_fat_interface.o
                0x0001ec78                FATFS_chdir

.text.FATFS_mkdir%1071
                0x0001ec80        0x8
 .text.FATFS_mkdir
                0x0001ec80        0x8 build/default/debug/_ext/1269487135/sys_fs_fat_interface.o
                0x0001ec80                FATFS_mkdir

.text.FATFS_unlink%1072
                0x0001ec88        0x8
 .text.FATFS_unlink
                0x0001ec88        0x8 build/default/debug/_ext/1269487135/sys_fs_fat_interface.o
                0x0001ec88                FATFS_unlink

.text.FATFS_setlabel%1073
                0x0001ec90        0x8
 .text.FATFS_setlabel
                0x0001ec90        0x8 build/default/debug/_ext/1269487135/sys_fs_fat_interface.o
                0x0001ec90                FATFS_setlabel

.text.FATFS_chmod%1074
                0x0001ec98        0x8
 .text.FATFS_chmod
                0x0001ec98        0x8 build/default/debug/_ext/1269487135/sys_fs_fat_interface.o
                0x0001ec98                FATFS_chmod

.text.FATFS_utime%1075
                0x0001eca0        0x8
 .text.FATFS_utime
                0x0001eca0        0x8 build/default/debug/_ext/1269487135/sys_fs_fat_interface.o
                0x0001eca0                FATFS_utime

.text.FATFS_rename%1076
                0x0001eca8        0x8
 .text.FATFS_rename
                0x0001eca8        0x8 build/default/debug/_ext/1269487135/sys_fs_fat_interface.o
                0x0001eca8                FATFS_rename

.text.FATFS_fdisk%1077
                0x0001ecb0        0x8
 .text.FATFS_fdisk
                0x0001ecb0        0x8 build/default/debug/_ext/1269487135/sys_fs_fat_interface.o
                0x0001ecb0                FATFS_fdisk

.text.SYS_INT_Disable%1078
                0x0001ecb8        0x8
 .text.SYS_INT_Disable
                0x0001ecb8        0x8 build/default/debug/_ext/1881668453/sys_int.o
                0x0001ecb8                SYS_INT_Disable

.text.SYS_INT_Restore%1079
                0x0001ecc0        0x8
 .text.SYS_INT_Restore
                0x0001ecc0        0x8 build/default/debug/_ext/1881668453/sys_int.o
                0x0001ecc0                SYS_INT_Restore

.rodata.drvMiimInitData%1080
                0x0001ecc8        0x8
 .rodata.drvMiimInitData
                0x0001ecc8        0x8 build/default/debug/_ext/1171490990/initialization.o

.rodata.netPresInitData%1081
                0x0001ecd0        0x8
 .rodata.netPresInitData
                0x0001ecd0        0x8 build/default/debug/_ext/1171490990/initialization.o

.rodata.sysFSInit%1082
                0x0001ecd8        0x8
 .rodata.sysFSInit
                0x0001ecd8        0x8 build/default/debug/_ext/1171490990/initialization.o
                0x0001ecd8                sysFSInit

.rodata.sysTimeInitData%1083
                0x0001ece0        0x8
 .rodata.sysTimeInitData
                0x0001ece0        0x8 build/default/debug/_ext/1171490990/initialization.o
                0x0001ece0                sysTimeInitData

.rodata.tcpipTCPInitData%1084
                0x0001ece8        0x8
 .rodata.tcpipTCPInitData
                0x0001ece8        0x8 build/default/debug/_ext/1171490990/initialization.o
                0x0001ece8                tcpipTCPInitData

.rodata.tcpipUDPInitData%1085
                0x0001ecf0        0x8
 .rodata.tcpipUDPInitData
                0x0001ecf0        0x8 build/default/debug/_ext/1171490990/initialization.o
                0x0001ecf0                tcpipUDPInitData

.text.TCPIP_UDP_TxPutIsReady%1086
                0x0001ecf8        0x8
 .text.TCPIP_UDP_TxPutIsReady
                0x0001ecf8        0x8 build/default/debug/_ext/1033058136/udp.o
                0x0001ecf8                TCPIP_UDP_TxPutIsReady

.text.__aeabi_dsub%1087
                0x0001ed00        0x8
 .text.__aeabi_dsub
                0x0001ed00        0x8 c:/program files/microchip/xc32/v4.00/bin/bin/../../lib/gcc/pic32c/8.3.1/../../../../pic32c/lib/thumb/v7e-m+fp/hard\libm-emfloat.a(floatasmops_arm.o)
                0x0001ed00                __aeabi_dsub

.rodata%1088    0x0001ed08        0x7
 .rodata        0x0001ed08        0x7 c:/program files/microchip/xc32/v4.00/bin/bin/../../lib/gcc/pic32c/8.3.1/../../../../pic32c/lib/thumb/v7e-m+fp/hard\libg-musl.a(__fmt_s.o)

.text._DRV_SDMMC_TimerCallback%1089
                0x0001ed10        0x6
 .text._DRV_SDMMC_TimerCallback
                0x0001ed10        0x6 build/default/debug/_ext/20954303/drv_sdmmc.o

.text.TCPIP_ARP_HashKeyCopy%1090
                0x0001ed16        0x6
 .text.TCPIP_ARP_HashKeyCopy
                0x0001ed16        0x6 build/default/debug/_ext/1033058136/arp.o
                0x0001ed16                TCPIP_ARP_HashKeyCopy

.text.TCPIP_STACK_NetBIOSName%1091
                0x0001ed1c        0x6
 .text.TCPIP_STACK_NetBIOSName
                0x0001ed1c        0x6 build/default/debug/_ext/1033058136/tcpip_manager.o
                0x0001ed1c                TCPIP_STACK_NetBIOSName

.text.TCPIP_PKT_GapDcptOffset%1092
                0x0001ed22        0x6
 .text.TCPIP_PKT_GapDcptOffset
                0x0001ed22        0x6 build/default/debug/_ext/1033058136/tcpip_packet.o
                0x0001ed22                TCPIP_PKT_GapDcptOffset

.text.CRYPT_WCCB_Callback%1093
                0x0001ed28        0x6
 .text.CRYPT_WCCB_Callback
                0x0001ed28        0x6 build/default/debug/_ext/172253694/crypt_wolfcryptcb.o
                0x0001ed28                CRYPT_WCCB_Callback

.text.DRV_EXTPHY_MDIXConfigure%1094
                0x0000728c        0x4
 .text.DRV_EXTPHY_MDIXConfigure
                0x0000728c        0x4 build/default/debug/_ext/444070925/drv_extphy_ksz8061.o

.text.DRV_GMAC_PowerMode%1095
                0x0001ed2e        0x4
 .text.DRV_GMAC_PowerMode
                0x0001ed2e        0x4 build/default/debug/_ext/1546807373/drv_gmac.o
                0x0001ed2e                DRV_GMAC_PowerMode

.text.DRV_PIC32CGMAC_LibRxQueFilterInit%1096
                0x0001ed32        0x4
 .text.DRV_PIC32CGMAC_LibRxQueFilterInit
                0x0001ed32        0x4 build/default/debug/_ext/1546807373/drv_gmac_lib_samE5x.o
                0x0001ed32                DRV_PIC32CGMAC_LibRxQueFilterInit

.text.DRV_PIC32CGMAC_LibGetPriorityFromQueueNum%1097
                0x0001ed36        0x4
 .text.DRV_PIC32CGMAC_LibGetPriorityFromQueueNum
                0x0001ed36        0x4 build/default/debug/_ext/1546807373/drv_gmac_lib_samE5x.o
                0x0001ed36                DRV_PIC32CGMAC_LibGetPriorityFromQueueNum

.text.TCPIP_IPV4_IsFragmentationEnabled%1098
                0x0001ed3a        0x4
 .text.TCPIP_IPV4_IsFragmentationEnabled
                0x0001ed3a        0x4 build/default/debug/_ext/1033058136/ipv4.o
                0x0001ed3a                TCPIP_IPV4_IsFragmentationEnabled

.text.TCPIP_PKT_GapDcptSize%1099
                0x0001ed3e        0x4
 .text.TCPIP_PKT_GapDcptSize
                0x0001ed3e        0x4 build/default/debug/_ext/1033058136/tcpip_packet.o
                0x0001ed3e                TCPIP_PKT_GapDcptSize

.text.Console_UART_Flush%1100
                0x0001ed42        0x4
 .text.Console_UART_Flush
                0x0001ed42        0x4 build/default/debug/_ext/1832805299/sys_console_uart.o
                0x0001ed42                Console_UART_Flush

.text.disk_status%1101
                0x0001ed46        0x4
 .text.disk_status
                0x0001ed46        0x4 build/default/debug/_ext/565198302/diskio.o
                0x0001ed46                disk_status

.text.FATFS_tell%1102
                0x0001ed4a        0x4
 .text.FATFS_tell
                0x0001ed4a        0x4 build/default/debug/_ext/1269487135/sys_fs_fat_interface.o
                0x0001ed4a                FATFS_tell

.text.FATFS_size%1103
                0x0001ed4e        0x4
 .text.FATFS_size
                0x0001ed4e        0x4 build/default/debug/_ext/1269487135/sys_fs_fat_interface.o
                0x0001ed4e                FATFS_size

.rodata.debugInit%1104
                0x0001ed54        0x4
 .rodata.debugInit
                0x0001ed54        0x4 build/default/debug/_ext/1171490990/initialization.o
                0x0001ed54                debugInit

.rodata.sysConsole0UARTInitData%1105
                0x0001ed58        0x4
 .rodata.sysConsole0UARTInitData
                0x0001ed58        0x4 build/default/debug/_ext/1171490990/initialization.o
                0x0001ed58                sysConsole0UARTInitData

.rodata.tcpipBerkeleyInitData%1106
                0x0001ed5c        0x4
 .rodata.tcpipBerkeleyInitData
                0x0001ed5c        0x4 build/default/debug/_ext/1171490990/initialization.o
                0x0001ed5c                tcpipBerkeleyInitData

.text.Dummy_Handler%1107
                0x0001ed60        0x4
 .text.Dummy_Handler
                0x0001ed60        0x4 build/default/debug/_ext/1171490990/interrupts.o
                0x0001ed60                EIC_EXTINT_9_Handler
                0x0001ed60                TCC0_MC5_Handler
                0x0001ed60                SVCall_Handler
                0x0001ed60                SERCOM0_2_Handler
                0x0001ed60                USB_SOF_HSOF_Handler
                0x0001ed60                TCC4_OTHER_Handler
                0x0001ed60                TCC2_MC2_Handler
                0x0001ed60                EVSYS_0_Handler
                0x0001ed60                TRNG_Handler
                0x0001ed60                TC2_Handler
                0x0001ed60                USB_TRCPT0_Handler
                0x0001ed60                DAC_OTHER_Handler
                0x0001ed60                AC_Handler
                0x0001ed60                DAC_EMPTY_0_Handler
                0x0001ed60                DMAC_OTHER_Handler
                0x0001ed60                EIC_EXTINT_5_Handler
                0x0001ed60                SERCOM3_1_Handler
                0x0001ed60                SysTick_Handler
                0x0001ed60                SERCOM4_OTHER_Handler
                0x0001ed60                SERCOM3_2_Handler
                0x0001ed60                EIC_EXTINT_6_Handler
                0x0001ed60                PendSV_Handler
                0x0001ed60                TC7_Handler
                0x0001ed60                TCC4_MC0_Handler
                0x0001ed60                EVSYS_3_Handler
                0x0001ed60                QSPI_Handler
                0x0001ed60                TCC2_MC0_Handler
                0x0001ed60                PDEC_OTHER_Handler
                0x0001ed60                TCC3_MC0_Handler
                0x0001ed60                PDEC_MC1_Handler
                0x0001ed60                TCC2_MC1_Handler
                0x0001ed60                OSCCTRL_XOSC1_Handler
                0x0001ed60                PDEC_MC0_Handler
                0x0001ed60                EIC_EXTINT_4_Handler
                0x0001ed60                EIC_EXTINT_7_Handler
                0x0001ed60                SERCOM0_OTHER_Handler
                0x0001ed60                EVSYS_OTHER_Handler
                0x0001ed60                SERCOM0_0_Handler
                0x0001ed60                RTC_Handler
                0x0001ed60                SERCOM4_0_Handler
                0x0001ed60                TCC1_MC0_Handler
                0x0001ed60                TCC2_OTHER_Handler
                0x0001ed60                EIC_EXTINT_11_Handler
                0x0001ed60                SUPC_BODDET_Handler
                0x0001ed60                EIC_EXTINT_14_Handler
                0x0001ed60                OSC32KCTRL_Handler
                0x0001ed60                SERCOM6_2_Handler
                0x0001ed60                EVSYS_1_Handler
                0x0001ed60                TC6_Handler
                0x0001ed60                TCC4_MC1_Handler
                0x0001ed60                DMAC_0_Handler
                0x0001ed60                SUPC_OTHER_Handler
                0x0001ed60                WDT_Handler
                0x0001ed60                CAN0_Handler
                0x0001ed60                EIC_EXTINT_15_Handler
                0x0001ed60                SERCOM6_0_Handler
                0x0001ed60                EIC_EXTINT_1_Handler
                0x0001ed60                TCC3_MC1_Handler
                0x0001ed60                SERCOM5_0_Handler
                0x0001ed60                TC4_Handler
                0x0001ed60                TC1_Handler
                0x0001ed60                TCC1_MC1_Handler
                0x0001ed60                EIC_EXTINT_0_Handler
                0x0001ed60                TCC1_OTHER_Handler
                0x0001ed60                PAC_Handler
                0x0001ed60                SERCOM4_1_Handler
                0x0001ed60                TC3_Handler
                0x0001ed60                Dummy_Handler
                0x0001ed60                DAC_RESRDY_0_Handler
                0x0001ed60                SERCOM5_1_Handler
                0x0001ed60                DMAC_2_Handler
                0x0001ed60                TCC0_MC4_Handler
                0x0001ed60                USB_TRCPT1_Handler
                0x0001ed60                SERCOM0_1_Handler
                0x0001ed60                TCC0_MC3_Handler
                0x0001ed60                EIC_EXTINT_12_Handler
                0x0001ed60                OSCCTRL_DPLL0_Handler
                0x0001ed60                SERCOM6_OTHER_Handler
                0x0001ed60                SERCOM7_1_Handler
                0x0001ed60                SERCOM5_OTHER_Handler
                0x0001ed60                PM_Handler
                0x0001ed60                OSCCTRL_DFLL_Handler
                0x0001ed60                SERCOM7_0_Handler
                0x0001ed60                DAC_RESRDY_1_Handler
                0x0001ed60                DMAC_1_Handler
                0x0001ed60                USB_OTHER_Handler
                0x0001ed60                SERCOM7_2_Handler
                0x0001ed60                CAN1_Handler
                0x0001ed60                TCC0_OTHER_Handler
                0x0001ed60                EIC_EXTINT_10_Handler
                0x0001ed60                TCC1_MC3_Handler
                0x0001ed60                OSCCTRL_XOSC0_Handler
                0x0001ed60                SERCOM6_1_Handler
                0x0001ed60                TCC0_MC0_Handler
                0x0001ed60                EIC_EXTINT_2_Handler
                0x0001ed60                SDHC0_Handler
                0x0001ed60                I2S_Handler
                0x0001ed60                PCC_Handler
                0x0001ed60                TCC3_OTHER_Handler
                0x0001ed60                EIC_EXTINT_13_Handler
                0x0001ed60                PUKCC_Handler
                0x0001ed60                SERCOM2_1_Handler
                0x0001ed60                SERCOM3_0_Handler
                0x0001ed60                SERCOM4_2_Handler
                0x0001ed60                TCC1_MC2_Handler
                0x0001ed60                ADC1_RESRDY_Handler
                0x0001ed60                NVMCTRL_1_Handler
                0x0001ed60                SERCOM5_2_Handler
                0x0001ed60                SERCOM2_2_Handler
                0x0001ed60                DAC_EMPTY_1_Handler
                0x0001ed60                ADC1_OTHER_Handler
                0x0001ed60                OSCCTRL_DPLL1_Handler
                0x0001ed60                EIC_EXTINT_3_Handler
                0x0001ed60                SERCOM3_OTHER_Handler
                0x0001ed60                EIC_EXTINT_8_Handler
                0x0001ed60                NVMCTRL_0_Handler
                0x0001ed60                ADC0_RESRDY_Handler
                0x0001ed60                ADC0_OTHER_Handler
                0x0001ed60                MCLK_Handler
                0x0001ed60                SERCOM7_OTHER_Handler
                0x0001ed60                EVSYS_2_Handler
                0x0001ed60                SERCOM2_OTHER_Handler
                0x0001ed60                FREQM_Handler
                0x0001ed60                TCC0_MC1_Handler
                0x0001ed60                DMAC_3_Handler
                0x0001ed60                RAMECC_Handler
                0x0001ed60                TC5_Handler
                0x0001ed60                SERCOM2_0_Handler
                0x0001ed60                AES_Handler
                0x0001ed60                ICM_Handler
                0x0001ed60                TCC0_MC2_Handler

.text.NonMaskableInt_Handler%1108
                0x0001ed64        0x4
 .text.NonMaskableInt_Handler
                0x0001ed64        0x4 build/default/debug/_ext/1171490990/exceptions.o
                0x0001ed64                NonMaskableInt_Handler

.text.HardFault_Handler%1109
                0x0001ed68        0x4
 .text.HardFault_Handler
                0x0001ed68        0x4 build/default/debug/_ext/1171490990/exceptions.o
                0x0001ed68                HardFault_Handler

.text.DebugMonitor_Handler%1110
                0x0001ed6c        0x4
 .text.DebugMonitor_Handler
                0x0001ed6c        0x4 build/default/debug/_ext/1171490990/exceptions.o
                0x0001ed6c                DebugMonitor_Handler

.text.MemoryManagement_Handler%1111
                0x0001ed70        0x4
 .text.MemoryManagement_Handler
                0x0001ed70        0x4 build/default/debug/_ext/1171490990/exceptions.o
                0x0001ed70                MemoryManagement_Handler

.text.BusFault_Handler%1112
                0x0001ed74        0x4
 .text.BusFault_Handler
                0x0001ed74        0x4 build/default/debug/_ext/1171490990/exceptions.o
                0x0001ed74                BusFault_Handler

.text.UsageFault_Handler%1113
                0x0001ed78        0x4
 .text.UsageFault_Handler
                0x0001ed78        0x4 build/default/debug/_ext/1171490990/exceptions.o
                0x0001ed78                UsageFault_Handler

.text._FieldSetNone%1114
                0x0001ed7c        0x4
 .text._FieldSetNone
                0x0001ed7c        0x4 build/default/debug/_ext/1033058136/tcpip_announce.o
                0x0001ed7c                _FieldSetNone

.text%1115      0x0001ed80        0x4
 .text          0x0001ed80        0x4 c:/program files/microchip/xc32/v4.00/bin/bin/../../lib/gcc/pic32c/8.3.1/thumb/v7e-m+fp/hard\libgcc.a(_dvmd_tls.o)
                0x0001ed80                __aeabi_idiv0
                0x0001ed80                __aeabi_ldiv0

.text._DRV_ETHPHY_ClientOpNone%1116
                0x0000d2ae        0x2
 .text._DRV_ETHPHY_ClientOpNone
                0x0000d2ae        0x2 build/default/debug/_ext/444070925/drv_ethphy.o

.text.DRV_GMAC_Reinitialize%1117
                0x0000f0b2        0x2
 .text.DRV_GMAC_Reinitialize
                0x0000f0b2        0x2 build/default/debug/_ext/1546807373/drv_gmac.o
                0x0000f0b2                DRV_GMAC_Reinitialize

.text.DRV_MIIM_Reinitialize%1118
                0x0000fada        0x2
 .text.DRV_MIIM_Reinitialize
                0x0000fada        0x2 build/default/debug/_ext/438849557/drv_miim.o
                0x0000fada                DRV_MIIM_Reinitialize

.text._TCPIP_HEAP_BufferMapNonCached%1119
                0x0001047a        0x2
 .text._TCPIP_HEAP_BufferMapNonCached
                0x0001047a        0x2 build/default/debug/_ext/1033058136/tcpip_heap_alloc.o
                0x0001047a                _TCPIP_HEAP_BufferMapNonCached

.text.EVSYS_Initialize%1120
                0x00011102        0x2
 .text.EVSYS_Initialize
                0x00011102        0x2 build/default/debug/_ext/1986646378/plib_evsys.o
                0x00011102                EVSYS_Initialize

.text.Console_UART_Tasks%1121
                0x00011656        0x2
 .text.Console_UART_Tasks
                0x00011656        0x2 build/default/debug/_ext/1832805299/sys_console_uart.o
                0x00011656                Console_UART_Tasks

.text.Dummy_App_Func%1122
                0x00012bae        0x2
 .text.Dummy_App_Func
                0x00012bae        0x2 build/default/debug/_ext/1171490990/startup_xc32.o
                0x00012bae                _on_reset
                0x00012bae                _on_bootstrap
                0x00012bae                __xc32_on_reset
                0x00012bae                Dummy_App_Func
                0x00012bae                __xc32_on_bootstrap

.text.__dummy%1123
                0x000130a6        0x2
 .text.__dummy  0x000130a6        0x2 c:/program files/microchip/xc32/v4.00/bin/bin/../../lib/gcc/pic32c/8.3.1/../../../../pic32c/lib/thumb/v7e-m+fp/hard\libg-musl.a(__libc_start_main.o)
                0x000130a6                __init_stdio
                0x000130a6                __init_host
